

Microchip MPLAB XC8 Assembler V2.36 build 20220127204148 
                                                                                               Wed Aug 10 19:06:28 2022

Microchip MPLAB XC8 C Compiler v2.36 (Free license) build 20220127204148 Og1 
     1                           	processor	16F887
     2                           	pagewidth 120
     3                           	opt	flic
     4                           	psect	strings,global,class=STRING,delta=2,noexec
     5                           	psect	cinit,global,class=CODE,merge=1,delta=2
     6                           	psect	bssBANK0,global,class=BANK0,space=1,delta=1,noexec
     7                           	psect	bssBANK1,global,class=BANK1,space=1,delta=1,noexec
     8                           	psect	cstackBANK1,global,class=BANK1,space=1,delta=1,noexec
     9                           	psect	cstackCOMMON,global,class=COMMON,space=1,delta=1,noexec
    10                           	psect	cstackBANK0,global,class=BANK0,space=1,delta=1,noexec
    11                           	psect	maintext,global,class=CODE,split=1,delta=2
    12                           	psect	text1,local,class=CODE,merge=1,delta=2,group=1
    13                           	psect	text2,local,class=CODE,merge=1,delta=2,group=2
    14                           	psect	text3,local,class=CODE,merge=1,delta=2,group=2
    15                           	psect	text4,local,class=CODE,merge=1,delta=2,group=3
    16                           	psect	text5,local,class=CODE,merge=1,delta=2,group=3
    17                           	psect	text6,local,class=CODE,merge=1,delta=2,group=2
    18                           	psect	text7,local,class=CODE,merge=1,delta=2,group=3
    19                           	psect	text8,local,class=CODE,merge=1,delta=2,group=2
    20                           	psect	text9,local,class=CODE,merge=1,delta=2,group=2
    21                           	psect	text10,local,class=CODE,merge=1,delta=2,group=2
    22                           	psect	text11,local,class=CODE,merge=1,delta=2,group=2
    23                           	psect	text12,local,class=CODE,merge=1,delta=2,group=2
    24                           	psect	text13,local,class=CODE,merge=1,delta=2,group=2
    25                           	psect	text14,local,class=CODE,merge=1,delta=2,group=2
    26                           	psect	text15,local,class=CODE,merge=1,delta=2,group=2
    27                           	psect	text16,local,class=CODE,merge=1,delta=2
    28                           	psect	text17,local,class=CODE,merge=1,delta=2
    29                           	psect	text18,local,class=CODE,merge=1,delta=2
    30                           	psect	text19,local,class=CODE,merge=1,delta=2
    31                           	psect	text20,local,class=CODE,merge=1,delta=2
    32                           	psect	idloc,global,abs,ovrld,class=IDLOC,space=5,delta=2,noexec
    33                           	psect	config,global,abs,ovrld,class=CONFIG,space=4,delta=2,noexec
    34                           	dabs	1,0x7E,2
    35  0000                     
    36                           ; Version 2.40
    37                           ; Generated 17/11/2021 GMT
    38                           ; 
    39                           ; Copyright © 2021, Microchip Technology Inc. and its subsidiaries ("Microchip")
    40                           ; All rights reserved.
    41                           ; 
    42                           ; This software is developed by Microchip Technology Inc. and its subsidiaries ("Microch
      +                          ip").
    43                           ; 
    44                           ; Redistribution and use in source and binary forms, with or without modification, are
    45                           ; permitted provided that the following conditions are met:
    46                           ; 
    47                           ;     1. Redistributions of source code must retain the above copyright notice, this lis
      +                          t of
    48                           ;        conditions and the following disclaimer.
    49                           ; 
    50                           ;     2. Redistributions in binary form must reproduce the above copyright notice, this 
      +                          list
    51                           ;        of conditions and the following disclaimer in the documentation and/or other
    52                           ;        materials provided with the distribution. Publication is not required when
    53                           ;        this file is used in an embedded application.
    54                           ; 
    55                           ;     3. Microchip's name may not be used to endorse or promote products derived from th
      +                          is
    56                           ;        software without specific prior written permission.
    57                           ; 
    58                           ; THIS SOFTWARE IS PROVIDED BY MICROCHIP "AS IS" AND ANY EXPRESS OR IMPLIED WARRANTIES,
    59                           ; INCLUDING, BUT NOT LIMITED TO, THE IMPLIED WARRANTIES OF MERCHANTABILITY AND FITNESS F
      +                          OR
    60                           ; PURPOSE ARE DISCLAIMED.  IN NO EVENT SHALL MICROCHIP BE LIABLE FOR ANY DIRECT, INDIREC
      +                          T,
    61                           ; INCIDENTAL, SPECIAL, EXEMPLARY, OR CONSEQUENTIAL DAMAGES (INCLUDING BUT NOT LIMITED TO
    62                           ; PROCUREMENT OF SUBSTITUTE GOODS OR SERVICES; LOSS OF USE, DATA OR PROFITS; OR BUSINESS
    63                           ; INTERRUPTION) HOWSOEVER CAUSED AND ON ANY THEORY OF LIABILITY, WHETHER IN CONTRACT, ST
      +                          RICT
    64                           ; LIABILITY, OR TORT (INCLUDING NEGLIGENCE OR OTHERWISE) ARISING IN ANY WAY OUT OF THE U
      +                          SE OF
    65                           ; THIS SOFTWARE, EVEN IF ADVISED OF THE POSSIBILITY OF SUCH DAMAGE.
    66                           ; 
    67                           ; 
    68                           ; Code-generator required, PIC16F887 Definitions
    69                           ; 
    70                           ; SFR Addresses
    71  0000                     	;# 
    72  0001                     	;# 
    73  0002                     	;# 
    74  0003                     	;# 
    75  0004                     	;# 
    76  0005                     	;# 
    77  0006                     	;# 
    78  0007                     	;# 
    79  0008                     	;# 
    80  0009                     	;# 
    81  000A                     	;# 
    82  000B                     	;# 
    83  000C                     	;# 
    84  000D                     	;# 
    85  000E                     	;# 
    86  000E                     	;# 
    87  000F                     	;# 
    88  0010                     	;# 
    89  0011                     	;# 
    90  0012                     	;# 
    91  0013                     	;# 
    92  0014                     	;# 
    93  0015                     	;# 
    94  0015                     	;# 
    95  0016                     	;# 
    96  0017                     	;# 
    97  0018                     	;# 
    98  0019                     	;# 
    99  001A                     	;# 
   100  001B                     	;# 
   101  001B                     	;# 
   102  001C                     	;# 
   103  001D                     	;# 
   104  001E                     	;# 
   105  001F                     	;# 
   106  0081                     	;# 
   107  0085                     	;# 
   108  0086                     	;# 
   109  0087                     	;# 
   110  0088                     	;# 
   111  0089                     	;# 
   112  008C                     	;# 
   113  008D                     	;# 
   114  008E                     	;# 
   115  008F                     	;# 
   116  0090                     	;# 
   117  0091                     	;# 
   118  0092                     	;# 
   119  0093                     	;# 
   120  0093                     	;# 
   121  0093                     	;# 
   122  0094                     	;# 
   123  0095                     	;# 
   124  0096                     	;# 
   125  0097                     	;# 
   126  0098                     	;# 
   127  0099                     	;# 
   128  009A                     	;# 
   129  009B                     	;# 
   130  009C                     	;# 
   131  009D                     	;# 
   132  009E                     	;# 
   133  009F                     	;# 
   134  0105                     	;# 
   135  0107                     	;# 
   136  0108                     	;# 
   137  0109                     	;# 
   138  010C                     	;# 
   139  010C                     	;# 
   140  010D                     	;# 
   141  010E                     	;# 
   142  010F                     	;# 
   143  0185                     	;# 
   144  0187                     	;# 
   145  0188                     	;# 
   146  0189                     	;# 
   147  018C                     	;# 
   148  018D                     	;# 
   149  0000                     	;# 
   150  0001                     	;# 
   151  0002                     	;# 
   152  0003                     	;# 
   153  0004                     	;# 
   154  0005                     	;# 
   155  0006                     	;# 
   156  0007                     	;# 
   157  0008                     	;# 
   158  0009                     	;# 
   159  000A                     	;# 
   160  000B                     	;# 
   161  000C                     	;# 
   162  000D                     	;# 
   163  000E                     	;# 
   164  000E                     	;# 
   165  000F                     	;# 
   166  0010                     	;# 
   167  0011                     	;# 
   168  0012                     	;# 
   169  0013                     	;# 
   170  0014                     	;# 
   171  0015                     	;# 
   172  0015                     	;# 
   173  0016                     	;# 
   174  0017                     	;# 
   175  0018                     	;# 
   176  0019                     	;# 
   177  001A                     	;# 
   178  001B                     	;# 
   179  001B                     	;# 
   180  001C                     	;# 
   181  001D                     	;# 
   182  001E                     	;# 
   183  001F                     	;# 
   184  0081                     	;# 
   185  0085                     	;# 
   186  0086                     	;# 
   187  0087                     	;# 
   188  0088                     	;# 
   189  0089                     	;# 
   190  008C                     	;# 
   191  008D                     	;# 
   192  008E                     	;# 
   193  008F                     	;# 
   194  0090                     	;# 
   195  0091                     	;# 
   196  0092                     	;# 
   197  0093                     	;# 
   198  0093                     	;# 
   199  0093                     	;# 
   200  0094                     	;# 
   201  0095                     	;# 
   202  0096                     	;# 
   203  0097                     	;# 
   204  0098                     	;# 
   205  0099                     	;# 
   206  009A                     	;# 
   207  009B                     	;# 
   208  009C                     	;# 
   209  009D                     	;# 
   210  009E                     	;# 
   211  009F                     	;# 
   212  0105                     	;# 
   213  0107                     	;# 
   214  0108                     	;# 
   215  0109                     	;# 
   216  010C                     	;# 
   217  010C                     	;# 
   218  010D                     	;# 
   219  010E                     	;# 
   220  010F                     	;# 
   221  0185                     	;# 
   222  0187                     	;# 
   223  0188                     	;# 
   224  0189                     	;# 
   225  018C                     	;# 
   226  018D                     	;# 
   227  0000                     	;# 
   228  0001                     	;# 
   229  0002                     	;# 
   230  0003                     	;# 
   231  0004                     	;# 
   232  0005                     	;# 
   233  0006                     	;# 
   234  0007                     	;# 
   235  0008                     	;# 
   236  0009                     	;# 
   237  000A                     	;# 
   238  000B                     	;# 
   239  000C                     	;# 
   240  000D                     	;# 
   241  000E                     	;# 
   242  000E                     	;# 
   243  000F                     	;# 
   244  0010                     	;# 
   245  0011                     	;# 
   246  0012                     	;# 
   247  0013                     	;# 
   248  0014                     	;# 
   249  0015                     	;# 
   250  0015                     	;# 
   251  0016                     	;# 
   252  0017                     	;# 
   253  0018                     	;# 
   254  0019                     	;# 
   255  001A                     	;# 
   256  001B                     	;# 
   257  001B                     	;# 
   258  001C                     	;# 
   259  001D                     	;# 
   260  001E                     	;# 
   261  001F                     	;# 
   262  0081                     	;# 
   263  0085                     	;# 
   264  0086                     	;# 
   265  0087                     	;# 
   266  0088                     	;# 
   267  0089                     	;# 
   268  008C                     	;# 
   269  008D                     	;# 
   270  008E                     	;# 
   271  008F                     	;# 
   272  0090                     	;# 
   273  0091                     	;# 
   274  0092                     	;# 
   275  0093                     	;# 
   276  0093                     	;# 
   277  0093                     	;# 
   278  0094                     	;# 
   279  0095                     	;# 
   280  0096                     	;# 
   281  0097                     	;# 
   282  0098                     	;# 
   283  0099                     	;# 
   284  009A                     	;# 
   285  009B                     	;# 
   286  009C                     	;# 
   287  009D                     	;# 
   288  009E                     	;# 
   289  009F                     	;# 
   290  0105                     	;# 
   291  0107                     	;# 
   292  0108                     	;# 
   293  0109                     	;# 
   294  010C                     	;# 
   295  010C                     	;# 
   296  010D                     	;# 
   297  010E                     	;# 
   298  010F                     	;# 
   299  0185                     	;# 
   300  0187                     	;# 
   301  0188                     	;# 
   302  0189                     	;# 
   303  018C                     	;# 
   304  018D                     	;# 
   305                           
   306                           	psect	strings
   307  0003                     __pstrings:
   308  0003                     stringtab:
   309  0003                     __stringtab:
   310                           
   311                           ;	String table - string pointers are 1 byte each
   312  0003  1BFF               	btfsc	btemp+1,7
   313  0004  280D               	ljmp	stringcode
   314  0005  1383               	bcf	3,7
   315  0006  187F               	btfsc	btemp+1,0
   316  0007  1783               	bsf	3,7
   317  0008  0800               	movf	0,w
   318  0009  0A84               	incf	4,f
   319  000A  1903               	skipnz
   320  000B  0AFF               	incf	btemp+1,f
   321  000C  0008               	return
   322  000D                     stringcode:
   323  000D                     stringdir:
   324  000D  3000               	movlw	high stringdir
   325  000E  008A               	movwf	10
   326  000F  0804               	movf	4,w
   327  0010  0A84               	incf	4,f
   328  0011  0782               	addwf	2,f
   329  0012                     __stringbase:
   330  0012  3400               	retlw	0
   331  0013                     __end_of__stringtab:
   332  0013                     _dpowers:
   333  0013  3401               	retlw	1
   334  0014  3400               	retlw	0
   335  0015  340A               	retlw	10
   336  0016  3400               	retlw	0
   337  0017  3464               	retlw	100
   338  0018  3400               	retlw	0
   339  0019  34E8               	retlw	232
   340  001A  3403               	retlw	3
   341  001B  3410               	retlw	16
   342  001C  3427               	retlw	39
   343  001D                     __end_of_dpowers:
   344  001D                     log@coeff:
   345  001D  3400               	retlw	0
   346  001E  3400               	retlw	0
   347  001F  3400               	retlw	0
   348  0020  3400               	retlw	0
   349  0021  34C4               	retlw	196
   350  0022  34FF               	retlw	255
   351  0023  347F               	retlw	127
   352  0024  343F               	retlw	63
   353  0025  3480               	retlw	128
   354  0026  34EF               	retlw	239
   355  0027  34FF               	retlw	255
   356  0028  34BE               	retlw	190
   357  0029  3490               	retlw	144
   358  002A  34E1               	retlw	225
   359  002B  34A9               	retlw	169
   360  002C  343E               	retlw	62
   361  002D  34EC               	retlw	236
   362  002E  3482               	retlw	130
   363  002F  3476               	retlw	118
   364  0030  34BE               	retlw	190
   365  0031  3482               	retlw	130
   366  0032  34AD               	retlw	173
   367  0033  342B               	retlw	43
   368  0034  343E               	retlw	62
   369  0035  340E               	retlw	14
   370  0036  343C               	retlw	60
   371  0037  34C3               	retlw	195
   372  0038  34BD               	retlw	189
   373  0039  3487               	retlw	135
   374  003A  34D1               	retlw	209
   375  003B  3413               	retlw	19
   376  003C  343D               	retlw	61
   377  003D  3441               	retlw	65
   378  003E  3478               	retlw	120
   379  003F  34D3               	retlw	211
   380  0040  34BB               	retlw	187
   381  0041                     __end_oflog@coeff:
   382  0008                     _PORTDbits	set	8
   383  0008                     _PORTD	set	8
   384  001E                     _ADRESH	set	30
   385  0007                     _PORTCbits	set	7
   386  001F                     _ADCON0bits	set	31
   387  0005                     _PORTA	set	5
   388  0088                     _TRISD	set	136
   389  009E                     _ADRESL	set	158
   390  009F                     _ADCON1bits	set	159
   391  0085                     _TRISA	set	133
   392  0087                     _TRISC	set	135
   393  008F                     _OSCCON	set	143
   394  043D                     _TRISC5	set	1085
   395  0439                     _TRISC1	set	1081
   396  043E                     _TRISC6	set	1086
   397  043A                     _TRISC2	set	1082
   398  043C                     _TRISC4	set	1084
   399  043B                     _TRISC3	set	1083
   400  0438                     _TRISC0	set	1080
   401  042B                     _TRISA3	set	1067
   402  042A                     _TRISA2	set	1066
   403  0429                     _TRISA1	set	1065
   404  0428                     _TRISA0	set	1064
   405  0188                     _ANSEL	set	392
   406  0189                     _ANSELH	set	393
   407  0041                     STR_4:
   408  0041  3444               	retlw	68	;'D'
   409  0042  3469               	retlw	105	;'i'
   410  0043  3473               	retlw	115	;'s'
   411  0044  346D               	retlw	109	;'m'
   412  0045  3469               	retlw	105	;'i'
   413  0046  346E               	retlw	110	;'n'
   414  0047  3475               	retlw	117	;'u'
   415  0048  3469               	retlw	105	;'i'
   416  0049  3472               	retlw	114	;'r'
   417  004A  3420               	retlw	32	;' '
   418  004B  3454               	retlw	84	;'T'
   419  004C  3465               	retlw	101	;'e'
   420  004D  346D               	retlw	109	;'m'
   421  004E  3470               	retlw	112	;'p'
   422  004F  3400               	retlw	0
   423  0050                     STR_6:
   424  0050  3454               	retlw	84	;'T'
   425  0051  3465               	retlw	101	;'e'
   426  0052  346D               	retlw	109	;'m'
   427  0053  3470               	retlw	112	;'p'
   428  0054  3420               	retlw	32	;' '
   429  0055  3441               	retlw	65	;'A'
   430  0056  3464               	retlw	100	;'d'
   431  0057  3465               	retlw	101	;'e'
   432  0058  3463               	retlw	99	;'c'
   433  0059  3475               	retlw	117	;'u'
   434  005A  3461               	retlw	97	;'a'
   435  005B  3464               	retlw	100	;'d'
   436  005C  3461               	retlw	97	;'a'
   437  005D  3400               	retlw	0
   438  005E                     STR_5:
   439  005E  3441               	retlw	65	;'A'
   440  005F  3475               	retlw	117	;'u'
   441  0060  346D               	retlw	109	;'m'
   442  0061  3465               	retlw	101	;'e'
   443  0062  346E               	retlw	110	;'n'
   444  0063  3474               	retlw	116	;'t'
   445  0064  3461               	retlw	97	;'a'
   446  0065  3472               	retlw	114	;'r'
   447  0066  3420               	retlw	32	;' '
   448  0067  3454               	retlw	84	;'T'
   449  0068  3465               	retlw	101	;'e'
   450  0069  346D               	retlw	109	;'m'
   451  006A  3470               	retlw	112	;'p'
   452  006B  3400               	retlw	0
   453  006C                     STR_2:
   454  006C  3454               	retlw	84	;'T'
   455  006D  3465               	retlw	101	;'e'
   456  006E  346D               	retlw	109	;'m'
   457  006F  3470               	retlw	112	;'p'
   458  0070  3465               	retlw	101	;'e'
   459  0071  3472               	retlw	114	;'r'
   460  0072  3461               	retlw	97	;'a'
   461  0073  3474               	retlw	116	;'t'
   462  0074  3475               	retlw	117	;'u'
   463  0075  3472               	retlw	114	;'r'
   464  0076  3461               	retlw	97	;'a'
   465  0077  343A               	retlw	58	;':'
   466  0078  3400               	retlw	0
   467  0079                     STR_1:
   468  0079  3425               	retlw	37	;'%'
   469  007A  3464               	retlw	100	;'d'
   470  007B  3425               	retlw	37	;'%'
   471  007C  3463               	retlw	99	;'c'
   472  007D  3443               	retlw	67	;'C'
   473  007E  3400               	retlw	0
   474  007F                     STR_3:
   475  007F  3420               	retlw	32	;' '
   476  0080  3420               	retlw	32	;' '
   477  0081  3400               	retlw	0
   478                           
   479                           	psect	cinit
   480  07EE                     start_initialization:	
   481                           ; #config settings
   482                           
   483  07EE                     __initialization:
   484                           
   485                           ; Clear objects allocated to BANK0
   486  07EE  1283               	bcf	3,5	;RP0=0, select bank0
   487  07EF  1303               	bcf	3,6	;RP1=0, select bank0
   488  07F0  01EF               	clrf	__pbssBANK0& (0+127)
   489                           
   490                           ; Clear objects allocated to BANK1
   491  07F1  1683               	bsf	3,5	;RP0=1, select bank1
   492  07F2  1303               	bcf	3,6	;RP1=0, select bank1
   493  07F3  01E2               	clrf	__pbssBANK1& (0+127)
   494  07F4  01E3               	clrf	(__pbssBANK1+1)& (0+127)
   495  07F5  01E4               	clrf	(__pbssBANK1+2)& (0+127)
   496  07F6  01E5               	clrf	(__pbssBANK1+3)& (0+127)
   497  07F7  01E6               	clrf	(__pbssBANK1+4)& (0+127)
   498  07F8  01E7               	clrf	(__pbssBANK1+5)& (0+127)
   499  07F9  01E8               	clrf	(__pbssBANK1+6)& (0+127)
   500  07FA  01E9               	clrf	(__pbssBANK1+7)& (0+127)
   501  07FB  01EA               	clrf	(__pbssBANK1+8)& (0+127)
   502  07FC                     end_of_initialization:	
   503                           ;End of C runtime variable initialization code
   504                           
   505  07FC                     __end_of__initialization:
   506  07FC  0183               	clrf	3
   507  07FD  120A  118A  29DD   	ljmp	_main	;jump to C main() function
   508                           
   509                           	psect	bssBANK0
   510  006F                     __pbssBANK0:
   511  006F                     _counter_digito:
   512  006F                     	ds	1
   513                           
   514                           	psect	bssBANK1
   515  00E2                     __pbssBANK1:
   516  00E2                     _temp:
   517  00E2                     	ds	4
   518  00E6                     _errno:
   519  00E6                     	ds	2
   520  00E8                     _value_adc:
   521  00E8                     	ds	2
   522  00EA                     _lm35:
   523  00EA                     	ds	1
   524                           
   525                           	psect	cstackBANK1
   526  00A0                     __pcstackBANK1:
   527  00A0                     ?_eval_poly:
   528  00A0                     ?___flsub:	
   529                           ; 4 bytes @ 0x0
   530                           
   531  00A0                     ___flsub@a:	
   532                           ; 4 bytes @ 0x0
   533                           
   534  00A0                     eval_poly@x:	
   535                           ; 4 bytes @ 0x0
   536                           
   537                           
   538                           ; 4 bytes @ 0x0
   539  00A0                     	ds	4
   540  00A4                     eval_poly@d:
   541  00A4                     ___flsub@b:	
   542                           ; 1 bytes @ 0x4
   543                           
   544                           
   545                           ; 4 bytes @ 0x4
   546  00A4                     	ds	1
   547  00A5                     eval_poly@n:
   548                           
   549                           ; 2 bytes @ 0x5
   550  00A5                     	ds	2
   551  00A7                     ??_eval_poly:
   552                           
   553                           ; 1 bytes @ 0x7
   554  00A7                     	ds	1
   555  00A8                     ?___fltol:
   556  00A8                     ___fltol@f1:	
   557                           ; 4 bytes @ 0x8
   558                           
   559                           
   560                           ; 4 bytes @ 0x8
   561  00A8                     	ds	4
   562  00AC                     ??___fltol:
   563  00AC                     eval_poly@res:	
   564                           ; 1 bytes @ 0xC
   565                           
   566                           
   567                           ; 4 bytes @ 0xC
   568  00AC                     	ds	4
   569  00B0                     ?_log:
   570  00B0                     log@x:	
   571                           ; 4 bytes @ 0x10
   572                           
   573                           
   574                           ; 4 bytes @ 0x10
   575  00B0                     	ds	1
   576  00B1                     ?_sprintf:
   577  00B1                     sprintf@f:	
   578                           ; 2 bytes @ 0x11
   579                           
   580                           
   581                           ; 1 bytes @ 0x11
   582  00B1                     	ds	3
   583  00B4                     log@exponent:
   584                           
   585                           ; 2 bytes @ 0x14
   586  00B4                     	ds	2
   587  00B6                     ??_sprintf:
   588                           
   589                           ; 1 bytes @ 0x16
   590  00B6                     	ds	3
   591  00B9                     sprintf@flag:
   592                           
   593                           ; 1 bytes @ 0x19
   594  00B9                     	ds	1
   595  00BA                     sprintf@prec:
   596                           
   597                           ; 1 bytes @ 0x1A
   598  00BA                     	ds	1
   599  00BB                     sprintf@ap:
   600                           
   601                           ; 1 bytes @ 0x1B
   602  00BB                     	ds	1
   603  00BC                     sprintf@val:
   604                           
   605                           ; 2 bytes @ 0x1C
   606  00BC                     	ds	2
   607  00BE                     sprintf@sp:
   608                           
   609                           ; 1 bytes @ 0x1E
   610  00BE                     	ds	1
   611  00BF                     sprintf@c:
   612                           
   613                           ; 1 bytes @ 0x1F
   614  00BF                     	ds	1
   615  00C0                     ??_main:
   616                           
   617                           ; 1 bytes @ 0x20
   618  00C0                     	ds	4
   619  00C4                     main@Temperature:
   620                           
   621                           ; 10 bytes @ 0x24
   622  00C4                     	ds	10
   623  00CE                     main@a:
   624                           
   625                           ; 4 bytes @ 0x2E
   626  00CE                     	ds	4
   627  00D2                     _main$938:
   628                           
   629                           ; 4 bytes @ 0x32
   630  00D2                     	ds	4
   631  00D6                     _main$939:
   632                           
   633                           ; 4 bytes @ 0x36
   634  00D6                     	ds	4
   635  00DA                     _main$940:
   636                           
   637                           ; 4 bytes @ 0x3A
   638  00DA                     	ds	4
   639  00DE                     main@tempC:
   640                           
   641                           ; 4 bytes @ 0x3E
   642  00DE                     	ds	4
   643                           
   644                           	psect	cstackCOMMON
   645  0070                     __pcstackCOMMON:
   646  0070                     ?___fleq:
   647  0070                     ?___flge:	
   648                           ; 1 bit 
   649                           
   650  0070                     ?_LCD_Init:	
   651                           ; 1 bit 
   652                           
   653  0070                     ?_LCD_Command:	
   654                           ; 1 bytes @ 0x0
   655                           
   656  0070                     ??_LCD_Command:	
   657                           ; 1 bytes @ 0x0
   658                           
   659  0070                     ?_main:	
   660                           ; 1 bytes @ 0x0
   661                           
   662  0070                     ?_LCD_Char:	
   663                           ; 1 bytes @ 0x0
   664                           
   665  0070                     ??_LCD_Char:	
   666                           ; 1 bytes @ 0x0
   667                           
   668  0070                     ?__Umul8_16:	
   669                           ; 1 bytes @ 0x0
   670                           
   671  0070                     ?___lwdiv:	
   672                           ; 2 bytes @ 0x0
   673                           
   674  0070                     ?___xxtofl:	
   675                           ; 2 bytes @ 0x0
   676                           
   677  0070                     __Umul8_16@multiplicand:	
   678                           ; 4 bytes @ 0x0
   679                           
   680  0070                     ___lwdiv@divisor:	
   681                           ; 1 bytes @ 0x0
   682                           
   683  0070                     ___fleq@ff1:	
   684                           ; 2 bytes @ 0x0
   685                           
   686  0070                     ___flge@ff1:	
   687                           ; 4 bytes @ 0x0
   688                           
   689  0070                     ___xxtofl@val:	
   690                           ; 4 bytes @ 0x0
   691                           
   692                           
   693                           ; 4 bytes @ 0x0
   694  0070                     	ds	2
   695  0072                     ??__Umul8_16:
   696  0072                     LCD_Command@cmd:	
   697                           ; 1 bytes @ 0x2
   698                           
   699  0072                     LCD_Char@dat:	
   700                           ; 1 bytes @ 0x2
   701                           
   702  0072                     ___lwdiv@dividend:	
   703                           ; 1 bytes @ 0x2
   704                           
   705                           
   706                           ; 2 bytes @ 0x2
   707  0072                     	ds	1
   708  0073                     ??_LCD_Init:
   709  0073                     ?_LCD_String:	
   710                           ; 1 bytes @ 0x3
   711                           
   712  0073                     LCD_String@msg:	
   713                           ; 1 bytes @ 0x3
   714                           
   715                           
   716                           ; 2 bytes @ 0x3
   717  0073                     	ds	1
   718  0074                     ??___lwdiv:
   719  0074                     ??___xxtofl:	
   720                           ; 1 bytes @ 0x4
   721                           
   722  0074                     __Umul8_16@product:	
   723                           ; 1 bytes @ 0x4
   724                           
   725  0074                     ___fleq@ff2:	
   726                           ; 2 bytes @ 0x4
   727                           
   728  0074                     ___flge@ff2:	
   729                           ; 4 bytes @ 0x4
   730                           
   731                           
   732                           ; 4 bytes @ 0x4
   733  0074                     	ds	1
   734  0075                     ?_LCD_String_xy:
   735  0075                     ??_LCD_String:	
   736                           ; 1 bytes @ 0x5
   737                           
   738  0075                     LCD_String_xy@pos:	
   739                           ; 1 bytes @ 0x5
   740                           
   741  0075                     ___lwdiv@quotient:	
   742                           ; 1 bytes @ 0x5
   743                           
   744                           
   745                           ; 2 bytes @ 0x5
   746  0075                     	ds	1
   747  0076                     LCD_String_xy@msg:
   748  0076                     __Umul8_16@word_mpld:	
   749                           ; 1 bytes @ 0x6
   750                           
   751                           
   752                           ; 2 bytes @ 0x6
   753  0076                     	ds	1
   754  0077                     ??_LCD_String_xy:
   755  0077                     ___lwdiv@counter:	
   756                           ; 1 bytes @ 0x7
   757                           
   758                           
   759                           ; 1 bytes @ 0x7
   760  0077                     	ds	1
   761  0078                     ??___fleq:
   762  0078                     ??___flge:	
   763                           ; 1 bytes @ 0x8
   764                           
   765  0078                     ?___lwmod:	
   766                           ; 1 bytes @ 0x8
   767                           
   768  0078                     LCD_String_xy@row:	
   769                           ; 2 bytes @ 0x8
   770                           
   771  0078                     __Umul8_16@multiplier:	
   772                           ; 1 bytes @ 0x8
   773                           
   774  0078                     ___xxtofl@sign:	
   775                           ; 1 bytes @ 0x8
   776                           
   777  0078                     ___lwmod@divisor:	
   778                           ; 1 bytes @ 0x8
   779                           
   780                           
   781                           ; 2 bytes @ 0x8
   782  0078                     	ds	1
   783  0079                     LCD_String_xy@location:
   784  0079                     ___xxtofl@exp:	
   785                           ; 1 bytes @ 0x9
   786                           
   787                           
   788                           ; 1 bytes @ 0x9
   789  0079                     	ds	1
   790  007A                     ___lwmod@dividend:
   791  007A                     ___xxtofl@arg:	
   792                           ; 2 bytes @ 0xA
   793                           
   794                           
   795                           ; 4 bytes @ 0xA
   796  007A                     	ds	2
   797  007C                     ??_frexp:
   798  007C                     ??___lwmod:	
   799                           ; 1 bytes @ 0xC
   800                           
   801                           
   802                           ; 1 bytes @ 0xC
   803  007C                     	ds	1
   804  007D                     ___lwmod@counter:
   805                           
   806                           ; 1 bytes @ 0xD
   807  007D                     	ds	1
   808  007E                     ??___flsub:
   809                           
   810                           	psect	cstackBANK0
   811  0020                     __pcstackBANK0:	
   812                           ; 1 bytes @ 0xE
   813                           
   814  0020                     ?_frexp:
   815  0020                     frexp@value:	
   816                           ; 4 bytes @ 0x0
   817                           
   818                           
   819                           ; 4 bytes @ 0x0
   820  0020                     	ds	4
   821  0024                     frexp@eptr:
   822                           
   823                           ; 1 bytes @ 0x4
   824  0024                     	ds	1
   825  0025                     ?___flmul:
   826  0025                     ___flmul@b:	
   827                           ; 4 bytes @ 0x5
   828                           
   829                           
   830                           ; 4 bytes @ 0x5
   831  0025                     	ds	4
   832  0029                     ___flmul@a:
   833                           
   834                           ; 4 bytes @ 0x9
   835  0029                     	ds	4
   836  002D                     ??___flmul:
   837                           
   838                           ; 1 bytes @ 0xD
   839  002D                     	ds	5
   840  0032                     ___flmul@sign:
   841                           
   842                           ; 1 bytes @ 0x12
   843  0032                     	ds	1
   844  0033                     ___flmul@grs:
   845                           
   846                           ; 4 bytes @ 0x13
   847  0033                     	ds	4
   848  0037                     ___flmul@aexp:
   849                           
   850                           ; 1 bytes @ 0x17
   851  0037                     	ds	1
   852  0038                     ___flmul@bexp:
   853                           
   854                           ; 1 bytes @ 0x18
   855  0038                     	ds	1
   856  0039                     ___flmul@prod:
   857                           
   858                           ; 4 bytes @ 0x19
   859  0039                     	ds	4
   860  003D                     ___flmul@temp:
   861                           
   862                           ; 2 bytes @ 0x1D
   863  003D                     	ds	2
   864  003F                     ?___fldiv:
   865  003F                     ___fldiv@a:	
   866                           ; 4 bytes @ 0x1F
   867                           
   868                           
   869                           ; 4 bytes @ 0x1F
   870  003F                     	ds	4
   871  0043                     ___fldiv@b:
   872                           
   873                           ; 4 bytes @ 0x23
   874  0043                     	ds	4
   875  0047                     ??___fldiv:
   876                           
   877                           ; 1 bytes @ 0x27
   878  0047                     	ds	5
   879  004C                     ___fldiv@rem:
   880                           
   881                           ; 4 bytes @ 0x2C
   882  004C                     	ds	4
   883  0050                     ___fldiv@sign:
   884                           
   885                           ; 1 bytes @ 0x30
   886  0050                     	ds	1
   887  0051                     ___fldiv@new_exp:
   888                           
   889                           ; 2 bytes @ 0x31
   890  0051                     	ds	2
   891  0053                     ___fldiv@grs:
   892                           
   893                           ; 4 bytes @ 0x33
   894  0053                     	ds	4
   895  0057                     ___fldiv@bexp:
   896                           
   897                           ; 1 bytes @ 0x37
   898  0057                     	ds	1
   899  0058                     ___fldiv@aexp:
   900                           
   901                           ; 1 bytes @ 0x38
   902  0058                     	ds	1
   903  0059                     ?___fladd:
   904  0059                     ___fladd@b:	
   905                           ; 4 bytes @ 0x39
   906                           
   907                           
   908                           ; 4 bytes @ 0x39
   909  0059                     	ds	4
   910  005D                     ___fladd@a:
   911                           
   912                           ; 4 bytes @ 0x3D
   913  005D                     	ds	4
   914  0061                     ??___fladd:
   915                           
   916                           ; 1 bytes @ 0x41
   917  0061                     	ds	8
   918  0069                     ___fladd@signs:
   919                           
   920                           ; 1 bytes @ 0x49
   921  0069                     	ds	1
   922  006A                     ___fladd@aexp:
   923                           
   924                           ; 1 bytes @ 0x4A
   925  006A                     	ds	1
   926  006B                     ___fladd@bexp:
   927                           
   928                           ; 1 bytes @ 0x4B
   929  006B                     	ds	1
   930  006C                     ___fladd@grs:
   931                           
   932                           ; 1 bytes @ 0x4C
   933  006C                     	ds	1
   934  006D                     ??_log:
   935  006D                     ___fltol@sign1:	
   936                           ; 1 bytes @ 0x4D
   937                           
   938                           
   939                           ; 1 bytes @ 0x4D
   940  006D                     	ds	1
   941  006E                     ___fltol@exp1:
   942                           
   943                           ; 1 bytes @ 0x4E
   944  006E                     	ds	1
   945                           
   946                           	psect	maintext
   947  01DD                     __pmaintext:	
   948 ;;
   949 ;;Main: autosize = 0, tempsize = 4, incstack = 0, save=0
   950 ;;
   951 ;; *************** function _main *****************
   952 ;; Defined at:
   953 ;;		line 29 in file "main.c"
   954 ;; Parameters:    Size  Location     Type
   955 ;;		None
   956 ;; Auto vars:     Size  Location     Type
   957 ;;  Temperature    10   36[BANK1 ] unsigned char [10]
   958 ;;  tempC           4   62[BANK1 ] float 
   959 ;;  a               4   46[BANK1 ] long 
   960 ;; Return value:  Size  Location     Type
   961 ;;                  1    wreg      void 
   962 ;; Registers used:
   963 ;;		wreg, fsr0l, fsr0h, status,2, status,0, btemp+1, pclath, cstack
   964 ;; Tracked objects:
   965 ;;		On entry : B00/0
   966 ;;		On exit  : 0/0
   967 ;;		Unchanged: 0/0
   968 ;; Data sizes:     COMMON   BANK0   BANK1   BANK3   BANK2
   969 ;;      Params:         0       0       0       0       0
   970 ;;      Locals:         0       0      30       0       0
   971 ;;      Temps:          0       0       4       0       0
   972 ;;      Totals:         0       0      34       0       0
   973 ;;Total ram usage:       34 bytes
   974 ;; Hardware stack levels required when called: 4
   975 ;; This function calls:
   976 ;;		_LCD_Init
   977 ;;		_LCD_String
   978 ;;		_LCD_String_xy
   979 ;;		___fladd
   980 ;;		___fldiv
   981 ;;		___flge
   982 ;;		___flsub
   983 ;;		___fltol
   984 ;;		___xxtofl
   985 ;;		_log
   986 ;;		_sprintf
   987 ;; This function is called by:
   988 ;;		Startup code after reset
   989 ;; This function uses a non-reentrant model
   990 ;;
   991                           
   992  01DD                     _main:	
   993                           ;psect for function _main
   994                           
   995  01DD                     l2649:	
   996                           ;incstack = 0
   997                           ; Regs used in _main: [wreg-fsr0h+status,2+status,0+btemp+1+pclath+cstack]
   998                           
   999                           
  1000                           ;main.c: 31:     OSCCON = 0x71;
  1001  01DD  3071               	movlw	113
  1002  01DE  1683               	bsf	3,5	;RP0=1, select bank1
  1003  01DF  1303               	bcf	3,6	;RP1=0, select bank1
  1004  01E0  008F               	movwf	15	;volatile
  1005  01E1                     l2651:
  1006                           
  1007                           ;main.c: 32:     ANSELH = 0x00;
  1008  01E1  1683               	bsf	3,5	;RP0=1, select bank3
  1009  01E2  1703               	bsf	3,6	;RP1=1, select bank3
  1010  01E3  0189               	clrf	9	;volatile
  1011  01E4                     l2653:
  1012                           
  1013                           ;main.c: 33:     TRISC = 0x00;
  1014  01E4  1683               	bsf	3,5	;RP0=1, select bank1
  1015  01E5  1303               	bcf	3,6	;RP1=0, select bank1
  1016  01E6  0187               	clrf	7	;volatile
  1017  01E7                     l2655:
  1018                           
  1019                           ;main.c: 34:     TRISA = 0x00;
  1020  01E7  0185               	clrf	5	;volatile
  1021  01E8                     l2657:
  1022                           
  1023                           ;main.c: 36:     ANSEL = 0x01;
  1024  01E8  3001               	movlw	1
  1025  01E9  1683               	bsf	3,5	;RP0=1, select bank3
  1026  01EA  1703               	bsf	3,6	;RP1=1, select bank3
  1027  01EB  0088               	movwf	8	;volatile
  1028                           
  1029                           ;main.c: 37:     PORTA = 0;
  1030  01EC  1283               	bcf	3,5	;RP0=0, select bank0
  1031  01ED  1303               	bcf	3,6	;RP1=0, select bank0
  1032  01EE  0185               	clrf	5	;volatile
  1033  01EF                     l2659:
  1034                           
  1035                           ;main.c: 38:     TRISA0 = 1;
  1036  01EF  1683               	bsf	3,5	;RP0=1, select bank1
  1037  01F0  1303               	bcf	3,6	;RP1=0, select bank1
  1038  01F1  1405               	bsf	5,0	;volatile
  1039  01F2                     l2661:
  1040                           
  1041                           ;main.c: 39:     TRISA1 = 0;
  1042  01F2  1085               	bcf	5,1	;volatile
  1043  01F3                     l2663:
  1044                           
  1045                           ;main.c: 40:     TRISA2 = 0;
  1046  01F3  1105               	bcf	5,2	;volatile
  1047  01F4                     l2665:
  1048                           
  1049                           ;main.c: 41:     TRISA3 = 0;
  1050  01F4  1185               	bcf	5,3	;volatile
  1051  01F5                     l2667:
  1052                           
  1053                           ;main.c: 44:     ADCON1bits.ADFM = 1;
  1054  01F5  179F               	bsf	31,7	;volatile
  1055  01F6                     l2669:
  1056                           
  1057                           ;main.c: 45:     ADCON1bits.VCFG0 = 0;
  1058  01F6  121F               	bcf	31,4	;volatile
  1059  01F7                     l2671:
  1060                           
  1061                           ;main.c: 46:     ADCON1bits.VCFG1 = 0;
  1062  01F7  129F               	bcf	31,5	;volatile
  1063  01F8                     l2673:
  1064                           
  1065                           ;main.c: 48:     ADCON0bits.CHS = 0b0000;
  1066  01F8  30C3               	movlw	-61
  1067  01F9  1283               	bcf	3,5	;RP0=0, select bank0
  1068  01FA  1303               	bcf	3,6	;RP1=0, select bank0
  1069  01FB  059F               	andwf	31,f	;volatile
  1070  01FC                     l2675:
  1071                           
  1072                           ;main.c: 49:     ADCON0bits.ADCS = 0b01;
  1073  01FC  081F               	movf	31,w	;volatile
  1074  01FD  393F               	andlw	-193
  1075  01FE  3840               	iorlw	64
  1076  01FF  009F               	movwf	31	;volatile
  1077  0200                     l2677:
  1078                           
  1079                           ;main.c: 50:     ADCON0bits.ADON = 1;
  1080  0200  141F               	bsf	31,0	;volatile
  1081  0201                     l2679:
  1082                           
  1083                           ;main.c: 53:     TRISC0 = 1;
  1084  0201  1683               	bsf	3,5	;RP0=1, select bank1
  1085  0202  1303               	bcf	3,6	;RP1=0, select bank1
  1086  0203  1407               	bsf	7,0	;volatile
  1087  0204                     l2681:
  1088                           
  1089                           ;main.c: 54:     TRISC3 = 0;
  1090  0204  1187               	bcf	7,3	;volatile
  1091  0205                     l2683:
  1092                           
  1093                           ;main.c: 55:     TRISC4 = 0;
  1094  0205  1207               	bcf	7,4	;volatile
  1095  0206                     l2685:
  1096                           
  1097                           ;main.c: 56:     PORTCbits.RC0 = 0;
  1098  0206  1283               	bcf	3,5	;RP0=0, select bank0
  1099  0207  1303               	bcf	3,6	;RP1=0, select bank0
  1100  0208  1007               	bcf	7,0	;volatile
  1101  0209                     l2687:
  1102                           
  1103                           ;main.c: 57:     PORTCbits.RC3 = 0;
  1104  0209  1187               	bcf	7,3	;volatile
  1105  020A                     l2689:
  1106                           
  1107                           ;main.c: 58:     PORTCbits.RC4 = 0;
  1108  020A  1207               	bcf	7,4	;volatile
  1109  020B                     l2691:
  1110                           
  1111                           ;main.c: 61:     TRISC2 = 1;
  1112  020B  1683               	bsf	3,5	;RP0=1, select bank1
  1113  020C  1303               	bcf	3,6	;RP1=0, select bank1
  1114  020D  1507               	bsf	7,2	;volatile
  1115  020E                     l2693:
  1116                           
  1117                           ;main.c: 62:     TRISC6 = 0;
  1118  020E  1307               	bcf	7,6	;volatile
  1119  020F                     l2695:
  1120                           
  1121                           ;main.c: 63:     PORTCbits.RC6 = 0;
  1122  020F  1283               	bcf	3,5	;RP0=0, select bank0
  1123  0210  1303               	bcf	3,6	;RP1=0, select bank0
  1124  0211  1307               	bcf	7,6	;volatile
  1125  0212                     l2697:
  1126                           
  1127                           ;main.c: 64:     PORTCbits.RC2 = 0;
  1128  0212  1107               	bcf	7,2	;volatile
  1129  0213                     l2699:
  1130                           
  1131                           ;main.c: 67:     TRISC1 = 1;
  1132  0213  1683               	bsf	3,5	;RP0=1, select bank1
  1133  0214  1303               	bcf	3,6	;RP1=0, select bank1
  1134  0215  1487               	bsf	7,1	;volatile
  1135  0216                     l2701:
  1136                           
  1137                           ;main.c: 68:     TRISC5 = 0;
  1138  0216  1287               	bcf	7,5	;volatile
  1139  0217                     l2703:
  1140                           
  1141                           ;main.c: 69:     PORTCbits.RC1 = 0;
  1142  0217  1283               	bcf	3,5	;RP0=0, select bank0
  1143  0218  1303               	bcf	3,6	;RP1=0, select bank0
  1144  0219  1087               	bcf	7,1	;volatile
  1145  021A                     l2705:
  1146                           
  1147                           ;main.c: 70:     PORTCbits.RC5 = 0;
  1148  021A  1287               	bcf	7,5	;volatile
  1149  021B                     l2707:
  1150                           
  1151                           ;main.c: 72:     LCD_Init();
  1152  021B  160A  118A  2590  120A  118A  	fcall	_LCD_Init
  1153  0220                     l2709:
  1154                           
  1155                           ;main.c: 77:         if( PORTCbits.RC0 == 1){
  1156  0220  1283               	bcf	3,5	;RP0=0, select bank0
  1157  0221  1303               	bcf	3,6	;RP1=0, select bank0
  1158  0222  1C07               	btfss	7,0	;volatile
  1159  0223  2A25               	goto	u3651
  1160  0224  2A26               	goto	u3650
  1161  0225                     u3651:
  1162  0225  2A29               	goto	l70
  1163  0226                     u3650:
  1164  0226                     l2711:
  1165                           
  1166                           ;main.c: 78:             PORTCbits.RC4 = 1;
  1167  0226  1607               	bsf	7,4	;volatile
  1168                           
  1169                           ;main.c: 79:             PORTCbits.RC3 = 1;
  1170  0227  1587               	bsf	7,3	;volatile
  1171                           
  1172                           ;main.c: 80:         }
  1173  0228  2A39               	goto	l71
  1174  0229                     l70:	
  1175                           ;main.c: 82:         else if( PORTCbits.RC2 == 1){
  1176                           
  1177  0229  1D07               	btfss	7,2	;volatile
  1178  022A  2A2C               	goto	u3661
  1179  022B  2A2D               	goto	u3660
  1180  022C                     u3661:
  1181  022C  2A2F               	goto	l72
  1182  022D                     u3660:
  1183  022D                     l2713:
  1184                           
  1185                           ;main.c: 83:             PORTCbits.RC6 = 1;
  1186  022D  1707               	bsf	7,6	;volatile
  1187                           
  1188                           ;main.c: 84:         }
  1189  022E  2A39               	goto	l71
  1190  022F                     l72:	
  1191                           ;main.c: 86:         else if ( PORTCbits.RC1 == 1){
  1192                           
  1193  022F  1C87               	btfss	7,1	;volatile
  1194  0230  2A32               	goto	u3671
  1195  0231  2A33               	goto	u3670
  1196  0232                     u3671:
  1197  0232  2A36               	goto	l74
  1198  0233                     u3670:
  1199  0233                     l2715:
  1200                           
  1201                           ;main.c: 87:             PORTCbits.RC4 = 1;
  1202  0233  1607               	bsf	7,4	;volatile
  1203                           
  1204                           ;main.c: 88:             PORTCbits.RC5 = 1;
  1205  0234  1687               	bsf	7,5	;volatile
  1206                           
  1207                           ;main.c: 89:         }
  1208  0235  2A39               	goto	l71
  1209  0236                     l74:	
  1210                           ;main.c: 90:         else{
  1211                           
  1212                           
  1213                           ;main.c: 91:             PORTCbits.RC4 = 0;
  1214  0236  1207               	bcf	7,4	;volatile
  1215                           
  1216                           ;main.c: 92:             PORTCbits.RC3 = 0;
  1217  0237  1187               	bcf	7,3	;volatile
  1218                           
  1219                           ;main.c: 93:             PORTCbits.RC5 = 0;
  1220  0238  1287               	bcf	7,5	;volatile
  1221  0239                     l71:
  1222                           
  1223                           ;main.c: 97:         ADCON0bits.GO_DONE = 1;
  1224  0239  149F               	bsf	31,1	;volatile
  1225  023A                     l76:	
  1226                           ;main.c: 98:         while (ADCON0bits.GO_DONE);
  1227                           
  1228  023A  189F               	btfsc	31,1	;volatile
  1229  023B  2A3D               	goto	u3681
  1230  023C  2A3E               	goto	u3680
  1231  023D                     u3681:
  1232  023D  2A3A               	goto	l76
  1233  023E                     u3680:
  1234  023E                     l2717:
  1235                           
  1236                           ;main.c: 99:         value_adc = ADRESH;
  1237  023E  081E               	movf	30,w	;volatile
  1238  023F  1683               	bsf	3,5	;RP0=1, select bank1
  1239  0240  1303               	bcf	3,6	;RP1=0, select bank1
  1240  0241  00C0               	movwf	??_main^(0+128)
  1241  0242  01C1               	clrf	(??_main^(0+128)+1)
  1242  0243  0840               	movf	??_main^(0+128),w
  1243  0244  00E8               	movwf	_value_adc^(0+128)
  1244  0245  0841               	movf	(??_main+1)^(0+128),w
  1245  0246  00E9               	movwf	(_value_adc+1)^(0+128)
  1246  0247                     l2719:
  1247                           
  1248                           ;main.c: 100:         value_adc = (value_adc << 8) + ADRESL;
  1249  0247  0869               	movf	(_value_adc+1)^(0+128),w
  1250  0248  00C1               	movwf	(??_main^(0+128)+1)
  1251  0249  0868               	movf	_value_adc^(0+128),w
  1252  024A  00C0               	movwf	??_main^(0+128)
  1253  024B  0840               	movf	??_main^(0+128),w
  1254  024C  00C1               	movwf	(??_main^(0+128)+1)
  1255  024D  01C0               	clrf	??_main^(0+128)
  1256  024E  081E               	movf	30,w	;volatile
  1257  024F  0740               	addwf	??_main^(0+128),w
  1258  0250  00C2               	movwf	(??_main+2)^(0+128)
  1259  0251  3000               	movlw	0
  1260  0252  1803               	skipnc
  1261  0253  3001               	movlw	1
  1262  0254  0741               	addwf	(??_main+1)^(0+128),w
  1263  0255  00C3               	movwf	(??_main+3)^(0+128)
  1264  0256  0842               	movf	(??_main+2)^(0+128),w
  1265  0257  00E8               	movwf	_value_adc^(0+128)
  1266  0258  0843               	movf	(??_main+3)^(0+128),w
  1267  0259  00E9               	movwf	(_value_adc+1)^(0+128)
  1268  025A                     l2721:
  1269                           
  1270                           ;main.c: 101:         temp = value_adc;
  1271  025A  0868               	movf	_value_adc^(0+128),w
  1272  025B  00F0               	movwf	___xxtofl@val
  1273  025C  0869               	movf	(_value_adc+1)^(0+128),w
  1274  025D  00F1               	movwf	___xxtofl@val+1
  1275  025E  3000               	movlw	0
  1276  025F  1BF1               	btfsc	___xxtofl@val+1,7
  1277  0260  30FF               	movlw	255
  1278  0261  00F2               	movwf	___xxtofl@val+2
  1279  0262  00F3               	movwf	___xxtofl@val+3
  1280  0263  3001               	movlw	1
  1281  0264  120A  158A  2104  120A  118A  	fcall	___xxtofl
  1282  0269  0873               	movf	?___xxtofl+3,w
  1283  026A  1683               	bsf	3,5	;RP0=1, select bank1
  1284  026B  1303               	bcf	3,6	;RP1=0, select bank1
  1285  026C  00E5               	movwf	(_temp+3)^(0+128)
  1286  026D  0872               	movf	?___xxtofl+2,w
  1287  026E  00E4               	movwf	(_temp+2)^(0+128)
  1288  026F  0871               	movf	?___xxtofl+1,w
  1289  0270  00E3               	movwf	(_temp+1)^(0+128)
  1290  0271  0870               	movf	?___xxtofl,w
  1291  0272  00E2               	movwf	_temp^(0+128)
  1292  0273                     l2723:
  1293                           
  1294                           ;main.c: 104:         long a = (long)(1023 - temp);
  1295  0273  3044               	movlw	68
  1296  0274  00A7               	movwf	(___flsub@b+3)^(0+128)
  1297  0275  307F               	movlw	127
  1298  0276  00A6               	movwf	(___flsub@b+2)^(0+128)
  1299  0277  30C0               	movlw	192
  1300  0278  00A5               	movwf	(___flsub@b+1)^(0+128)
  1301  0279  3000               	movlw	0
  1302  027A  00A4               	movwf	___flsub@b^(0+128)
  1303  027B  0865               	movf	(_temp+3)^(0+128),w
  1304  027C  00A3               	movwf	(___flsub@a+3)^(0+128)
  1305  027D  0864               	movf	(_temp+2)^(0+128),w
  1306  027E  00A2               	movwf	(___flsub@a+2)^(0+128)
  1307  027F  0863               	movf	(_temp+1)^(0+128),w
  1308  0280  00A1               	movwf	(___flsub@a+1)^(0+128)
  1309  0281  0862               	movf	_temp^(0+128),w
  1310  0282  00A0               	movwf	___flsub@a^(0+128)
  1311  0283  160A  118A  271E  120A  118A  	fcall	___flsub
  1312  0288  1683               	bsf	3,5	;RP0=1, select bank1
  1313  0289  1303               	bcf	3,6	;RP1=0, select bank1
  1314  028A  0823               	movf	(?___flsub+3)^(0+128),w
  1315  028B  00AB               	movwf	(___fltol@f1+3)^(0+128)
  1316  028C  0822               	movf	(?___flsub+2)^(0+128),w
  1317  028D  00AA               	movwf	(___fltol@f1+2)^(0+128)
  1318  028E  0821               	movf	(?___flsub+1)^(0+128),w
  1319  028F  00A9               	movwf	(___fltol@f1+1)^(0+128)
  1320  0290  0820               	movf	?___flsub^(0+128),w
  1321  0291  00A8               	movwf	___fltol@f1^(0+128)
  1322  0292  160A  118A  276E  120A  118A  	fcall	___fltol
  1323  0297  1683               	bsf	3,5	;RP0=1, select bank1
  1324  0298  1303               	bcf	3,6	;RP1=0, select bank1
  1325  0299  082B               	movf	(?___fltol+3)^(0+128),w
  1326  029A  00D1               	movwf	(main@a+3)^(0+128)
  1327  029B  082A               	movf	(?___fltol+2)^(0+128),w
  1328  029C  00D0               	movwf	(main@a+2)^(0+128)
  1329  029D  0829               	movf	(?___fltol+1)^(0+128),w
  1330  029E  00CF               	movwf	(main@a+1)^(0+128)
  1331  029F  0828               	movf	?___fltol^(0+128),w
  1332  02A0  00CE               	movwf	main@a^(0+128)
  1333  02A1                     l2725:
  1334                           
  1335                           ;main.c: 105:         float tempC = (float)(4090 /(log((1025.0 * 10/ a - 10) / 10) + 409
      +                          0 / 298.0) - 273.0);
  1336  02A1  30C1               	movlw	193
  1337  02A2  1283               	bcf	3,5	;RP0=0, select bank0
  1338  02A3  1303               	bcf	3,6	;RP1=0, select bank0
  1339  02A4  00DC               	movwf	___fladd@b+3
  1340  02A5  3020               	movlw	32
  1341  02A6  00DB               	movwf	___fladd@b+2
  1342  02A7  3000               	movlw	0
  1343  02A8  00DA               	movwf	___fladd@b+1
  1344  02A9  3000               	movlw	0
  1345  02AA  00D9               	movwf	___fladd@b
  1346  02AB  1683               	bsf	3,5	;RP0=1, select bank1
  1347  02AC  1303               	bcf	3,6	;RP1=0, select bank1
  1348  02AD  0851               	movf	(main@a+3)^(0+128),w
  1349  02AE  00F3               	movwf	___xxtofl@val+3
  1350  02AF  0850               	movf	(main@a+2)^(0+128),w
  1351  02B0  00F2               	movwf	___xxtofl@val+2
  1352  02B1  084F               	movf	(main@a+1)^(0+128),w
  1353  02B2  00F1               	movwf	___xxtofl@val+1
  1354  02B3  084E               	movf	main@a^(0+128),w
  1355  02B4  00F0               	movwf	___xxtofl@val
  1356  02B5  3001               	movlw	1
  1357  02B6  120A  158A  2104  120A  118A  	fcall	___xxtofl
  1358  02BB  0873               	movf	?___xxtofl+3,w
  1359  02BC  1283               	bcf	3,5	;RP0=0, select bank0
  1360  02BD  1303               	bcf	3,6	;RP1=0, select bank0
  1361  02BE  00C2               	movwf	___fldiv@a+3
  1362  02BF  0872               	movf	?___xxtofl+2,w
  1363  02C0  00C1               	movwf	___fldiv@a+2
  1364  02C1  0871               	movf	?___xxtofl+1,w
  1365  02C2  00C0               	movwf	___fldiv@a+1
  1366  02C3  0870               	movf	?___xxtofl,w
  1367  02C4  00BF               	movwf	___fldiv@a
  1368  02C5  3046               	movlw	70
  1369  02C6  00C6               	movwf	___fldiv@b+3
  1370  02C7  3020               	movlw	32
  1371  02C8  00C5               	movwf	___fldiv@b+2
  1372  02C9  3028               	movlw	40
  1373  02CA  00C4               	movwf	___fldiv@b+1
  1374  02CB  3000               	movlw	0
  1375  02CC  00C3               	movwf	___fldiv@b
  1376  02CD  120A  158A  239B  120A  118A  	fcall	___fldiv
  1377  02D2  1283               	bcf	3,5	;RP0=0, select bank0
  1378  02D3  1303               	bcf	3,6	;RP1=0, select bank0
  1379  02D4  0842               	movf	?___fldiv+3,w
  1380  02D5  00E0               	movwf	___fladd@a+3
  1381  02D6  0841               	movf	?___fldiv+2,w
  1382  02D7  00DF               	movwf	___fladd@a+2
  1383  02D8  0840               	movf	?___fldiv+1,w
  1384  02D9  00DE               	movwf	___fladd@a+1
  1385  02DA  083F               	movf	?___fldiv,w
  1386  02DB  00DD               	movwf	___fladd@a
  1387  02DC  120A  158A  2578  120A  118A  	fcall	___fladd
  1388  02E1  1283               	bcf	3,5	;RP0=0, select bank0
  1389  02E2  1303               	bcf	3,6	;RP1=0, select bank0
  1390  02E3  085C               	movf	?___fladd+3,w
  1391  02E4  1683               	bsf	3,5	;RP0=1, select bank1
  1392  02E5  1303               	bcf	3,6	;RP1=0, select bank1
  1393  02E6  00D5               	movwf	(_main$938+3)^(0+128)
  1394  02E7  1283               	bcf	3,5	;RP0=0, select bank0
  1395  02E8  1303               	bcf	3,6	;RP1=0, select bank0
  1396  02E9  085B               	movf	?___fladd+2,w
  1397  02EA  1683               	bsf	3,5	;RP0=1, select bank1
  1398  02EB  1303               	bcf	3,6	;RP1=0, select bank1
  1399  02EC  00D4               	movwf	(_main$938+2)^(0+128)
  1400  02ED  1283               	bcf	3,5	;RP0=0, select bank0
  1401  02EE  1303               	bcf	3,6	;RP1=0, select bank0
  1402  02EF  085A               	movf	?___fladd+1,w
  1403  02F0  1683               	bsf	3,5	;RP0=1, select bank1
  1404  02F1  1303               	bcf	3,6	;RP1=0, select bank1
  1405  02F2  00D3               	movwf	(_main$938+1)^(0+128)
  1406  02F3  1283               	bcf	3,5	;RP0=0, select bank0
  1407  02F4  1303               	bcf	3,6	;RP1=0, select bank0
  1408  02F5  0859               	movf	?___fladd,w
  1409  02F6  1683               	bsf	3,5	;RP0=1, select bank1
  1410  02F7  1303               	bcf	3,6	;RP1=0, select bank1
  1411  02F8  00D2               	movwf	_main$938^(0+128)
  1412  02F9                     l2727:
  1413                           
  1414                           ;main.c: 105:         float tempC = (float)(4090 /(log((1025.0 * 10/ a - 10) / 10) + 409
      +                          0 / 298.0) - 273.0);
  1415  02F9  3041               	movlw	65
  1416  02FA  1283               	bcf	3,5	;RP0=0, select bank0
  1417  02FB  1303               	bcf	3,6	;RP1=0, select bank0
  1418  02FC  00C2               	movwf	___fldiv@a+3
  1419  02FD  3020               	movlw	32
  1420  02FE  00C1               	movwf	___fldiv@a+2
  1421  02FF  3000               	movlw	0
  1422  0300  00C0               	movwf	___fldiv@a+1
  1423  0301  3000               	movlw	0
  1424  0302  00BF               	movwf	___fldiv@a
  1425  0303  1683               	bsf	3,5	;RP0=1, select bank1
  1426  0304  1303               	bcf	3,6	;RP1=0, select bank1
  1427  0305  0855               	movf	(_main$938+3)^(0+128),w
  1428  0306  1283               	bcf	3,5	;RP0=0, select bank0
  1429  0307  1303               	bcf	3,6	;RP1=0, select bank0
  1430  0308  00C6               	movwf	___fldiv@b+3
  1431  0309  1683               	bsf	3,5	;RP0=1, select bank1
  1432  030A  1303               	bcf	3,6	;RP1=0, select bank1
  1433  030B  0854               	movf	(_main$938+2)^(0+128),w
  1434  030C  1283               	bcf	3,5	;RP0=0, select bank0
  1435  030D  1303               	bcf	3,6	;RP1=0, select bank0
  1436  030E  00C5               	movwf	___fldiv@b+2
  1437  030F  1683               	bsf	3,5	;RP0=1, select bank1
  1438  0310  1303               	bcf	3,6	;RP1=0, select bank1
  1439  0311  0853               	movf	(_main$938+1)^(0+128),w
  1440  0312  1283               	bcf	3,5	;RP0=0, select bank0
  1441  0313  1303               	bcf	3,6	;RP1=0, select bank0
  1442  0314  00C4               	movwf	___fldiv@b+1
  1443  0315  1683               	bsf	3,5	;RP0=1, select bank1
  1444  0316  1303               	bcf	3,6	;RP1=0, select bank1
  1445  0317  0852               	movf	_main$938^(0+128),w
  1446  0318  1283               	bcf	3,5	;RP0=0, select bank0
  1447  0319  1303               	bcf	3,6	;RP1=0, select bank0
  1448  031A  00C3               	movwf	___fldiv@b
  1449  031B  120A  158A  239B  120A  118A  	fcall	___fldiv
  1450  0320  1283               	bcf	3,5	;RP0=0, select bank0
  1451  0321  1303               	bcf	3,6	;RP1=0, select bank0
  1452  0322  0842               	movf	?___fldiv+3,w
  1453  0323  1683               	bsf	3,5	;RP0=1, select bank1
  1454  0324  1303               	bcf	3,6	;RP1=0, select bank1
  1455  0325  00B3               	movwf	(log@x+3)^(0+128)
  1456  0326  1283               	bcf	3,5	;RP0=0, select bank0
  1457  0327  1303               	bcf	3,6	;RP1=0, select bank0
  1458  0328  0841               	movf	?___fldiv+2,w
  1459  0329  1683               	bsf	3,5	;RP0=1, select bank1
  1460  032A  1303               	bcf	3,6	;RP1=0, select bank1
  1461  032B  00B2               	movwf	(log@x+2)^(0+128)
  1462  032C  1283               	bcf	3,5	;RP0=0, select bank0
  1463  032D  1303               	bcf	3,6	;RP1=0, select bank0
  1464  032E  0840               	movf	?___fldiv+1,w
  1465  032F  1683               	bsf	3,5	;RP0=1, select bank1
  1466  0330  1303               	bcf	3,6	;RP1=0, select bank1
  1467  0331  00B1               	movwf	(log@x+1)^(0+128)
  1468  0332  1283               	bcf	3,5	;RP0=0, select bank0
  1469  0333  1303               	bcf	3,6	;RP1=0, select bank0
  1470  0334  083F               	movf	?___fldiv,w
  1471  0335  1683               	bsf	3,5	;RP0=1, select bank1
  1472  0336  1303               	bcf	3,6	;RP1=0, select bank1
  1473  0337  00B0               	movwf	log@x^(0+128)
  1474  0338  120A  118A  2091  120A  118A  	fcall	_log
  1475  033D  1683               	bsf	3,5	;RP0=1, select bank1
  1476  033E  1303               	bcf	3,6	;RP1=0, select bank1
  1477  033F  0833               	movf	(?_log+3)^(0+128),w
  1478  0340  00D9               	movwf	(_main$939+3)^(0+128)
  1479  0341  0832               	movf	(?_log+2)^(0+128),w
  1480  0342  00D8               	movwf	(_main$939+2)^(0+128)
  1481  0343  0831               	movf	(?_log+1)^(0+128),w
  1482  0344  00D7               	movwf	(_main$939+1)^(0+128)
  1483  0345  0830               	movf	?_log^(0+128),w
  1484  0346  00D6               	movwf	_main$939^(0+128)
  1485  0347                     l2729:
  1486                           
  1487                           ;main.c: 105:         float tempC = (float)(4090 /(log((1025.0 * 10/ a - 10) / 10) + 409
      +                          0 / 298.0) - 273.0);
  1488  0347  3041               	movlw	65
  1489  0348  1283               	bcf	3,5	;RP0=0, select bank0
  1490  0349  1303               	bcf	3,6	;RP1=0, select bank0
  1491  034A  00DC               	movwf	___fladd@b+3
  1492  034B  305B               	movlw	91
  1493  034C  00DB               	movwf	___fladd@b+2
  1494  034D  3098               	movlw	152
  1495  034E  00DA               	movwf	___fladd@b+1
  1496  034F  30EA               	movlw	234
  1497  0350  00D9               	movwf	___fladd@b
  1498  0351  1683               	bsf	3,5	;RP0=1, select bank1
  1499  0352  1303               	bcf	3,6	;RP1=0, select bank1
  1500  0353  0859               	movf	(_main$939+3)^(0+128),w
  1501  0354  1283               	bcf	3,5	;RP0=0, select bank0
  1502  0355  1303               	bcf	3,6	;RP1=0, select bank0
  1503  0356  00E0               	movwf	___fladd@a+3
  1504  0357  1683               	bsf	3,5	;RP0=1, select bank1
  1505  0358  1303               	bcf	3,6	;RP1=0, select bank1
  1506  0359  0858               	movf	(_main$939+2)^(0+128),w
  1507  035A  1283               	bcf	3,5	;RP0=0, select bank0
  1508  035B  1303               	bcf	3,6	;RP1=0, select bank0
  1509  035C  00DF               	movwf	___fladd@a+2
  1510  035D  1683               	bsf	3,5	;RP0=1, select bank1
  1511  035E  1303               	bcf	3,6	;RP1=0, select bank1
  1512  035F  0857               	movf	(_main$939+1)^(0+128),w
  1513  0360  1283               	bcf	3,5	;RP0=0, select bank0
  1514  0361  1303               	bcf	3,6	;RP1=0, select bank0
  1515  0362  00DE               	movwf	___fladd@a+1
  1516  0363  1683               	bsf	3,5	;RP0=1, select bank1
  1517  0364  1303               	bcf	3,6	;RP1=0, select bank1
  1518  0365  0856               	movf	_main$939^(0+128),w
  1519  0366  1283               	bcf	3,5	;RP0=0, select bank0
  1520  0367  1303               	bcf	3,6	;RP1=0, select bank0
  1521  0368  00DD               	movwf	___fladd@a
  1522  0369  120A  158A  2578  120A  118A  	fcall	___fladd
  1523  036E  1283               	bcf	3,5	;RP0=0, select bank0
  1524  036F  1303               	bcf	3,6	;RP1=0, select bank0
  1525  0370  085C               	movf	?___fladd+3,w
  1526  0371  00C2               	movwf	___fldiv@a+3
  1527  0372  085B               	movf	?___fladd+2,w
  1528  0373  00C1               	movwf	___fldiv@a+2
  1529  0374  085A               	movf	?___fladd+1,w
  1530  0375  00C0               	movwf	___fldiv@a+1
  1531  0376  0859               	movf	?___fladd,w
  1532  0377  00BF               	movwf	___fldiv@a
  1533  0378  3045               	movlw	69
  1534  0379  00C6               	movwf	___fldiv@b+3
  1535  037A  307F               	movlw	127
  1536  037B  00C5               	movwf	___fldiv@b+2
  1537  037C  30A0               	movlw	160
  1538  037D  00C4               	movwf	___fldiv@b+1
  1539  037E  3000               	movlw	0
  1540  037F  00C3               	movwf	___fldiv@b
  1541  0380  120A  158A  239B  120A  118A  	fcall	___fldiv
  1542  0385  1283               	bcf	3,5	;RP0=0, select bank0
  1543  0386  1303               	bcf	3,6	;RP1=0, select bank0
  1544  0387  0842               	movf	?___fldiv+3,w
  1545  0388  1683               	bsf	3,5	;RP0=1, select bank1
  1546  0389  1303               	bcf	3,6	;RP1=0, select bank1
  1547  038A  00DD               	movwf	(_main$940+3)^(0+128)
  1548  038B  1283               	bcf	3,5	;RP0=0, select bank0
  1549  038C  1303               	bcf	3,6	;RP1=0, select bank0
  1550  038D  0841               	movf	?___fldiv+2,w
  1551  038E  1683               	bsf	3,5	;RP0=1, select bank1
  1552  038F  1303               	bcf	3,6	;RP1=0, select bank1
  1553  0390  00DC               	movwf	(_main$940+2)^(0+128)
  1554  0391  1283               	bcf	3,5	;RP0=0, select bank0
  1555  0392  1303               	bcf	3,6	;RP1=0, select bank0
  1556  0393  0840               	movf	?___fldiv+1,w
  1557  0394  1683               	bsf	3,5	;RP0=1, select bank1
  1558  0395  1303               	bcf	3,6	;RP1=0, select bank1
  1559  0396  00DB               	movwf	(_main$940+1)^(0+128)
  1560  0397  1283               	bcf	3,5	;RP0=0, select bank0
  1561  0398  1303               	bcf	3,6	;RP1=0, select bank0
  1562  0399  083F               	movf	?___fldiv,w
  1563  039A  1683               	bsf	3,5	;RP0=1, select bank1
  1564  039B  1303               	bcf	3,6	;RP1=0, select bank1
  1565  039C  00DA               	movwf	_main$940^(0+128)
  1566  039D                     l2731:
  1567                           
  1568                           ;main.c: 105:         float tempC = (float)(4090 /(log((1025.0 * 10/ a - 10) / 10) + 409
      +                          0 / 298.0) - 273.0);
  1569  039D  30C3               	movlw	195
  1570  039E  1283               	bcf	3,5	;RP0=0, select bank0
  1571  039F  1303               	bcf	3,6	;RP1=0, select bank0
  1572  03A0  00DC               	movwf	___fladd@b+3
  1573  03A1  3088               	movlw	136
  1574  03A2  00DB               	movwf	___fladd@b+2
  1575  03A3  3080               	movlw	128
  1576  03A4  00DA               	movwf	___fladd@b+1
  1577  03A5  3000               	movlw	0
  1578  03A6  00D9               	movwf	___fladd@b
  1579  03A7  1683               	bsf	3,5	;RP0=1, select bank1
  1580  03A8  1303               	bcf	3,6	;RP1=0, select bank1
  1581  03A9  085D               	movf	(_main$940+3)^(0+128),w
  1582  03AA  1283               	bcf	3,5	;RP0=0, select bank0
  1583  03AB  1303               	bcf	3,6	;RP1=0, select bank0
  1584  03AC  00E0               	movwf	___fladd@a+3
  1585  03AD  1683               	bsf	3,5	;RP0=1, select bank1
  1586  03AE  1303               	bcf	3,6	;RP1=0, select bank1
  1587  03AF  085C               	movf	(_main$940+2)^(0+128),w
  1588  03B0  1283               	bcf	3,5	;RP0=0, select bank0
  1589  03B1  1303               	bcf	3,6	;RP1=0, select bank0
  1590  03B2  00DF               	movwf	___fladd@a+2
  1591  03B3  1683               	bsf	3,5	;RP0=1, select bank1
  1592  03B4  1303               	bcf	3,6	;RP1=0, select bank1
  1593  03B5  085B               	movf	(_main$940+1)^(0+128),w
  1594  03B6  1283               	bcf	3,5	;RP0=0, select bank0
  1595  03B7  1303               	bcf	3,6	;RP1=0, select bank0
  1596  03B8  00DE               	movwf	___fladd@a+1
  1597  03B9  1683               	bsf	3,5	;RP0=1, select bank1
  1598  03BA  1303               	bcf	3,6	;RP1=0, select bank1
  1599  03BB  085A               	movf	_main$940^(0+128),w
  1600  03BC  1283               	bcf	3,5	;RP0=0, select bank0
  1601  03BD  1303               	bcf	3,6	;RP1=0, select bank0
  1602  03BE  00DD               	movwf	___fladd@a
  1603  03BF  120A  158A  2578  120A  118A  	fcall	___fladd
  1604  03C4  1283               	bcf	3,5	;RP0=0, select bank0
  1605  03C5  1303               	bcf	3,6	;RP1=0, select bank0
  1606  03C6  085C               	movf	?___fladd+3,w
  1607  03C7  1683               	bsf	3,5	;RP0=1, select bank1
  1608  03C8  1303               	bcf	3,6	;RP1=0, select bank1
  1609  03C9  00E1               	movwf	(main@tempC+3)^(0+128)
  1610  03CA  1283               	bcf	3,5	;RP0=0, select bank0
  1611  03CB  1303               	bcf	3,6	;RP1=0, select bank0
  1612  03CC  085B               	movf	?___fladd+2,w
  1613  03CD  1683               	bsf	3,5	;RP0=1, select bank1
  1614  03CE  1303               	bcf	3,6	;RP1=0, select bank1
  1615  03CF  00E0               	movwf	(main@tempC+2)^(0+128)
  1616  03D0  1283               	bcf	3,5	;RP0=0, select bank0
  1617  03D1  1303               	bcf	3,6	;RP1=0, select bank0
  1618  03D2  085A               	movf	?___fladd+1,w
  1619  03D3  1683               	bsf	3,5	;RP0=1, select bank1
  1620  03D4  1303               	bcf	3,6	;RP1=0, select bank1
  1621  03D5  00DF               	movwf	(main@tempC+1)^(0+128)
  1622  03D6  1283               	bcf	3,5	;RP0=0, select bank0
  1623  03D7  1303               	bcf	3,6	;RP1=0, select bank0
  1624  03D8  0859               	movf	?___fladd,w
  1625  03D9  1683               	bsf	3,5	;RP0=1, select bank1
  1626  03DA  1303               	bcf	3,6	;RP1=0, select bank1
  1627  03DB  00DE               	movwf	main@tempC^(0+128)
  1628  03DC                     l2733:
  1629                           
  1630                           ;main.c: 108:         char Temperature [10];;main.c: 109:         sprintf(Temperature, "
      +                          %d%cC", (int)tempC,0xdf );
  1631  03DC  3067               	movlw	(low ((STR_1-__stringbase)| (0+32768)))& (0+255)
  1632  03DD  00C0               	movwf	??_main^(0+128)
  1633  03DE  0840               	movf	??_main^(0+128),w
  1634  03DF  00B1               	movwf	sprintf@f^(0+128)
  1635  03E0  0861               	movf	(main@tempC+3)^(0+128),w
  1636  03E1  00AB               	movwf	(___fltol@f1+3)^(0+128)
  1637  03E2  0860               	movf	(main@tempC+2)^(0+128),w
  1638  03E3  00AA               	movwf	(___fltol@f1+2)^(0+128)
  1639  03E4  085F               	movf	(main@tempC+1)^(0+128),w
  1640  03E5  00A9               	movwf	(___fltol@f1+1)^(0+128)
  1641  03E6  085E               	movf	main@tempC^(0+128),w
  1642  03E7  00A8               	movwf	___fltol@f1^(0+128)
  1643  03E8  160A  118A  276E  120A  118A  	fcall	___fltol
  1644  03ED  1683               	bsf	3,5	;RP0=1, select bank1
  1645  03EE  1303               	bcf	3,6	;RP1=0, select bank1
  1646  03EF  0829               	movf	(?___fltol+1)^(0+128),w
  1647  03F0  00B3               	movwf	((?_sprintf+1)^(0+128)+1)
  1648  03F1  0828               	movf	?___fltol^(0+128),w
  1649  03F2  00B2               	movwf	(?_sprintf^(0+128)+1)
  1650  03F3  30DF               	movlw	223
  1651  03F4  00B4               	movwf	(?_sprintf^(0+128)+3)
  1652  03F5  3000               	movlw	0
  1653  03F6  00B5               	movwf	(?_sprintf^(0+128)+4)
  1654  03F7  30C4               	movlw	(low (main@Temperature| 0))& (0+255)
  1655  03F8  120A  158A  2298  120A  118A  	fcall	_sprintf
  1656  03FD                     l2735:
  1657                           
  1658                           ;main.c: 111:         LCD_String_xy(1,0,"Temperatura:");
  1659  03FD  01F5               	clrf	LCD_String_xy@pos
  1660  03FE  305A               	movlw	(low ((STR_2-__stringbase)| (0+32768)))& (0+255)
  1661  03FF  1683               	bsf	3,5	;RP0=1, select bank1
  1662  0400  1303               	bcf	3,6	;RP1=0, select bank1
  1663  0401  00C0               	movwf	??_main^(0+128)
  1664  0402  0840               	movf	??_main^(0+128),w
  1665  0403  00F6               	movwf	LCD_String_xy@msg
  1666  0404  3001               	movlw	1
  1667  0405  160A  118A  25BA  120A  118A  	fcall	_LCD_String_xy
  1668  040A                     l2737:
  1669                           
  1670                           ;main.c: 112:         LCD_String(Temperature);
  1671  040A  30C4               	movlw	(low (main@Temperature| 0))& (0+255)
  1672  040B  00F3               	movwf	LCD_String@msg
  1673  040C  3000               	movlw	0
  1674  040D  00F4               	movwf	LCD_String@msg+1
  1675  040E  160A  118A  2543  120A  118A  	fcall	_LCD_String
  1676  0413                     l2739:
  1677                           
  1678                           ;main.c: 113:         LCD_String("  ");
  1679  0413  306D               	movlw	(low ((STR_3-__stringbase)| (0+32768)))& (0+255)
  1680  0414  00F3               	movwf	LCD_String@msg
  1681  0415  3080               	movlw	128
  1682  0416  00F4               	movwf	LCD_String@msg+1
  1683  0417  160A  118A  2543  120A  118A  	fcall	_LCD_String
  1684  041C                     l2741:
  1685                           
  1686                           ;main.c: 115:         if ( tempC > 25){
  1687  041C  3041               	movlw	65
  1688  041D  00F3               	movwf	___flge@ff1+3
  1689  041E  30C8               	movlw	200
  1690  041F  00F2               	movwf	___flge@ff1+2
  1691  0420  3000               	movlw	0
  1692  0421  00F1               	movwf	___flge@ff1+1
  1693  0422  3000               	movlw	0
  1694  0423  00F0               	movwf	___flge@ff1
  1695  0424  1683               	bsf	3,5	;RP0=1, select bank1
  1696  0425  1303               	bcf	3,6	;RP1=0, select bank1
  1697  0426  0861               	movf	(main@tempC+3)^(0+128),w
  1698  0427  00F7               	movwf	___flge@ff2+3
  1699  0428  0860               	movf	(main@tempC+2)^(0+128),w
  1700  0429  00F6               	movwf	___flge@ff2+2
  1701  042A  085F               	movf	(main@tempC+1)^(0+128),w
  1702  042B  00F5               	movwf	___flge@ff2+1
  1703  042C  085E               	movf	main@tempC^(0+128),w
  1704  042D  00F4               	movwf	___flge@ff2
  1705  042E  120A  158A  2062  120A  118A  	fcall	___flge
  1706  0433  1803               	btfsc	3,0
  1707  0434  2C36               	goto	u3691
  1708  0435  2C37               	goto	u3690
  1709  0436                     u3691:
  1710  0436  2C45               	goto	l2745
  1711  0437                     u3690:
  1712  0437                     l2743:
  1713                           
  1714                           ;main.c: 116:             LCD_String_xy(2,0,"Disminuir Temp");
  1715  0437  01F5               	clrf	LCD_String_xy@pos
  1716  0438  302F               	movlw	(low ((STR_4-__stringbase)| (0+32768)))& (0+255)
  1717  0439  1683               	bsf	3,5	;RP0=1, select bank1
  1718  043A  1303               	bcf	3,6	;RP1=0, select bank1
  1719  043B  00C0               	movwf	??_main^(0+128)
  1720  043C  0840               	movf	??_main^(0+128),w
  1721  043D  00F6               	movwf	LCD_String_xy@msg
  1722  043E  3002               	movlw	2
  1723  043F  160A  118A  25BA  120A  118A  	fcall	_LCD_String_xy
  1724                           
  1725                           ;main.c: 118:         }
  1726  0444  2C7B               	goto	l2751
  1727  0445                     l2745:
  1728  0445  1683               	bsf	3,5	;RP0=1, select bank1
  1729  0446  1303               	bcf	3,6	;RP1=0, select bank1
  1730  0447  0861               	movf	(main@tempC+3)^(0+128),w
  1731  0448  00F3               	movwf	___flge@ff1+3
  1732  0449  0860               	movf	(main@tempC+2)^(0+128),w
  1733  044A  00F2               	movwf	___flge@ff1+2
  1734  044B  085F               	movf	(main@tempC+1)^(0+128),w
  1735  044C  00F1               	movwf	___flge@ff1+1
  1736  044D  085E               	movf	main@tempC^(0+128),w
  1737  044E  00F0               	movwf	___flge@ff1
  1738  044F  3041               	movlw	65
  1739  0450  00F7               	movwf	___flge@ff2+3
  1740  0451  3090               	movlw	144
  1741  0452  00F6               	movwf	___flge@ff2+2
  1742  0453  3000               	movlw	0
  1743  0454  00F5               	movwf	___flge@ff2+1
  1744  0455  3000               	movlw	0
  1745  0456  00F4               	movwf	___flge@ff2
  1746  0457  120A  158A  2062  120A  118A  	fcall	___flge
  1747  045C  1803               	btfsc	3,0
  1748  045D  2C5F               	goto	u3701
  1749  045E  2C60               	goto	u3700
  1750  045F                     u3701:
  1751  045F  2C6E               	goto	l2749
  1752  0460                     u3700:
  1753  0460                     l2747:
  1754                           
  1755                           ;main.c: 120:             LCD_String_xy(2,0,"Aumentar Temp");
  1756  0460  01F5               	clrf	LCD_String_xy@pos
  1757  0461  304C               	movlw	(low ((STR_5-__stringbase)| (0+32768)))& (0+255)
  1758  0462  1683               	bsf	3,5	;RP0=1, select bank1
  1759  0463  1303               	bcf	3,6	;RP1=0, select bank1
  1760  0464  00C0               	movwf	??_main^(0+128)
  1761  0465  0840               	movf	??_main^(0+128),w
  1762  0466  00F6               	movwf	LCD_String_xy@msg
  1763  0467  3002               	movlw	2
  1764  0468  160A  118A  25BA  120A  118A  	fcall	_LCD_String_xy
  1765                           
  1766                           ;main.c: 122:         }
  1767  046D  2C7B               	goto	l2751
  1768  046E                     l2749:
  1769                           
  1770                           ;main.c: 124:             LCD_String_xy(2,0,"Temp Adecuada");
  1771  046E  01F5               	clrf	LCD_String_xy@pos
  1772  046F  303E               	movlw	(low ((STR_6-__stringbase)| (0+32768)))& (0+255)
  1773  0470  1683               	bsf	3,5	;RP0=1, select bank1
  1774  0471  1303               	bcf	3,6	;RP1=0, select bank1
  1775  0472  00C0               	movwf	??_main^(0+128)
  1776  0473  0840               	movf	??_main^(0+128),w
  1777  0474  00F6               	movwf	LCD_String_xy@msg
  1778  0475  3002               	movlw	2
  1779  0476  160A  118A  25BA  120A  118A  	fcall	_LCD_String_xy
  1780  047B                     l2751:
  1781                           
  1782                           ;main.c: 127:         _delay((unsigned long)((1000)*(8000000/4000.0)));
  1783  047B  300B               	movlw	11
  1784  047C  1683               	bsf	3,5	;RP0=1, select bank1
  1785  047D  1303               	bcf	3,6	;RP1=0, select bank1
  1786  047E  00C2               	movwf	(??_main^(0+128)+2)
  1787  047F  3026               	movlw	38
  1788  0480  00C1               	movwf	(??_main^(0+128)+1)
  1789  0481  305D               	movlw	93
  1790  0482  00C0               	movwf	??_main^(0+128)
  1791  0483                     u3717:
  1792  0483  0BC0               	decfsz	??_main^(0+128),f
  1793  0484  2C83               	goto	u3717
  1794  0485  0BC1               	decfsz	(??_main^(0+128)+1),f
  1795  0486  2C83               	goto	u3717
  1796  0487  0BC2               	decfsz	(??_main^(0+128)+2),f
  1797  0488  2C83               	goto	u3717
  1798  0489  2A20               	goto	l2709
  1799  048A  120A  118A  2800   	ljmp	start
  1800  048D                     __end_of_main:
  1801                           
  1802                           	psect	text1
  1803  0A98                     __ptext1:	
  1804 ;; *************** function _sprintf *****************
  1805 ;; Defined at:
  1806 ;;		line 505 in file "C:\Program Files\Microchip\xc8\v2.36\pic\sources\c90\common\doprnt.c"
  1807 ;; Parameters:    Size  Location     Type
  1808 ;;  sp              1    wreg     PTR unsigned char 
  1809 ;;		 -> main@Temperature(10), 
  1810 ;;  f               1   17[BANK1 ] PTR const unsigned char 
  1811 ;;		 -> STR_1(6), 
  1812 ;; Auto vars:     Size  Location     Type
  1813 ;;  sp              1   30[BANK1 ] PTR unsigned char 
  1814 ;;		 -> main@Temperature(10), 
  1815 ;;  tmpval          4    0        struct .
  1816 ;;  val             2   28[BANK1 ] unsigned int 
  1817 ;;  cp              2    0        PTR const unsigned char 
  1818 ;;  len             2    0        unsigned int 
  1819 ;;  c               1   31[BANK1 ] unsigned char 
  1820 ;;  ap              1   27[BANK1 ] PTR void [1]
  1821 ;;		 -> ?_sprintf(2), 
  1822 ;;  prec            1   26[BANK1 ] char 
  1823 ;;  flag            1   25[BANK1 ] unsigned char 
  1824 ;; Return value:  Size  Location     Type
  1825 ;;                  2   17[BANK1 ] int 
  1826 ;; Registers used:
  1827 ;;		wreg, fsr0l, fsr0h, status,2, status,0, btemp+1, pclath, cstack
  1828 ;; Tracked objects:
  1829 ;;		On entry : 0/0
  1830 ;;		On exit  : 0/0
  1831 ;;		Unchanged: 0/0
  1832 ;; Data sizes:     COMMON   BANK0   BANK1   BANK3   BANK2
  1833 ;;      Params:         0       0       5       0       0
  1834 ;;      Locals:         0       0       7       0       0
  1835 ;;      Temps:          0       0       3       0       0
  1836 ;;      Totals:         0       0      15       0       0
  1837 ;;Total ram usage:       15 bytes
  1838 ;; Hardware stack levels used: 1
  1839 ;; Hardware stack levels required when called: 1
  1840 ;; This function calls:
  1841 ;;		___lwdiv
  1842 ;;		___lwmod
  1843 ;; This function is called by:
  1844 ;;		_main
  1845 ;; This function uses a non-reentrant model
  1846 ;;
  1847                           
  1848  0A98                     _sprintf:	
  1849                           ;psect for function _sprintf
  1850                           
  1851                           
  1852                           ;incstack = 0
  1853                           ; Regs used in _sprintf: [wreg-fsr0h+status,2+status,0+btemp+1+pclath+cstack]
  1854                           ;sprintf@sp stored from wreg
  1855  0A98  1683               	bsf	3,5	;RP0=1, select bank1
  1856  0A99  1303               	bcf	3,6	;RP1=0, select bank1
  1857  0A9A  00BE               	movwf	sprintf@sp^(0+128)
  1858  0A9B                     l2383:
  1859                           
  1860                           ;C:\Program Files\Microchip\xc8\v2.36\pic\sources\c90\common\doprnt.c: 505: sprintf(char
      +                           * sp, const char * f, ...);C:\Program Files\Microchip\xc8\v2.36\pic\sources\c90\common\
      +                          doprnt.c: 506: {;C:\Program Files\Microchip\xc8\v2.36\pic\sources\c90\common\doprnt.c: 5
      +                          07:  va_list ap;;C:\Program Files\Microchip\xc8\v2.36\pic\sources\c90\common\doprnt.c: 5
      +                          12:  char c;;C:\Program Files\Microchip\xc8\v2.36\pic\sources\c90\common\doprnt.c: 521: 
      +                           signed char prec;;C:\Program Files\Microchip\xc8\v2.36\pic\sources\c90\common\doprnt.c:
      +                           525:  unsigned char flag;
  1861  0A9B  30B2               	movlw	(low ((?_sprintf| 0+1)))& (0+255)
  1862  0A9C  00B6               	movwf	??_sprintf^(0+128)
  1863  0A9D  0836               	movf	??_sprintf^(0+128),w
  1864  0A9E  00BB               	movwf	sprintf@ap^(0+128)
  1865                           
  1866                           ;C:\Program Files\Microchip\xc8\v2.36\pic\sources\c90\common\doprnt.c: 553:  while((c = 
      +                          *f++)) {
  1867  0A9F  2B84               	goto	l2441
  1868  0AA0                     l2385:
  1869                           
  1870                           ;C:\Program Files\Microchip\xc8\v2.36\pic\sources\c90\common\doprnt.c: 555:   if(c != '%
      +                          ')
  1871  0AA0  3025               	movlw	37
  1872  0AA1  063F               	xorwf	sprintf@c^(0+128),w
  1873  0AA2  1903               	btfsc	3,2
  1874  0AA3  2AA5               	goto	u3181
  1875  0AA4  2AA6               	goto	u3180
  1876  0AA5                     u3181:
  1877  0AA5  2AB2               	goto	l2391
  1878  0AA6                     u3180:
  1879  0AA6                     l2387:
  1880                           
  1881                           ;C:\Program Files\Microchip\xc8\v2.36\pic\sources\c90\common\doprnt.c: 557:   {;C:\Progr
      +                          am Files\Microchip\xc8\v2.36\pic\sources\c90\common\doprnt.c: 558:    ((*sp++ = (c)));
  1882  0AA6  083F               	movf	sprintf@c^(0+128),w
  1883  0AA7  00B6               	movwf	??_sprintf^(0+128)
  1884  0AA8  083E               	movf	sprintf@sp^(0+128),w
  1885  0AA9  0084               	movwf	4
  1886  0AAA  0836               	movf	??_sprintf^(0+128),w
  1887  0AAB  1383               	bcf	3,7	;select IRP bank0
  1888  0AAC  0080               	movwf	0
  1889  0AAD                     l2389:
  1890  0AAD  3001               	movlw	1
  1891  0AAE  00B6               	movwf	??_sprintf^(0+128)
  1892  0AAF  0836               	movf	??_sprintf^(0+128),w
  1893  0AB0  07BE               	addwf	sprintf@sp^(0+128),f
  1894                           
  1895                           ;C:\Program Files\Microchip\xc8\v2.36\pic\sources\c90\common\doprnt.c: 559:    continue;
  1896  0AB1  2B84               	goto	l2441
  1897  0AB2                     l2391:
  1898                           
  1899                           ;C:\Program Files\Microchip\xc8\v2.36\pic\sources\c90\common\doprnt.c: 565:   flag = 0;
  1900  0AB2  01B9               	clrf	sprintf@flag^(0+128)
  1901                           
  1902                           ;C:\Program Files\Microchip\xc8\v2.36\pic\sources\c90\common\doprnt.c: 661:   switch(c =
      +                           *f++) {
  1903  0AB3  2ACB               	goto	l2401
  1904  0AB4                     l2393:
  1905                           
  1906                           ;C:\Program Files\Microchip\xc8\v2.36\pic\sources\c90\common\doprnt.c: 825:    c = (char
      +                          )(*(int *)__va_arg((*(int **)ap), (int)0));
  1907  0AB4  083B               	movf	sprintf@ap^(0+128),w
  1908  0AB5  0084               	movwf	4
  1909  0AB6  1383               	bcf	3,7	;select IRP bank0
  1910  0AB7  0800               	movf	0,w
  1911  0AB8  00B6               	movwf	??_sprintf^(0+128)
  1912  0AB9  0836               	movf	??_sprintf^(0+128),w
  1913  0ABA  00BF               	movwf	sprintf@c^(0+128)
  1914  0ABB                     l2395:
  1915  0ABB  3002               	movlw	2
  1916  0ABC  00B6               	movwf	??_sprintf^(0+128)
  1917  0ABD  0836               	movf	??_sprintf^(0+128),w
  1918  0ABE  07BB               	addwf	sprintf@ap^(0+128),f
  1919  0ABF                     l2397:
  1920                           
  1921                           ;C:\Program Files\Microchip\xc8\v2.36\pic\sources\c90\common\doprnt.c: 835:    ((*sp++ =
      +                           (c)));
  1922  0ABF  083F               	movf	sprintf@c^(0+128),w
  1923  0AC0  00B6               	movwf	??_sprintf^(0+128)
  1924  0AC1  083E               	movf	sprintf@sp^(0+128),w
  1925  0AC2  0084               	movwf	4
  1926  0AC3  0836               	movf	??_sprintf^(0+128),w
  1927  0AC4  1383               	bcf	3,7	;select IRP bank0
  1928  0AC5  0080               	movwf	0
  1929  0AC6  3001               	movlw	1
  1930  0AC7  00B6               	movwf	??_sprintf^(0+128)
  1931  0AC8  0836               	movf	??_sprintf^(0+128),w
  1932  0AC9  07BE               	addwf	sprintf@sp^(0+128),f
  1933                           
  1934                           ;C:\Program Files\Microchip\xc8\v2.36\pic\sources\c90\common\doprnt.c: 836:    continue;
  1935  0ACA  2B84               	goto	l2441
  1936  0ACB                     l2401:
  1937  0ACB  3001               	movlw	1
  1938  0ACC  07B1               	addwf	sprintf@f^(0+128),f
  1939  0ACD  30FF               	movlw	-1
  1940  0ACE  0731               	addwf	sprintf@f^(0+128),w
  1941  0ACF  0084               	movwf	4
  1942  0AD0  120A  118A  200D  120A  158A  	fcall	stringdir
  1943  0AD5  00BF               	movwf	sprintf@c^(0+128)
  1944  0AD6  00B6               	movwf	??_sprintf^(0+128)
  1945  0AD7  01B7               	clrf	(??_sprintf^(0+128)+1)
  1946                           
  1947                           ; Switch on 2 bytes has been partitioned into a top level switch of size 1, and 1 sub-sw
      +                          itches
  1948                           ; Switch size 1, requested type "simple"
  1949                           ; Number of cases is 1, Range of values is 0 to 0
  1950                           ; switch strategies available:
  1951                           ; Name         Instructions Cycles
  1952                           ; simple_byte            4     3 (average)
  1953                           ; direct_byte           11     8 (fixed)
  1954                           ; jumptable            260     6 (fixed)
  1955                           ;	Chosen strategy is simple_byte
  1956  0AD8  0837               	movf	(??_sprintf+1)^(0+128),w
  1957  0AD9  3A00               	xorlw	0	; case 0
  1958  0ADA  1903               	skipnz
  1959  0ADB  2ADD               	goto	l2777
  1960  0ADC  2ABF               	goto	l2397
  1961  0ADD                     l2777:
  1962                           
  1963                           ; Switch size 1, requested type "simple"
  1964                           ; Number of cases is 4, Range of values is 0 to 105
  1965                           ; switch strategies available:
  1966                           ; Name         Instructions Cycles
  1967                           ; simple_byte           13     7 (average)
  1968                           ; jumptable            260     6 (fixed)
  1969                           ;	Chosen strategy is simple_byte
  1970  0ADD  0836               	movf	??_sprintf^(0+128),w
  1971  0ADE  3A00               	xorlw	0	; case 0
  1972  0ADF  1903               	skipnz
  1973  0AE0  2B96               	goto	l2443
  1974  0AE1  3A63               	xorlw	99	; case 99
  1975  0AE2  1903               	skipnz
  1976  0AE3  2AB4               	goto	l2393
  1977  0AE4  3A07               	xorlw	7	; case 100
  1978  0AE5  1903               	skipnz
  1979  0AE6  2AEB               	goto	l2403
  1980  0AE7  3A0D               	xorlw	13	; case 105
  1981  0AE8  1903               	skipnz
  1982  0AE9  2AEB               	goto	l2403
  1983  0AEA  2ABF               	goto	l2397
  1984  0AEB                     l2403:
  1985                           
  1986                           ;C:\Program Files\Microchip\xc8\v2.36\pic\sources\c90\common\doprnt.c: 1279:   {;C:\Prog
      +                          ram Files\Microchip\xc8\v2.36\pic\sources\c90\common\doprnt.c: 1285:     val = (unsigned
      +                           int)(*(int *)__va_arg((*(int **)ap), (int)0));
  1987  0AEB  083B               	movf	sprintf@ap^(0+128),w
  1988  0AEC  0084               	movwf	4
  1989  0AED  1383               	bcf	3,7	;select IRP bank0
  1990  0AEE  0800               	movf	0,w
  1991  0AEF  00BC               	movwf	sprintf@val^(0+128)
  1992  0AF0  0A84               	incf	4,f
  1993  0AF1  0800               	movf	0,w
  1994  0AF2  00BD               	movwf	(sprintf@val+1)^(0+128)
  1995  0AF3                     l2405:
  1996  0AF3  3002               	movlw	2
  1997  0AF4  00B6               	movwf	??_sprintf^(0+128)
  1998  0AF5  0836               	movf	??_sprintf^(0+128),w
  1999  0AF6  07BB               	addwf	sprintf@ap^(0+128),f
  2000  0AF7                     l2407:
  2001                           
  2002                           ;C:\Program Files\Microchip\xc8\v2.36\pic\sources\c90\common\doprnt.c: 1287:    if((int)
      +                          val < 0) {
  2003  0AF7  1FBD               	btfss	(sprintf@val+1)^(0+128),7
  2004  0AF8  2AFA               	goto	u3191
  2005  0AF9  2AFB               	goto	u3190
  2006  0AFA                     u3191:
  2007  0AFA  2B04               	goto	l2413
  2008  0AFB                     u3190:
  2009  0AFB                     l2409:
  2010                           
  2011                           ;C:\Program Files\Microchip\xc8\v2.36\pic\sources\c90\common\doprnt.c: 1288:     flag |=
      +                           0x03;
  2012  0AFB  3003               	movlw	3
  2013  0AFC  00B6               	movwf	??_sprintf^(0+128)
  2014  0AFD  0836               	movf	??_sprintf^(0+128),w
  2015  0AFE  04B9               	iorwf	sprintf@flag^(0+128),f
  2016  0AFF                     l2411:
  2017                           
  2018                           ;C:\Program Files\Microchip\xc8\v2.36\pic\sources\c90\common\doprnt.c: 1289:     val = -
      +                          val;
  2019  0AFF  09BC               	comf	sprintf@val^(0+128),f
  2020  0B00  09BD               	comf	(sprintf@val+1)^(0+128),f
  2021  0B01  0ABC               	incf	sprintf@val^(0+128),f
  2022  0B02  1903               	skipnz
  2023  0B03  0ABD               	incf	(sprintf@val+1)^(0+128),f
  2024  0B04                     l2413:
  2025                           
  2026                           ;C:\Program Files\Microchip\xc8\v2.36\pic\sources\c90\common\doprnt.c: 1292:   };C:\Prog
      +                          ram Files\Microchip\xc8\v2.36\pic\sources\c90\common\doprnt.c: 1331:    for(c = 1 ; c !=
      +                           sizeof dpowers/sizeof dpowers[0] ; c++)
  2027  0B04  01BF               	clrf	sprintf@c^(0+128)
  2028  0B05  0ABF               	incf	sprintf@c^(0+128),f
  2029  0B06                     l2419:
  2030                           
  2031                           ;C:\Program Files\Microchip\xc8\v2.36\pic\sources\c90\common\doprnt.c: 1332:     if(val 
      +                          < dpowers[c])
  2032  0B06  083F               	movf	sprintf@c^(0+128),w
  2033  0B07  00B6               	movwf	??_sprintf^(0+128)
  2034  0B08  0736               	addwf	??_sprintf^(0+128),w
  2035  0B09  3E01               	addlw	low ((_dpowers-__stringbase)| (0+32768))
  2036  0B0A  0084               	movwf	4
  2037  0B0B  120A  118A  200D  120A  158A  	fcall	stringdir
  2038  0B10  00B7               	movwf	(??_sprintf+1)^(0+128)
  2039  0B11  120A  118A  200D  120A  158A  	fcall	stringdir
  2040  0B16  00B8               	movwf	((??_sprintf+1)^(0+128)+1)
  2041  0B17  0838               	movf	(??_sprintf+2)^(0+128),w
  2042  0B18  023D               	subwf	(sprintf@val+1)^(0+128),w
  2043  0B19  1D03               	skipz
  2044  0B1A  2B1D               	goto	u3205
  2045  0B1B  0837               	movf	(??_sprintf+1)^(0+128),w
  2046  0B1C  023C               	subwf	sprintf@val^(0+128),w
  2047  0B1D                     u3205:
  2048  0B1D  1803               	skipnc
  2049  0B1E  2B20               	goto	u3201
  2050  0B1F  2B21               	goto	u3200
  2051  0B20                     u3201:
  2052  0B20  2B22               	goto	l2423
  2053  0B21                     u3200:
  2054  0B21  2B2C               	goto	l2425
  2055  0B22                     l2423:
  2056  0B22  3001               	movlw	1
  2057  0B23  00B6               	movwf	??_sprintf^(0+128)
  2058  0B24  0836               	movf	??_sprintf^(0+128),w
  2059  0B25  07BF               	addwf	sprintf@c^(0+128),f
  2060  0B26  3005               	movlw	5
  2061  0B27  063F               	xorwf	sprintf@c^(0+128),w
  2062  0B28  1D03               	btfss	3,2
  2063  0B29  2B2B               	goto	u3211
  2064  0B2A  2B2C               	goto	u3210
  2065  0B2B                     u3211:
  2066  0B2B  2B06               	goto	l2419
  2067  0B2C                     u3210:
  2068  0B2C                     l2425:
  2069                           
  2070                           ;C:\Program Files\Microchip\xc8\v2.36\pic\sources\c90\common\doprnt.c: 1448:   {;C:\Prog
      +                          ram Files\Microchip\xc8\v2.36\pic\sources\c90\common\doprnt.c: 1464:    if(flag & 0x03)
  2071  0B2C  0839               	movf	sprintf@flag^(0+128),w
  2072  0B2D  3903               	andlw	3
  2073  0B2E  1903               	btfsc	3,2
  2074  0B2F  2B31               	goto	u3221
  2075  0B30  2B32               	goto	u3220
  2076  0B31                     u3221:
  2077  0B31  2B3D               	goto	l2431
  2078  0B32                     u3220:
  2079  0B32                     l2427:
  2080                           
  2081                           ;C:\Program Files\Microchip\xc8\v2.36\pic\sources\c90\common\doprnt.c: 1465:     ((*sp++
      +                           = ('-')));
  2082  0B32  302D               	movlw	45
  2083  0B33  00B6               	movwf	??_sprintf^(0+128)
  2084  0B34  083E               	movf	sprintf@sp^(0+128),w
  2085  0B35  0084               	movwf	4
  2086  0B36  0836               	movf	??_sprintf^(0+128),w
  2087  0B37  1383               	bcf	3,7	;select IRP bank0
  2088  0B38  0080               	movwf	0
  2089  0B39                     l2429:
  2090  0B39  3001               	movlw	1
  2091  0B3A  00B6               	movwf	??_sprintf^(0+128)
  2092  0B3B  0836               	movf	??_sprintf^(0+128),w
  2093  0B3C  07BE               	addwf	sprintf@sp^(0+128),f
  2094  0B3D                     l2431:
  2095                           
  2096                           ;C:\Program Files\Microchip\xc8\v2.36\pic\sources\c90\common\doprnt.c: 1495:   };C:\Prog
      +                          ram Files\Microchip\xc8\v2.36\pic\sources\c90\common\doprnt.c: 1498:   prec = c;
  2097  0B3D  083F               	movf	sprintf@c^(0+128),w
  2098  0B3E  00B6               	movwf	??_sprintf^(0+128)
  2099  0B3F  0836               	movf	??_sprintf^(0+128),w
  2100  0B40  00BA               	movwf	sprintf@prec^(0+128)
  2101                           
  2102                           ;C:\Program Files\Microchip\xc8\v2.36\pic\sources\c90\common\doprnt.c: 1500:   while(pre
      +                          c--) {
  2103  0B41  2B7B               	goto	l2439
  2104  0B42                     l2433:
  2105                           
  2106                           ;C:\Program Files\Microchip\xc8\v2.36\pic\sources\c90\common\doprnt.c: 1504:    {;C:\Pro
      +                          gram Files\Microchip\xc8\v2.36\pic\sources\c90\common\doprnt.c: 1515:     c = (val / dpo
      +                          wers[(unsigned char)prec]) % 10 + '0';
  2107  0B42  300A               	movlw	10
  2108  0B43  00F8               	movwf	___lwmod@divisor
  2109  0B44  3000               	movlw	0
  2110  0B45  00F9               	movwf	___lwmod@divisor+1
  2111  0B46  083A               	movf	sprintf@prec^(0+128),w
  2112  0B47  00B6               	movwf	??_sprintf^(0+128)
  2113  0B48  0736               	addwf	??_sprintf^(0+128),w
  2114  0B49  3E01               	addlw	low ((_dpowers-__stringbase)| (0+32768))
  2115  0B4A  0084               	movwf	4
  2116  0B4B  120A  118A  200D  120A  158A  	fcall	stringdir
  2117  0B50  00F0               	movwf	___lwdiv@divisor
  2118  0B51  120A  118A  200D  120A  158A  	fcall	stringdir
  2119  0B56  00F1               	movwf	___lwdiv@divisor+1
  2120  0B57  083D               	movf	(sprintf@val+1)^(0+128),w
  2121  0B58  00F3               	movwf	___lwdiv@dividend+1
  2122  0B59  083C               	movf	sprintf@val^(0+128),w
  2123  0B5A  00F2               	movwf	___lwdiv@dividend
  2124  0B5B  160A  118A  268C  120A  158A  	fcall	___lwdiv
  2125  0B60  0871               	movf	?___lwdiv+1,w
  2126  0B61  00FB               	movwf	___lwmod@dividend+1
  2127  0B62  0870               	movf	?___lwdiv,w
  2128  0B63  00FA               	movwf	___lwmod@dividend
  2129  0B64  160A  118A  2652  120A  158A  	fcall	___lwmod
  2130  0B69  0878               	movf	?___lwmod,w
  2131  0B6A  3E30               	addlw	48
  2132  0B6B  1683               	bsf	3,5	;RP0=1, select bank1
  2133  0B6C  1303               	bcf	3,6	;RP1=0, select bank1
  2134  0B6D  00B7               	movwf	(??_sprintf+1)^(0+128)
  2135  0B6E  0837               	movf	(??_sprintf+1)^(0+128),w
  2136  0B6F  00BF               	movwf	sprintf@c^(0+128)
  2137  0B70                     l2435:
  2138                           
  2139                           ;C:\Program Files\Microchip\xc8\v2.36\pic\sources\c90\common\doprnt.c: 1549:    };C:\Pro
      +                          gram Files\Microchip\xc8\v2.36\pic\sources\c90\common\doprnt.c: 1550:    ((*sp++ = (c)))
      +                          ;
  2140  0B70  083F               	movf	sprintf@c^(0+128),w
  2141  0B71  00B6               	movwf	??_sprintf^(0+128)
  2142  0B72  083E               	movf	sprintf@sp^(0+128),w
  2143  0B73  0084               	movwf	4
  2144  0B74  0836               	movf	??_sprintf^(0+128),w
  2145  0B75  1383               	bcf	3,7	;select IRP bank0
  2146  0B76  0080               	movwf	0
  2147  0B77                     l2437:
  2148  0B77  3001               	movlw	1
  2149  0B78  00B6               	movwf	??_sprintf^(0+128)
  2150  0B79  0836               	movf	??_sprintf^(0+128),w
  2151  0B7A  07BE               	addwf	sprintf@sp^(0+128),f
  2152  0B7B                     l2439:
  2153                           
  2154                           ;C:\Program Files\Microchip\xc8\v2.36\pic\sources\c90\common\doprnt.c: 1500:   while(pre
      +                          c--) {
  2155  0B7B  30FF               	movlw	255
  2156  0B7C  00B6               	movwf	??_sprintf^(0+128)
  2157  0B7D  0836               	movf	??_sprintf^(0+128),w
  2158  0B7E  07BA               	addwf	sprintf@prec^(0+128),f
  2159  0B7F  0A3A               	incf	sprintf@prec^(0+128),w
  2160  0B80  1D03               	btfss	3,2
  2161  0B81  2B83               	goto	u3231
  2162  0B82  2B84               	goto	u3230
  2163  0B83                     u3231:
  2164  0B83  2B42               	goto	l2433
  2165  0B84                     u3230:
  2166  0B84                     l2441:
  2167                           
  2168                           ;C:\Program Files\Microchip\xc8\v2.36\pic\sources\c90\common\doprnt.c: 553:  while((c = 
      +                          *f++)) {
  2169  0B84  3001               	movlw	1
  2170  0B85  07B1               	addwf	sprintf@f^(0+128),f
  2171  0B86  30FF               	movlw	-1
  2172  0B87  0731               	addwf	sprintf@f^(0+128),w
  2173  0B88  0084               	movwf	4
  2174  0B89  120A  118A  200D  120A  158A  	fcall	stringdir
  2175  0B8E  00B6               	movwf	??_sprintf^(0+128)
  2176  0B8F  0836               	movf	??_sprintf^(0+128),w
  2177  0B90  00BF               	movwf	sprintf@c^(0+128)
  2178  0B91  083F               	movf	sprintf@c^(0+128),w
  2179  0B92  1D03               	btfss	3,2
  2180  0B93  2B95               	goto	u3241
  2181  0B94  2B96               	goto	u3240
  2182  0B95                     u3241:
  2183  0B95  2AA0               	goto	l2385
  2184  0B96                     u3240:
  2185  0B96                     l2443:
  2186                           
  2187                           ;C:\Program Files\Microchip\xc8\v2.36\pic\sources\c90\common\doprnt.c: 1564:  *sp = 0;
  2188  0B96  083E               	movf	sprintf@sp^(0+128),w
  2189  0B97  0084               	movwf	4
  2190  0B98  1383               	bcf	3,7	;select IRP bank0
  2191  0B99  0180               	clrf	0
  2192  0B9A                     l231:
  2193  0B9A  0008               	return
  2194  0B9B                     __end_of_sprintf:
  2195                           
  2196                           	psect	text2
  2197  1652                     __ptext2:	
  2198 ;; *************** function ___lwmod *****************
  2199 ;; Defined at:
  2200 ;;		line 5 in file "C:\Program Files\Microchip\xc8\v2.36\pic\sources\c90\common\lwmod.c"
  2201 ;; Parameters:    Size  Location     Type
  2202 ;;  divisor         2    8[COMMON] unsigned int 
  2203 ;;  dividend        2   10[COMMON] unsigned int 
  2204 ;; Auto vars:     Size  Location     Type
  2205 ;;  counter         1   13[COMMON] unsigned char 
  2206 ;; Return value:  Size  Location     Type
  2207 ;;                  2    8[COMMON] unsigned int 
  2208 ;; Registers used:
  2209 ;;		wreg, status,2, status,0
  2210 ;; Tracked objects:
  2211 ;;		On entry : 0/0
  2212 ;;		On exit  : 0/0
  2213 ;;		Unchanged: 0/0
  2214 ;; Data sizes:     COMMON   BANK0   BANK1   BANK3   BANK2
  2215 ;;      Params:         4       0       0       0       0
  2216 ;;      Locals:         1       0       0       0       0
  2217 ;;      Temps:          1       0       0       0       0
  2218 ;;      Totals:         6       0       0       0       0
  2219 ;;Total ram usage:        6 bytes
  2220 ;; Hardware stack levels used: 1
  2221 ;; This function calls:
  2222 ;;		Nothing
  2223 ;; This function is called by:
  2224 ;;		_sprintf
  2225 ;; This function uses a non-reentrant model
  2226 ;;
  2227                           
  2228  1652                     ___lwmod:	
  2229                           ;psect for function ___lwmod
  2230                           
  2231  1652                     l2251:	
  2232                           ;incstack = 0
  2233                           ; Regs used in ___lwmod: [wreg+status,2+status,0]
  2234                           
  2235  1652  0878               	movf	___lwmod@divisor,w
  2236  1653  0479               	iorwf	___lwmod@divisor+1,w
  2237  1654  1903               	btfsc	3,2
  2238  1655  2E57               	goto	u2921
  2239  1656  2E58               	goto	u2920
  2240  1657                     u2921:
  2241  1657  2E87               	goto	l2269
  2242  1658                     u2920:
  2243  1658                     l2253:
  2244  1658  01FD               	clrf	___lwmod@counter
  2245  1659  0AFD               	incf	___lwmod@counter,f
  2246  165A  2E66               	goto	l2259
  2247  165B                     l2255:
  2248  165B  3001               	movlw	1
  2249  165C                     u2935:
  2250  165C  1003               	clrc
  2251  165D  0DF8               	rlf	___lwmod@divisor,f
  2252  165E  0DF9               	rlf	___lwmod@divisor+1,f
  2253  165F  3EFF               	addlw	-1
  2254  1660  1D03               	skipz
  2255  1661  2E5C               	goto	u2935
  2256  1662                     l2257:
  2257  1662  3001               	movlw	1
  2258  1663  00FC               	movwf	??___lwmod
  2259  1664  087C               	movf	??___lwmod,w
  2260  1665  07FD               	addwf	___lwmod@counter,f
  2261  1666                     l2259:
  2262  1666  1FF9               	btfss	___lwmod@divisor+1,7
  2263  1667  2E69               	goto	u2941
  2264  1668  2E6A               	goto	u2940
  2265  1669                     u2941:
  2266  1669  2E5B               	goto	l2255
  2267  166A                     u2940:
  2268  166A                     l2261:
  2269  166A  0879               	movf	___lwmod@divisor+1,w
  2270  166B  027B               	subwf	___lwmod@dividend+1,w
  2271  166C  1D03               	skipz
  2272  166D  2E70               	goto	u2955
  2273  166E  0878               	movf	___lwmod@divisor,w
  2274  166F  027A               	subwf	___lwmod@dividend,w
  2275  1670                     u2955:
  2276  1670  1C03               	skipc
  2277  1671  2E73               	goto	u2951
  2278  1672  2E74               	goto	u2950
  2279  1673                     u2951:
  2280  1673  2E7A               	goto	l2265
  2281  1674                     u2950:
  2282  1674                     l2263:
  2283  1674  0878               	movf	___lwmod@divisor,w
  2284  1675  02FA               	subwf	___lwmod@dividend,f
  2285  1676  0879               	movf	___lwmod@divisor+1,w
  2286  1677  1C03               	skipc
  2287  1678  03FB               	decf	___lwmod@dividend+1,f
  2288  1679  02FB               	subwf	___lwmod@dividend+1,f
  2289  167A                     l2265:
  2290  167A  3001               	movlw	1
  2291  167B                     u2965:
  2292  167B  1003               	clrc
  2293  167C  0CF9               	rrf	___lwmod@divisor+1,f
  2294  167D  0CF8               	rrf	___lwmod@divisor,f
  2295  167E  3EFF               	addlw	-1
  2296  167F  1D03               	skipz
  2297  1680  2E7B               	goto	u2965
  2298  1681                     l2267:
  2299  1681  3001               	movlw	1
  2300  1682  02FD               	subwf	___lwmod@counter,f
  2301  1683  1D03               	btfss	3,2
  2302  1684  2E86               	goto	u2971
  2303  1685  2E87               	goto	u2970
  2304  1686                     u2971:
  2305  1686  2E6A               	goto	l2261
  2306  1687                     u2970:
  2307  1687                     l2269:
  2308  1687  087B               	movf	___lwmod@dividend+1,w
  2309  1688  00F9               	movwf	?___lwmod+1
  2310  1689  087A               	movf	___lwmod@dividend,w
  2311  168A  00F8               	movwf	?___lwmod
  2312  168B                     l517:
  2313  168B  0008               	return
  2314  168C                     __end_of___lwmod:
  2315                           
  2316                           	psect	text3
  2317  168C                     __ptext3:	
  2318 ;; *************** function ___lwdiv *****************
  2319 ;; Defined at:
  2320 ;;		line 5 in file "C:\Program Files\Microchip\xc8\v2.36\pic\sources\c90\common\lwdiv.c"
  2321 ;; Parameters:    Size  Location     Type
  2322 ;;  divisor         2    0[COMMON] unsigned int 
  2323 ;;  dividend        2    2[COMMON] unsigned int 
  2324 ;; Auto vars:     Size  Location     Type
  2325 ;;  quotient        2    5[COMMON] unsigned int 
  2326 ;;  counter         1    7[COMMON] unsigned char 
  2327 ;; Return value:  Size  Location     Type
  2328 ;;                  2    0[COMMON] unsigned int 
  2329 ;; Registers used:
  2330 ;;		wreg, status,2, status,0
  2331 ;; Tracked objects:
  2332 ;;		On entry : 0/0
  2333 ;;		On exit  : 0/0
  2334 ;;		Unchanged: 0/0
  2335 ;; Data sizes:     COMMON   BANK0   BANK1   BANK3   BANK2
  2336 ;;      Params:         4       0       0       0       0
  2337 ;;      Locals:         3       0       0       0       0
  2338 ;;      Temps:          1       0       0       0       0
  2339 ;;      Totals:         8       0       0       0       0
  2340 ;;Total ram usage:        8 bytes
  2341 ;; Hardware stack levels used: 1
  2342 ;; This function calls:
  2343 ;;		Nothing
  2344 ;; This function is called by:
  2345 ;;		_sprintf
  2346 ;; This function uses a non-reentrant model
  2347 ;;
  2348                           
  2349  168C                     ___lwdiv:	
  2350                           ;psect for function ___lwdiv
  2351                           
  2352  168C                     l2225:	
  2353                           ;incstack = 0
  2354                           ; Regs used in ___lwdiv: [wreg+status,2+status,0]
  2355                           
  2356  168C  01F5               	clrf	___lwdiv@quotient
  2357  168D  01F6               	clrf	___lwdiv@quotient+1
  2358  168E                     l2227:
  2359  168E  0870               	movf	___lwdiv@divisor,w
  2360  168F  0471               	iorwf	___lwdiv@divisor+1,w
  2361  1690  1903               	btfsc	3,2
  2362  1691  2E93               	goto	u2851
  2363  1692  2E94               	goto	u2850
  2364  1693                     u2851:
  2365  1693  2ECB               	goto	l2247
  2366  1694                     u2850:
  2367  1694                     l2229:
  2368  1694  01F7               	clrf	___lwdiv@counter
  2369  1695  0AF7               	incf	___lwdiv@counter,f
  2370  1696  2EA2               	goto	l2235
  2371  1697                     l2231:
  2372  1697  3001               	movlw	1
  2373  1698                     u2865:
  2374  1698  1003               	clrc
  2375  1699  0DF0               	rlf	___lwdiv@divisor,f
  2376  169A  0DF1               	rlf	___lwdiv@divisor+1,f
  2377  169B  3EFF               	addlw	-1
  2378  169C  1D03               	skipz
  2379  169D  2E98               	goto	u2865
  2380  169E                     l2233:
  2381  169E  3001               	movlw	1
  2382  169F  00F4               	movwf	??___lwdiv
  2383  16A0  0874               	movf	??___lwdiv,w
  2384  16A1  07F7               	addwf	___lwdiv@counter,f
  2385  16A2                     l2235:
  2386  16A2  1FF1               	btfss	___lwdiv@divisor+1,7
  2387  16A3  2EA5               	goto	u2871
  2388  16A4  2EA6               	goto	u2870
  2389  16A5                     u2871:
  2390  16A5  2E97               	goto	l2231
  2391  16A6                     u2870:
  2392  16A6                     l2237:
  2393  16A6  3001               	movlw	1
  2394  16A7                     u2885:
  2395  16A7  1003               	clrc
  2396  16A8  0DF5               	rlf	___lwdiv@quotient,f
  2397  16A9  0DF6               	rlf	___lwdiv@quotient+1,f
  2398  16AA  3EFF               	addlw	-1
  2399  16AB  1D03               	skipz
  2400  16AC  2EA7               	goto	u2885
  2401  16AD  0871               	movf	___lwdiv@divisor+1,w
  2402  16AE  0273               	subwf	___lwdiv@dividend+1,w
  2403  16AF  1D03               	skipz
  2404  16B0  2EB3               	goto	u2895
  2405  16B1  0870               	movf	___lwdiv@divisor,w
  2406  16B2  0272               	subwf	___lwdiv@dividend,w
  2407  16B3                     u2895:
  2408  16B3  1C03               	skipc
  2409  16B4  2EB6               	goto	u2891
  2410  16B5  2EB7               	goto	u2890
  2411  16B6                     u2891:
  2412  16B6  2EBE               	goto	l2243
  2413  16B7                     u2890:
  2414  16B7                     l2239:
  2415  16B7  0870               	movf	___lwdiv@divisor,w
  2416  16B8  02F2               	subwf	___lwdiv@dividend,f
  2417  16B9  0871               	movf	___lwdiv@divisor+1,w
  2418  16BA  1C03               	skipc
  2419  16BB  03F3               	decf	___lwdiv@dividend+1,f
  2420  16BC  02F3               	subwf	___lwdiv@dividend+1,f
  2421  16BD                     l2241:
  2422  16BD  1475               	bsf	___lwdiv@quotient,0
  2423  16BE                     l2243:
  2424  16BE  3001               	movlw	1
  2425  16BF                     u2905:
  2426  16BF  1003               	clrc
  2427  16C0  0CF1               	rrf	___lwdiv@divisor+1,f
  2428  16C1  0CF0               	rrf	___lwdiv@divisor,f
  2429  16C2  3EFF               	addlw	-1
  2430  16C3  1D03               	skipz
  2431  16C4  2EBF               	goto	u2905
  2432  16C5                     l2245:
  2433  16C5  3001               	movlw	1
  2434  16C6  02F7               	subwf	___lwdiv@counter,f
  2435  16C7  1D03               	btfss	3,2
  2436  16C8  2ECA               	goto	u2911
  2437  16C9  2ECB               	goto	u2910
  2438  16CA                     u2911:
  2439  16CA  2EA6               	goto	l2237
  2440  16CB                     u2910:
  2441  16CB                     l2247:
  2442  16CB  0876               	movf	___lwdiv@quotient+1,w
  2443  16CC  00F1               	movwf	?___lwdiv+1
  2444  16CD  0875               	movf	___lwdiv@quotient,w
  2445  16CE  00F0               	movwf	?___lwdiv
  2446  16CF                     l507:
  2447  16CF  0008               	return
  2448  16D0                     __end_of___lwdiv:
  2449                           
  2450                           	psect	text4
  2451  0091                     __ptext4:	
  2452 ;; *************** function _log *****************
  2453 ;; Defined at:
  2454 ;;		line 5 in file "C:\Program Files\Microchip\xc8\v2.36\pic\sources\c90\common\log.c"
  2455 ;; Parameters:    Size  Location     Type
  2456 ;;  x               4   16[BANK1 ] unsigned int 
  2457 ;; Auto vars:     Size  Location     Type
  2458 ;;  exponent        2   20[BANK1 ] int 
  2459 ;; Return value:  Size  Location     Type
  2460 ;;                  4   16[BANK1 ] int 
  2461 ;; Registers used:
  2462 ;;		wreg, fsr0l, fsr0h, status,2, status,0, btemp+1, pclath, cstack
  2463 ;; Tracked objects:
  2464 ;;		On entry : 0/0
  2465 ;;		On exit  : 0/0
  2466 ;;		Unchanged: 0/0
  2467 ;; Data sizes:     COMMON   BANK0   BANK1   BANK3   BANK2
  2468 ;;      Params:         0       0       4       0       0
  2469 ;;      Locals:         0       0       2       0       0
  2470 ;;      Temps:          0       1       0       0       0
  2471 ;;      Totals:         0       1       6       0       0
  2472 ;;Total ram usage:        7 bytes
  2473 ;; Hardware stack levels used: 1
  2474 ;; Hardware stack levels required when called: 3
  2475 ;; This function calls:
  2476 ;;		___fladd
  2477 ;;		___fleq
  2478 ;;		___flge
  2479 ;;		___flmul
  2480 ;;		___xxtofl
  2481 ;;		_eval_poly
  2482 ;;		_frexp
  2483 ;; This function is called by:
  2484 ;;		_main
  2485 ;; This function uses a non-reentrant model
  2486 ;;
  2487                           
  2488  0091                     _log:	
  2489                           ;psect for function _log
  2490                           
  2491  0091                     l2361:	
  2492                           ;incstack = 0
  2493                           ; Regs used in _log: [wreg-fsr0h+status,2+status,0+btemp+1+pclath+cstack]
  2494                           
  2495  0091  1683               	bsf	3,5	;RP0=1, select bank1
  2496  0092  1303               	bcf	3,6	;RP1=0, select bank1
  2497  0093  0833               	movf	(log@x+3)^(0+128),w
  2498  0094  00F3               	movwf	___flge@ff1+3
  2499  0095  0832               	movf	(log@x+2)^(0+128),w
  2500  0096  00F2               	movwf	___flge@ff1+2
  2501  0097  0831               	movf	(log@x+1)^(0+128),w
  2502  0098  00F1               	movwf	___flge@ff1+1
  2503  0099  0830               	movf	log@x^(0+128),w
  2504  009A  00F0               	movwf	___flge@ff1
  2505  009B  3000               	movlw	0
  2506  009C  00F7               	movwf	___flge@ff2+3
  2507  009D  3000               	movlw	0
  2508  009E  00F6               	movwf	___flge@ff2+2
  2509  009F  3000               	movlw	0
  2510  00A0  00F5               	movwf	___flge@ff2+1
  2511  00A1  3000               	movlw	0
  2512  00A2  00F4               	movwf	___flge@ff2
  2513  00A3  120A  158A  2062  120A  118A  	fcall	___flge
  2514  00A8  1803               	btfsc	3,0
  2515  00A9  28AB               	goto	u3161
  2516  00AA  28AC               	goto	u3160
  2517  00AB                     u3161:
  2518  00AB  28BB               	goto	l2367
  2519  00AC                     u3160:
  2520  00AC                     l2363:
  2521  00AC  3021               	movlw	33
  2522  00AD  1683               	bsf	3,5	;RP0=1, select bank1
  2523  00AE  1303               	bcf	3,6	;RP1=0, select bank1
  2524  00AF  00E6               	movwf	_errno^(0+128)
  2525  00B0  3000               	movlw	0
  2526  00B1  00E7               	movwf	(_errno^(0+128)+1)
  2527  00B2  3000               	movlw	0
  2528  00B3  00B3               	movwf	(?_log+3)^(0+128)
  2529  00B4  3000               	movlw	0
  2530  00B5  00B2               	movwf	(?_log+2)^(0+128)
  2531  00B6  3000               	movlw	0
  2532  00B7  00B1               	movwf	(?_log+1)^(0+128)
  2533  00B8  3000               	movlw	0
  2534  00B9  00B0               	movwf	?_log^(0+128)
  2535  00BA  29DC               	goto	l695
  2536  00BB                     l2367:
  2537  00BB  1683               	bsf	3,5	;RP0=1, select bank1
  2538  00BC  1303               	bcf	3,6	;RP1=0, select bank1
  2539  00BD  0833               	movf	(log@x+3)^(0+128),w
  2540  00BE  00F3               	movwf	___fleq@ff1+3
  2541  00BF  0832               	movf	(log@x+2)^(0+128),w
  2542  00C0  00F2               	movwf	___fleq@ff1+2
  2543  00C1  0831               	movf	(log@x+1)^(0+128),w
  2544  00C2  00F1               	movwf	___fleq@ff1+1
  2545  00C3  0830               	movf	log@x^(0+128),w
  2546  00C4  00F0               	movwf	___fleq@ff1
  2547  00C5  3000               	movlw	0
  2548  00C6  00F7               	movwf	___fleq@ff2+3
  2549  00C7  3000               	movlw	0
  2550  00C8  00F6               	movwf	___fleq@ff2+2
  2551  00C9  3000               	movlw	0
  2552  00CA  00F5               	movwf	___fleq@ff2+1
  2553  00CB  3000               	movlw	0
  2554  00CC  00F4               	movwf	___fleq@ff2
  2555  00CD  160A  118A  26D0  120A  118A  	fcall	___fleq
  2556  00D2  1C03               	btfss	3,0
  2557  00D3  28D5               	goto	u3171
  2558  00D4  28D6               	goto	u3170
  2559  00D5                     u3171:
  2560  00D5  28E5               	goto	l2373
  2561  00D6                     u3170:
  2562  00D6                     l2369:
  2563  00D6  3022               	movlw	34
  2564  00D7  1683               	bsf	3,5	;RP0=1, select bank1
  2565  00D8  1303               	bcf	3,6	;RP1=0, select bank1
  2566  00D9  00E6               	movwf	_errno^(0+128)
  2567  00DA  3000               	movlw	0
  2568  00DB  00E7               	movwf	(_errno^(0+128)+1)
  2569  00DC  3000               	movlw	0
  2570  00DD  00B3               	movwf	(?_log+3)^(0+128)
  2571  00DE  3000               	movlw	0
  2572  00DF  00B2               	movwf	(?_log+2)^(0+128)
  2573  00E0  3000               	movlw	0
  2574  00E1  00B1               	movwf	(?_log+1)^(0+128)
  2575  00E2  3000               	movlw	0
  2576  00E3  00B0               	movwf	?_log^(0+128)
  2577  00E4  29DC               	goto	l695
  2578  00E5                     l2373:
  2579  00E5  30BF               	movlw	191
  2580  00E6  1283               	bcf	3,5	;RP0=0, select bank0
  2581  00E7  1303               	bcf	3,6	;RP1=0, select bank0
  2582  00E8  00DC               	movwf	___fladd@b+3
  2583  00E9  3080               	movlw	128
  2584  00EA  00DB               	movwf	___fladd@b+2
  2585  00EB  3000               	movlw	0
  2586  00EC  00DA               	movwf	___fladd@b+1
  2587  00ED  3000               	movlw	0
  2588  00EE  00D9               	movwf	___fladd@b
  2589  00EF  3040               	movlw	64
  2590  00F0  00A8               	movwf	___flmul@b+3
  2591  00F1  3000               	movlw	0
  2592  00F2  00A7               	movwf	___flmul@b+2
  2593  00F3  3000               	movlw	0
  2594  00F4  00A6               	movwf	___flmul@b+1
  2595  00F5  3000               	movlw	0
  2596  00F6  00A5               	movwf	___flmul@b
  2597  00F7  30B4               	movlw	(low (log@exponent| 0))& (0+255)
  2598  00F8  00ED               	movwf	??_log
  2599  00F9  086D               	movf	??_log,w
  2600  00FA  00A4               	movwf	frexp@eptr
  2601  00FB  1683               	bsf	3,5	;RP0=1, select bank1
  2602  00FC  1303               	bcf	3,6	;RP1=0, select bank1
  2603  00FD  0833               	movf	(log@x+3)^(0+128),w
  2604  00FE  1283               	bcf	3,5	;RP0=0, select bank0
  2605  00FF  1303               	bcf	3,6	;RP1=0, select bank0
  2606  0100  00A3               	movwf	frexp@value+3
  2607  0101  1683               	bsf	3,5	;RP0=1, select bank1
  2608  0102  1303               	bcf	3,6	;RP1=0, select bank1
  2609  0103  0832               	movf	(log@x+2)^(0+128),w
  2610  0104  1283               	bcf	3,5	;RP0=0, select bank0
  2611  0105  1303               	bcf	3,6	;RP1=0, select bank0
  2612  0106  00A2               	movwf	frexp@value+2
  2613  0107  1683               	bsf	3,5	;RP0=1, select bank1
  2614  0108  1303               	bcf	3,6	;RP1=0, select bank1
  2615  0109  0831               	movf	(log@x+1)^(0+128),w
  2616  010A  1283               	bcf	3,5	;RP0=0, select bank0
  2617  010B  1303               	bcf	3,6	;RP1=0, select bank0
  2618  010C  00A1               	movwf	frexp@value+1
  2619  010D  1683               	bsf	3,5	;RP0=1, select bank1
  2620  010E  1303               	bcf	3,6	;RP1=0, select bank1
  2621  010F  0830               	movf	log@x^(0+128),w
  2622  0110  1283               	bcf	3,5	;RP0=0, select bank0
  2623  0111  1303               	bcf	3,6	;RP1=0, select bank0
  2624  0112  00A0               	movwf	frexp@value
  2625  0113  120A  158A  2006  120A  118A  	fcall	_frexp
  2626  0118  1283               	bcf	3,5	;RP0=0, select bank0
  2627  0119  1303               	bcf	3,6	;RP1=0, select bank0
  2628  011A  0823               	movf	?_frexp+3,w
  2629  011B  00AC               	movwf	___flmul@a+3
  2630  011C  0822               	movf	?_frexp+2,w
  2631  011D  00AB               	movwf	___flmul@a+2
  2632  011E  0821               	movf	?_frexp+1,w
  2633  011F  00AA               	movwf	___flmul@a+1
  2634  0120  0820               	movf	?_frexp,w
  2635  0121  00A9               	movwf	___flmul@a
  2636  0122  120A  118A  248D  120A  118A  	fcall	___flmul
  2637  0127  1283               	bcf	3,5	;RP0=0, select bank0
  2638  0128  1303               	bcf	3,6	;RP1=0, select bank0
  2639  0129  0828               	movf	?___flmul+3,w
  2640  012A  00E0               	movwf	___fladd@a+3
  2641  012B  0827               	movf	?___flmul+2,w
  2642  012C  00DF               	movwf	___fladd@a+2
  2643  012D  0826               	movf	?___flmul+1,w
  2644  012E  00DE               	movwf	___fladd@a+1
  2645  012F  0825               	movf	?___flmul,w
  2646  0130  00DD               	movwf	___fladd@a
  2647  0131  120A  158A  2578  120A  118A  	fcall	___fladd
  2648  0136  1283               	bcf	3,5	;RP0=0, select bank0
  2649  0137  1303               	bcf	3,6	;RP1=0, select bank0
  2650  0138  085C               	movf	?___fladd+3,w
  2651  0139  1683               	bsf	3,5	;RP0=1, select bank1
  2652  013A  1303               	bcf	3,6	;RP1=0, select bank1
  2653  013B  00B3               	movwf	(log@x+3)^(0+128)
  2654  013C  1283               	bcf	3,5	;RP0=0, select bank0
  2655  013D  1303               	bcf	3,6	;RP1=0, select bank0
  2656  013E  085B               	movf	?___fladd+2,w
  2657  013F  1683               	bsf	3,5	;RP0=1, select bank1
  2658  0140  1303               	bcf	3,6	;RP1=0, select bank1
  2659  0141  00B2               	movwf	(log@x+2)^(0+128)
  2660  0142  1283               	bcf	3,5	;RP0=0, select bank0
  2661  0143  1303               	bcf	3,6	;RP1=0, select bank0
  2662  0144  085A               	movf	?___fladd+1,w
  2663  0145  1683               	bsf	3,5	;RP0=1, select bank1
  2664  0146  1303               	bcf	3,6	;RP1=0, select bank1
  2665  0147  00B1               	movwf	(log@x+1)^(0+128)
  2666  0148  1283               	bcf	3,5	;RP0=0, select bank0
  2667  0149  1303               	bcf	3,6	;RP1=0, select bank0
  2668  014A  0859               	movf	?___fladd,w
  2669  014B  1683               	bsf	3,5	;RP0=1, select bank1
  2670  014C  1303               	bcf	3,6	;RP1=0, select bank1
  2671  014D  00B0               	movwf	log@x^(0+128)
  2672  014E                     l2375:
  2673  014E  30FF               	movlw	255
  2674  014F  07B4               	addwf	log@exponent^(0+128),f
  2675  0150  1803               	skipnc
  2676  0151  0AB5               	incf	(log@exponent+1)^(0+128),f
  2677  0152  30FF               	movlw	255
  2678  0153  07B5               	addwf	(log@exponent+1)^(0+128),f
  2679  0154                     l2377:
  2680  0154  0833               	movf	(log@x+3)^(0+128),w
  2681  0155  00A3               	movwf	(eval_poly@x+3)^(0+128)
  2682  0156  0832               	movf	(log@x+2)^(0+128),w
  2683  0157  00A2               	movwf	(eval_poly@x+2)^(0+128)
  2684  0158  0831               	movf	(log@x+1)^(0+128),w
  2685  0159  00A1               	movwf	(eval_poly@x+1)^(0+128)
  2686  015A  0830               	movf	log@x^(0+128),w
  2687  015B  00A0               	movwf	eval_poly@x^(0+128)
  2688  015C  300B               	movlw	(low ((log@coeff-__stringbase)| (0+32768)))& (0+255)
  2689  015D  1283               	bcf	3,5	;RP0=0, select bank0
  2690  015E  1303               	bcf	3,6	;RP1=0, select bank0
  2691  015F  00ED               	movwf	??_log
  2692  0160  086D               	movf	??_log,w
  2693  0161  1683               	bsf	3,5	;RP0=1, select bank1
  2694  0162  1303               	bcf	3,6	;RP1=0, select bank1
  2695  0163  00A4               	movwf	eval_poly@d^(0+128)
  2696  0164  3008               	movlw	8
  2697  0165  00A5               	movwf	eval_poly@n^(0+128)
  2698  0166  3000               	movlw	0
  2699  0167  00A6               	movwf	(eval_poly@n^(0+128)+1)
  2700  0168  120A  158A  21BE  120A  118A  	fcall	_eval_poly
  2701  016D  1683               	bsf	3,5	;RP0=1, select bank1
  2702  016E  1303               	bcf	3,6	;RP1=0, select bank1
  2703  016F  0823               	movf	(?_eval_poly+3)^(0+128),w
  2704  0170  00B3               	movwf	(log@x+3)^(0+128)
  2705  0171  0822               	movf	(?_eval_poly+2)^(0+128),w
  2706  0172  00B2               	movwf	(log@x+2)^(0+128)
  2707  0173  0821               	movf	(?_eval_poly+1)^(0+128),w
  2708  0174  00B1               	movwf	(log@x+1)^(0+128)
  2709  0175  0820               	movf	?_eval_poly^(0+128),w
  2710  0176  00B0               	movwf	log@x^(0+128)
  2711  0177                     l2379:
  2712  0177  0833               	movf	(log@x+3)^(0+128),w
  2713  0178  1283               	bcf	3,5	;RP0=0, select bank0
  2714  0179  1303               	bcf	3,6	;RP1=0, select bank0
  2715  017A  00DC               	movwf	___fladd@b+3
  2716  017B  1683               	bsf	3,5	;RP0=1, select bank1
  2717  017C  1303               	bcf	3,6	;RP1=0, select bank1
  2718  017D  0832               	movf	(log@x+2)^(0+128),w
  2719  017E  1283               	bcf	3,5	;RP0=0, select bank0
  2720  017F  1303               	bcf	3,6	;RP1=0, select bank0
  2721  0180  00DB               	movwf	___fladd@b+2
  2722  0181  1683               	bsf	3,5	;RP0=1, select bank1
  2723  0182  1303               	bcf	3,6	;RP1=0, select bank1
  2724  0183  0831               	movf	(log@x+1)^(0+128),w
  2725  0184  1283               	bcf	3,5	;RP0=0, select bank0
  2726  0185  1303               	bcf	3,6	;RP1=0, select bank0
  2727  0186  00DA               	movwf	___fladd@b+1
  2728  0187  1683               	bsf	3,5	;RP0=1, select bank1
  2729  0188  1303               	bcf	3,6	;RP1=0, select bank1
  2730  0189  0830               	movf	log@x^(0+128),w
  2731  018A  1283               	bcf	3,5	;RP0=0, select bank0
  2732  018B  1303               	bcf	3,6	;RP1=0, select bank0
  2733  018C  00D9               	movwf	___fladd@b
  2734  018D  303F               	movlw	63
  2735  018E  00A8               	movwf	___flmul@b+3
  2736  018F  3031               	movlw	49
  2737  0190  00A7               	movwf	___flmul@b+2
  2738  0191  3072               	movlw	114
  2739  0192  00A6               	movwf	___flmul@b+1
  2740  0193  3018               	movlw	24
  2741  0194  00A5               	movwf	___flmul@b
  2742  0195  1683               	bsf	3,5	;RP0=1, select bank1
  2743  0196  1303               	bcf	3,6	;RP1=0, select bank1
  2744  0197  0834               	movf	log@exponent^(0+128),w
  2745  0198  00F0               	movwf	___xxtofl@val
  2746  0199  0835               	movf	(log@exponent+1)^(0+128),w
  2747  019A  00F1               	movwf	___xxtofl@val+1
  2748  019B  3000               	movlw	0
  2749  019C  1BF1               	btfsc	___xxtofl@val+1,7
  2750  019D  30FF               	movlw	255
  2751  019E  00F2               	movwf	___xxtofl@val+2
  2752  019F  00F3               	movwf	___xxtofl@val+3
  2753  01A0  3001               	movlw	1
  2754  01A1  120A  158A  2104  120A  118A  	fcall	___xxtofl
  2755  01A6  0873               	movf	?___xxtofl+3,w
  2756  01A7  1283               	bcf	3,5	;RP0=0, select bank0
  2757  01A8  1303               	bcf	3,6	;RP1=0, select bank0
  2758  01A9  00AC               	movwf	___flmul@a+3
  2759  01AA  0872               	movf	?___xxtofl+2,w
  2760  01AB  00AB               	movwf	___flmul@a+2
  2761  01AC  0871               	movf	?___xxtofl+1,w
  2762  01AD  00AA               	movwf	___flmul@a+1
  2763  01AE  0870               	movf	?___xxtofl,w
  2764  01AF  00A9               	movwf	___flmul@a
  2765  01B0  120A  118A  248D  120A  118A  	fcall	___flmul
  2766  01B5  1283               	bcf	3,5	;RP0=0, select bank0
  2767  01B6  1303               	bcf	3,6	;RP1=0, select bank0
  2768  01B7  0828               	movf	?___flmul+3,w
  2769  01B8  00E0               	movwf	___fladd@a+3
  2770  01B9  0827               	movf	?___flmul+2,w
  2771  01BA  00DF               	movwf	___fladd@a+2
  2772  01BB  0826               	movf	?___flmul+1,w
  2773  01BC  00DE               	movwf	___fladd@a+1
  2774  01BD  0825               	movf	?___flmul,w
  2775  01BE  00DD               	movwf	___fladd@a
  2776  01BF  120A  158A  2578  120A  118A  	fcall	___fladd
  2777  01C4  1283               	bcf	3,5	;RP0=0, select bank0
  2778  01C5  1303               	bcf	3,6	;RP1=0, select bank0
  2779  01C6  085C               	movf	?___fladd+3,w
  2780  01C7  1683               	bsf	3,5	;RP0=1, select bank1
  2781  01C8  1303               	bcf	3,6	;RP1=0, select bank1
  2782  01C9  00B3               	movwf	(?_log+3)^(0+128)
  2783  01CA  1283               	bcf	3,5	;RP0=0, select bank0
  2784  01CB  1303               	bcf	3,6	;RP1=0, select bank0
  2785  01CC  085B               	movf	?___fladd+2,w
  2786  01CD  1683               	bsf	3,5	;RP0=1, select bank1
  2787  01CE  1303               	bcf	3,6	;RP1=0, select bank1
  2788  01CF  00B2               	movwf	(?_log+2)^(0+128)
  2789  01D0  1283               	bcf	3,5	;RP0=0, select bank0
  2790  01D1  1303               	bcf	3,6	;RP1=0, select bank0
  2791  01D2  085A               	movf	?___fladd+1,w
  2792  01D3  1683               	bsf	3,5	;RP0=1, select bank1
  2793  01D4  1303               	bcf	3,6	;RP1=0, select bank1
  2794  01D5  00B1               	movwf	(?_log+1)^(0+128)
  2795  01D6  1283               	bcf	3,5	;RP0=0, select bank0
  2796  01D7  1303               	bcf	3,6	;RP1=0, select bank0
  2797  01D8  0859               	movf	?___fladd,w
  2798  01D9  1683               	bsf	3,5	;RP0=1, select bank1
  2799  01DA  1303               	bcf	3,6	;RP1=0, select bank1
  2800  01DB  00B0               	movwf	?_log^(0+128)
  2801  01DC                     l695:
  2802  01DC  0008               	return
  2803  01DD                     __end_of_log:
  2804                           
  2805                           	psect	text5
  2806  0806                     __ptext5:	
  2807 ;; *************** function _frexp *****************
  2808 ;; Defined at:
  2809 ;;		line 254 in file "C:\Program Files\Microchip\xc8\v2.36\pic\sources\c90\common\frexp.c"
  2810 ;; Parameters:    Size  Location     Type
  2811 ;;  value           4    0[BANK0 ] int 
  2812 ;;  eptr            1    4[BANK0 ] PTR int 
  2813 ;;		 -> log@exponent(2), 
  2814 ;; Auto vars:     Size  Location     Type
  2815 ;;		None
  2816 ;; Return value:  Size  Location     Type
  2817 ;;                  4    0[BANK0 ] PTR int 
  2818 ;; Registers used:
  2819 ;;		wreg, fsr0l, fsr0h, status,2, status,0, btemp+1, pclath, cstack
  2820 ;; Tracked objects:
  2821 ;;		On entry : 0/0
  2822 ;;		On exit  : 0/0
  2823 ;;		Unchanged: 0/0
  2824 ;; Data sizes:     COMMON   BANK0   BANK1   BANK3   BANK2
  2825 ;;      Params:         0       5       0       0       0
  2826 ;;      Locals:         0       0       0       0       0
  2827 ;;      Temps:          2       0       0       0       0
  2828 ;;      Totals:         2       5       0       0       0
  2829 ;;Total ram usage:        7 bytes
  2830 ;; Hardware stack levels used: 1
  2831 ;; Hardware stack levels required when called: 1
  2832 ;; This function calls:
  2833 ;;		___fleq
  2834 ;; This function is called by:
  2835 ;;		_log
  2836 ;; This function uses a non-reentrant model
  2837 ;;
  2838                           
  2839  0806                     _frexp:	
  2840                           ;psect for function _frexp
  2841                           
  2842  0806                     l2317:	
  2843                           ;incstack = 0
  2844                           ; Regs used in _frexp: [wreg-fsr0h+status,2+status,0+btemp+1+pclath+cstack]
  2845                           
  2846  0806  1283               	bcf	3,5	;RP0=0, select bank0
  2847  0807  1303               	bcf	3,6	;RP1=0, select bank0
  2848  0808  0823               	movf	frexp@value+3,w
  2849  0809  00F3               	movwf	___fleq@ff1+3
  2850  080A  0822               	movf	frexp@value+2,w
  2851  080B  00F2               	movwf	___fleq@ff1+2
  2852  080C  0821               	movf	frexp@value+1,w
  2853  080D  00F1               	movwf	___fleq@ff1+1
  2854  080E  0820               	movf	frexp@value,w
  2855  080F  00F0               	movwf	___fleq@ff1
  2856  0810  3000               	movlw	0
  2857  0811  00F7               	movwf	___fleq@ff2+3
  2858  0812  3000               	movlw	0
  2859  0813  00F6               	movwf	___fleq@ff2+2
  2860  0814  3000               	movlw	0
  2861  0815  00F5               	movwf	___fleq@ff2+1
  2862  0816  3000               	movlw	0
  2863  0817  00F4               	movwf	___fleq@ff2
  2864  0818  160A  118A  26D0  120A  158A  	fcall	___fleq
  2865  081D  1C03               	btfss	3,0
  2866  081E  2820               	goto	u3121
  2867  081F  2821               	goto	u3120
  2868  0820                     u3121:
  2869  0820  2832               	goto	l2325
  2870  0821                     u3120:
  2871  0821                     l2319:
  2872  0821  1283               	bcf	3,5	;RP0=0, select bank0
  2873  0822  1303               	bcf	3,6	;RP1=0, select bank0
  2874  0823  0824               	movf	frexp@eptr,w
  2875  0824  0084               	movwf	4
  2876  0825  1383               	bcf	3,7	;select IRP bank0
  2877  0826  0180               	clrf	0
  2878  0827  0A84               	incf	4,f
  2879  0828  0180               	clrf	0
  2880  0829                     l2321:
  2881  0829  3000               	movlw	0
  2882  082A  00A3               	movwf	?_frexp+3
  2883  082B  3000               	movlw	0
  2884  082C  00A2               	movwf	?_frexp+2
  2885  082D  3000               	movlw	0
  2886  082E  00A1               	movwf	?_frexp+1
  2887  082F  3000               	movlw	0
  2888  0830  00A0               	movwf	?_frexp
  2889  0831  2861               	goto	l713
  2890  0832                     l2325:
  2891  0832  1283               	bcf	3,5	;RP0=0, select bank0
  2892  0833  1303               	bcf	3,6	;RP1=0, select bank0
  2893  0834  0823               	movf	frexp@value+3,w
  2894  0835  397F               	andlw	127
  2895  0836  00FC               	movwf	??_frexp
  2896  0837  01FD               	clrf	??_frexp+1
  2897  0838  1003               	clrc
  2898  0839  0DFC               	rlf	??_frexp,f
  2899  083A  0DFD               	rlf	??_frexp+1,f
  2900  083B  0824               	movf	frexp@eptr,w
  2901  083C  0084               	movwf	4
  2902  083D  087C               	movf	??_frexp,w
  2903  083E  1383               	bcf	3,7	;select IRP bank0
  2904  083F  0080               	movwf	0
  2905  0840  0A84               	incf	4,f
  2906  0841  087D               	movf	??_frexp+1,w
  2907  0842  0080               	movwf	0
  2908  0843  0D22               	rlf	frexp@value+2,w
  2909  0844  0D22               	rlf	frexp@value+2,w
  2910  0845  3901               	andlw	1
  2911  0846  00FC               	movwf	??_frexp
  2912  0847  01FD               	clrf	??_frexp+1
  2913  0848  0824               	movf	frexp@eptr,w
  2914  0849  0084               	movwf	4
  2915  084A  087C               	movf	??_frexp,w
  2916  084B  0480               	iorwf	0,f
  2917  084C  0A84               	incf	4,f
  2918  084D  087D               	movf	??_frexp+1,w
  2919  084E  0480               	iorwf	0,f
  2920  084F                     l2327:
  2921  084F  0824               	movf	frexp@eptr,w
  2922  0850  0084               	movwf	4
  2923  0851  3082               	movlw	130
  2924  0852  0780               	addwf	0,f
  2925  0853  0F84               	incfsz	4,f
  2926  0854  0800               	movf	0,w
  2927  0855  1803               	skipnc
  2928  0856  0A00               	incf	0,w
  2929  0857  00FF               	movwf	btemp+1
  2930  0858  30FF               	movlw	255
  2931  0859  077F               	addwf	btemp+1,w
  2932  085A  0080               	movwf	0
  2933  085B  0384               	decf	4,f
  2934  085C                     l2329:
  2935  085C  0823               	movf	frexp@value+3,w
  2936  085D  3980               	andlw	-128
  2937  085E  383F               	iorlw	63
  2938  085F  00A3               	movwf	frexp@value+3
  2939  0860                     l2331:
  2940  0860  13A2               	bcf	frexp@value+2,7
  2941  0861                     l2333:
  2942  0861                     l713:
  2943  0861  0008               	return
  2944  0862                     __end_of_frexp:
  2945                           
  2946                           	psect	text6
  2947  16D0                     __ptext6:	
  2948 ;; *************** function ___fleq *****************
  2949 ;; Defined at:
  2950 ;;		line 4 in file "C:\Program Files\Microchip\xc8\v2.36\pic\sources\c90\common\fleq.c"
  2951 ;; Parameters:    Size  Location     Type
  2952 ;;  ff1             4    0[COMMON] PTR int 
  2953 ;;  ff2             4    4[COMMON] PTR int 
  2954 ;; Auto vars:     Size  Location     Type
  2955 ;;		None
  2956 ;; Return value:  Size  Location     Type
  2957 ;;		None               void
  2958 ;; Registers used:
  2959 ;;		wreg, status,2, status,0
  2960 ;; Tracked objects:
  2961 ;;		On entry : 0/0
  2962 ;;		On exit  : 0/0
  2963 ;;		Unchanged: 0/0
  2964 ;; Data sizes:     COMMON   BANK0   BANK1   BANK3   BANK2
  2965 ;;      Params:         8       0       0       0       0
  2966 ;;      Locals:         0       0       0       0       0
  2967 ;;      Temps:          4       0       0       0       0
  2968 ;;      Totals:        12       0       0       0       0
  2969 ;;Total ram usage:       12 bytes
  2970 ;; Hardware stack levels used: 1
  2971 ;; This function calls:
  2972 ;;		Nothing
  2973 ;; This function is called by:
  2974 ;;		_log
  2975 ;;		_frexp
  2976 ;; This function uses a non-reentrant model
  2977 ;;
  2978                           
  2979  16D0                     ___fleq:	
  2980                           ;psect for function ___fleq
  2981                           
  2982  16D0                     l1831:	
  2983                           ;incstack = 0
  2984                           ; Regs used in ___fleq: [wreg+status,2+status,0]
  2985                           
  2986  16D0  3000               	movlw	0
  2987  16D1  0570               	andwf	___fleq@ff1,w
  2988  16D2  00F8               	movwf	??___fleq
  2989  16D3  3000               	movlw	0
  2990  16D4  0571               	andwf	___fleq@ff1+1,w
  2991  16D5  00F9               	movwf	??___fleq+1
  2992  16D6  3080               	movlw	128
  2993  16D7  0572               	andwf	___fleq@ff1+2,w
  2994  16D8  00FA               	movwf	??___fleq+2
  2995  16D9  307F               	movlw	127
  2996  16DA  0573               	andwf	___fleq@ff1+3,w
  2997  16DB  00FB               	movwf	??___fleq+3
  2998  16DC  087B               	movf	??___fleq+3,w
  2999  16DD  047A               	iorwf	??___fleq+2,w
  3000  16DE  0479               	iorwf	??___fleq+1,w
  3001  16DF  0478               	iorwf	??___fleq,w
  3002  16E0  1D03               	skipz
  3003  16E1  2EE3               	goto	u1901
  3004  16E2  2EE4               	goto	u1900
  3005  16E3                     u1901:
  3006  16E3  2EEC               	goto	l404
  3007  16E4                     u1900:
  3008  16E4                     l1833:
  3009  16E4  3000               	movlw	0
  3010  16E5  00F3               	movwf	___fleq@ff1+3
  3011  16E6  3000               	movlw	0
  3012  16E7  00F2               	movwf	___fleq@ff1+2
  3013  16E8  3000               	movlw	0
  3014  16E9  00F1               	movwf	___fleq@ff1+1
  3015  16EA  3000               	movlw	0
  3016  16EB  00F0               	movwf	___fleq@ff1
  3017  16EC                     l404:
  3018  16EC  3000               	movlw	0
  3019  16ED  0574               	andwf	___fleq@ff2,w
  3020  16EE  00F8               	movwf	??___fleq
  3021  16EF  3000               	movlw	0
  3022  16F0  0575               	andwf	___fleq@ff2+1,w
  3023  16F1  00F9               	movwf	??___fleq+1
  3024  16F2  3080               	movlw	128
  3025  16F3  0576               	andwf	___fleq@ff2+2,w
  3026  16F4  00FA               	movwf	??___fleq+2
  3027  16F5  307F               	movlw	127
  3028  16F6  0577               	andwf	___fleq@ff2+3,w
  3029  16F7  00FB               	movwf	??___fleq+3
  3030  16F8  087B               	movf	??___fleq+3,w
  3031  16F9  047A               	iorwf	??___fleq+2,w
  3032  16FA  0479               	iorwf	??___fleq+1,w
  3033  16FB  0478               	iorwf	??___fleq,w
  3034  16FC  1D03               	skipz
  3035  16FD  2EFF               	goto	u1911
  3036  16FE  2F00               	goto	u1910
  3037  16FF                     u1911:
  3038  16FF  2F08               	goto	l405
  3039  1700                     u1910:
  3040  1700                     l1835:
  3041  1700  3000               	movlw	0
  3042  1701  00F7               	movwf	___fleq@ff2+3
  3043  1702  3000               	movlw	0
  3044  1703  00F6               	movwf	___fleq@ff2+2
  3045  1704  3000               	movlw	0
  3046  1705  00F5               	movwf	___fleq@ff2+1
  3047  1706  3000               	movlw	0
  3048  1707  00F4               	movwf	___fleq@ff2
  3049  1708                     l405:
  3050  1708  0877               	movf	___fleq@ff2+3,w
  3051  1709  0673               	xorwf	___fleq@ff1+3,w
  3052  170A  1D03               	skipz
  3053  170B  2F16               	goto	u1925
  3054  170C  0876               	movf	___fleq@ff2+2,w
  3055  170D  0672               	xorwf	___fleq@ff1+2,w
  3056  170E  1D03               	skipz
  3057  170F  2F16               	goto	u1925
  3058  1710  0875               	movf	___fleq@ff2+1,w
  3059  1711  0671               	xorwf	___fleq@ff1+1,w
  3060  1712  1D03               	skipz
  3061  1713  2F16               	goto	u1925
  3062  1714  0874               	movf	___fleq@ff2,w
  3063  1715  0670               	xorwf	___fleq@ff1,w
  3064  1716                     u1925:
  3065  1716  1903               	skipnz
  3066  1717  2F19               	goto	u1921
  3067  1718  2F1A               	goto	u1920
  3068  1719                     u1921:
  3069  1719  2F1C               	goto	l1839
  3070  171A                     u1920:
  3071  171A                     l1837:
  3072  171A  1003               	clrc
  3073  171B  2F1D               	goto	l406
  3074  171C                     l1839:
  3075  171C  1403               	setc
  3076  171D                     l406:
  3077  171D  0008               	return
  3078  171E                     __end_of___fleq:
  3079                           
  3080                           	psect	text7
  3081  09BE                     __ptext7:	
  3082 ;; *************** function _eval_poly *****************
  3083 ;; Defined at:
  3084 ;;		line 4 in file "C:\Program Files\Microchip\xc8\v2.36\pic\sources\c90\common\evalpoly.c"
  3085 ;; Parameters:    Size  Location     Type
  3086 ;;  x               4    0[BANK1 ] PTR int 
  3087 ;;  d               1    4[BANK1 ] PTR const 
  3088 ;;		 -> log@coeff(36), 
  3089 ;;  n               2    5[BANK1 ] int 
  3090 ;; Auto vars:     Size  Location     Type
  3091 ;;  res             4   12[BANK1 ] int 
  3092 ;; Return value:  Size  Location     Type
  3093 ;;                  4    0[BANK1 ] int 
  3094 ;; Registers used:
  3095 ;;		wreg, fsr0l, fsr0h, status,2, status,0, btemp+1, pclath, cstack
  3096 ;; Tracked objects:
  3097 ;;		On entry : 0/0
  3098 ;;		On exit  : 0/0
  3099 ;;		Unchanged: 0/0
  3100 ;; Data sizes:     COMMON   BANK0   BANK1   BANK3   BANK2
  3101 ;;      Params:         0       0       7       0       0
  3102 ;;      Locals:         0       0       4       0       0
  3103 ;;      Temps:          0       0       5       0       0
  3104 ;;      Totals:         0       0      16       0       0
  3105 ;;Total ram usage:       16 bytes
  3106 ;; Hardware stack levels used: 1
  3107 ;; Hardware stack levels required when called: 2
  3108 ;; This function calls:
  3109 ;;		___fladd
  3110 ;;		___flmul
  3111 ;; This function is called by:
  3112 ;;		_log
  3113 ;; This function uses a non-reentrant model
  3114 ;;
  3115                           
  3116  09BE                     _eval_poly:	
  3117                           ;psect for function _eval_poly
  3118                           
  3119  09BE                     l2337:	
  3120                           ;incstack = 0
  3121                           ; Regs used in _eval_poly: [wreg-fsr0h+status,2+status,0+btemp+1+pclath+cstack]
  3122                           
  3123  09BE  1683               	bsf	3,5	;RP0=1, select bank1
  3124  09BF  1303               	bcf	3,6	;RP1=0, select bank1
  3125  09C0  0825               	movf	eval_poly@n^(0+128),w
  3126  09C1  00A7               	movwf	??_eval_poly^(0+128)
  3127  09C2  3001               	movlw	1
  3128  09C3                     u3135:
  3129  09C3  1003               	clrc
  3130  09C4  0DA7               	rlf	??_eval_poly^(0+128),f
  3131  09C5  3EFF               	addlw	-1
  3132  09C6  1D03               	skipz
  3133  09C7  29C3               	goto	u3135
  3134  09C8  1003               	clrc
  3135  09C9  0D27               	rlf	??_eval_poly^(0+128),w
  3136  09CA  0724               	addwf	eval_poly@d^(0+128),w
  3137  09CB  0084               	movwf	4
  3138  09CC  120A  118A  200D  120A  158A  	fcall	stringdir
  3139  09D1  00A8               	movwf	(??_eval_poly+1)^(0+128)
  3140  09D2  120A  118A  200D  120A  158A  	fcall	stringdir
  3141  09D7  00A9               	movwf	((??_eval_poly+1)^(0+128)+1)
  3142  09D8  120A  118A  200D  120A  158A  	fcall	stringdir
  3143  09DD  00AA               	movwf	((??_eval_poly+1)^(0+128)+2)
  3144  09DE  120A  118A  200D  120A  158A  	fcall	stringdir
  3145  09E3  00AB               	movwf	((??_eval_poly+1)^(0+128)+3)
  3146  09E4  082B               	movf	(??_eval_poly+4)^(0+128),w
  3147  09E5  00AF               	movwf	(eval_poly@res+3)^(0+128)
  3148  09E6  082A               	movf	(??_eval_poly+3)^(0+128),w
  3149  09E7  00AE               	movwf	(eval_poly@res+2)^(0+128)
  3150  09E8  0829               	movf	(??_eval_poly+2)^(0+128),w
  3151  09E9  00AD               	movwf	(eval_poly@res+1)^(0+128)
  3152  09EA  0828               	movf	(??_eval_poly+1)^(0+128),w
  3153  09EB  00AC               	movwf	eval_poly@res^(0+128)
  3154  09EC  2A89               	goto	l2341
  3155  09ED                     l2339:
  3156  09ED  30FF               	movlw	255
  3157  09EE  07A5               	addwf	eval_poly@n^(0+128),f
  3158  09EF  1803               	skipnc
  3159  09F0  0AA6               	incf	(eval_poly@n+1)^(0+128),f
  3160  09F1  30FF               	movlw	255
  3161  09F2  07A6               	addwf	(eval_poly@n+1)^(0+128),f
  3162  09F3  0825               	movf	eval_poly@n^(0+128),w
  3163  09F4  00A7               	movwf	??_eval_poly^(0+128)
  3164  09F5  3001               	movlw	1
  3165  09F6                     u3145:
  3166  09F6  1003               	clrc
  3167  09F7  0DA7               	rlf	??_eval_poly^(0+128),f
  3168  09F8  3EFF               	addlw	-1
  3169  09F9  1D03               	skipz
  3170  09FA  29F6               	goto	u3145
  3171  09FB  1003               	clrc
  3172  09FC  0D27               	rlf	??_eval_poly^(0+128),w
  3173  09FD  0724               	addwf	eval_poly@d^(0+128),w
  3174  09FE  0084               	movwf	4
  3175  09FF  120A  118A  200D  120A  158A  	fcall	stringdir
  3176  0A04  00A8               	movwf	(??_eval_poly+1)^(0+128)
  3177  0A05  120A  118A  200D  120A  158A  	fcall	stringdir
  3178  0A0A  00A9               	movwf	((??_eval_poly+1)^(0+128)+1)
  3179  0A0B  120A  118A  200D  120A  158A  	fcall	stringdir
  3180  0A10  00AA               	movwf	((??_eval_poly+1)^(0+128)+2)
  3181  0A11  120A  118A  200D  120A  158A  	fcall	stringdir
  3182  0A16  00AB               	movwf	((??_eval_poly+1)^(0+128)+3)
  3183  0A17  082B               	movf	(??_eval_poly+4)^(0+128),w
  3184  0A18  1283               	bcf	3,5	;RP0=0, select bank0
  3185  0A19  1303               	bcf	3,6	;RP1=0, select bank0
  3186  0A1A  00DC               	movwf	___fladd@b+3
  3187  0A1B  1683               	bsf	3,5	;RP0=1, select bank1
  3188  0A1C  1303               	bcf	3,6	;RP1=0, select bank1
  3189  0A1D  082A               	movf	(??_eval_poly+3)^(0+128),w
  3190  0A1E  1283               	bcf	3,5	;RP0=0, select bank0
  3191  0A1F  1303               	bcf	3,6	;RP1=0, select bank0
  3192  0A20  00DB               	movwf	___fladd@b+2
  3193  0A21  1683               	bsf	3,5	;RP0=1, select bank1
  3194  0A22  1303               	bcf	3,6	;RP1=0, select bank1
  3195  0A23  0829               	movf	(??_eval_poly+2)^(0+128),w
  3196  0A24  1283               	bcf	3,5	;RP0=0, select bank0
  3197  0A25  1303               	bcf	3,6	;RP1=0, select bank0
  3198  0A26  00DA               	movwf	___fladd@b+1
  3199  0A27  1683               	bsf	3,5	;RP0=1, select bank1
  3200  0A28  1303               	bcf	3,6	;RP1=0, select bank1
  3201  0A29  0828               	movf	(??_eval_poly+1)^(0+128),w
  3202  0A2A  1283               	bcf	3,5	;RP0=0, select bank0
  3203  0A2B  1303               	bcf	3,6	;RP1=0, select bank0
  3204  0A2C  00D9               	movwf	___fladd@b
  3205  0A2D  1683               	bsf	3,5	;RP0=1, select bank1
  3206  0A2E  1303               	bcf	3,6	;RP1=0, select bank1
  3207  0A2F  082F               	movf	(eval_poly@res+3)^(0+128),w
  3208  0A30  1283               	bcf	3,5	;RP0=0, select bank0
  3209  0A31  1303               	bcf	3,6	;RP1=0, select bank0
  3210  0A32  00A8               	movwf	___flmul@b+3
  3211  0A33  1683               	bsf	3,5	;RP0=1, select bank1
  3212  0A34  1303               	bcf	3,6	;RP1=0, select bank1
  3213  0A35  082E               	movf	(eval_poly@res+2)^(0+128),w
  3214  0A36  1283               	bcf	3,5	;RP0=0, select bank0
  3215  0A37  1303               	bcf	3,6	;RP1=0, select bank0
  3216  0A38  00A7               	movwf	___flmul@b+2
  3217  0A39  1683               	bsf	3,5	;RP0=1, select bank1
  3218  0A3A  1303               	bcf	3,6	;RP1=0, select bank1
  3219  0A3B  082D               	movf	(eval_poly@res+1)^(0+128),w
  3220  0A3C  1283               	bcf	3,5	;RP0=0, select bank0
  3221  0A3D  1303               	bcf	3,6	;RP1=0, select bank0
  3222  0A3E  00A6               	movwf	___flmul@b+1
  3223  0A3F  1683               	bsf	3,5	;RP0=1, select bank1
  3224  0A40  1303               	bcf	3,6	;RP1=0, select bank1
  3225  0A41  082C               	movf	eval_poly@res^(0+128),w
  3226  0A42  1283               	bcf	3,5	;RP0=0, select bank0
  3227  0A43  1303               	bcf	3,6	;RP1=0, select bank0
  3228  0A44  00A5               	movwf	___flmul@b
  3229  0A45  1683               	bsf	3,5	;RP0=1, select bank1
  3230  0A46  1303               	bcf	3,6	;RP1=0, select bank1
  3231  0A47  0823               	movf	(eval_poly@x+3)^(0+128),w
  3232  0A48  1283               	bcf	3,5	;RP0=0, select bank0
  3233  0A49  1303               	bcf	3,6	;RP1=0, select bank0
  3234  0A4A  00AC               	movwf	___flmul@a+3
  3235  0A4B  1683               	bsf	3,5	;RP0=1, select bank1
  3236  0A4C  1303               	bcf	3,6	;RP1=0, select bank1
  3237  0A4D  0822               	movf	(eval_poly@x+2)^(0+128),w
  3238  0A4E  1283               	bcf	3,5	;RP0=0, select bank0
  3239  0A4F  1303               	bcf	3,6	;RP1=0, select bank0
  3240  0A50  00AB               	movwf	___flmul@a+2
  3241  0A51  1683               	bsf	3,5	;RP0=1, select bank1
  3242  0A52  1303               	bcf	3,6	;RP1=0, select bank1
  3243  0A53  0821               	movf	(eval_poly@x+1)^(0+128),w
  3244  0A54  1283               	bcf	3,5	;RP0=0, select bank0
  3245  0A55  1303               	bcf	3,6	;RP1=0, select bank0
  3246  0A56  00AA               	movwf	___flmul@a+1
  3247  0A57  1683               	bsf	3,5	;RP0=1, select bank1
  3248  0A58  1303               	bcf	3,6	;RP1=0, select bank1
  3249  0A59  0820               	movf	eval_poly@x^(0+128),w
  3250  0A5A  1283               	bcf	3,5	;RP0=0, select bank0
  3251  0A5B  1303               	bcf	3,6	;RP1=0, select bank0
  3252  0A5C  00A9               	movwf	___flmul@a
  3253  0A5D  120A  118A  248D  120A  158A  	fcall	___flmul
  3254  0A62  1283               	bcf	3,5	;RP0=0, select bank0
  3255  0A63  1303               	bcf	3,6	;RP1=0, select bank0
  3256  0A64  0828               	movf	?___flmul+3,w
  3257  0A65  00E0               	movwf	___fladd@a+3
  3258  0A66  0827               	movf	?___flmul+2,w
  3259  0A67  00DF               	movwf	___fladd@a+2
  3260  0A68  0826               	movf	?___flmul+1,w
  3261  0A69  00DE               	movwf	___fladd@a+1
  3262  0A6A  0825               	movf	?___flmul,w
  3263  0A6B  00DD               	movwf	___fladd@a
  3264  0A6C  120A  158A  2578  120A  158A  	fcall	___fladd
  3265  0A71  1283               	bcf	3,5	;RP0=0, select bank0
  3266  0A72  1303               	bcf	3,6	;RP1=0, select bank0
  3267  0A73  085C               	movf	?___fladd+3,w
  3268  0A74  1683               	bsf	3,5	;RP0=1, select bank1
  3269  0A75  1303               	bcf	3,6	;RP1=0, select bank1
  3270  0A76  00AF               	movwf	(eval_poly@res+3)^(0+128)
  3271  0A77  1283               	bcf	3,5	;RP0=0, select bank0
  3272  0A78  1303               	bcf	3,6	;RP1=0, select bank0
  3273  0A79  085B               	movf	?___fladd+2,w
  3274  0A7A  1683               	bsf	3,5	;RP0=1, select bank1
  3275  0A7B  1303               	bcf	3,6	;RP1=0, select bank1
  3276  0A7C  00AE               	movwf	(eval_poly@res+2)^(0+128)
  3277  0A7D  1283               	bcf	3,5	;RP0=0, select bank0
  3278  0A7E  1303               	bcf	3,6	;RP1=0, select bank0
  3279  0A7F  085A               	movf	?___fladd+1,w
  3280  0A80  1683               	bsf	3,5	;RP0=1, select bank1
  3281  0A81  1303               	bcf	3,6	;RP1=0, select bank1
  3282  0A82  00AD               	movwf	(eval_poly@res+1)^(0+128)
  3283  0A83  1283               	bcf	3,5	;RP0=0, select bank0
  3284  0A84  1303               	bcf	3,6	;RP1=0, select bank0
  3285  0A85  0859               	movf	?___fladd,w
  3286  0A86  1683               	bsf	3,5	;RP0=1, select bank1
  3287  0A87  1303               	bcf	3,6	;RP1=0, select bank1
  3288  0A88  00AC               	movwf	eval_poly@res^(0+128)
  3289  0A89                     l2341:
  3290  0A89  0825               	movf	eval_poly@n^(0+128),w
  3291  0A8A  0426               	iorwf	(eval_poly@n+1)^(0+128),w
  3292  0A8B  1D03               	btfss	3,2
  3293  0A8C  2A8E               	goto	u3151
  3294  0A8D  2A8F               	goto	u3150
  3295  0A8E                     u3151:
  3296  0A8E  29ED               	goto	l2339
  3297  0A8F                     u3150:
  3298  0A8F                     l2343:
  3299  0A8F  082F               	movf	(eval_poly@res+3)^(0+128),w
  3300  0A90  00A3               	movwf	(?_eval_poly+3)^(0+128)
  3301  0A91  082E               	movf	(eval_poly@res+2)^(0+128),w
  3302  0A92  00A2               	movwf	(?_eval_poly+2)^(0+128)
  3303  0A93  082D               	movf	(eval_poly@res+1)^(0+128),w
  3304  0A94  00A1               	movwf	(?_eval_poly+1)^(0+128)
  3305  0A95  082C               	movf	eval_poly@res^(0+128),w
  3306  0A96  00A0               	movwf	?_eval_poly^(0+128)
  3307  0A97                     l707:
  3308  0A97  0008               	return
  3309  0A98                     __end_of_eval_poly:
  3310                           
  3311                           	psect	text8
  3312  048D                     __ptext8:	
  3313 ;; *************** function ___flmul *****************
  3314 ;; Defined at:
  3315 ;;		line 8 in file "C:\Program Files\Microchip\xc8\v2.36\pic\sources\c90\common\sprcmul.c"
  3316 ;; Parameters:    Size  Location     Type
  3317 ;;  b               4    5[BANK0 ] int 
  3318 ;;  a               4    9[BANK0 ] int 
  3319 ;; Auto vars:     Size  Location     Type
  3320 ;;  prod            4   25[BANK0 ] struct .
  3321 ;;  grs             4   19[BANK0 ] unsigned long 
  3322 ;;  temp            2   29[BANK0 ] struct .
  3323 ;;  bexp            1   24[BANK0 ] unsigned char 
  3324 ;;  aexp            1   23[BANK0 ] unsigned char 
  3325 ;;  sign            1   18[BANK0 ] unsigned char 
  3326 ;; Return value:  Size  Location     Type
  3327 ;;                  4    5[BANK0 ] unsigned char 
  3328 ;; Registers used:
  3329 ;;		wreg, status,2, status,0, btemp+1, pclath, cstack
  3330 ;; Tracked objects:
  3331 ;;		On entry : 0/0
  3332 ;;		On exit  : 0/0
  3333 ;;		Unchanged: 0/0
  3334 ;; Data sizes:     COMMON   BANK0   BANK1   BANK3   BANK2
  3335 ;;      Params:         0       8       0       0       0
  3336 ;;      Locals:         0      13       0       0       0
  3337 ;;      Temps:          0       5       0       0       0
  3338 ;;      Totals:         0      26       0       0       0
  3339 ;;Total ram usage:       26 bytes
  3340 ;; Hardware stack levels used: 1
  3341 ;; Hardware stack levels required when called: 1
  3342 ;; This function calls:
  3343 ;;		__Umul8_16
  3344 ;; This function is called by:
  3345 ;;		_log
  3346 ;;		_eval_poly
  3347 ;; This function uses a non-reentrant model
  3348 ;;
  3349                           
  3350  048D                     ___flmul:	
  3351                           ;psect for function ___flmul
  3352                           
  3353  048D                     l2037:	
  3354                           ;incstack = 0
  3355                           ; Regs used in ___flmul: [wreg+status,2+status,0+btemp+1+pclath+cstack]
  3356                           
  3357  048D  1283               	bcf	3,5	;RP0=0, select bank0
  3358  048E  1303               	bcf	3,6	;RP1=0, select bank0
  3359  048F  0828               	movf	___flmul@b+3,w
  3360  0490  3980               	andlw	128
  3361  0491  00AD               	movwf	??___flmul
  3362  0492  082D               	movf	??___flmul,w
  3363  0493  00B2               	movwf	___flmul@sign
  3364  0494                     l2039:
  3365  0494  0828               	movf	___flmul@b+3,w
  3366  0495  00AD               	movwf	??___flmul
  3367  0496  072D               	addwf	??___flmul,w
  3368  0497  00AE               	movwf	??___flmul+1
  3369  0498  082E               	movf	??___flmul+1,w
  3370  0499  00B8               	movwf	___flmul@bexp
  3371  049A                     l2041:
  3372  049A  1FA7               	btfss	___flmul@b+2,7
  3373  049B  2C9D               	goto	u2391
  3374  049C  2C9E               	goto	u2390
  3375  049D                     u2391:
  3376  049D  2C9F               	goto	l2045
  3377  049E                     u2390:
  3378  049E                     l2043:
  3379  049E  1438               	bsf	___flmul@bexp,0
  3380  049F                     l2045:
  3381  049F  0838               	movf	___flmul@bexp,w
  3382  04A0  1903               	btfsc	3,2
  3383  04A1  2CA3               	goto	u2401
  3384  04A2  2CA4               	goto	u2400
  3385  04A3                     u2401:
  3386  04A3  2CB3               	goto	l2053
  3387  04A4                     u2400:
  3388  04A4                     l2047:
  3389  04A4  0A38               	incf	___flmul@bexp,w
  3390  04A5  1D03               	btfss	3,2
  3391  04A6  2CA8               	goto	u2411
  3392  04A7  2CA9               	goto	u2410
  3393  04A8                     u2411:
  3394  04A8  2CB1               	goto	l2051
  3395  04A9                     u2410:
  3396  04A9                     l2049:
  3397  04A9  3000               	movlw	0
  3398  04AA  00A8               	movwf	___flmul@b+3
  3399  04AB  3000               	movlw	0
  3400  04AC  00A7               	movwf	___flmul@b+2
  3401  04AD  3000               	movlw	0
  3402  04AE  00A6               	movwf	___flmul@b+1
  3403  04AF  3000               	movlw	0
  3404  04B0  00A5               	movwf	___flmul@b
  3405  04B1                     l2051:
  3406  04B1  17A7               	bsf	___flmul@b+2,7
  3407  04B2  2CBB               	goto	l2055
  3408  04B3                     l2053:
  3409  04B3  3000               	movlw	0
  3410  04B4  00A8               	movwf	___flmul@b+3
  3411  04B5  3000               	movlw	0
  3412  04B6  00A7               	movwf	___flmul@b+2
  3413  04B7  3000               	movlw	0
  3414  04B8  00A6               	movwf	___flmul@b+1
  3415  04B9  3000               	movlw	0
  3416  04BA  00A5               	movwf	___flmul@b
  3417  04BB                     l2055:
  3418  04BB  082C               	movf	___flmul@a+3,w
  3419  04BC  3980               	andlw	128
  3420  04BD  00AD               	movwf	??___flmul
  3421  04BE  082D               	movf	??___flmul,w
  3422  04BF  06B2               	xorwf	___flmul@sign,f
  3423  04C0                     l2057:
  3424  04C0  082C               	movf	___flmul@a+3,w
  3425  04C1  00AD               	movwf	??___flmul
  3426  04C2  072D               	addwf	??___flmul,w
  3427  04C3  00AE               	movwf	??___flmul+1
  3428  04C4  082E               	movf	??___flmul+1,w
  3429  04C5  00B7               	movwf	___flmul@aexp
  3430  04C6                     l2059:
  3431  04C6  1FAB               	btfss	___flmul@a+2,7
  3432  04C7  2CC9               	goto	u2421
  3433  04C8  2CCA               	goto	u2420
  3434  04C9                     u2421:
  3435  04C9  2CCB               	goto	l2063
  3436  04CA                     u2420:
  3437  04CA                     l2061:
  3438  04CA  1437               	bsf	___flmul@aexp,0
  3439  04CB                     l2063:
  3440  04CB  0837               	movf	___flmul@aexp,w
  3441  04CC  1903               	btfsc	3,2
  3442  04CD  2CCF               	goto	u2431
  3443  04CE  2CD0               	goto	u2430
  3444  04CF                     u2431:
  3445  04CF  2CDF               	goto	l2071
  3446  04D0                     u2430:
  3447  04D0                     l2065:
  3448  04D0  0A37               	incf	___flmul@aexp,w
  3449  04D1  1D03               	btfss	3,2
  3450  04D2  2CD4               	goto	u2441
  3451  04D3  2CD5               	goto	u2440
  3452  04D4                     u2441:
  3453  04D4  2CDD               	goto	l2069
  3454  04D5                     u2440:
  3455  04D5                     l2067:
  3456  04D5  3000               	movlw	0
  3457  04D6  00AC               	movwf	___flmul@a+3
  3458  04D7  3000               	movlw	0
  3459  04D8  00AB               	movwf	___flmul@a+2
  3460  04D9  3000               	movlw	0
  3461  04DA  00AA               	movwf	___flmul@a+1
  3462  04DB  3000               	movlw	0
  3463  04DC  00A9               	movwf	___flmul@a
  3464  04DD                     l2069:
  3465  04DD  17AB               	bsf	___flmul@a+2,7
  3466  04DE  2CE7               	goto	l2073
  3467  04DF                     l2071:
  3468  04DF  3000               	movlw	0
  3469  04E0  00AC               	movwf	___flmul@a+3
  3470  04E1  3000               	movlw	0
  3471  04E2  00AB               	movwf	___flmul@a+2
  3472  04E3  3000               	movlw	0
  3473  04E4  00AA               	movwf	___flmul@a+1
  3474  04E5  3000               	movlw	0
  3475  04E6  00A9               	movwf	___flmul@a
  3476  04E7                     l2073:
  3477  04E7  0837               	movf	___flmul@aexp,w
  3478  04E8  1903               	btfsc	3,2
  3479  04E9  2CEB               	goto	u2451
  3480  04EA  2CEC               	goto	u2450
  3481  04EB                     u2451:
  3482  04EB  2CF1               	goto	l2077
  3483  04EC                     u2450:
  3484  04EC                     l2075:
  3485  04EC  0838               	movf	___flmul@bexp,w
  3486  04ED  1D03               	btfss	3,2
  3487  04EE  2CF0               	goto	u2461
  3488  04EF  2CF1               	goto	u2460
  3489  04F0                     u2461:
  3490  04F0  2CFA               	goto	l2081
  3491  04F1                     u2460:
  3492  04F1                     l2077:
  3493  04F1  3000               	movlw	0
  3494  04F2  00A8               	movwf	?___flmul+3
  3495  04F3  3000               	movlw	0
  3496  04F4  00A7               	movwf	?___flmul+2
  3497  04F5  3000               	movlw	0
  3498  04F6  00A6               	movwf	?___flmul+1
  3499  04F7  3000               	movlw	0
  3500  04F8  00A5               	movwf	?___flmul
  3501  04F9  2FED               	goto	l624
  3502  04FA                     l2081:
  3503  04FA  0825               	movf	___flmul@b,w
  3504  04FB  00AD               	movwf	??___flmul
  3505  04FC  082D               	movf	??___flmul,w
  3506  04FD  00F0               	movwf	__Umul8_16@multiplicand
  3507  04FE  082B               	movf	___flmul@a+2,w
  3508  04FF  160A  118A  2569  120A  118A  	fcall	__Umul8_16
  3509  0504  0871               	movf	?__Umul8_16+1,w
  3510  0505  1283               	bcf	3,5	;RP0=0, select bank0
  3511  0506  1303               	bcf	3,6	;RP1=0, select bank0
  3512  0507  00BE               	movwf	___flmul@temp+1
  3513  0508  0870               	movf	?__Umul8_16,w
  3514  0509  00BD               	movwf	___flmul@temp
  3515  050A                     l2083:
  3516  050A  083D               	movf	___flmul@temp,w
  3517  050B  00AD               	movwf	??___flmul
  3518  050C  01AE               	clrf	??___flmul+1
  3519  050D  01AF               	clrf	??___flmul+2
  3520  050E  01B0               	clrf	??___flmul+3
  3521  050F  0830               	movf	??___flmul+3,w
  3522  0510  00B6               	movwf	___flmul@grs+3
  3523  0511  082F               	movf	??___flmul+2,w
  3524  0512  00B5               	movwf	___flmul@grs+2
  3525  0513  082E               	movf	??___flmul+1,w
  3526  0514  00B4               	movwf	___flmul@grs+1
  3527  0515  082D               	movf	??___flmul,w
  3528  0516  00B3               	movwf	___flmul@grs
  3529  0517                     l2085:
  3530  0517  083E               	movf	___flmul@temp+1,w
  3531  0518  00AD               	movwf	??___flmul
  3532  0519  01AE               	clrf	??___flmul+1
  3533  051A  01AF               	clrf	??___flmul+2
  3534  051B  01B0               	clrf	??___flmul+3
  3535  051C  0830               	movf	??___flmul+3,w
  3536  051D  00BC               	movwf	___flmul@prod+3
  3537  051E  082F               	movf	??___flmul+2,w
  3538  051F  00BB               	movwf	___flmul@prod+2
  3539  0520  082E               	movf	??___flmul+1,w
  3540  0521  00BA               	movwf	___flmul@prod+1
  3541  0522  082D               	movf	??___flmul,w
  3542  0523  00B9               	movwf	___flmul@prod
  3543  0524  0826               	movf	___flmul@b+1,w
  3544  0525  00AD               	movwf	??___flmul
  3545  0526  082D               	movf	??___flmul,w
  3546  0527  00F0               	movwf	__Umul8_16@multiplicand
  3547  0528  082A               	movf	___flmul@a+1,w
  3548  0529  160A  118A  2569  120A  118A  	fcall	__Umul8_16
  3549  052E  0871               	movf	?__Umul8_16+1,w
  3550  052F  1283               	bcf	3,5	;RP0=0, select bank0
  3551  0530  1303               	bcf	3,6	;RP1=0, select bank0
  3552  0531  00BE               	movwf	___flmul@temp+1
  3553  0532  0870               	movf	?__Umul8_16,w
  3554  0533  00BD               	movwf	___flmul@temp
  3555  0534                     l2087:
  3556  0534  083D               	movf	___flmul@temp,w
  3557  0535  00AD               	movwf	??___flmul
  3558  0536  01AE               	clrf	??___flmul+1
  3559  0537  01AF               	clrf	??___flmul+2
  3560  0538  01B0               	clrf	??___flmul+3
  3561  0539  082D               	movf	??___flmul,w
  3562  053A  07B3               	addwf	___flmul@grs,f
  3563  053B  082E               	movf	??___flmul+1,w
  3564  053C  1103               	clrz
  3565  053D  1803               	skipnc
  3566  053E  3E01               	addlw	1
  3567  053F  1903               	skipnz
  3568  0540  2D42               	goto	u2471
  3569  0541  07B4               	addwf	___flmul@grs+1,f
  3570  0542                     u2471:
  3571  0542  082F               	movf	??___flmul+2,w
  3572  0543  1103               	clrz
  3573  0544  1803               	skipnc
  3574  0545  3E01               	addlw	1
  3575  0546  1903               	skipnz
  3576  0547  2D49               	goto	u2472
  3577  0548  07B5               	addwf	___flmul@grs+2,f
  3578  0549                     u2472:
  3579  0549  0830               	movf	??___flmul+3,w
  3580  054A  1103               	clrz
  3581  054B  1803               	skipnc
  3582  054C  3E01               	addlw	1
  3583  054D  1903               	skipnz
  3584  054E  2D50               	goto	u2473
  3585  054F  07B6               	addwf	___flmul@grs+3,f
  3586  0550                     u2473:
  3587  0550                     l2089:
  3588  0550  083E               	movf	___flmul@temp+1,w
  3589  0551  00AD               	movwf	??___flmul
  3590  0552  01AE               	clrf	??___flmul+1
  3591  0553  01AF               	clrf	??___flmul+2
  3592  0554  01B0               	clrf	??___flmul+3
  3593  0555  082D               	movf	??___flmul,w
  3594  0556  07B9               	addwf	___flmul@prod,f
  3595  0557  082E               	movf	??___flmul+1,w
  3596  0558  1103               	clrz
  3597  0559  1803               	skipnc
  3598  055A  3E01               	addlw	1
  3599  055B  1903               	skipnz
  3600  055C  2D5E               	goto	u2481
  3601  055D  07BA               	addwf	___flmul@prod+1,f
  3602  055E                     u2481:
  3603  055E  082F               	movf	??___flmul+2,w
  3604  055F  1103               	clrz
  3605  0560  1803               	skipnc
  3606  0561  3E01               	addlw	1
  3607  0562  1903               	skipnz
  3608  0563  2D65               	goto	u2482
  3609  0564  07BB               	addwf	___flmul@prod+2,f
  3610  0565                     u2482:
  3611  0565  0830               	movf	??___flmul+3,w
  3612  0566  1103               	clrz
  3613  0567  1803               	skipnc
  3614  0568  3E01               	addlw	1
  3615  0569  1903               	skipnz
  3616  056A  2D6C               	goto	u2483
  3617  056B  07BC               	addwf	___flmul@prod+3,f
  3618  056C                     u2483:
  3619  056C  0827               	movf	___flmul@b+2,w
  3620  056D  00AD               	movwf	??___flmul
  3621  056E  082D               	movf	??___flmul,w
  3622  056F  00F0               	movwf	__Umul8_16@multiplicand
  3623  0570  0829               	movf	___flmul@a,w
  3624  0571  160A  118A  2569  120A  118A  	fcall	__Umul8_16
  3625  0576  0871               	movf	?__Umul8_16+1,w
  3626  0577  1283               	bcf	3,5	;RP0=0, select bank0
  3627  0578  1303               	bcf	3,6	;RP1=0, select bank0
  3628  0579  00BE               	movwf	___flmul@temp+1
  3629  057A  0870               	movf	?__Umul8_16,w
  3630  057B  00BD               	movwf	___flmul@temp
  3631  057C                     l2091:
  3632  057C  083D               	movf	___flmul@temp,w
  3633  057D  00AD               	movwf	??___flmul
  3634  057E  01AE               	clrf	??___flmul+1
  3635  057F  01AF               	clrf	??___flmul+2
  3636  0580  01B0               	clrf	??___flmul+3
  3637  0581  082D               	movf	??___flmul,w
  3638  0582  07B3               	addwf	___flmul@grs,f
  3639  0583  082E               	movf	??___flmul+1,w
  3640  0584  1103               	clrz
  3641  0585  1803               	skipnc
  3642  0586  3E01               	addlw	1
  3643  0587  1903               	skipnz
  3644  0588  2D8A               	goto	u2491
  3645  0589  07B4               	addwf	___flmul@grs+1,f
  3646  058A                     u2491:
  3647  058A  082F               	movf	??___flmul+2,w
  3648  058B  1103               	clrz
  3649  058C  1803               	skipnc
  3650  058D  3E01               	addlw	1
  3651  058E  1903               	skipnz
  3652  058F  2D91               	goto	u2492
  3653  0590  07B5               	addwf	___flmul@grs+2,f
  3654  0591                     u2492:
  3655  0591  0830               	movf	??___flmul+3,w
  3656  0592  1103               	clrz
  3657  0593  1803               	skipnc
  3658  0594  3E01               	addlw	1
  3659  0595  1903               	skipnz
  3660  0596  2D98               	goto	u2493
  3661  0597  07B6               	addwf	___flmul@grs+3,f
  3662  0598                     u2493:
  3663  0598                     l2093:
  3664  0598  083E               	movf	___flmul@temp+1,w
  3665  0599  00AD               	movwf	??___flmul
  3666  059A  01AE               	clrf	??___flmul+1
  3667  059B  01AF               	clrf	??___flmul+2
  3668  059C  01B0               	clrf	??___flmul+3
  3669  059D  082D               	movf	??___flmul,w
  3670  059E  07B9               	addwf	___flmul@prod,f
  3671  059F  082E               	movf	??___flmul+1,w
  3672  05A0  1103               	clrz
  3673  05A1  1803               	skipnc
  3674  05A2  3E01               	addlw	1
  3675  05A3  1903               	skipnz
  3676  05A4  2DA6               	goto	u2501
  3677  05A5  07BA               	addwf	___flmul@prod+1,f
  3678  05A6                     u2501:
  3679  05A6  082F               	movf	??___flmul+2,w
  3680  05A7  1103               	clrz
  3681  05A8  1803               	skipnc
  3682  05A9  3E01               	addlw	1
  3683  05AA  1903               	skipnz
  3684  05AB  2DAD               	goto	u2502
  3685  05AC  07BB               	addwf	___flmul@prod+2,f
  3686  05AD                     u2502:
  3687  05AD  0830               	movf	??___flmul+3,w
  3688  05AE  1103               	clrz
  3689  05AF  1803               	skipnc
  3690  05B0  3E01               	addlw	1
  3691  05B1  1903               	skipnz
  3692  05B2  2DB4               	goto	u2503
  3693  05B3  07BC               	addwf	___flmul@prod+3,f
  3694  05B4                     u2503:
  3695  05B4                     l2095:
  3696  05B4  3008               	movlw	8
  3697  05B5  00AD               	movwf	??___flmul
  3698  05B6                     u2515:
  3699  05B6  1003               	clrc
  3700  05B7  0DB3               	rlf	___flmul@grs,f
  3701  05B8  0DB4               	rlf	___flmul@grs+1,f
  3702  05B9  0DB5               	rlf	___flmul@grs+2,f
  3703  05BA  0DB6               	rlf	___flmul@grs+3,f
  3704  05BB  0BAD               	decfsz	??___flmul,f
  3705  05BC  2DB6               	goto	u2515
  3706  05BD                     l2097:
  3707  05BD  0826               	movf	___flmul@b+1,w
  3708  05BE  00AD               	movwf	??___flmul
  3709  05BF  082D               	movf	??___flmul,w
  3710  05C0  00F0               	movwf	__Umul8_16@multiplicand
  3711  05C1  0829               	movf	___flmul@a,w
  3712  05C2  160A  118A  2569  120A  118A  	fcall	__Umul8_16
  3713  05C7  0871               	movf	?__Umul8_16+1,w
  3714  05C8  1283               	bcf	3,5	;RP0=0, select bank0
  3715  05C9  1303               	bcf	3,6	;RP1=0, select bank0
  3716  05CA  00BE               	movwf	___flmul@temp+1
  3717  05CB  0870               	movf	?__Umul8_16,w
  3718  05CC  00BD               	movwf	___flmul@temp
  3719  05CD                     l2099:
  3720  05CD  083D               	movf	___flmul@temp,w
  3721  05CE  00AD               	movwf	??___flmul
  3722  05CF  083E               	movf	___flmul@temp+1,w
  3723  05D0  00AE               	movwf	??___flmul+1
  3724  05D1  01AF               	clrf	??___flmul+2
  3725  05D2  01B0               	clrf	??___flmul+3
  3726  05D3  082D               	movf	??___flmul,w
  3727  05D4  07B3               	addwf	___flmul@grs,f
  3728  05D5  082E               	movf	??___flmul+1,w
  3729  05D6  1103               	clrz
  3730  05D7  1803               	skipnc
  3731  05D8  3E01               	addlw	1
  3732  05D9  1903               	skipnz
  3733  05DA  2DDC               	goto	u2521
  3734  05DB  07B4               	addwf	___flmul@grs+1,f
  3735  05DC                     u2521:
  3736  05DC  082F               	movf	??___flmul+2,w
  3737  05DD  1103               	clrz
  3738  05DE  1803               	skipnc
  3739  05DF  3E01               	addlw	1
  3740  05E0  1903               	skipnz
  3741  05E1  2DE3               	goto	u2522
  3742  05E2  07B5               	addwf	___flmul@grs+2,f
  3743  05E3                     u2522:
  3744  05E3  0830               	movf	??___flmul+3,w
  3745  05E4  1103               	clrz
  3746  05E5  1803               	skipnc
  3747  05E6  3E01               	addlw	1
  3748  05E7  1903               	skipnz
  3749  05E8  2DEA               	goto	u2523
  3750  05E9  07B6               	addwf	___flmul@grs+3,f
  3751  05EA                     u2523:
  3752  05EA                     l2101:
  3753  05EA  0825               	movf	___flmul@b,w
  3754  05EB  00AD               	movwf	??___flmul
  3755  05EC  082D               	movf	??___flmul,w
  3756  05ED  00F0               	movwf	__Umul8_16@multiplicand
  3757  05EE  082A               	movf	___flmul@a+1,w
  3758  05EF  160A  118A  2569  120A  118A  	fcall	__Umul8_16
  3759  05F4  0871               	movf	?__Umul8_16+1,w
  3760  05F5  1283               	bcf	3,5	;RP0=0, select bank0
  3761  05F6  1303               	bcf	3,6	;RP1=0, select bank0
  3762  05F7  00BE               	movwf	___flmul@temp+1
  3763  05F8  0870               	movf	?__Umul8_16,w
  3764  05F9  00BD               	movwf	___flmul@temp
  3765  05FA                     l2103:
  3766  05FA  083D               	movf	___flmul@temp,w
  3767  05FB  00AD               	movwf	??___flmul
  3768  05FC  083E               	movf	___flmul@temp+1,w
  3769  05FD  00AE               	movwf	??___flmul+1
  3770  05FE  01AF               	clrf	??___flmul+2
  3771  05FF  01B0               	clrf	??___flmul+3
  3772  0600  082D               	movf	??___flmul,w
  3773  0601  07B3               	addwf	___flmul@grs,f
  3774  0602  082E               	movf	??___flmul+1,w
  3775  0603  1103               	clrz
  3776  0604  1803               	skipnc
  3777  0605  3E01               	addlw	1
  3778  0606  1903               	skipnz
  3779  0607  2E09               	goto	u2531
  3780  0608  07B4               	addwf	___flmul@grs+1,f
  3781  0609                     u2531:
  3782  0609  082F               	movf	??___flmul+2,w
  3783  060A  1103               	clrz
  3784  060B  1803               	skipnc
  3785  060C  3E01               	addlw	1
  3786  060D  1903               	skipnz
  3787  060E  2E10               	goto	u2532
  3788  060F  07B5               	addwf	___flmul@grs+2,f
  3789  0610                     u2532:
  3790  0610  0830               	movf	??___flmul+3,w
  3791  0611  1103               	clrz
  3792  0612  1803               	skipnc
  3793  0613  3E01               	addlw	1
  3794  0614  1903               	skipnz
  3795  0615  2E17               	goto	u2533
  3796  0616  07B6               	addwf	___flmul@grs+3,f
  3797  0617                     u2533:
  3798  0617                     l2105:
  3799  0617  3008               	movlw	8
  3800  0618  00AD               	movwf	??___flmul
  3801  0619                     u2545:
  3802  0619  1003               	clrc
  3803  061A  0DB3               	rlf	___flmul@grs,f
  3804  061B  0DB4               	rlf	___flmul@grs+1,f
  3805  061C  0DB5               	rlf	___flmul@grs+2,f
  3806  061D  0DB6               	rlf	___flmul@grs+3,f
  3807  061E  0BAD               	decfsz	??___flmul,f
  3808  061F  2E19               	goto	u2545
  3809  0620  0825               	movf	___flmul@b,w
  3810  0621  00AD               	movwf	??___flmul
  3811  0622  082D               	movf	??___flmul,w
  3812  0623  00F0               	movwf	__Umul8_16@multiplicand
  3813  0624  0829               	movf	___flmul@a,w
  3814  0625  160A  118A  2569  120A  118A  	fcall	__Umul8_16
  3815  062A  0871               	movf	?__Umul8_16+1,w
  3816  062B  1283               	bcf	3,5	;RP0=0, select bank0
  3817  062C  1303               	bcf	3,6	;RP1=0, select bank0
  3818  062D  00BE               	movwf	___flmul@temp+1
  3819  062E  0870               	movf	?__Umul8_16,w
  3820  062F  00BD               	movwf	___flmul@temp
  3821  0630                     l2107:
  3822  0630  083D               	movf	___flmul@temp,w
  3823  0631  00AD               	movwf	??___flmul
  3824  0632  083E               	movf	___flmul@temp+1,w
  3825  0633  00AE               	movwf	??___flmul+1
  3826  0634  01AF               	clrf	??___flmul+2
  3827  0635  01B0               	clrf	??___flmul+3
  3828  0636  082D               	movf	??___flmul,w
  3829  0637  07B3               	addwf	___flmul@grs,f
  3830  0638  082E               	movf	??___flmul+1,w
  3831  0639  1103               	clrz
  3832  063A  1803               	skipnc
  3833  063B  3E01               	addlw	1
  3834  063C  1903               	skipnz
  3835  063D  2E3F               	goto	u2551
  3836  063E  07B4               	addwf	___flmul@grs+1,f
  3837  063F                     u2551:
  3838  063F  082F               	movf	??___flmul+2,w
  3839  0640  1103               	clrz
  3840  0641  1803               	skipnc
  3841  0642  3E01               	addlw	1
  3842  0643  1903               	skipnz
  3843  0644  2E46               	goto	u2552
  3844  0645  07B5               	addwf	___flmul@grs+2,f
  3845  0646                     u2552:
  3846  0646  0830               	movf	??___flmul+3,w
  3847  0647  1103               	clrz
  3848  0648  1803               	skipnc
  3849  0649  3E01               	addlw	1
  3850  064A  1903               	skipnz
  3851  064B  2E4D               	goto	u2553
  3852  064C  07B6               	addwf	___flmul@grs+3,f
  3853  064D                     u2553:
  3854  064D                     l2109:
  3855  064D  0826               	movf	___flmul@b+1,w
  3856  064E  00AD               	movwf	??___flmul
  3857  064F  082D               	movf	??___flmul,w
  3858  0650  00F0               	movwf	__Umul8_16@multiplicand
  3859  0651  082B               	movf	___flmul@a+2,w
  3860  0652  160A  118A  2569  120A  118A  	fcall	__Umul8_16
  3861  0657  0871               	movf	?__Umul8_16+1,w
  3862  0658  1283               	bcf	3,5	;RP0=0, select bank0
  3863  0659  1303               	bcf	3,6	;RP1=0, select bank0
  3864  065A  00BE               	movwf	___flmul@temp+1
  3865  065B  0870               	movf	?__Umul8_16,w
  3866  065C  00BD               	movwf	___flmul@temp
  3867  065D  083D               	movf	___flmul@temp,w
  3868  065E  00AD               	movwf	??___flmul
  3869  065F  083E               	movf	___flmul@temp+1,w
  3870  0660  00AE               	movwf	??___flmul+1
  3871  0661  01AF               	clrf	??___flmul+2
  3872  0662  01B0               	clrf	??___flmul+3
  3873  0663  082D               	movf	??___flmul,w
  3874  0664  07B9               	addwf	___flmul@prod,f
  3875  0665  082E               	movf	??___flmul+1,w
  3876  0666  1103               	clrz
  3877  0667  1803               	skipnc
  3878  0668  3E01               	addlw	1
  3879  0669  1903               	skipnz
  3880  066A  2E6C               	goto	u2561
  3881  066B  07BA               	addwf	___flmul@prod+1,f
  3882  066C                     u2561:
  3883  066C  082F               	movf	??___flmul+2,w
  3884  066D  1103               	clrz
  3885  066E  1803               	skipnc
  3886  066F  3E01               	addlw	1
  3887  0670  1903               	skipnz
  3888  0671  2E73               	goto	u2562
  3889  0672  07BB               	addwf	___flmul@prod+2,f
  3890  0673                     u2562:
  3891  0673  0830               	movf	??___flmul+3,w
  3892  0674  1103               	clrz
  3893  0675  1803               	skipnc
  3894  0676  3E01               	addlw	1
  3895  0677  1903               	skipnz
  3896  0678  2E7A               	goto	u2563
  3897  0679  07BC               	addwf	___flmul@prod+3,f
  3898  067A                     u2563:
  3899  067A                     l2111:
  3900  067A  0827               	movf	___flmul@b+2,w
  3901  067B  00AD               	movwf	??___flmul
  3902  067C  082D               	movf	??___flmul,w
  3903  067D  00F0               	movwf	__Umul8_16@multiplicand
  3904  067E  082A               	movf	___flmul@a+1,w
  3905  067F  160A  118A  2569  120A  118A  	fcall	__Umul8_16
  3906  0684  0871               	movf	?__Umul8_16+1,w
  3907  0685  1283               	bcf	3,5	;RP0=0, select bank0
  3908  0686  1303               	bcf	3,6	;RP1=0, select bank0
  3909  0687  00BE               	movwf	___flmul@temp+1
  3910  0688  0870               	movf	?__Umul8_16,w
  3911  0689  00BD               	movwf	___flmul@temp
  3912  068A                     l2113:
  3913  068A  083D               	movf	___flmul@temp,w
  3914  068B  00AD               	movwf	??___flmul
  3915  068C  083E               	movf	___flmul@temp+1,w
  3916  068D  00AE               	movwf	??___flmul+1
  3917  068E  01AF               	clrf	??___flmul+2
  3918  068F  01B0               	clrf	??___flmul+3
  3919  0690  082D               	movf	??___flmul,w
  3920  0691  07B9               	addwf	___flmul@prod,f
  3921  0692  082E               	movf	??___flmul+1,w
  3922  0693  1103               	clrz
  3923  0694  1803               	skipnc
  3924  0695  3E01               	addlw	1
  3925  0696  1903               	skipnz
  3926  0697  2E99               	goto	u2571
  3927  0698  07BA               	addwf	___flmul@prod+1,f
  3928  0699                     u2571:
  3929  0699  082F               	movf	??___flmul+2,w
  3930  069A  1103               	clrz
  3931  069B  1803               	skipnc
  3932  069C  3E01               	addlw	1
  3933  069D  1903               	skipnz
  3934  069E  2EA0               	goto	u2572
  3935  069F  07BB               	addwf	___flmul@prod+2,f
  3936  06A0                     u2572:
  3937  06A0  0830               	movf	??___flmul+3,w
  3938  06A1  1103               	clrz
  3939  06A2  1803               	skipnc
  3940  06A3  3E01               	addlw	1
  3941  06A4  1903               	skipnz
  3942  06A5  2EA7               	goto	u2573
  3943  06A6  07BC               	addwf	___flmul@prod+3,f
  3944  06A7                     u2573:
  3945  06A7  0827               	movf	___flmul@b+2,w
  3946  06A8  00AD               	movwf	??___flmul
  3947  06A9  082D               	movf	??___flmul,w
  3948  06AA  00F0               	movwf	__Umul8_16@multiplicand
  3949  06AB  082B               	movf	___flmul@a+2,w
  3950  06AC  160A  118A  2569  120A  118A  	fcall	__Umul8_16
  3951  06B1  0871               	movf	?__Umul8_16+1,w
  3952  06B2  1283               	bcf	3,5	;RP0=0, select bank0
  3953  06B3  1303               	bcf	3,6	;RP1=0, select bank0
  3954  06B4  00BE               	movwf	___flmul@temp+1
  3955  06B5  0870               	movf	?__Umul8_16,w
  3956  06B6  00BD               	movwf	___flmul@temp
  3957  06B7                     l2115:
  3958  06B7  083D               	movf	___flmul@temp,w
  3959  06B8  00AD               	movwf	??___flmul
  3960  06B9  083E               	movf	___flmul@temp+1,w
  3961  06BA  00AE               	movwf	??___flmul+1
  3962  06BB  01AF               	clrf	??___flmul+2
  3963  06BC  01B0               	clrf	??___flmul+3
  3964  06BD  3008               	movlw	8
  3965  06BE                     u2585:
  3966  06BE  1003               	clrc
  3967  06BF  0DAD               	rlf	??___flmul,f
  3968  06C0  0DAE               	rlf	??___flmul+1,f
  3969  06C1  0DAF               	rlf	??___flmul+2,f
  3970  06C2  0DB0               	rlf	??___flmul+3,f
  3971  06C3                     u2580:
  3972  06C3  3EFF               	addlw	-1
  3973  06C4  1D03               	skipz
  3974  06C5  2EBE               	goto	u2585
  3975  06C6  082D               	movf	??___flmul,w
  3976  06C7  07B9               	addwf	___flmul@prod,f
  3977  06C8  082E               	movf	??___flmul+1,w
  3978  06C9  1103               	clrz
  3979  06CA  1803               	skipnc
  3980  06CB  3E01               	addlw	1
  3981  06CC  1903               	skipnz
  3982  06CD  2ECF               	goto	u2591
  3983  06CE  07BA               	addwf	___flmul@prod+1,f
  3984  06CF                     u2591:
  3985  06CF  082F               	movf	??___flmul+2,w
  3986  06D0  1103               	clrz
  3987  06D1  1803               	skipnc
  3988  06D2  3E01               	addlw	1
  3989  06D3  1903               	skipnz
  3990  06D4  2ED6               	goto	u2592
  3991  06D5  07BB               	addwf	___flmul@prod+2,f
  3992  06D6                     u2592:
  3993  06D6  0830               	movf	??___flmul+3,w
  3994  06D7  1103               	clrz
  3995  06D8  1803               	skipnc
  3996  06D9  3E01               	addlw	1
  3997  06DA  1903               	skipnz
  3998  06DB  2EDD               	goto	u2593
  3999  06DC  07BC               	addwf	___flmul@prod+3,f
  4000  06DD                     u2593:
  4001  06DD                     l2117:
  4002  06DD  0833               	movf	___flmul@grs,w
  4003  06DE  00AD               	movwf	??___flmul
  4004  06DF  0834               	movf	___flmul@grs+1,w
  4005  06E0  00AE               	movwf	??___flmul+1
  4006  06E1  0835               	movf	___flmul@grs+2,w
  4007  06E2  00AF               	movwf	??___flmul+2
  4008  06E3  0836               	movf	___flmul@grs+3,w
  4009  06E4  00B0               	movwf	??___flmul+3
  4010  06E5  3018               	movlw	24
  4011  06E6                     u2605:
  4012  06E6  1003               	clrc
  4013  06E7  0CB0               	rrf	??___flmul+3,f
  4014  06E8  0CAF               	rrf	??___flmul+2,f
  4015  06E9  0CAE               	rrf	??___flmul+1,f
  4016  06EA  0CAD               	rrf	??___flmul,f
  4017  06EB                     u2600:
  4018  06EB  3EFF               	addlw	-1
  4019  06EC  1D03               	skipz
  4020  06ED  2EE6               	goto	u2605
  4021  06EE  082D               	movf	??___flmul,w
  4022  06EF  07B9               	addwf	___flmul@prod,f
  4023  06F0  082E               	movf	??___flmul+1,w
  4024  06F1  1103               	clrz
  4025  06F2  1803               	skipnc
  4026  06F3  3E01               	addlw	1
  4027  06F4  1903               	skipnz
  4028  06F5  2EF7               	goto	u2611
  4029  06F6  07BA               	addwf	___flmul@prod+1,f
  4030  06F7                     u2611:
  4031  06F7  082F               	movf	??___flmul+2,w
  4032  06F8  1103               	clrz
  4033  06F9  1803               	skipnc
  4034  06FA  3E01               	addlw	1
  4035  06FB  1903               	skipnz
  4036  06FC  2EFE               	goto	u2612
  4037  06FD  07BB               	addwf	___flmul@prod+2,f
  4038  06FE                     u2612:
  4039  06FE  0830               	movf	??___flmul+3,w
  4040  06FF  1103               	clrz
  4041  0700  1803               	skipnc
  4042  0701  3E01               	addlw	1
  4043  0702  1903               	skipnz
  4044  0703  2F05               	goto	u2613
  4045  0704  07BC               	addwf	___flmul@prod+3,f
  4046  0705                     u2613:
  4047  0705                     l2119:
  4048  0705  3008               	movlw	8
  4049  0706  00AD               	movwf	??___flmul
  4050  0707                     u2625:
  4051  0707  1003               	clrc
  4052  0708  0DB3               	rlf	___flmul@grs,f
  4053  0709  0DB4               	rlf	___flmul@grs+1,f
  4054  070A  0DB5               	rlf	___flmul@grs+2,f
  4055  070B  0DB6               	rlf	___flmul@grs+3,f
  4056  070C  0BAD               	decfsz	??___flmul,f
  4057  070D  2F07               	goto	u2625
  4058  070E                     l2121:
  4059  070E  0838               	movf	___flmul@bexp,w
  4060  070F  0737               	addwf	___flmul@aexp,w
  4061  0710  00AD               	movwf	??___flmul
  4062  0711  01AE               	clrf	??___flmul+1
  4063  0712  0DAE               	rlf	??___flmul+1,f
  4064  0713  082D               	movf	??___flmul,w
  4065  0714  3E82               	addlw	130
  4066  0715  00BD               	movwf	___flmul@temp
  4067  0716  082E               	movf	??___flmul+1,w
  4068  0717  1803               	skipnc
  4069  0718  3E01               	addlw	1
  4070  0719  3EFF               	addlw	255
  4071  071A  00BE               	movwf	___flmul@temp+1
  4072  071B  2F39               	goto	l2133
  4073  071C                     l2123:
  4074  071C  3001               	movlw	1
  4075  071D  00AD               	movwf	??___flmul
  4076  071E                     u2635:
  4077  071E  1003               	clrc
  4078  071F  0DB9               	rlf	___flmul@prod,f
  4079  0720  0DBA               	rlf	___flmul@prod+1,f
  4080  0721  0DBB               	rlf	___flmul@prod+2,f
  4081  0722  0DBC               	rlf	___flmul@prod+3,f
  4082  0723  0BAD               	decfsz	??___flmul,f
  4083  0724  2F1E               	goto	u2635
  4084  0725                     l2125:
  4085  0725  1FB6               	btfss	___flmul@grs+3,7
  4086  0726  2F28               	goto	u2641
  4087  0727  2F29               	goto	u2640
  4088  0728                     u2641:
  4089  0728  2F2A               	goto	l2129
  4090  0729                     u2640:
  4091  0729                     l2127:
  4092  0729  1439               	bsf	___flmul@prod,0
  4093  072A                     l2129:
  4094  072A  3001               	movlw	1
  4095  072B  00AD               	movwf	??___flmul
  4096  072C                     u2655:
  4097  072C  1003               	clrc
  4098  072D  0DB3               	rlf	___flmul@grs,f
  4099  072E  0DB4               	rlf	___flmul@grs+1,f
  4100  072F  0DB5               	rlf	___flmul@grs+2,f
  4101  0730  0DB6               	rlf	___flmul@grs+3,f
  4102  0731  0BAD               	decfsz	??___flmul,f
  4103  0732  2F2C               	goto	u2655
  4104  0733                     l2131:
  4105  0733  30FF               	movlw	255
  4106  0734  07BD               	addwf	___flmul@temp,f
  4107  0735  1803               	skipnc
  4108  0736  0ABE               	incf	___flmul@temp+1,f
  4109  0737  30FF               	movlw	255
  4110  0738  07BE               	addwf	___flmul@temp+1,f
  4111  0739                     l2133:
  4112  0739  1FBB               	btfss	___flmul@prod+2,7
  4113  073A  2F3C               	goto	u2661
  4114  073B  2F3D               	goto	u2660
  4115  073C                     u2661:
  4116  073C  2F1C               	goto	l2123
  4117  073D                     u2660:
  4118  073D                     l2135:
  4119  073D  01B7               	clrf	___flmul@aexp
  4120  073E                     l2137:
  4121  073E  1FB6               	btfss	___flmul@grs+3,7
  4122  073F  2F41               	goto	u2671
  4123  0740  2F42               	goto	u2670
  4124  0741                     u2671:
  4125  0741  2F5E               	goto	l2145
  4126  0742                     u2670:
  4127  0742                     l2139:
  4128  0742  30FF               	movlw	255
  4129  0743  0533               	andwf	___flmul@grs,w
  4130  0744  00AD               	movwf	??___flmul
  4131  0745  30FF               	movlw	255
  4132  0746  0534               	andwf	___flmul@grs+1,w
  4133  0747  00AE               	movwf	??___flmul+1
  4134  0748  30FF               	movlw	255
  4135  0749  0535               	andwf	___flmul@grs+2,w
  4136  074A  00AF               	movwf	??___flmul+2
  4137  074B  307F               	movlw	127
  4138  074C  0536               	andwf	___flmul@grs+3,w
  4139  074D  00B0               	movwf	??___flmul+3
  4140  074E  0830               	movf	??___flmul+3,w
  4141  074F  042F               	iorwf	??___flmul+2,w
  4142  0750  042E               	iorwf	??___flmul+1,w
  4143  0751  042D               	iorwf	??___flmul,w
  4144  0752  1903               	skipnz
  4145  0753  2F55               	goto	u2681
  4146  0754  2F56               	goto	u2680
  4147  0755                     u2681:
  4148  0755  2F59               	goto	l630
  4149  0756                     u2680:
  4150  0756                     l2141:
  4151  0756  01B7               	clrf	___flmul@aexp
  4152  0757  0AB7               	incf	___flmul@aexp,f
  4153  0758  2F5E               	goto	l2145
  4154  0759                     l630:
  4155  0759  1C39               	btfss	___flmul@prod,0
  4156  075A  2F5C               	goto	u2691
  4157  075B  2F5D               	goto	u2690
  4158  075C                     u2691:
  4159  075C  2F5E               	goto	l2145
  4160  075D                     u2690:
  4161  075D  2F56               	goto	l2141
  4162  075E                     l2145:
  4163  075E  0837               	movf	___flmul@aexp,w
  4164  075F  1903               	btfsc	3,2
  4165  0760  2F62               	goto	u2701
  4166  0761  2F63               	goto	u2700
  4167  0762                     u2701:
  4168  0762  2F94               	goto	l2155
  4169  0763                     u2700:
  4170  0763                     l2147:
  4171  0763  3001               	movlw	1
  4172  0764  07B9               	addwf	___flmul@prod,f
  4173  0765  3000               	movlw	0
  4174  0766  1803               	skipnc
  4175  0767  3001               	movlw	1
  4176  0768  07BA               	addwf	___flmul@prod+1,f
  4177  0769  3000               	movlw	0
  4178  076A  1803               	skipnc
  4179  076B  3001               	movlw	1
  4180  076C  07BB               	addwf	___flmul@prod+2,f
  4181  076D  3000               	movlw	0
  4182  076E  1803               	skipnc
  4183  076F  3001               	movlw	1
  4184  0770  07BC               	addwf	___flmul@prod+3,f
  4185  0771                     l2149:
  4186  0771  1C3C               	btfss	___flmul@prod+3,0
  4187  0772  2F74               	goto	u2711
  4188  0773  2F75               	goto	u2710
  4189  0774                     u2711:
  4190  0774  2F94               	goto	l2155
  4191  0775                     u2710:
  4192  0775                     l2151:
  4193  0775  0839               	movf	___flmul@prod,w
  4194  0776  00AD               	movwf	??___flmul
  4195  0777  083A               	movf	___flmul@prod+1,w
  4196  0778  00AE               	movwf	??___flmul+1
  4197  0779  083B               	movf	___flmul@prod+2,w
  4198  077A  00AF               	movwf	??___flmul+2
  4199  077B  083C               	movf	___flmul@prod+3,w
  4200  077C  00B0               	movwf	??___flmul+3
  4201  077D  3001               	movlw	1
  4202  077E  00B1               	movwf	??___flmul+4
  4203  077F                     u2725:
  4204  077F  0D30               	rlf	??___flmul+3,w
  4205  0780  0CB0               	rrf	??___flmul+3,f
  4206  0781  0CAF               	rrf	??___flmul+2,f
  4207  0782  0CAE               	rrf	??___flmul+1,f
  4208  0783  0CAD               	rrf	??___flmul,f
  4209  0784                     u2720:
  4210  0784  0BB1               	decfsz	??___flmul+4,f
  4211  0785  2F7F               	goto	u2725
  4212  0786  0830               	movf	??___flmul+3,w
  4213  0787  00BC               	movwf	___flmul@prod+3
  4214  0788  082F               	movf	??___flmul+2,w
  4215  0789  00BB               	movwf	___flmul@prod+2
  4216  078A  082E               	movf	??___flmul+1,w
  4217  078B  00BA               	movwf	___flmul@prod+1
  4218  078C  082D               	movf	??___flmul,w
  4219  078D  00B9               	movwf	___flmul@prod
  4220  078E                     l2153:
  4221  078E  3001               	movlw	1
  4222  078F  07BD               	addwf	___flmul@temp,f
  4223  0790  1803               	skipnc
  4224  0791  0ABE               	incf	___flmul@temp+1,f
  4225  0792  3000               	movlw	0
  4226  0793  07BE               	addwf	___flmul@temp+1,f
  4227  0794                     l2155:
  4228  0794  083E               	movf	___flmul@temp+1,w
  4229  0795  3A80               	xorlw	128
  4230  0796  00FF               	movwf	btemp+1
  4231  0797  3080               	movlw	128
  4232  0798  027F               	subwf	btemp+1,w
  4233  0799  1D03               	skipz
  4234  079A  2F9D               	goto	u2735
  4235  079B  30FF               	movlw	255
  4236  079C  023D               	subwf	___flmul@temp,w
  4237  079D                     u2735:
  4238  079D  1C03               	skipc
  4239  079E  2FA0               	goto	u2731
  4240  079F  2FA1               	goto	u2730
  4241  07A0                     u2731:
  4242  07A0  2FAC               	goto	l2159
  4243  07A1                     u2730:
  4244  07A1                     l2157:
  4245  07A1  307F               	movlw	127
  4246  07A2  1283               	bcf	3,5	;RP0=0, select bank0
  4247  07A3  1303               	bcf	3,6	;RP1=0, select bank0
  4248  07A4  00BC               	movwf	___flmul@prod+3
  4249  07A5  3080               	movlw	128
  4250  07A6  00BB               	movwf	___flmul@prod+2
  4251  07A7  3000               	movlw	0
  4252  07A8  00BA               	movwf	___flmul@prod+1
  4253  07A9  3000               	movlw	0
  4254  07AA  00B9               	movwf	___flmul@prod
  4255  07AB  2FE1               	goto	l636
  4256  07AC                     l2159:
  4257  07AC  1283               	bcf	3,5	;RP0=0, select bank0
  4258  07AD  1303               	bcf	3,6	;RP1=0, select bank0
  4259  07AE  083E               	movf	___flmul@temp+1,w
  4260  07AF  3A80               	xorlw	128
  4261  07B0  00FF               	movwf	btemp+1
  4262  07B1  3080               	movlw	128
  4263  07B2  027F               	subwf	btemp+1,w
  4264  07B3  1D03               	skipz
  4265  07B4  2FB7               	goto	u2745
  4266  07B5  3001               	movlw	1
  4267  07B6  023D               	subwf	___flmul@temp,w
  4268  07B7                     u2745:
  4269  07B7  1803               	skipnc
  4270  07B8  2FBA               	goto	u2741
  4271  07B9  2FBB               	goto	u2740
  4272  07BA                     u2741:
  4273  07BA  2FC7               	goto	l2165
  4274  07BB                     u2740:
  4275  07BB                     l2161:
  4276  07BB  3000               	movlw	0
  4277  07BC  1283               	bcf	3,5	;RP0=0, select bank0
  4278  07BD  1303               	bcf	3,6	;RP1=0, select bank0
  4279  07BE  00BC               	movwf	___flmul@prod+3
  4280  07BF  3000               	movlw	0
  4281  07C0  00BB               	movwf	___flmul@prod+2
  4282  07C1  3000               	movlw	0
  4283  07C2  00BA               	movwf	___flmul@prod+1
  4284  07C3  3000               	movlw	0
  4285  07C4  00B9               	movwf	___flmul@prod
  4286  07C5                     l2163:
  4287  07C5  01B2               	clrf	___flmul@sign
  4288  07C6  2FE1               	goto	l636
  4289  07C7                     l2165:
  4290  07C7  1283               	bcf	3,5	;RP0=0, select bank0
  4291  07C8  1303               	bcf	3,6	;RP1=0, select bank0
  4292  07C9  083D               	movf	___flmul@temp,w
  4293  07CA  00AD               	movwf	??___flmul
  4294  07CB  082D               	movf	??___flmul,w
  4295  07CC  00B8               	movwf	___flmul@bexp
  4296  07CD  30FF               	movlw	255
  4297  07CE  05B9               	andwf	___flmul@prod,f
  4298  07CF  30FF               	movlw	255
  4299  07D0  05BA               	andwf	___flmul@prod+1,f
  4300  07D1  307F               	movlw	127
  4301  07D2  05BB               	andwf	___flmul@prod+2,f
  4302  07D3  3000               	movlw	0
  4303  07D4  05BC               	andwf	___flmul@prod+3,f
  4304  07D5                     l2167:
  4305  07D5  1C38               	btfss	___flmul@bexp,0
  4306  07D6  2FD8               	goto	u2751
  4307  07D7  2FD9               	goto	u2750
  4308  07D8                     u2751:
  4309  07D8  2FDA               	goto	l2171
  4310  07D9                     u2750:
  4311  07D9                     l2169:
  4312  07D9  17BB               	bsf	___flmul@prod+2,7
  4313  07DA                     l2171:
  4314  07DA  0838               	movf	___flmul@bexp,w
  4315  07DB  00AD               	movwf	??___flmul
  4316  07DC  1003               	clrc
  4317  07DD  0C2D               	rrf	??___flmul,w
  4318  07DE  00AE               	movwf	??___flmul+1
  4319  07DF  082E               	movf	??___flmul+1,w
  4320  07E0  00BC               	movwf	___flmul@prod+3
  4321  07E1                     l636:
  4322  07E1  0832               	movf	___flmul@sign,w
  4323  07E2  00AD               	movwf	??___flmul
  4324  07E3  082D               	movf	??___flmul,w
  4325  07E4  04BC               	iorwf	___flmul@prod+3,f
  4326  07E5                     l2173:
  4327  07E5  083C               	movf	___flmul@prod+3,w
  4328  07E6  00A8               	movwf	?___flmul+3
  4329  07E7  083B               	movf	___flmul@prod+2,w
  4330  07E8  00A7               	movwf	?___flmul+2
  4331  07E9  083A               	movf	___flmul@prod+1,w
  4332  07EA  00A6               	movwf	?___flmul+1
  4333  07EB  0839               	movf	___flmul@prod,w
  4334  07EC  00A5               	movwf	?___flmul
  4335  07ED                     l624:
  4336  07ED  0008               	return
  4337  07EE                     __end_of___flmul:
  4338                           
  4339                           	psect	text9
  4340  1569                     __ptext9:	
  4341 ;; *************** function __Umul8_16 *****************
  4342 ;; Defined at:
  4343 ;;		line 4 in file "C:\Program Files\Microchip\xc8\v2.36\pic\sources\c90\common\Umul8_16.c"
  4344 ;; Parameters:    Size  Location     Type
  4345 ;;  multiplier      1    wreg     unsigned char 
  4346 ;;  multiplicand    1    0[COMMON] unsigned char 
  4347 ;; Auto vars:     Size  Location     Type
  4348 ;;  multiplier      1    8[COMMON] unsigned char 
  4349 ;;  word_mpld       2    6[COMMON] unsigned int 
  4350 ;;  product         2    4[COMMON] unsigned int 
  4351 ;; Return value:  Size  Location     Type
  4352 ;;                  2    0[COMMON] unsigned int 
  4353 ;; Registers used:
  4354 ;;		wreg, status,2, status,0
  4355 ;; Tracked objects:
  4356 ;;		On entry : 0/0
  4357 ;;		On exit  : 0/0
  4358 ;;		Unchanged: 0/0
  4359 ;; Data sizes:     COMMON   BANK0   BANK1   BANK3   BANK2
  4360 ;;      Params:         2       0       0       0       0
  4361 ;;      Locals:         5       0       0       0       0
  4362 ;;      Temps:          2       0       0       0       0
  4363 ;;      Totals:         9       0       0       0       0
  4364 ;;Total ram usage:        9 bytes
  4365 ;; Hardware stack levels used: 1
  4366 ;; This function calls:
  4367 ;;		Nothing
  4368 ;; This function is called by:
  4369 ;;		___flmul
  4370 ;; This function uses a non-reentrant model
  4371 ;;
  4372                           
  4373  1569                     __Umul8_16:	
  4374                           ;psect for function __Umul8_16
  4375                           
  4376                           
  4377                           ;incstack = 0
  4378                           ; Regs used in __Umul8_16: [wreg+status,2+status,0]
  4379                           ;__Umul8_16@multiplier stored from wreg
  4380  1569  00F8               	movwf	__Umul8_16@multiplier
  4381  156A                     l1797:
  4382  156A  01F4               	clrf	__Umul8_16@product
  4383  156B  01F5               	clrf	__Umul8_16@product+1
  4384  156C                     l1799:
  4385  156C  0870               	movf	__Umul8_16@multiplicand,w
  4386  156D  00F2               	movwf	??__Umul8_16
  4387  156E  01F3               	clrf	??__Umul8_16+1
  4388  156F  0872               	movf	??__Umul8_16,w
  4389  1570  00F6               	movwf	__Umul8_16@word_mpld
  4390  1571  0873               	movf	??__Umul8_16+1,w
  4391  1572  00F7               	movwf	__Umul8_16@word_mpld+1
  4392  1573                     l1801:
  4393  1573  1C78               	btfss	__Umul8_16@multiplier,0
  4394  1574  2D76               	goto	u1861
  4395  1575  2D77               	goto	u1860
  4396  1576                     u1861:
  4397  1576  2D7D               	goto	l643
  4398  1577                     u1860:
  4399  1577                     l1803:
  4400  1577  0876               	movf	__Umul8_16@word_mpld,w
  4401  1578  07F4               	addwf	__Umul8_16@product,f
  4402  1579  1803               	skipnc
  4403  157A  0AF5               	incf	__Umul8_16@product+1,f
  4404  157B  0877               	movf	__Umul8_16@word_mpld+1,w
  4405  157C  07F5               	addwf	__Umul8_16@product+1,f
  4406  157D                     l643:
  4407  157D  3001               	movlw	1
  4408  157E                     u1875:
  4409  157E  1003               	clrc
  4410  157F  0DF6               	rlf	__Umul8_16@word_mpld,f
  4411  1580  0DF7               	rlf	__Umul8_16@word_mpld+1,f
  4412  1581  3EFF               	addlw	-1
  4413  1582  1D03               	skipz
  4414  1583  2D7E               	goto	u1875
  4415  1584  1003               	clrc
  4416  1585  0CF8               	rrf	__Umul8_16@multiplier,f
  4417  1586                     l1805:
  4418  1586  0878               	movf	__Umul8_16@multiplier,w
  4419  1587  1D03               	btfss	3,2
  4420  1588  2D8A               	goto	u1881
  4421  1589  2D8B               	goto	u1880
  4422  158A                     u1881:
  4423  158A  2D73               	goto	l1801
  4424  158B                     u1880:
  4425  158B                     l1807:
  4426  158B  0875               	movf	__Umul8_16@product+1,w
  4427  158C  00F1               	movwf	?__Umul8_16+1
  4428  158D  0874               	movf	__Umul8_16@product,w
  4429  158E  00F0               	movwf	?__Umul8_16
  4430  158F                     l645:
  4431  158F  0008               	return
  4432  1590                     __end_of__Umul8_16:
  4433                           
  4434                           	psect	text10
  4435  0904                     __ptext10:	
  4436 ;; *************** function ___xxtofl *****************
  4437 ;; Defined at:
  4438 ;;		line 10 in file "C:\Program Files\Microchip\xc8\v2.36\pic\sources\c90\common\xxtofl.c"
  4439 ;; Parameters:    Size  Location     Type
  4440 ;;  sign            1    wreg     unsigned char 
  4441 ;;  val             4    0[COMMON] long 
  4442 ;; Auto vars:     Size  Location     Type
  4443 ;;  sign            1    8[COMMON] unsigned char 
  4444 ;;  arg             4   10[COMMON] unsigned long 
  4445 ;;  exp             1    9[COMMON] unsigned char 
  4446 ;; Return value:  Size  Location     Type
  4447 ;;                  4    0[COMMON] unsigned char 
  4448 ;; Registers used:
  4449 ;;		wreg, status,2, status,0
  4450 ;; Tracked objects:
  4451 ;;		On entry : 0/0
  4452 ;;		On exit  : 0/0
  4453 ;;		Unchanged: 0/0
  4454 ;; Data sizes:     COMMON   BANK0   BANK1   BANK3   BANK2
  4455 ;;      Params:         4       0       0       0       0
  4456 ;;      Locals:         6       0       0       0       0
  4457 ;;      Temps:          4       0       0       0       0
  4458 ;;      Totals:        14       0       0       0       0
  4459 ;;Total ram usage:       14 bytes
  4460 ;; Hardware stack levels used: 1
  4461 ;; This function calls:
  4462 ;;		Nothing
  4463 ;; This function is called by:
  4464 ;;		_main
  4465 ;;		_log
  4466 ;; This function uses a non-reentrant model
  4467 ;;
  4468                           
  4469  0904                     ___xxtofl:	
  4470                           ;psect for function ___xxtofl
  4471                           
  4472                           
  4473                           ;incstack = 0
  4474                           ; Regs used in ___xxtofl: [wreg+status,2+status,0]
  4475                           ;___xxtofl@sign stored from wreg
  4476  0904  00F8               	movwf	___xxtofl@sign
  4477  0905                     l2273:
  4478  0905  0878               	movf	___xxtofl@sign,w
  4479  0906  1903               	btfsc	3,2
  4480  0907  2909               	goto	u2981
  4481  0908  290A               	goto	u2980
  4482  0909                     u2981:
  4483  0909  291E               	goto	l2279
  4484  090A                     u2980:
  4485  090A                     l2275:
  4486  090A  1FF3               	btfss	___xxtofl@val+3,7
  4487  090B  290D               	goto	u2991
  4488  090C  290E               	goto	u2990
  4489  090D                     u2991:
  4490  090D  291E               	goto	l2279
  4491  090E                     u2990:
  4492  090E                     l2277:
  4493  090E  0970               	comf	___xxtofl@val,w
  4494  090F  00FA               	movwf	___xxtofl@arg
  4495  0910  0971               	comf	___xxtofl@val+1,w
  4496  0911  00FB               	movwf	___xxtofl@arg+1
  4497  0912  0972               	comf	___xxtofl@val+2,w
  4498  0913  00FC               	movwf	___xxtofl@arg+2
  4499  0914  0973               	comf	___xxtofl@val+3,w
  4500  0915  00FD               	movwf	___xxtofl@arg+3
  4501  0916  0AFA               	incf	___xxtofl@arg,f
  4502  0917  1903               	skipnz
  4503  0918  0AFB               	incf	___xxtofl@arg+1,f
  4504  0919  1903               	skipnz
  4505  091A  0AFC               	incf	___xxtofl@arg+2,f
  4506  091B  1903               	skipnz
  4507  091C  0AFD               	incf	___xxtofl@arg+3,f
  4508  091D  2926               	goto	l668
  4509  091E                     l2279:
  4510  091E  0873               	movf	___xxtofl@val+3,w
  4511  091F  00FD               	movwf	___xxtofl@arg+3
  4512  0920  0872               	movf	___xxtofl@val+2,w
  4513  0921  00FC               	movwf	___xxtofl@arg+2
  4514  0922  0871               	movf	___xxtofl@val+1,w
  4515  0923  00FB               	movwf	___xxtofl@arg+1
  4516  0924  0870               	movf	___xxtofl@val,w
  4517  0925  00FA               	movwf	___xxtofl@arg
  4518  0926                     l668:
  4519  0926  0873               	movf	___xxtofl@val+3,w
  4520  0927  0472               	iorwf	___xxtofl@val+2,w
  4521  0928  0471               	iorwf	___xxtofl@val+1,w
  4522  0929  0470               	iorwf	___xxtofl@val,w
  4523  092A  1D03               	skipz
  4524  092B  292D               	goto	u3001
  4525  092C  292E               	goto	u3000
  4526  092D                     u3001:
  4527  092D  2937               	goto	l2285
  4528  092E                     u3000:
  4529  092E                     l2281:
  4530  092E  3000               	movlw	0
  4531  092F  00F3               	movwf	?___xxtofl+3
  4532  0930  3000               	movlw	0
  4533  0931  00F2               	movwf	?___xxtofl+2
  4534  0932  3000               	movlw	0
  4535  0933  00F1               	movwf	?___xxtofl+1
  4536  0934  3000               	movlw	0
  4537  0935  00F0               	movwf	?___xxtofl
  4538  0936  29BD               	goto	l670
  4539  0937                     l2285:
  4540  0937  3096               	movlw	150
  4541  0938  00F4               	movwf	??___xxtofl
  4542  0939  0874               	movf	??___xxtofl,w
  4543  093A  00F9               	movwf	___xxtofl@exp
  4544  093B  2949               	goto	l2289
  4545  093C                     l2287:
  4546  093C  3001               	movlw	1
  4547  093D  00F4               	movwf	??___xxtofl
  4548  093E  0874               	movf	??___xxtofl,w
  4549  093F  07F9               	addwf	___xxtofl@exp,f
  4550  0940  3001               	movlw	1
  4551  0941                     u3015:
  4552  0941  1003               	clrc
  4553  0942  0CFD               	rrf	___xxtofl@arg+3,f
  4554  0943  0CFC               	rrf	___xxtofl@arg+2,f
  4555  0944  0CFB               	rrf	___xxtofl@arg+1,f
  4556  0945  0CFA               	rrf	___xxtofl@arg,f
  4557  0946  3EFF               	addlw	-1
  4558  0947  1D03               	skipz
  4559  0948  2941               	goto	u3015
  4560  0949                     l2289:
  4561  0949  30FE               	movlw	254
  4562  094A  057D               	andwf	___xxtofl@arg+3,w
  4563  094B  1D03               	btfss	3,2
  4564  094C  294E               	goto	u3021
  4565  094D  294F               	goto	u3020
  4566  094E                     u3021:
  4567  094E  293C               	goto	l2287
  4568  094F                     u3020:
  4569  094F  296B               	goto	l674
  4570  0950                     l2291:
  4571  0950  3001               	movlw	1
  4572  0951  00F4               	movwf	??___xxtofl
  4573  0952  0874               	movf	??___xxtofl,w
  4574  0953  07F9               	addwf	___xxtofl@exp,f
  4575  0954                     l2293:
  4576  0954  3001               	movlw	1
  4577  0955  07FA               	addwf	___xxtofl@arg,f
  4578  0956  3000               	movlw	0
  4579  0957  1803               	skipnc
  4580  0958  3001               	movlw	1
  4581  0959  07FB               	addwf	___xxtofl@arg+1,f
  4582  095A  3000               	movlw	0
  4583  095B  1803               	skipnc
  4584  095C  3001               	movlw	1
  4585  095D  07FC               	addwf	___xxtofl@arg+2,f
  4586  095E  3000               	movlw	0
  4587  095F  1803               	skipnc
  4588  0960  3001               	movlw	1
  4589  0961  07FD               	addwf	___xxtofl@arg+3,f
  4590  0962                     l2295:
  4591  0962  3001               	movlw	1
  4592  0963                     u3035:
  4593  0963  1003               	clrc
  4594  0964  0CFD               	rrf	___xxtofl@arg+3,f
  4595  0965  0CFC               	rrf	___xxtofl@arg+2,f
  4596  0966  0CFB               	rrf	___xxtofl@arg+1,f
  4597  0967  0CFA               	rrf	___xxtofl@arg,f
  4598  0968  3EFF               	addlw	-1
  4599  0969  1D03               	skipz
  4600  096A  2963               	goto	u3035
  4601  096B                     l674:
  4602  096B  30FF               	movlw	255
  4603  096C  057D               	andwf	___xxtofl@arg+3,w
  4604  096D  1D03               	btfss	3,2
  4605  096E  2970               	goto	u3041
  4606  096F  2971               	goto	u3040
  4607  0970                     u3041:
  4608  0970  2950               	goto	l2291
  4609  0971                     u3040:
  4610  0971  297D               	goto	l2299
  4611  0972                     l2297:
  4612  0972  3001               	movlw	1
  4613  0973  02F9               	subwf	___xxtofl@exp,f
  4614  0974  3001               	movlw	1
  4615  0975  00F4               	movwf	??___xxtofl
  4616  0976                     u3055:
  4617  0976  1003               	clrc
  4618  0977  0DFA               	rlf	___xxtofl@arg,f
  4619  0978  0DFB               	rlf	___xxtofl@arg+1,f
  4620  0979  0DFC               	rlf	___xxtofl@arg+2,f
  4621  097A  0DFD               	rlf	___xxtofl@arg+3,f
  4622  097B  0BF4               	decfsz	??___xxtofl,f
  4623  097C  2976               	goto	u3055
  4624  097D                     l2299:
  4625  097D  1BFC               	btfsc	___xxtofl@arg+2,7
  4626  097E  2980               	goto	u3061
  4627  097F  2981               	goto	u3060
  4628  0980                     u3061:
  4629  0980  2987               	goto	l681
  4630  0981                     u3060:
  4631  0981                     l2301:
  4632  0981  3002               	movlw	2
  4633  0982  0279               	subwf	___xxtofl@exp,w
  4634  0983  1803               	skipnc
  4635  0984  2986               	goto	u3071
  4636  0985  2987               	goto	u3070
  4637  0986                     u3071:
  4638  0986  2972               	goto	l2297
  4639  0987                     u3070:
  4640  0987                     l681:
  4641  0987  1879               	btfsc	___xxtofl@exp,0
  4642  0988  298A               	goto	u3081
  4643  0989  298B               	goto	u3080
  4644  098A                     u3081:
  4645  098A  2993               	goto	l682
  4646  098B                     u3080:
  4647  098B                     l2303:
  4648  098B  30FF               	movlw	255
  4649  098C  05FA               	andwf	___xxtofl@arg,f
  4650  098D  30FF               	movlw	255
  4651  098E  05FB               	andwf	___xxtofl@arg+1,f
  4652  098F  307F               	movlw	127
  4653  0990  05FC               	andwf	___xxtofl@arg+2,f
  4654  0991  30FF               	movlw	255
  4655  0992  05FD               	andwf	___xxtofl@arg+3,f
  4656  0993                     l682:
  4657  0993  1003               	clrc
  4658  0994  0CF9               	rrf	___xxtofl@exp,f
  4659  0995                     l2305:
  4660  0995  0879               	movf	___xxtofl@exp,w
  4661  0996  00F4               	movwf	??___xxtofl
  4662  0997  01F5               	clrf	??___xxtofl+1
  4663  0998  01F6               	clrf	??___xxtofl+2
  4664  0999  01F7               	clrf	??___xxtofl+3
  4665  099A  3018               	movlw	24
  4666  099B                     u3095:
  4667  099B  1003               	clrc
  4668  099C  0DF4               	rlf	??___xxtofl,f
  4669  099D  0DF5               	rlf	??___xxtofl+1,f
  4670  099E  0DF6               	rlf	??___xxtofl+2,f
  4671  099F  0DF7               	rlf	??___xxtofl+3,f
  4672  09A0                     u3090:
  4673  09A0  3EFF               	addlw	-1
  4674  09A1  1D03               	skipz
  4675  09A2  299B               	goto	u3095
  4676  09A3  0874               	movf	??___xxtofl,w
  4677  09A4  04FA               	iorwf	___xxtofl@arg,f
  4678  09A5  0875               	movf	??___xxtofl+1,w
  4679  09A6  04FB               	iorwf	___xxtofl@arg+1,f
  4680  09A7  0876               	movf	??___xxtofl+2,w
  4681  09A8  04FC               	iorwf	___xxtofl@arg+2,f
  4682  09A9  0877               	movf	??___xxtofl+3,w
  4683  09AA  04FD               	iorwf	___xxtofl@arg+3,f
  4684  09AB                     l2307:
  4685  09AB  0878               	movf	___xxtofl@sign,w
  4686  09AC  1903               	btfsc	3,2
  4687  09AD  29AF               	goto	u3101
  4688  09AE  29B0               	goto	u3100
  4689  09AF                     u3101:
  4690  09AF  29B5               	goto	l2313
  4691  09B0                     u3100:
  4692  09B0                     l2309:
  4693  09B0  1FF3               	btfss	___xxtofl@val+3,7
  4694  09B1  29B3               	goto	u3111
  4695  09B2  29B4               	goto	u3110
  4696  09B3                     u3111:
  4697  09B3  29B5               	goto	l2313
  4698  09B4                     u3110:
  4699  09B4                     l2311:
  4700  09B4  17FD               	bsf	___xxtofl@arg+3,7
  4701  09B5                     l2313:
  4702  09B5  087D               	movf	___xxtofl@arg+3,w
  4703  09B6  00F3               	movwf	?___xxtofl+3
  4704  09B7  087C               	movf	___xxtofl@arg+2,w
  4705  09B8  00F2               	movwf	?___xxtofl+2
  4706  09B9  087B               	movf	___xxtofl@arg+1,w
  4707  09BA  00F1               	movwf	?___xxtofl+1
  4708  09BB  087A               	movf	___xxtofl@arg,w
  4709  09BC  00F0               	movwf	?___xxtofl
  4710  09BD                     l670:
  4711  09BD  0008               	return
  4712  09BE                     __end_of___xxtofl:
  4713                           
  4714                           	psect	text11
  4715  0862                     __ptext11:	
  4716 ;; *************** function ___flge *****************
  4717 ;; Defined at:
  4718 ;;		line 4 in file "C:\Program Files\Microchip\xc8\v2.36\pic\sources\c90\common\flge.c"
  4719 ;; Parameters:    Size  Location     Type
  4720 ;;  ff1             4    0[COMMON] unsigned char 
  4721 ;;  ff2             4    4[COMMON] unsigned char 
  4722 ;; Auto vars:     Size  Location     Type
  4723 ;;		None
  4724 ;; Return value:  Size  Location     Type
  4725 ;;		None               void
  4726 ;; Registers used:
  4727 ;;		wreg, status,2, status,0
  4728 ;; Tracked objects:
  4729 ;;		On entry : 0/0
  4730 ;;		On exit  : 0/0
  4731 ;;		Unchanged: 0/0
  4732 ;; Data sizes:     COMMON   BANK0   BANK1   BANK3   BANK2
  4733 ;;      Params:         8       0       0       0       0
  4734 ;;      Locals:         0       0       0       0       0
  4735 ;;      Temps:          4       0       0       0       0
  4736 ;;      Totals:        12       0       0       0       0
  4737 ;;Total ram usage:       12 bytes
  4738 ;; Hardware stack levels used: 1
  4739 ;; This function calls:
  4740 ;;		Nothing
  4741 ;; This function is called by:
  4742 ;;		_main
  4743 ;;		_log
  4744 ;; This function uses a non-reentrant model
  4745 ;;
  4746                           
  4747  0862                     ___flge:	
  4748                           ;psect for function ___flge
  4749                           
  4750  0862                     l2205:	
  4751                           ;incstack = 0
  4752                           ; Regs used in ___flge: [wreg+status,2+status,0]
  4753                           
  4754  0862  3000               	movlw	0
  4755  0863  0570               	andwf	___flge@ff1,w
  4756  0864  00F8               	movwf	??___flge
  4757  0865  3000               	movlw	0
  4758  0866  0571               	andwf	___flge@ff1+1,w
  4759  0867  00F9               	movwf	??___flge+1
  4760  0868  3080               	movlw	128
  4761  0869  0572               	andwf	___flge@ff1+2,w
  4762  086A  00FA               	movwf	??___flge+2
  4763  086B  307F               	movlw	127
  4764  086C  0573               	andwf	___flge@ff1+3,w
  4765  086D  00FB               	movwf	??___flge+3
  4766  086E  087B               	movf	??___flge+3,w
  4767  086F  047A               	iorwf	??___flge+2,w
  4768  0870  0479               	iorwf	??___flge+1,w
  4769  0871  0478               	iorwf	??___flge,w
  4770  0872  1D03               	skipz
  4771  0873  2875               	goto	u2781
  4772  0874  2876               	goto	u2780
  4773  0875                     u2781:
  4774  0875  287E               	goto	l409
  4775  0876                     u2780:
  4776  0876                     l2207:
  4777  0876  3000               	movlw	0
  4778  0877  00F3               	movwf	___flge@ff1+3
  4779  0878  3000               	movlw	0
  4780  0879  00F2               	movwf	___flge@ff1+2
  4781  087A  3000               	movlw	0
  4782  087B  00F1               	movwf	___flge@ff1+1
  4783  087C  3000               	movlw	0
  4784  087D  00F0               	movwf	___flge@ff1
  4785  087E                     l409:
  4786  087E  3000               	movlw	0
  4787  087F  0574               	andwf	___flge@ff2,w
  4788  0880  00F8               	movwf	??___flge
  4789  0881  3000               	movlw	0
  4790  0882  0575               	andwf	___flge@ff2+1,w
  4791  0883  00F9               	movwf	??___flge+1
  4792  0884  3080               	movlw	128
  4793  0885  0576               	andwf	___flge@ff2+2,w
  4794  0886  00FA               	movwf	??___flge+2
  4795  0887  307F               	movlw	127
  4796  0888  0577               	andwf	___flge@ff2+3,w
  4797  0889  00FB               	movwf	??___flge+3
  4798  088A  087B               	movf	??___flge+3,w
  4799  088B  047A               	iorwf	??___flge+2,w
  4800  088C  0479               	iorwf	??___flge+1,w
  4801  088D  0478               	iorwf	??___flge,w
  4802  088E  1D03               	skipz
  4803  088F  2891               	goto	u2791
  4804  0890  2892               	goto	u2790
  4805  0891                     u2791:
  4806  0891  289A               	goto	l2211
  4807  0892                     u2790:
  4808  0892                     l2209:
  4809  0892  3000               	movlw	0
  4810  0893  00F7               	movwf	___flge@ff2+3
  4811  0894  3000               	movlw	0
  4812  0895  00F6               	movwf	___flge@ff2+2
  4813  0896  3000               	movlw	0
  4814  0897  00F5               	movwf	___flge@ff2+1
  4815  0898  3000               	movlw	0
  4816  0899  00F4               	movwf	___flge@ff2
  4817  089A                     l2211:
  4818  089A  1FF3               	btfss	___flge@ff1+3,7
  4819  089B  289D               	goto	u2801
  4820  089C  289E               	goto	u2800
  4821  089D                     u2801:
  4822  089D  28C2               	goto	l2215
  4823  089E                     u2800:
  4824  089E                     l2213:
  4825  089E  3000               	movlw	0
  4826  089F  00F8               	movwf	??___flge
  4827  08A0  3000               	movlw	0
  4828  08A1  00F9               	movwf	??___flge+1
  4829  08A2  3000               	movlw	0
  4830  08A3  00FA               	movwf	??___flge+2
  4831  08A4  3080               	movlw	128
  4832  08A5  00FB               	movwf	??___flge+3
  4833  08A6  0870               	movf	___flge@ff1,w
  4834  08A7  02F8               	subwf	??___flge,f
  4835  08A8  0871               	movf	___flge@ff1+1,w
  4836  08A9  1C03               	skipc
  4837  08AA  0F71               	incfsz	___flge@ff1+1,w
  4838  08AB  28AD               	goto	u2811
  4839  08AC  28AE               	goto	u2812
  4840  08AD                     u2811:
  4841  08AD  02F9               	subwf	??___flge+1,f
  4842  08AE                     u2812:
  4843  08AE  0872               	movf	___flge@ff1+2,w
  4844  08AF  1C03               	skipc
  4845  08B0  0F72               	incfsz	___flge@ff1+2,w
  4846  08B1  28B3               	goto	u2813
  4847  08B2  28B4               	goto	u2814
  4848  08B3                     u2813:
  4849  08B3  02FA               	subwf	??___flge+2,f
  4850  08B4                     u2814:
  4851  08B4  0873               	movf	___flge@ff1+3,w
  4852  08B5  1C03               	skipc
  4853  08B6  0F73               	incfsz	___flge@ff1+3,w
  4854  08B7  28B9               	goto	u2815
  4855  08B8  28BA               	goto	u2816
  4856  08B9                     u2815:
  4857  08B9  02FB               	subwf	??___flge+3,f
  4858  08BA                     u2816:
  4859  08BA  087B               	movf	??___flge+3,w
  4860  08BB  00F3               	movwf	___flge@ff1+3
  4861  08BC  087A               	movf	??___flge+2,w
  4862  08BD  00F2               	movwf	___flge@ff1+2
  4863  08BE  0879               	movf	??___flge+1,w
  4864  08BF  00F1               	movwf	___flge@ff1+1
  4865  08C0  0878               	movf	??___flge,w
  4866  08C1  00F0               	movwf	___flge@ff1
  4867  08C2                     l2215:
  4868  08C2  1FF7               	btfss	___flge@ff2+3,7
  4869  08C3  28C5               	goto	u2821
  4870  08C4  28C6               	goto	u2820
  4871  08C5                     u2821:
  4872  08C5  28EA               	goto	l412
  4873  08C6                     u2820:
  4874  08C6                     l2217:
  4875  08C6  3000               	movlw	0
  4876  08C7  00F8               	movwf	??___flge
  4877  08C8  3000               	movlw	0
  4878  08C9  00F9               	movwf	??___flge+1
  4879  08CA  3000               	movlw	0
  4880  08CB  00FA               	movwf	??___flge+2
  4881  08CC  3080               	movlw	128
  4882  08CD  00FB               	movwf	??___flge+3
  4883  08CE  0874               	movf	___flge@ff2,w
  4884  08CF  02F8               	subwf	??___flge,f
  4885  08D0  0875               	movf	___flge@ff2+1,w
  4886  08D1  1C03               	skipc
  4887  08D2  0F75               	incfsz	___flge@ff2+1,w
  4888  08D3  28D5               	goto	u2831
  4889  08D4  28D6               	goto	u2832
  4890  08D5                     u2831:
  4891  08D5  02F9               	subwf	??___flge+1,f
  4892  08D6                     u2832:
  4893  08D6  0876               	movf	___flge@ff2+2,w
  4894  08D7  1C03               	skipc
  4895  08D8  0F76               	incfsz	___flge@ff2+2,w
  4896  08D9  28DB               	goto	u2833
  4897  08DA  28DC               	goto	u2834
  4898  08DB                     u2833:
  4899  08DB  02FA               	subwf	??___flge+2,f
  4900  08DC                     u2834:
  4901  08DC  0877               	movf	___flge@ff2+3,w
  4902  08DD  1C03               	skipc
  4903  08DE  0F77               	incfsz	___flge@ff2+3,w
  4904  08DF  28E1               	goto	u2835
  4905  08E0  28E2               	goto	u2836
  4906  08E1                     u2835:
  4907  08E1  02FB               	subwf	??___flge+3,f
  4908  08E2                     u2836:
  4909  08E2  087B               	movf	??___flge+3,w
  4910  08E3  00F7               	movwf	___flge@ff2+3
  4911  08E4  087A               	movf	??___flge+2,w
  4912  08E5  00F6               	movwf	___flge@ff2+2
  4913  08E6  0879               	movf	??___flge+1,w
  4914  08E7  00F5               	movwf	___flge@ff2+1
  4915  08E8  0878               	movf	??___flge,w
  4916  08E9  00F4               	movwf	___flge@ff2
  4917  08EA                     l412:
  4918  08EA  3080               	movlw	128
  4919  08EB  06F3               	xorwf	___flge@ff1+3,f
  4920  08EC  3080               	movlw	128
  4921  08ED  06F7               	xorwf	___flge@ff2+3,f
  4922  08EE  0877               	movf	___flge@ff2+3,w
  4923  08EF  0273               	subwf	___flge@ff1+3,w
  4924  08F0  1D03               	skipz
  4925  08F1  28FC               	goto	u2845
  4926  08F2  0876               	movf	___flge@ff2+2,w
  4927  08F3  0272               	subwf	___flge@ff1+2,w
  4928  08F4  1D03               	skipz
  4929  08F5  28FC               	goto	u2845
  4930  08F6  0875               	movf	___flge@ff2+1,w
  4931  08F7  0271               	subwf	___flge@ff1+1,w
  4932  08F8  1D03               	skipz
  4933  08F9  28FC               	goto	u2845
  4934  08FA  0874               	movf	___flge@ff2,w
  4935  08FB  0270               	subwf	___flge@ff1,w
  4936  08FC                     u2845:
  4937  08FC  1803               	skipnc
  4938  08FD  28FF               	goto	u2841
  4939  08FE  2900               	goto	u2840
  4940  08FF                     u2841:
  4941  08FF  2902               	goto	l2221
  4942  0900                     u2840:
  4943  0900                     l2219:
  4944  0900  1003               	clrc
  4945  0901  2903               	goto	l413
  4946  0902                     l2221:
  4947  0902  1403               	setc
  4948  0903                     l413:
  4949  0903  0008               	return
  4950  0904                     __end_of___flge:
  4951                           
  4952                           	psect	text12
  4953  176E                     __ptext12:	
  4954 ;; *************** function ___fltol *****************
  4955 ;; Defined at:
  4956 ;;		line 43 in file "C:\Program Files\Microchip\xc8\v2.36\pic\sources\c90\common\fltol.c"
  4957 ;; Parameters:    Size  Location     Type
  4958 ;;  f1              4    8[BANK1 ] unsigned char 
  4959 ;; Auto vars:     Size  Location     Type
  4960 ;;  exp1            1   78[BANK0 ] unsigned char 
  4961 ;;  sign1           1   77[BANK0 ] unsigned char 
  4962 ;; Return value:  Size  Location     Type
  4963 ;;                  4    8[BANK1 ] long 
  4964 ;; Registers used:
  4965 ;;		wreg, status,2, status,0
  4966 ;; Tracked objects:
  4967 ;;		On entry : 0/0
  4968 ;;		On exit  : 0/0
  4969 ;;		Unchanged: 0/0
  4970 ;; Data sizes:     COMMON   BANK0   BANK1   BANK3   BANK2
  4971 ;;      Params:         0       0       4       0       0
  4972 ;;      Locals:         0       2       0       0       0
  4973 ;;      Temps:          0       0       5       0       0
  4974 ;;      Totals:         0       2       9       0       0
  4975 ;;Total ram usage:       11 bytes
  4976 ;; Hardware stack levels used: 1
  4977 ;; This function calls:
  4978 ;;		Nothing
  4979 ;; This function is called by:
  4980 ;;		_main
  4981 ;; This function uses a non-reentrant model
  4982 ;;
  4983                           
  4984  176E                     ___fltol:	
  4985                           ;psect for function ___fltol
  4986                           
  4987  176E                     l2465:	
  4988                           ;incstack = 0
  4989                           ; Regs used in ___fltol: [wreg+status,2+status,0]
  4990                           
  4991  176E  1003               	clrc
  4992  176F  1683               	bsf	3,5	;RP0=1, select bank1
  4993  1770  1303               	bcf	3,6	;RP1=0, select bank1
  4994  1771  0D2A               	rlf	(___fltol@f1+2)^(0+128),w
  4995  1772  0D2B               	rlf	(___fltol@f1+3)^(0+128),w
  4996  1773  00AC               	movwf	??___fltol^(0+128)
  4997  1774  082C               	movf	??___fltol^(0+128),w
  4998  1775  1283               	bcf	3,5	;RP0=0, select bank0
  4999  1776  1303               	bcf	3,6	;RP1=0, select bank0
  5000  1777  00EE               	movwf	___fltol@exp1
  5001  1778  086E               	movf	___fltol@exp1,w
  5002  1779  1D03               	btfss	3,2
  5003  177A  2F7C               	goto	u3261
  5004  177B  2F7D               	goto	u3260
  5005  177C                     u3261:
  5006  177C  2F88               	goto	l2471
  5007  177D                     u3260:
  5008  177D                     l2467:
  5009  177D  3000               	movlw	0
  5010  177E  1683               	bsf	3,5	;RP0=1, select bank1
  5011  177F  1303               	bcf	3,6	;RP1=0, select bank1
  5012  1780  00AB               	movwf	(?___fltol+3)^(0+128)
  5013  1781  3000               	movlw	0
  5014  1782  00AA               	movwf	(?___fltol+2)^(0+128)
  5015  1783  3000               	movlw	0
  5016  1784  00A9               	movwf	(?___fltol+1)^(0+128)
  5017  1785  3000               	movlw	0
  5018  1786  00A8               	movwf	?___fltol^(0+128)
  5019  1787  2FFF               	goto	l421
  5020  1788                     l2471:
  5021  1788  1683               	bsf	3,5	;RP0=1, select bank1
  5022  1789  1303               	bcf	3,6	;RP1=0, select bank1
  5023  178A  0828               	movf	___fltol@f1^(0+128),w
  5024  178B  00AC               	movwf	??___fltol^(0+128)
  5025  178C  0829               	movf	(___fltol@f1+1)^(0+128),w
  5026  178D  00AD               	movwf	(??___fltol^(0+128)+1)
  5027  178E  082A               	movf	(___fltol@f1+2)^(0+128),w
  5028  178F  00AE               	movwf	(??___fltol^(0+128)+2)
  5029  1790  082B               	movf	(___fltol@f1+3)^(0+128),w
  5030  1791  00AF               	movwf	(??___fltol^(0+128)+3)
  5031  1792  301F               	movlw	31
  5032  1793                     u3275:
  5033  1793  1003               	clrc
  5034  1794  0CAF               	rrf	(??___fltol^(0+128)+3),f
  5035  1795  0CAE               	rrf	(??___fltol^(0+128)+2),f
  5036  1796  0CAD               	rrf	(??___fltol^(0+128)+1),f
  5037  1797  0CAC               	rrf	??___fltol^(0+128),f
  5038  1798                     u3270:
  5039  1798  3EFF               	addlw	-1
  5040  1799  1D03               	skipz
  5041  179A  2F93               	goto	u3275
  5042  179B  082C               	movf	??___fltol^(0+128),w
  5043  179C  00B0               	movwf	(??___fltol+4)^(0+128)
  5044  179D  0830               	movf	(??___fltol+4)^(0+128),w
  5045  179E  1283               	bcf	3,5	;RP0=0, select bank0
  5046  179F  1303               	bcf	3,6	;RP1=0, select bank0
  5047  17A0  00ED               	movwf	___fltol@sign1
  5048  17A1                     l2473:
  5049  17A1  1683               	bsf	3,5	;RP0=1, select bank1
  5050  17A2  1303               	bcf	3,6	;RP1=0, select bank1
  5051  17A3  17AA               	bsf	(___fltol@f1^(0+128)+2),7
  5052  17A4                     l2475:
  5053  17A4  30FF               	movlw	255
  5054  17A5  05A8               	andwf	___fltol@f1^(0+128),f
  5055  17A6  30FF               	movlw	255
  5056  17A7  05A9               	andwf	(___fltol@f1+1)^(0+128),f
  5057  17A8  30FF               	movlw	255
  5058  17A9  05AA               	andwf	(___fltol@f1+2)^(0+128),f
  5059  17AA  3000               	movlw	0
  5060  17AB  05AB               	andwf	(___fltol@f1+3)^(0+128),f
  5061  17AC                     l2477:
  5062  17AC  3096               	movlw	150
  5063  17AD  1283               	bcf	3,5	;RP0=0, select bank0
  5064  17AE  1303               	bcf	3,6	;RP1=0, select bank0
  5065  17AF  02EE               	subwf	___fltol@exp1,f
  5066  17B0                     l2479:
  5067  17B0  1FEE               	btfss	___fltol@exp1,7
  5068  17B1  2FB3               	goto	u3281
  5069  17B2  2FB4               	goto	u3280
  5070  17B3                     u3281:
  5071  17B3  2FD2               	goto	l2489
  5072  17B4                     u3280:
  5073  17B4                     l2481:
  5074  17B4  086E               	movf	___fltol@exp1,w
  5075  17B5  3A80               	xorlw	128
  5076  17B6  3E97               	addlw	151
  5077  17B7  1803               	skipnc
  5078  17B8  2FBA               	goto	u3291
  5079  17B9  2FBB               	goto	u3290
  5080  17BA                     u3291:
  5081  17BA  2FBC               	goto	l2487
  5082  17BB                     u3290:
  5083  17BB  2F7D               	goto	l2467
  5084  17BC                     l2487:
  5085  17BC  3001               	movlw	1
  5086  17BD                     u3305:
  5087  17BD  1003               	clrc
  5088  17BE  1683               	bsf	3,5	;RP0=1, select bank1
  5089  17BF  1303               	bcf	3,6	;RP1=0, select bank1
  5090  17C0  0CAB               	rrf	(___fltol@f1+3)^(0+128),f
  5091  17C1  0CAA               	rrf	(___fltol@f1+2)^(0+128),f
  5092  17C2  0CA9               	rrf	(___fltol@f1+1)^(0+128),f
  5093  17C3  0CA8               	rrf	___fltol@f1^(0+128),f
  5094  17C4  3EFF               	addlw	-1
  5095  17C5  1D03               	skipz
  5096  17C6  2FBD               	goto	u3305
  5097  17C7  3001               	movlw	1
  5098  17C8  00AC               	movwf	??___fltol^(0+128)
  5099  17C9  082C               	movf	??___fltol^(0+128),w
  5100  17CA  1283               	bcf	3,5	;RP0=0, select bank0
  5101  17CB  1303               	bcf	3,6	;RP1=0, select bank0
  5102  17CC  07EE               	addwf	___fltol@exp1,f
  5103  17CD  1D03               	btfss	3,2
  5104  17CE  2FD0               	goto	u3311
  5105  17CF  2FD1               	goto	u3310
  5106  17D0                     u3311:
  5107  17D0  2FBC               	goto	l2487
  5108  17D1                     u3310:
  5109  17D1  2FED               	goto	l2497
  5110  17D2                     l2489:
  5111  17D2  3020               	movlw	32
  5112  17D3  026E               	subwf	___fltol@exp1,w
  5113  17D4  1C03               	skipc
  5114  17D5  2FD7               	goto	u3321
  5115  17D6  2FD8               	goto	u3320
  5116  17D7                     u3321:
  5117  17D7  2FE8               	goto	l428
  5118  17D8                     u3320:
  5119  17D8  2F7D               	goto	l2467
  5120  17D9                     l2495:
  5121  17D9  3001               	movlw	1
  5122  17DA  1683               	bsf	3,5	;RP0=1, select bank1
  5123  17DB  1303               	bcf	3,6	;RP1=0, select bank1
  5124  17DC  00AC               	movwf	??___fltol^(0+128)
  5125  17DD                     u3335:
  5126  17DD  1003               	clrc
  5127  17DE  0DA8               	rlf	___fltol@f1^(0+128),f
  5128  17DF  0DA9               	rlf	(___fltol@f1+1)^(0+128),f
  5129  17E0  0DAA               	rlf	(___fltol@f1+2)^(0+128),f
  5130  17E1  0DAB               	rlf	(___fltol@f1+3)^(0+128),f
  5131  17E2  0BAC               	decfsz	??___fltol^(0+128),f
  5132  17E3  2FDD               	goto	u3335
  5133  17E4  3001               	movlw	1
  5134  17E5  1283               	bcf	3,5	;RP0=0, select bank0
  5135  17E6  1303               	bcf	3,6	;RP1=0, select bank0
  5136  17E7  02EE               	subwf	___fltol@exp1,f
  5137  17E8                     l428:
  5138  17E8  086E               	movf	___fltol@exp1,w
  5139  17E9  1D03               	btfss	3,2
  5140  17EA  2FEC               	goto	u3341
  5141  17EB  2FED               	goto	u3340
  5142  17EC                     u3341:
  5143  17EC  2FD9               	goto	l2495
  5144  17ED                     u3340:
  5145  17ED                     l2497:
  5146  17ED  086D               	movf	___fltol@sign1,w
  5147  17EE  1903               	btfsc	3,2
  5148  17EF  2FF1               	goto	u3351
  5149  17F0  2FF2               	goto	u3350
  5150  17F1                     u3351:
  5151  17F1  2FFF               	goto	l431
  5152  17F2                     u3350:
  5153  17F2                     l2499:
  5154  17F2  1683               	bsf	3,5	;RP0=1, select bank1
  5155  17F3  1303               	bcf	3,6	;RP1=0, select bank1
  5156  17F4  09A8               	comf	___fltol@f1^(0+128),f
  5157  17F5  09A9               	comf	(___fltol@f1+1)^(0+128),f
  5158  17F6  09AA               	comf	(___fltol@f1+2)^(0+128),f
  5159  17F7  09AB               	comf	(___fltol@f1+3)^(0+128),f
  5160  17F8  0AA8               	incf	___fltol@f1^(0+128),f
  5161  17F9  1903               	skipnz
  5162  17FA  0AA9               	incf	(___fltol@f1+1)^(0+128),f
  5163  17FB  1903               	skipnz
  5164  17FC  0AAA               	incf	(___fltol@f1+2)^(0+128),f
  5165  17FD  1903               	skipnz
  5166  17FE  0AAB               	incf	(___fltol@f1+3)^(0+128),f
  5167  17FF                     l431:
  5168  17FF                     l421:
  5169  17FF  0008               	return
  5170  1800                     __end_of___fltol:
  5171                           
  5172                           	psect	text13
  5173  171E                     __ptext13:	
  5174 ;; *************** function ___flsub *****************
  5175 ;; Defined at:
  5176 ;;		line 242 in file "C:\Program Files\Microchip\xc8\v2.36\pic\sources\c90\common\sprcadd.c"
  5177 ;; Parameters:    Size  Location     Type
  5178 ;;  a               4    0[BANK1 ] long 
  5179 ;;  b               4    4[BANK1 ] long 
  5180 ;; Auto vars:     Size  Location     Type
  5181 ;;		None
  5182 ;; Return value:  Size  Location     Type
  5183 ;;                  4    0[BANK1 ] long 
  5184 ;; Registers used:
  5185 ;;		wreg, status,2, status,0, btemp+1, pclath, cstack
  5186 ;; Tracked objects:
  5187 ;;		On entry : 0/0
  5188 ;;		On exit  : 0/0
  5189 ;;		Unchanged: 0/0
  5190 ;; Data sizes:     COMMON   BANK0   BANK1   BANK3   BANK2
  5191 ;;      Params:         0       0       8       0       0
  5192 ;;      Locals:         0       0       0       0       0
  5193 ;;      Temps:          0       0       0       0       0
  5194 ;;      Totals:         0       0       8       0       0
  5195 ;;Total ram usage:        8 bytes
  5196 ;; Hardware stack levels used: 1
  5197 ;; Hardware stack levels required when called: 1
  5198 ;; This function calls:
  5199 ;;		___fladd
  5200 ;; This function is called by:
  5201 ;;		_main
  5202 ;; This function uses a non-reentrant model
  5203 ;;
  5204                           
  5205  171E                     ___flsub:	
  5206                           ;psect for function ___flsub
  5207                           
  5208  171E                     l2501:	
  5209                           ;incstack = 0
  5210                           ; Regs used in ___flsub: [wreg+status,2+status,0+btemp+1+pclath+cstack]
  5211                           
  5212  171E  3080               	movlw	128
  5213  171F  1683               	bsf	3,5	;RP0=1, select bank1
  5214  1720  1303               	bcf	3,6	;RP1=0, select bank1
  5215  1721  06A3               	xorwf	(___flsub@a+3)^(0+128),f
  5216  1722                     l2503:
  5217  1722  0827               	movf	(___flsub@b+3)^(0+128),w
  5218  1723  1283               	bcf	3,5	;RP0=0, select bank0
  5219  1724  1303               	bcf	3,6	;RP1=0, select bank0
  5220  1725  00DC               	movwf	___fladd@b+3
  5221  1726  1683               	bsf	3,5	;RP0=1, select bank1
  5222  1727  1303               	bcf	3,6	;RP1=0, select bank1
  5223  1728  0826               	movf	(___flsub@b+2)^(0+128),w
  5224  1729  1283               	bcf	3,5	;RP0=0, select bank0
  5225  172A  1303               	bcf	3,6	;RP1=0, select bank0
  5226  172B  00DB               	movwf	___fladd@b+2
  5227  172C  1683               	bsf	3,5	;RP0=1, select bank1
  5228  172D  1303               	bcf	3,6	;RP1=0, select bank1
  5229  172E  0825               	movf	(___flsub@b+1)^(0+128),w
  5230  172F  1283               	bcf	3,5	;RP0=0, select bank0
  5231  1730  1303               	bcf	3,6	;RP1=0, select bank0
  5232  1731  00DA               	movwf	___fladd@b+1
  5233  1732  1683               	bsf	3,5	;RP0=1, select bank1
  5234  1733  1303               	bcf	3,6	;RP1=0, select bank1
  5235  1734  0824               	movf	___flsub@b^(0+128),w
  5236  1735  1283               	bcf	3,5	;RP0=0, select bank0
  5237  1736  1303               	bcf	3,6	;RP1=0, select bank0
  5238  1737  00D9               	movwf	___fladd@b
  5239  1738  1683               	bsf	3,5	;RP0=1, select bank1
  5240  1739  1303               	bcf	3,6	;RP1=0, select bank1
  5241  173A  0823               	movf	(___flsub@a+3)^(0+128),w
  5242  173B  1283               	bcf	3,5	;RP0=0, select bank0
  5243  173C  1303               	bcf	3,6	;RP1=0, select bank0
  5244  173D  00E0               	movwf	___fladd@a+3
  5245  173E  1683               	bsf	3,5	;RP0=1, select bank1
  5246  173F  1303               	bcf	3,6	;RP1=0, select bank1
  5247  1740  0822               	movf	(___flsub@a+2)^(0+128),w
  5248  1741  1283               	bcf	3,5	;RP0=0, select bank0
  5249  1742  1303               	bcf	3,6	;RP1=0, select bank0
  5250  1743  00DF               	movwf	___fladd@a+2
  5251  1744  1683               	bsf	3,5	;RP0=1, select bank1
  5252  1745  1303               	bcf	3,6	;RP1=0, select bank1
  5253  1746  0821               	movf	(___flsub@a+1)^(0+128),w
  5254  1747  1283               	bcf	3,5	;RP0=0, select bank0
  5255  1748  1303               	bcf	3,6	;RP1=0, select bank0
  5256  1749  00DE               	movwf	___fladd@a+1
  5257  174A  1683               	bsf	3,5	;RP0=1, select bank1
  5258  174B  1303               	bcf	3,6	;RP1=0, select bank1
  5259  174C  0820               	movf	___flsub@a^(0+128),w
  5260  174D  1283               	bcf	3,5	;RP0=0, select bank0
  5261  174E  1303               	bcf	3,6	;RP1=0, select bank0
  5262  174F  00DD               	movwf	___fladd@a
  5263  1750  120A  158A  2578  160A  118A  	fcall	___fladd
  5264  1755  1283               	bcf	3,5	;RP0=0, select bank0
  5265  1756  1303               	bcf	3,6	;RP1=0, select bank0
  5266  1757  085C               	movf	?___fladd+3,w
  5267  1758  1683               	bsf	3,5	;RP0=1, select bank1
  5268  1759  1303               	bcf	3,6	;RP1=0, select bank1
  5269  175A  00A3               	movwf	(?___flsub+3)^(0+128)
  5270  175B  1283               	bcf	3,5	;RP0=0, select bank0
  5271  175C  1303               	bcf	3,6	;RP1=0, select bank0
  5272  175D  085B               	movf	?___fladd+2,w
  5273  175E  1683               	bsf	3,5	;RP0=1, select bank1
  5274  175F  1303               	bcf	3,6	;RP1=0, select bank1
  5275  1760  00A2               	movwf	(?___flsub+2)^(0+128)
  5276  1761  1283               	bcf	3,5	;RP0=0, select bank0
  5277  1762  1303               	bcf	3,6	;RP1=0, select bank0
  5278  1763  085A               	movf	?___fladd+1,w
  5279  1764  1683               	bsf	3,5	;RP0=1, select bank1
  5280  1765  1303               	bcf	3,6	;RP1=0, select bank1
  5281  1766  00A1               	movwf	(?___flsub+1)^(0+128)
  5282  1767  1283               	bcf	3,5	;RP0=0, select bank0
  5283  1768  1303               	bcf	3,6	;RP1=0, select bank0
  5284  1769  0859               	movf	?___fladd,w
  5285  176A  1683               	bsf	3,5	;RP0=1, select bank1
  5286  176B  1303               	bcf	3,6	;RP1=0, select bank1
  5287  176C  00A0               	movwf	?___flsub^(0+128)
  5288  176D                     l574:
  5289  176D  0008               	return
  5290  176E                     __end_of___flsub:
  5291                           
  5292                           	psect	text14
  5293  0D78                     __ptext14:	
  5294 ;; *************** function ___fladd *****************
  5295 ;; Defined at:
  5296 ;;		line 10 in file "C:\Program Files\Microchip\xc8\v2.36\pic\sources\c90\common\sprcadd.c"
  5297 ;; Parameters:    Size  Location     Type
  5298 ;;  b               4   57[BANK0 ] long 
  5299 ;;  a               4   61[BANK0 ] long 
  5300 ;; Auto vars:     Size  Location     Type
  5301 ;;  grs             1   76[BANK0 ] unsigned char 
  5302 ;;  bexp            1   75[BANK0 ] unsigned char 
  5303 ;;  aexp            1   74[BANK0 ] unsigned char 
  5304 ;;  signs           1   73[BANK0 ] unsigned char 
  5305 ;; Return value:  Size  Location     Type
  5306 ;;                  4   57[BANK0 ] unsigned char 
  5307 ;; Registers used:
  5308 ;;		wreg, status,2, status,0, btemp+1
  5309 ;; Tracked objects:
  5310 ;;		On entry : 0/0
  5311 ;;		On exit  : 0/0
  5312 ;;		Unchanged: 0/0
  5313 ;; Data sizes:     COMMON   BANK0   BANK1   BANK3   BANK2
  5314 ;;      Params:         0       8       0       0       0
  5315 ;;      Locals:         0       4       0       0       0
  5316 ;;      Temps:          0       8       0       0       0
  5317 ;;      Totals:         0      20       0       0       0
  5318 ;;Total ram usage:       20 bytes
  5319 ;; Hardware stack levels used: 1
  5320 ;; This function calls:
  5321 ;;		Nothing
  5322 ;; This function is called by:
  5323 ;;		_main
  5324 ;;		___flsub
  5325 ;;		_log
  5326 ;;		_eval_poly
  5327 ;; This function uses a non-reentrant model
  5328 ;;
  5329                           
  5330  0D78                     ___fladd:	
  5331                           ;psect for function ___fladd
  5332                           
  5333  0D78                     l1843:	
  5334                           ;incstack = 0
  5335                           ; Regs used in ___fladd: [wreg+status,2+status,0+btemp+1]
  5336                           
  5337  0D78  1283               	bcf	3,5	;RP0=0, select bank0
  5338  0D79  1303               	bcf	3,6	;RP1=0, select bank0
  5339  0D7A  085C               	movf	___fladd@b+3,w
  5340  0D7B  3980               	andlw	128
  5341  0D7C  00E1               	movwf	??___fladd
  5342  0D7D  0861               	movf	??___fladd,w
  5343  0D7E  00E9               	movwf	___fladd@signs
  5344  0D7F                     l1845:
  5345  0D7F  085C               	movf	___fladd@b+3,w
  5346  0D80  00E1               	movwf	??___fladd
  5347  0D81  0761               	addwf	??___fladd,w
  5348  0D82  00E2               	movwf	??___fladd+1
  5349  0D83  0862               	movf	??___fladd+1,w
  5350  0D84  00EB               	movwf	___fladd@bexp
  5351  0D85                     l1847:
  5352  0D85  1FDB               	btfss	___fladd@b+2,7
  5353  0D86  2D88               	goto	u1931
  5354  0D87  2D89               	goto	u1930
  5355  0D88                     u1931:
  5356  0D88  2D8A               	goto	l1851
  5357  0D89                     u1930:
  5358  0D89                     l1849:
  5359  0D89  146B               	bsf	___fladd@bexp,0
  5360  0D8A                     l1851:
  5361  0D8A  086B               	movf	___fladd@bexp,w
  5362  0D8B  1903               	btfsc	3,2
  5363  0D8C  2D8E               	goto	u1941
  5364  0D8D  2D8F               	goto	u1940
  5365  0D8E                     u1941:
  5366  0D8E  2D9F               	goto	l1861
  5367  0D8F                     u1940:
  5368  0D8F                     l1853:
  5369  0D8F  0A6B               	incf	___fladd@bexp,w
  5370  0D90  1D03               	btfss	3,2
  5371  0D91  2D93               	goto	u1951
  5372  0D92  2D94               	goto	u1950
  5373  0D93                     u1951:
  5374  0D93  2D9C               	goto	l1857
  5375  0D94                     u1950:
  5376  0D94                     l1855:
  5377  0D94  3000               	movlw	0
  5378  0D95  00DC               	movwf	___fladd@b+3
  5379  0D96  3000               	movlw	0
  5380  0D97  00DB               	movwf	___fladd@b+2
  5381  0D98  3000               	movlw	0
  5382  0D99  00DA               	movwf	___fladd@b+1
  5383  0D9A  3000               	movlw	0
  5384  0D9B  00D9               	movwf	___fladd@b
  5385  0D9C                     l1857:
  5386  0D9C  17DB               	bsf	___fladd@b+2,7
  5387  0D9D                     l1859:
  5388  0D9D  01DC               	clrf	___fladd@b+3
  5389  0D9E  2DA7               	goto	l1863
  5390  0D9F                     l1861:
  5391  0D9F  3000               	movlw	0
  5392  0DA0  00DC               	movwf	___fladd@b+3
  5393  0DA1  3000               	movlw	0
  5394  0DA2  00DB               	movwf	___fladd@b+2
  5395  0DA3  3000               	movlw	0
  5396  0DA4  00DA               	movwf	___fladd@b+1
  5397  0DA5  3000               	movlw	0
  5398  0DA6  00D9               	movwf	___fladd@b
  5399  0DA7                     l1863:
  5400  0DA7  0860               	movf	___fladd@a+3,w
  5401  0DA8  3980               	andlw	128
  5402  0DA9  00E1               	movwf	??___fladd
  5403  0DAA  0861               	movf	??___fladd,w
  5404  0DAB  00EA               	movwf	___fladd@aexp
  5405  0DAC                     l1865:
  5406  0DAC  086A               	movf	___fladd@aexp,w
  5407  0DAD  0669               	xorwf	___fladd@signs,w
  5408  0DAE  1903               	skipnz
  5409  0DAF  2DB1               	goto	u1961
  5410  0DB0  2DB2               	goto	u1960
  5411  0DB1                     u1961:
  5412  0DB1  2DB3               	goto	l1869
  5413  0DB2                     u1960:
  5414  0DB2                     l1867:
  5415  0DB2  1769               	bsf	___fladd@signs,6
  5416  0DB3                     l1869:
  5417  0DB3  0860               	movf	___fladd@a+3,w
  5418  0DB4  00E1               	movwf	??___fladd
  5419  0DB5  0761               	addwf	??___fladd,w
  5420  0DB6  00E2               	movwf	??___fladd+1
  5421  0DB7  0862               	movf	??___fladd+1,w
  5422  0DB8  00EA               	movwf	___fladd@aexp
  5423  0DB9                     l1871:
  5424  0DB9  1FDF               	btfss	___fladd@a+2,7
  5425  0DBA  2DBC               	goto	u1971
  5426  0DBB  2DBD               	goto	u1970
  5427  0DBC                     u1971:
  5428  0DBC  2DBE               	goto	l1875
  5429  0DBD                     u1970:
  5430  0DBD                     l1873:
  5431  0DBD  146A               	bsf	___fladd@aexp,0
  5432  0DBE                     l1875:
  5433  0DBE  086A               	movf	___fladd@aexp,w
  5434  0DBF  1903               	btfsc	3,2
  5435  0DC0  2DC2               	goto	u1981
  5436  0DC1  2DC3               	goto	u1980
  5437  0DC2                     u1981:
  5438  0DC2  2DD3               	goto	l1885
  5439  0DC3                     u1980:
  5440  0DC3                     l1877:
  5441  0DC3  0A6A               	incf	___fladd@aexp,w
  5442  0DC4  1D03               	btfss	3,2
  5443  0DC5  2DC7               	goto	u1991
  5444  0DC6  2DC8               	goto	u1990
  5445  0DC7                     u1991:
  5446  0DC7  2DD0               	goto	l1881
  5447  0DC8                     u1990:
  5448  0DC8                     l1879:
  5449  0DC8  3000               	movlw	0
  5450  0DC9  00E0               	movwf	___fladd@a+3
  5451  0DCA  3000               	movlw	0
  5452  0DCB  00DF               	movwf	___fladd@a+2
  5453  0DCC  3000               	movlw	0
  5454  0DCD  00DE               	movwf	___fladd@a+1
  5455  0DCE  3000               	movlw	0
  5456  0DCF  00DD               	movwf	___fladd@a
  5457  0DD0                     l1881:
  5458  0DD0  17DF               	bsf	___fladd@a+2,7
  5459  0DD1                     l1883:
  5460  0DD1  01E0               	clrf	___fladd@a+3
  5461  0DD2  2DDB               	goto	l528
  5462  0DD3                     l1885:
  5463  0DD3  3000               	movlw	0
  5464  0DD4  00E0               	movwf	___fladd@a+3
  5465  0DD5  3000               	movlw	0
  5466  0DD6  00DF               	movwf	___fladd@a+2
  5467  0DD7  3000               	movlw	0
  5468  0DD8  00DE               	movwf	___fladd@a+1
  5469  0DD9  3000               	movlw	0
  5470  0DDA  00DD               	movwf	___fladd@a
  5471  0DDB                     l528:
  5472  0DDB  086B               	movf	___fladd@bexp,w
  5473  0DDC  026A               	subwf	___fladd@aexp,w
  5474  0DDD  1803               	skipnc
  5475  0DDE  2DE0               	goto	u2001
  5476  0DDF  2DE1               	goto	u2000
  5477  0DE0                     u2001:
  5478  0DE0  2E25               	goto	l1921
  5479  0DE1                     u2000:
  5480  0DE1                     l1887:
  5481  0DE1  1F69               	btfss	___fladd@signs,6
  5482  0DE2  2DE4               	goto	u2011
  5483  0DE3  2DE5               	goto	u2010
  5484  0DE4                     u2011:
  5485  0DE4  2DE9               	goto	l1891
  5486  0DE5                     u2010:
  5487  0DE5                     l1889:
  5488  0DE5  3080               	movlw	128
  5489  0DE6  00E1               	movwf	??___fladd
  5490  0DE7  0861               	movf	??___fladd,w
  5491  0DE8  06E9               	xorwf	___fladd@signs,f
  5492  0DE9                     l1891:
  5493  0DE9  086B               	movf	___fladd@bexp,w
  5494  0DEA  00E1               	movwf	??___fladd
  5495  0DEB  0861               	movf	??___fladd,w
  5496  0DEC  00EC               	movwf	___fladd@grs
  5497  0DED                     l1893:
  5498  0DED  086A               	movf	___fladd@aexp,w
  5499  0DEE  00E1               	movwf	??___fladd
  5500  0DEF  0861               	movf	??___fladd,w
  5501  0DF0  00EB               	movwf	___fladd@bexp
  5502  0DF1                     l1895:
  5503  0DF1  086C               	movf	___fladd@grs,w
  5504  0DF2  00E1               	movwf	??___fladd
  5505  0DF3  0861               	movf	??___fladd,w
  5506  0DF4  00EA               	movwf	___fladd@aexp
  5507  0DF5                     l1897:
  5508  0DF5  0859               	movf	___fladd@b,w
  5509  0DF6  00E1               	movwf	??___fladd
  5510  0DF7  0861               	movf	??___fladd,w
  5511  0DF8  00EC               	movwf	___fladd@grs
  5512  0DF9                     l1899:
  5513  0DF9  085D               	movf	___fladd@a,w
  5514  0DFA  00E1               	movwf	??___fladd
  5515  0DFB  0861               	movf	??___fladd,w
  5516  0DFC  00D9               	movwf	___fladd@b
  5517  0DFD                     l1901:
  5518  0DFD  086C               	movf	___fladd@grs,w
  5519  0DFE  00E1               	movwf	??___fladd
  5520  0DFF  0861               	movf	??___fladd,w
  5521  0E00  00DD               	movwf	___fladd@a
  5522  0E01                     l1903:
  5523  0E01  085A               	movf	___fladd@b+1,w
  5524  0E02  00E1               	movwf	??___fladd
  5525  0E03  0861               	movf	??___fladd,w
  5526  0E04  00EC               	movwf	___fladd@grs
  5527  0E05                     l1905:
  5528  0E05  085E               	movf	___fladd@a+1,w
  5529  0E06  00E1               	movwf	??___fladd
  5530  0E07  0861               	movf	??___fladd,w
  5531  0E08  00DA               	movwf	___fladd@b+1
  5532  0E09                     l1907:
  5533  0E09  086C               	movf	___fladd@grs,w
  5534  0E0A  00E1               	movwf	??___fladd
  5535  0E0B  0861               	movf	??___fladd,w
  5536  0E0C  00DE               	movwf	___fladd@a+1
  5537  0E0D                     l1909:
  5538  0E0D  085B               	movf	___fladd@b+2,w
  5539  0E0E  00E1               	movwf	??___fladd
  5540  0E0F  0861               	movf	??___fladd,w
  5541  0E10  00EC               	movwf	___fladd@grs
  5542  0E11                     l1911:
  5543  0E11  085F               	movf	___fladd@a+2,w
  5544  0E12  00E1               	movwf	??___fladd
  5545  0E13  0861               	movf	??___fladd,w
  5546  0E14  00DB               	movwf	___fladd@b+2
  5547  0E15                     l1913:
  5548  0E15  086C               	movf	___fladd@grs,w
  5549  0E16  00E1               	movwf	??___fladd
  5550  0E17  0861               	movf	??___fladd,w
  5551  0E18  00DF               	movwf	___fladd@a+2
  5552  0E19                     l1915:
  5553  0E19  085C               	movf	___fladd@b+3,w
  5554  0E1A  00E1               	movwf	??___fladd
  5555  0E1B  0861               	movf	??___fladd,w
  5556  0E1C  00EC               	movwf	___fladd@grs
  5557  0E1D                     l1917:
  5558  0E1D  0860               	movf	___fladd@a+3,w
  5559  0E1E  00E1               	movwf	??___fladd
  5560  0E1F  0861               	movf	??___fladd,w
  5561  0E20  00DC               	movwf	___fladd@b+3
  5562  0E21                     l1919:
  5563  0E21  086C               	movf	___fladd@grs,w
  5564  0E22  00E1               	movwf	??___fladd
  5565  0E23  0861               	movf	??___fladd,w
  5566  0E24  00E0               	movwf	___fladd@a+3
  5567  0E25                     l1921:
  5568  0E25  01EC               	clrf	___fladd@grs
  5569  0E26                     l1923:
  5570  0E26  086A               	movf	___fladd@aexp,w
  5571  0E27  00E1               	movwf	??___fladd
  5572  0E28  01E2               	clrf	??___fladd+1
  5573  0E29  0862               	movf	??___fladd+1,w
  5574  0E2A  00E4               	movwf	??___fladd+3
  5575  0E2B  086B               	movf	___fladd@bexp,w
  5576  0E2C  0261               	subwf	??___fladd,w
  5577  0E2D  00E3               	movwf	??___fladd+2
  5578  0E2E  1C03               	skipc
  5579  0E2F  03E4               	decf	??___fladd+3,f
  5580  0E30  0864               	movf	??___fladd+3,w
  5581  0E31  3A80               	xorlw	128
  5582  0E32  00FF               	movwf	btemp+1
  5583  0E33  3080               	movlw	128
  5584  0E34  027F               	subwf	btemp+1,w
  5585  0E35  1D03               	skipz
  5586  0E36  2E39               	goto	u2025
  5587  0E37  301A               	movlw	26
  5588  0E38  0263               	subwf	??___fladd+2,w
  5589  0E39                     u2025:
  5590  0E39  1C03               	skipc
  5591  0E3A  2E3C               	goto	u2021
  5592  0E3B  2E3D               	goto	u2020
  5593  0E3C                     u2021:
  5594  0E3C  2E7A               	goto	l1939
  5595  0E3D                     u2020:
  5596  0E3D                     l1925:
  5597  0E3D  1283               	bcf	3,5	;RP0=0, select bank0
  5598  0E3E  1303               	bcf	3,6	;RP1=0, select bank0
  5599  0E3F  085C               	movf	___fladd@b+3,w
  5600  0E40  045B               	iorwf	___fladd@b+2,w
  5601  0E41  045A               	iorwf	___fladd@b+1,w
  5602  0E42  0459               	iorwf	___fladd@b,w
  5603  0E43  1D03               	skipz
  5604  0E44  2E46               	goto	u2031
  5605  0E45  2E48               	goto	u2030
  5606  0E46                     u2031:
  5607  0E46  3001               	movlw	1
  5608  0E47  2E49               	goto	u2040
  5609  0E48                     u2030:
  5610  0E48  3000               	movlw	0
  5611  0E49                     u2040:
  5612  0E49  00E1               	movwf	??___fladd
  5613  0E4A  0861               	movf	??___fladd,w
  5614  0E4B  00EC               	movwf	___fladd@grs
  5615  0E4C  3000               	movlw	0
  5616  0E4D  00DC               	movwf	___fladd@b+3
  5617  0E4E  3000               	movlw	0
  5618  0E4F  00DB               	movwf	___fladd@b+2
  5619  0E50  3000               	movlw	0
  5620  0E51  00DA               	movwf	___fladd@b+1
  5621  0E52  3000               	movlw	0
  5622  0E53  00D9               	movwf	___fladd@b
  5623  0E54  086A               	movf	___fladd@aexp,w
  5624  0E55  00E1               	movwf	??___fladd
  5625  0E56  0861               	movf	??___fladd,w
  5626  0E57  00EB               	movwf	___fladd@bexp
  5627  0E58  2E82               	goto	l532
  5628  0E59                     l534:
  5629  0E59  1C6C               	btfss	___fladd@grs,0
  5630  0E5A  2E5C               	goto	u2051
  5631  0E5B  2E5D               	goto	u2050
  5632  0E5C                     u2051:
  5633  0E5C  2E66               	goto	l1929
  5634  0E5D                     u2050:
  5635  0E5D                     l1927:
  5636  0E5D  086C               	movf	___fladd@grs,w
  5637  0E5E  00E1               	movwf	??___fladd
  5638  0E5F  1003               	clrc
  5639  0E60  0C61               	rrf	??___fladd,w
  5640  0E61  3801               	iorlw	1
  5641  0E62  00E2               	movwf	??___fladd+1
  5642  0E63  0862               	movf	??___fladd+1,w
  5643  0E64  00EC               	movwf	___fladd@grs
  5644  0E65  2E68               	goto	l1931
  5645  0E66                     l1929:
  5646  0E66  1003               	clrc
  5647  0E67  0CEC               	rrf	___fladd@grs,f
  5648  0E68                     l1931:
  5649  0E68  1C59               	btfss	___fladd@b,0
  5650  0E69  2E6B               	goto	u2061
  5651  0E6A  2E6C               	goto	u2060
  5652  0E6B                     u2061:
  5653  0E6B  2E6D               	goto	l1935
  5654  0E6C                     u2060:
  5655  0E6C                     l1933:
  5656  0E6C  17EC               	bsf	___fladd@grs,7
  5657  0E6D                     l1935:
  5658  0E6D  3001               	movlw	1
  5659  0E6E  00E1               	movwf	??___fladd
  5660  0E6F                     u2075:
  5661  0E6F  0D5C               	rlf	___fladd@b+3,w
  5662  0E70  0CDC               	rrf	___fladd@b+3,f
  5663  0E71  0CDB               	rrf	___fladd@b+2,f
  5664  0E72  0CDA               	rrf	___fladd@b+1,f
  5665  0E73  0CD9               	rrf	___fladd@b,f
  5666  0E74  0BE1               	decfsz	??___fladd& (0+127),f
  5667  0E75  2E6F               	goto	u2075
  5668  0E76                     l1937:
  5669  0E76  3001               	movlw	1
  5670  0E77  00E1               	movwf	??___fladd
  5671  0E78  0861               	movf	??___fladd,w
  5672  0E79  07EB               	addwf	___fladd@bexp,f
  5673  0E7A                     l1939:
  5674  0E7A  1283               	bcf	3,5	;RP0=0, select bank0
  5675  0E7B  1303               	bcf	3,6	;RP1=0, select bank0
  5676  0E7C  086A               	movf	___fladd@aexp,w
  5677  0E7D  026B               	subwf	___fladd@bexp,w
  5678  0E7E  1C03               	skipc
  5679  0E7F  2E81               	goto	u2081
  5680  0E80  2E82               	goto	u2080
  5681  0E81                     u2081:
  5682  0E81  2E59               	goto	l534
  5683  0E82                     u2080:
  5684  0E82                     l532:
  5685  0E82  1B69               	btfsc	___fladd@signs,6
  5686  0E83  2E85               	goto	u2091
  5687  0E84  2E86               	goto	u2090
  5688  0E85                     u2091:
  5689  0E85  2ED1               	goto	l1965
  5690  0E86                     u2090:
  5691  0E86                     l1941:
  5692  0E86  086B               	movf	___fladd@bexp,w
  5693  0E87  1D03               	btfss	3,2
  5694  0E88  2E8A               	goto	u2101
  5695  0E89  2E8B               	goto	u2100
  5696  0E8A                     u2101:
  5697  0E8A  2E94               	goto	l1947
  5698  0E8B                     u2100:
  5699  0E8B                     l1943:
  5700  0E8B  3000               	movlw	0
  5701  0E8C  00DC               	movwf	?___fladd+3
  5702  0E8D  3000               	movlw	0
  5703  0E8E  00DB               	movwf	?___fladd+2
  5704  0E8F  3000               	movlw	0
  5705  0E90  00DA               	movwf	?___fladd+1
  5706  0E91  3000               	movlw	0
  5707  0E92  00D9               	movwf	?___fladd
  5708  0E93  2FFF               	goto	l541
  5709  0E94                     l1947:
  5710  0E94  085D               	movf	___fladd@a,w
  5711  0E95  07D9               	addwf	___fladd@b,f
  5712  0E96  085E               	movf	___fladd@a+1,w
  5713  0E97  1103               	clrz
  5714  0E98  1803               	skipnc
  5715  0E99  3E01               	addlw	1
  5716  0E9A  1903               	skipnz
  5717  0E9B  2E9D               	goto	u2111
  5718  0E9C  07DA               	addwf	___fladd@b+1,f
  5719  0E9D                     u2111:
  5720  0E9D  085F               	movf	___fladd@a+2,w
  5721  0E9E  1103               	clrz
  5722  0E9F  1803               	skipnc
  5723  0EA0  3E01               	addlw	1
  5724  0EA1  1903               	skipnz
  5725  0EA2  2EA4               	goto	u2112
  5726  0EA3  07DB               	addwf	___fladd@b+2,f
  5727  0EA4                     u2112:
  5728  0EA4  0860               	movf	___fladd@a+3,w
  5729  0EA5  1103               	clrz
  5730  0EA6  1803               	skipnc
  5731  0EA7  3E01               	addlw	1
  5732  0EA8  1903               	skipnz
  5733  0EA9  2EAB               	goto	u2113
  5734  0EAA  07DC               	addwf	___fladd@b+3,f
  5735  0EAB                     u2113:
  5736  0EAB                     l1949:
  5737  0EAB  1C5C               	btfss	___fladd@b+3,0
  5738  0EAC  2EAE               	goto	u2121
  5739  0EAD  2EAF               	goto	u2120
  5740  0EAE                     u2121:
  5741  0EAE  2F85               	goto	l1999
  5742  0EAF                     u2120:
  5743  0EAF                     l1951:
  5744  0EAF  1C6C               	btfss	___fladd@grs,0
  5745  0EB0  2EB2               	goto	u2131
  5746  0EB1  2EB3               	goto	u2130
  5747  0EB2                     u2131:
  5748  0EB2  2EBC               	goto	l1955
  5749  0EB3                     u2130:
  5750  0EB3                     l1953:
  5751  0EB3  086C               	movf	___fladd@grs,w
  5752  0EB4  00E1               	movwf	??___fladd
  5753  0EB5  1003               	clrc
  5754  0EB6  0C61               	rrf	??___fladd,w
  5755  0EB7  3801               	iorlw	1
  5756  0EB8  00E2               	movwf	??___fladd+1
  5757  0EB9  0862               	movf	??___fladd+1,w
  5758  0EBA  00EC               	movwf	___fladd@grs
  5759  0EBB  2EBE               	goto	l1957
  5760  0EBC                     l1955:
  5761  0EBC  1003               	clrc
  5762  0EBD  0CEC               	rrf	___fladd@grs,f
  5763  0EBE                     l1957:
  5764  0EBE  1C59               	btfss	___fladd@b,0
  5765  0EBF  2EC1               	goto	u2141
  5766  0EC0  2EC2               	goto	u2140
  5767  0EC1                     u2141:
  5768  0EC1  2EC3               	goto	l1961
  5769  0EC2                     u2140:
  5770  0EC2                     l1959:
  5771  0EC2  17EC               	bsf	___fladd@grs,7
  5772  0EC3                     l1961:
  5773  0EC3  3001               	movlw	1
  5774  0EC4  00E1               	movwf	??___fladd
  5775  0EC5                     u2155:
  5776  0EC5  0D5C               	rlf	___fladd@b+3,w
  5777  0EC6  0CDC               	rrf	___fladd@b+3,f
  5778  0EC7  0CDB               	rrf	___fladd@b+2,f
  5779  0EC8  0CDA               	rrf	___fladd@b+1,f
  5780  0EC9  0CD9               	rrf	___fladd@b,f
  5781  0ECA  0BE1               	decfsz	??___fladd& (0+127),f
  5782  0ECB  2EC5               	goto	u2155
  5783  0ECC                     l1963:
  5784  0ECC  3001               	movlw	1
  5785  0ECD  00E1               	movwf	??___fladd
  5786  0ECE  0861               	movf	??___fladd,w
  5787  0ECF  07EB               	addwf	___fladd@bexp,f
  5788  0ED0  2F85               	goto	l1999
  5789  0ED1                     l1965:
  5790  0ED1  085C               	movf	___fladd@b+3,w
  5791  0ED2  3A80               	xorlw	128
  5792  0ED3  00FF               	movwf	btemp+1
  5793  0ED4  0860               	movf	___fladd@a+3,w
  5794  0ED5  3A80               	xorlw	128
  5795  0ED6  027F               	subwf	btemp+1,w
  5796  0ED7  1D03               	skipz
  5797  0ED8  2EE3               	goto	u2163
  5798  0ED9  085F               	movf	___fladd@a+2,w
  5799  0EDA  025B               	subwf	___fladd@b+2,w
  5800  0EDB  1D03               	skipz
  5801  0EDC  2EE3               	goto	u2163
  5802  0EDD  085E               	movf	___fladd@a+1,w
  5803  0EDE  025A               	subwf	___fladd@b+1,w
  5804  0EDF  1D03               	skipz
  5805  0EE0  2EE3               	goto	u2163
  5806  0EE1  085D               	movf	___fladd@a,w
  5807  0EE2  0259               	subwf	___fladd@b,w
  5808  0EE3                     u2163:
  5809  0EE3  1803               	skipnc
  5810  0EE4  2EE6               	goto	u2161
  5811  0EE5  2EE7               	goto	u2160
  5812  0EE6                     u2161:
  5813  0EE6  2F3F               	goto	l1975
  5814  0EE7                     u2160:
  5815  0EE7                     l1967:
  5816  0EE7  30FF               	movlw	255
  5817  0EE8  00E1               	movwf	??___fladd
  5818  0EE9  30FF               	movlw	255
  5819  0EEA  00E2               	movwf	??___fladd+1
  5820  0EEB  30FF               	movlw	255
  5821  0EEC  00E3               	movwf	??___fladd+2
  5822  0EED  30FF               	movlw	255
  5823  0EEE  00E4               	movwf	??___fladd+3
  5824  0EEF  085D               	movf	___fladd@a,w
  5825  0EF0  00E5               	movwf	??___fladd+4
  5826  0EF1  085E               	movf	___fladd@a+1,w
  5827  0EF2  00E6               	movwf	??___fladd+5
  5828  0EF3  085F               	movf	___fladd@a+2,w
  5829  0EF4  00E7               	movwf	??___fladd+6
  5830  0EF5  0860               	movf	___fladd@a+3,w
  5831  0EF6  00E8               	movwf	??___fladd+7
  5832  0EF7  0859               	movf	___fladd@b,w
  5833  0EF8  02E5               	subwf	??___fladd+4,f
  5834  0EF9  085A               	movf	___fladd@b+1,w
  5835  0EFA  1C03               	skipc
  5836  0EFB  0F5A               	incfsz	___fladd@b+1,w
  5837  0EFC  2EFE               	goto	u2171
  5838  0EFD  2EFF               	goto	u2172
  5839  0EFE                     u2171:
  5840  0EFE  02E6               	subwf	??___fladd+5,f
  5841  0EFF                     u2172:
  5842  0EFF  085B               	movf	___fladd@b+2,w
  5843  0F00  1C03               	skipc
  5844  0F01  0F5B               	incfsz	___fladd@b+2,w
  5845  0F02  2F04               	goto	u2173
  5846  0F03  2F05               	goto	u2174
  5847  0F04                     u2173:
  5848  0F04  02E7               	subwf	??___fladd+6,f
  5849  0F05                     u2174:
  5850  0F05  085C               	movf	___fladd@b+3,w
  5851  0F06  1C03               	skipc
  5852  0F07  0F5C               	incfsz	___fladd@b+3,w
  5853  0F08  2F0A               	goto	u2175
  5854  0F09  2F0B               	goto	u2176
  5855  0F0A                     u2175:
  5856  0F0A  02E8               	subwf	??___fladd+7,f
  5857  0F0B                     u2176:
  5858  0F0B  0865               	movf	??___fladd+4,w
  5859  0F0C  07E1               	addwf	??___fladd,f
  5860  0F0D  0866               	movf	??___fladd+5,w
  5861  0F0E  1803               	skipnc
  5862  0F0F  0F66               	incfsz	??___fladd+5,w
  5863  0F10  2F12               	goto	u2180
  5864  0F11  2F13               	goto	u2181
  5865  0F12                     u2180:
  5866  0F12  07E2               	addwf	??___fladd+1,f
  5867  0F13                     u2181:
  5868  0F13  0867               	movf	??___fladd+6,w
  5869  0F14  1803               	skipnc
  5870  0F15  0F67               	incfsz	??___fladd+6,w
  5871  0F16  2F18               	goto	u2182
  5872  0F17  2F19               	goto	u2183
  5873  0F18                     u2182:
  5874  0F18  07E3               	addwf	??___fladd+2,f
  5875  0F19                     u2183:
  5876  0F19  0868               	movf	??___fladd+7,w
  5877  0F1A  1803               	skipnc
  5878  0F1B  0A68               	incf	??___fladd+7,w
  5879  0F1C  07E4               	addwf	??___fladd+3,f
  5880  0F1D  0864               	movf	??___fladd+3,w
  5881  0F1E  00DC               	movwf	___fladd@b+3
  5882  0F1F  0863               	movf	??___fladd+2,w
  5883  0F20  00DB               	movwf	___fladd@b+2
  5884  0F21  0862               	movf	??___fladd+1,w
  5885  0F22  00DA               	movwf	___fladd@b+1
  5886  0F23  0861               	movf	??___fladd,w
  5887  0F24  00D9               	movwf	___fladd@b
  5888  0F25                     l1969:
  5889  0F25  3080               	movlw	128
  5890  0F26  00E1               	movwf	??___fladd
  5891  0F27  0861               	movf	??___fladd,w
  5892  0F28  06E9               	xorwf	___fladd@signs,f
  5893  0F29  09EC               	comf	___fladd@grs,f
  5894  0F2A  0AEC               	incf	___fladd@grs,f
  5895  0F2B                     l1971:
  5896  0F2B  086C               	movf	___fladd@grs,w
  5897  0F2C  1D03               	btfss	3,2
  5898  0F2D  2F2F               	goto	u2191
  5899  0F2E  2F30               	goto	u2190
  5900  0F2F                     u2191:
  5901  0F2F  2F4D               	goto	l549
  5902  0F30                     u2190:
  5903  0F30                     l1973:
  5904  0F30  3001               	movlw	1
  5905  0F31  07D9               	addwf	___fladd@b,f
  5906  0F32  3000               	movlw	0
  5907  0F33  1803               	skipnc
  5908  0F34  3001               	movlw	1
  5909  0F35  07DA               	addwf	___fladd@b+1,f
  5910  0F36  3000               	movlw	0
  5911  0F37  1803               	skipnc
  5912  0F38  3001               	movlw	1
  5913  0F39  07DB               	addwf	___fladd@b+2,f
  5914  0F3A  3000               	movlw	0
  5915  0F3B  1803               	skipnc
  5916  0F3C  3001               	movlw	1
  5917  0F3D  07DC               	addwf	___fladd@b+3,f
  5918  0F3E  2F4D               	goto	l549
  5919  0F3F                     l1975:
  5920  0F3F  085D               	movf	___fladd@a,w
  5921  0F40  02D9               	subwf	___fladd@b,f
  5922  0F41  085E               	movf	___fladd@a+1,w
  5923  0F42  1C03               	skipc
  5924  0F43  0F5E               	incfsz	___fladd@a+1,w
  5925  0F44  02DA               	subwf	___fladd@b+1,f
  5926  0F45  085F               	movf	___fladd@a+2,w
  5927  0F46  1C03               	skipc
  5928  0F47  0F5F               	incfsz	___fladd@a+2,w
  5929  0F48  02DB               	subwf	___fladd@b+2,f
  5930  0F49  0860               	movf	___fladd@a+3,w
  5931  0F4A  1C03               	skipc
  5932  0F4B  0F60               	incfsz	___fladd@a+3,w
  5933  0F4C  02DC               	subwf	___fladd@b+3,f
  5934  0F4D                     l549:
  5935  0F4D  085C               	movf	___fladd@b+3,w
  5936  0F4E  045B               	iorwf	___fladd@b+2,w
  5937  0F4F  045A               	iorwf	___fladd@b+1,w
  5938  0F50  0459               	iorwf	___fladd@b,w
  5939  0F51  1D03               	skipz
  5940  0F52  2F54               	goto	u2201
  5941  0F53  2F55               	goto	u2200
  5942  0F54                     u2201:
  5943  0F54  2F81               	goto	l1997
  5944  0F55                     u2200:
  5945  0F55                     l1977:
  5946  0F55  086C               	movf	___fladd@grs,w
  5947  0F56  1D03               	btfss	3,2
  5948  0F57  2F59               	goto	u2211
  5949  0F58  2F5A               	goto	u2210
  5950  0F59                     u2211:
  5951  0F59  2F81               	goto	l1997
  5952  0F5A                     u2210:
  5953  0F5A                     l1979:
  5954  0F5A  3000               	movlw	0
  5955  0F5B  00DC               	movwf	?___fladd+3
  5956  0F5C  3000               	movlw	0
  5957  0F5D  00DB               	movwf	?___fladd+2
  5958  0F5E  3000               	movlw	0
  5959  0F5F  00DA               	movwf	?___fladd+1
  5960  0F60  3000               	movlw	0
  5961  0F61  00D9               	movwf	?___fladd
  5962  0F62  2FFF               	goto	l541
  5963  0F63                     l1983:
  5964  0F63  3001               	movlw	1
  5965  0F64  00E1               	movwf	??___fladd
  5966  0F65                     u2225:
  5967  0F65  1003               	clrc
  5968  0F66  0DD9               	rlf	___fladd@b,f
  5969  0F67  0DDA               	rlf	___fladd@b+1,f
  5970  0F68  0DDB               	rlf	___fladd@b+2,f
  5971  0F69  0DDC               	rlf	___fladd@b+3,f
  5972  0F6A  0BE1               	decfsz	??___fladd,f
  5973  0F6B  2F65               	goto	u2225
  5974  0F6C                     l1985:
  5975  0F6C  1FEC               	btfss	___fladd@grs,7
  5976  0F6D  2F6F               	goto	u2231
  5977  0F6E  2F70               	goto	u2230
  5978  0F6F                     u2231:
  5979  0F6F  2F71               	goto	l553
  5980  0F70                     u2230:
  5981  0F70                     l1987:
  5982  0F70  1459               	bsf	___fladd@b,0
  5983  0F71                     l553:
  5984  0F71  1C6C               	btfss	___fladd@grs,0
  5985  0F72  2F74               	goto	u2241
  5986  0F73  2F75               	goto	u2240
  5987  0F74                     u2241:
  5988  0F74  2F78               	goto	l1991
  5989  0F75                     u2240:
  5990  0F75                     l1989:
  5991  0F75  1403               	setc
  5992  0F76  0DEC               	rlf	___fladd@grs,f
  5993  0F77  2F7A               	goto	l1993
  5994  0F78                     l1991:
  5995  0F78  1003               	clrc
  5996  0F79  0DEC               	rlf	___fladd@grs,f
  5997  0F7A                     l1993:
  5998  0F7A  086B               	movf	___fladd@bexp,w
  5999  0F7B  1903               	btfsc	3,2
  6000  0F7C  2F7E               	goto	u2251
  6001  0F7D  2F7F               	goto	u2250
  6002  0F7E                     u2251:
  6003  0F7E  2F81               	goto	l1997
  6004  0F7F                     u2250:
  6005  0F7F                     l1995:
  6006  0F7F  3001               	movlw	1
  6007  0F80  02EB               	subwf	___fladd@bexp,f
  6008  0F81                     l1997:
  6009  0F81  1FDB               	btfss	___fladd@b+2,7
  6010  0F82  2F84               	goto	u2261
  6011  0F83  2F85               	goto	u2260
  6012  0F84                     u2261:
  6013  0F84  2F63               	goto	l1983
  6014  0F85                     u2260:
  6015  0F85                     l1999:
  6016  0F85  01EA               	clrf	___fladd@aexp
  6017  0F86                     l2001:
  6018  0F86  1FEC               	btfss	___fladd@grs,7
  6019  0F87  2F89               	goto	u2271
  6020  0F88  2F8A               	goto	u2270
  6021  0F89                     u2271:
  6022  0F89  2F98               	goto	l2009
  6023  0F8A                     u2270:
  6024  0F8A                     l2003:
  6025  0F8A  086C               	movf	___fladd@grs,w
  6026  0F8B  397F               	andlw	127
  6027  0F8C  1903               	btfsc	3,2
  6028  0F8D  2F8F               	goto	u2281
  6029  0F8E  2F90               	goto	u2280
  6030  0F8F                     u2281:
  6031  0F8F  2F93               	goto	l559
  6032  0F90                     u2280:
  6033  0F90                     l2005:
  6034  0F90  01EA               	clrf	___fladd@aexp
  6035  0F91  0AEA               	incf	___fladd@aexp,f
  6036  0F92  2F98               	goto	l2009
  6037  0F93                     l559:
  6038  0F93  1C59               	btfss	___fladd@b,0
  6039  0F94  2F96               	goto	u2291
  6040  0F95  2F97               	goto	u2290
  6041  0F96                     u2291:
  6042  0F96  2F98               	goto	l2009
  6043  0F97                     u2290:
  6044  0F97  2F90               	goto	l2005
  6045  0F98                     l2009:
  6046  0F98  086A               	movf	___fladd@aexp,w
  6047  0F99  1903               	btfsc	3,2
  6048  0F9A  2F9C               	goto	u2301
  6049  0F9B  2F9D               	goto	u2300
  6050  0F9C                     u2301:
  6051  0F9C  2FD1               	goto	l562
  6052  0F9D                     u2300:
  6053  0F9D                     l2011:
  6054  0F9D  3001               	movlw	1
  6055  0F9E  07D9               	addwf	___fladd@b,f
  6056  0F9F  3000               	movlw	0
  6057  0FA0  1803               	skipnc
  6058  0FA1  3001               	movlw	1
  6059  0FA2  07DA               	addwf	___fladd@b+1,f
  6060  0FA3  3000               	movlw	0
  6061  0FA4  1803               	skipnc
  6062  0FA5  3001               	movlw	1
  6063  0FA6  07DB               	addwf	___fladd@b+2,f
  6064  0FA7  3000               	movlw	0
  6065  0FA8  1803               	skipnc
  6066  0FA9  3001               	movlw	1
  6067  0FAA  07DC               	addwf	___fladd@b+3,f
  6068  0FAB                     l2013:
  6069  0FAB  1C5C               	btfss	___fladd@b+3,0
  6070  0FAC  2FAE               	goto	u2311
  6071  0FAD  2FAF               	goto	u2310
  6072  0FAE                     u2311:
  6073  0FAE  2FD1               	goto	l562
  6074  0FAF                     u2310:
  6075  0FAF                     l2015:
  6076  0FAF  0859               	movf	___fladd@b,w
  6077  0FB0  00E1               	movwf	??___fladd
  6078  0FB1  085A               	movf	___fladd@b+1,w
  6079  0FB2  00E2               	movwf	??___fladd+1
  6080  0FB3  085B               	movf	___fladd@b+2,w
  6081  0FB4  00E3               	movwf	??___fladd+2
  6082  0FB5  085C               	movf	___fladd@b+3,w
  6083  0FB6  00E4               	movwf	??___fladd+3
  6084  0FB7  3001               	movlw	1
  6085  0FB8  00E5               	movwf	??___fladd+4
  6086  0FB9                     u2325:
  6087  0FB9  0D64               	rlf	??___fladd+3,w
  6088  0FBA  0CE4               	rrf	??___fladd+3,f
  6089  0FBB  0CE3               	rrf	??___fladd+2,f
  6090  0FBC  0CE2               	rrf	??___fladd+1,f
  6091  0FBD  0CE1               	rrf	??___fladd,f
  6092  0FBE                     u2320:
  6093  0FBE  0BE5               	decfsz	??___fladd+4,f
  6094  0FBF  2FB9               	goto	u2325
  6095  0FC0  0864               	movf	??___fladd+3,w
  6096  0FC1  00DC               	movwf	___fladd@b+3
  6097  0FC2  0863               	movf	??___fladd+2,w
  6098  0FC3  00DB               	movwf	___fladd@b+2
  6099  0FC4  0862               	movf	??___fladd+1,w
  6100  0FC5  00DA               	movwf	___fladd@b+1
  6101  0FC6  0861               	movf	??___fladd,w
  6102  0FC7  00D9               	movwf	___fladd@b
  6103  0FC8  0A6B               	incf	___fladd@bexp,w
  6104  0FC9  1903               	btfsc	3,2
  6105  0FCA  2FCC               	goto	u2331
  6106  0FCB  2FCD               	goto	u2330
  6107  0FCC                     u2331:
  6108  0FCC  2FD1               	goto	l562
  6109  0FCD                     u2330:
  6110  0FCD                     l2017:
  6111  0FCD  3001               	movlw	1
  6112  0FCE  00E1               	movwf	??___fladd
  6113  0FCF  0861               	movf	??___fladd,w
  6114  0FD0  07EB               	addwf	___fladd@bexp,f
  6115  0FD1                     l562:
  6116  0FD1  0A6B               	incf	___fladd@bexp,w
  6117  0FD2  1903               	btfsc	3,2
  6118  0FD3  2FD5               	goto	u2341
  6119  0FD4  2FD6               	goto	u2340
  6120  0FD5                     u2341:
  6121  0FD5  2FDB               	goto	l2021
  6122  0FD6                     u2340:
  6123  0FD6                     l2019:
  6124  0FD6  086B               	movf	___fladd@bexp,w
  6125  0FD7  1D03               	btfss	3,2
  6126  0FD8  2FDA               	goto	u2351
  6127  0FD9  2FDB               	goto	u2350
  6128  0FDA                     u2351:
  6129  0FDA  2FE9               	goto	l2027
  6130  0FDB                     u2350:
  6131  0FDB                     l2021:
  6132  0FDB  3000               	movlw	0
  6133  0FDC  00DC               	movwf	___fladd@b+3
  6134  0FDD  3000               	movlw	0
  6135  0FDE  00DB               	movwf	___fladd@b+2
  6136  0FDF  3000               	movlw	0
  6137  0FE0  00DA               	movwf	___fladd@b+1
  6138  0FE1  3000               	movlw	0
  6139  0FE2  00D9               	movwf	___fladd@b
  6140  0FE3                     l2023:
  6141  0FE3  086B               	movf	___fladd@bexp,w
  6142  0FE4  1D03               	btfss	3,2
  6143  0FE5  2FE7               	goto	u2361
  6144  0FE6  2FE8               	goto	u2360
  6145  0FE7                     u2361:
  6146  0FE7  2FE9               	goto	l2027
  6147  0FE8                     u2360:
  6148  0FE8                     l2025:
  6149  0FE8  01E9               	clrf	___fladd@signs
  6150  0FE9                     l2027:
  6151  0FE9  1C6B               	btfss	___fladd@bexp,0
  6152  0FEA  2FEC               	goto	u2371
  6153  0FEB  2FED               	goto	u2370
  6154  0FEC                     u2371:
  6155  0FEC  2FEF               	goto	l2031
  6156  0FED                     u2370:
  6157  0FED                     l2029:
  6158  0FED  17DB               	bsf	___fladd@b+2,7
  6159  0FEE  2FF3               	goto	l570
  6160  0FEF                     l2031:
  6161  0FEF  307F               	movlw	127
  6162  0FF0  00E1               	movwf	??___fladd
  6163  0FF1  0861               	movf	??___fladd,w
  6164  0FF2  05DB               	andwf	___fladd@b+2,f
  6165  0FF3                     l570:
  6166  0FF3  086B               	movf	___fladd@bexp,w
  6167  0FF4  00E1               	movwf	??___fladd
  6168  0FF5  1003               	clrc
  6169  0FF6  0C61               	rrf	??___fladd,w
  6170  0FF7  00E2               	movwf	??___fladd+1
  6171  0FF8  0862               	movf	??___fladd+1,w
  6172  0FF9  00DC               	movwf	___fladd@b+3
  6173  0FFA                     l2033:
  6174  0FFA  1FE9               	btfss	___fladd@signs,7
  6175  0FFB  2FFD               	goto	u2381
  6176  0FFC  2FFE               	goto	u2380
  6177  0FFD                     u2381:
  6178  0FFD  2FFF               	goto	l571
  6179  0FFE                     u2380:
  6180  0FFE                     l2035:
  6181  0FFE  17DC               	bsf	___fladd@b+3,7
  6182  0FFF                     l571:
  6183  0FFF                     l541:
  6184  0FFF  0008               	return
  6185  1000                     __end_of___fladd:
  6186                           
  6187                           	psect	text15
  6188  0B9B                     __ptext15:	
  6189 ;; *************** function ___fldiv *****************
  6190 ;; Defined at:
  6191 ;;		line 8 in file "C:\Program Files\Microchip\xc8\v2.36\pic\sources\c90\common\sprcdiv.c"
  6192 ;; Parameters:    Size  Location     Type
  6193 ;;  a               4   31[BANK0 ] unsigned char 
  6194 ;;  b               4   35[BANK0 ] unsigned char 
  6195 ;; Auto vars:     Size  Location     Type
  6196 ;;  grs             4   51[BANK0 ] unsigned long 
  6197 ;;  rem             4   44[BANK0 ] unsigned long 
  6198 ;;  new_exp         2   49[BANK0 ] int 
  6199 ;;  aexp            1   56[BANK0 ] unsigned char 
  6200 ;;  bexp            1   55[BANK0 ] unsigned char 
  6201 ;;  sign            1   48[BANK0 ] unsigned char 
  6202 ;; Return value:  Size  Location     Type
  6203 ;;                  4   31[BANK0 ] unsigned char 
  6204 ;; Registers used:
  6205 ;;		wreg, status,2, status,0, btemp+1
  6206 ;; Tracked objects:
  6207 ;;		On entry : 0/0
  6208 ;;		On exit  : 0/0
  6209 ;;		Unchanged: 0/0
  6210 ;; Data sizes:     COMMON   BANK0   BANK1   BANK3   BANK2
  6211 ;;      Params:         0       8       0       0       0
  6212 ;;      Locals:         0      13       0       0       0
  6213 ;;      Temps:          0       5       0       0       0
  6214 ;;      Totals:         0      26       0       0       0
  6215 ;;Total ram usage:       26 bytes
  6216 ;; Hardware stack levels used: 1
  6217 ;; This function calls:
  6218 ;;		Nothing
  6219 ;; This function is called by:
  6220 ;;		_main
  6221 ;; This function uses a non-reentrant model
  6222 ;;
  6223                           
  6224  0B9B                     ___fldiv:	
  6225                           ;psect for function ___fldiv
  6226                           
  6227  0B9B                     l2507:	
  6228                           ;incstack = 0
  6229                           ; Regs used in ___fldiv: [wreg+status,2+status,0+btemp+1]
  6230                           
  6231  0B9B  1283               	bcf	3,5	;RP0=0, select bank0
  6232  0B9C  1303               	bcf	3,6	;RP1=0, select bank0
  6233  0B9D  0846               	movf	___fldiv@b+3,w
  6234  0B9E  3980               	andlw	128
  6235  0B9F  00C7               	movwf	??___fldiv
  6236  0BA0  0847               	movf	??___fldiv,w
  6237  0BA1  00D0               	movwf	___fldiv@sign
  6238  0BA2                     l2509:
  6239  0BA2  0846               	movf	___fldiv@b+3,w
  6240  0BA3  00C7               	movwf	??___fldiv
  6241  0BA4  0747               	addwf	??___fldiv,w
  6242  0BA5  00C8               	movwf	??___fldiv+1
  6243  0BA6  0848               	movf	??___fldiv+1,w
  6244  0BA7  00D7               	movwf	___fldiv@bexp
  6245  0BA8                     l2511:
  6246  0BA8  1FC5               	btfss	___fldiv@b+2,7
  6247  0BA9  2BAB               	goto	u3361
  6248  0BAA  2BAC               	goto	u3360
  6249  0BAB                     u3361:
  6250  0BAB  2BAD               	goto	l2515
  6251  0BAC                     u3360:
  6252  0BAC                     l2513:
  6253  0BAC  1457               	bsf	___fldiv@bexp,0
  6254  0BAD                     l2515:
  6255  0BAD  0857               	movf	___fldiv@bexp,w
  6256  0BAE  1903               	btfsc	3,2
  6257  0BAF  2BB1               	goto	u3371
  6258  0BB0  2BB2               	goto	u3370
  6259  0BB1                     u3371:
  6260  0BB1  2BC2               	goto	l2525
  6261  0BB2                     u3370:
  6262  0BB2                     l2517:
  6263  0BB2  0A57               	incf	___fldiv@bexp,w
  6264  0BB3  1D03               	btfss	3,2
  6265  0BB4  2BB6               	goto	u3381
  6266  0BB5  2BB7               	goto	u3380
  6267  0BB6                     u3381:
  6268  0BB6  2BBF               	goto	l2521
  6269  0BB7                     u3380:
  6270  0BB7                     l2519:
  6271  0BB7  3000               	movlw	0
  6272  0BB8  00C6               	movwf	___fldiv@b+3
  6273  0BB9  3000               	movlw	0
  6274  0BBA  00C5               	movwf	___fldiv@b+2
  6275  0BBB  3000               	movlw	0
  6276  0BBC  00C4               	movwf	___fldiv@b+1
  6277  0BBD  3000               	movlw	0
  6278  0BBE  00C3               	movwf	___fldiv@b
  6279  0BBF                     l2521:
  6280  0BBF  17C5               	bsf	___fldiv@b+2,7
  6281  0BC0                     l2523:
  6282  0BC0  01C6               	clrf	___fldiv@b+3
  6283  0BC1  2BCA               	goto	l2527
  6284  0BC2                     l2525:
  6285  0BC2  3000               	movlw	0
  6286  0BC3  00C6               	movwf	___fldiv@b+3
  6287  0BC4  3000               	movlw	0
  6288  0BC5  00C5               	movwf	___fldiv@b+2
  6289  0BC6  3000               	movlw	0
  6290  0BC7  00C4               	movwf	___fldiv@b+1
  6291  0BC8  3000               	movlw	0
  6292  0BC9  00C3               	movwf	___fldiv@b
  6293  0BCA                     l2527:
  6294  0BCA  0842               	movf	___fldiv@a+3,w
  6295  0BCB  3980               	andlw	128
  6296  0BCC  00C7               	movwf	??___fldiv
  6297  0BCD  0847               	movf	??___fldiv,w
  6298  0BCE  06D0               	xorwf	___fldiv@sign,f
  6299  0BCF                     l2529:
  6300  0BCF  0842               	movf	___fldiv@a+3,w
  6301  0BD0  00C7               	movwf	??___fldiv
  6302  0BD1  0747               	addwf	??___fldiv,w
  6303  0BD2  00C8               	movwf	??___fldiv+1
  6304  0BD3  0848               	movf	??___fldiv+1,w
  6305  0BD4  00D8               	movwf	___fldiv@aexp
  6306  0BD5                     l2531:
  6307  0BD5  1FC1               	btfss	___fldiv@a+2,7
  6308  0BD6  2BD8               	goto	u3391
  6309  0BD7  2BD9               	goto	u3390
  6310  0BD8                     u3391:
  6311  0BD8  2BDA               	goto	l2535
  6312  0BD9                     u3390:
  6313  0BD9                     l2533:
  6314  0BD9  1458               	bsf	___fldiv@aexp,0
  6315  0BDA                     l2535:
  6316  0BDA  0858               	movf	___fldiv@aexp,w
  6317  0BDB  1903               	btfsc	3,2
  6318  0BDC  2BDE               	goto	u3401
  6319  0BDD  2BDF               	goto	u3400
  6320  0BDE                     u3401:
  6321  0BDE  2BEF               	goto	l2545
  6322  0BDF                     u3400:
  6323  0BDF                     l2537:
  6324  0BDF  0A58               	incf	___fldiv@aexp,w
  6325  0BE0  1D03               	btfss	3,2
  6326  0BE1  2BE3               	goto	u3411
  6327  0BE2  2BE4               	goto	u3410
  6328  0BE3                     u3411:
  6329  0BE3  2BEC               	goto	l2541
  6330  0BE4                     u3410:
  6331  0BE4                     l2539:
  6332  0BE4  3000               	movlw	0
  6333  0BE5  00C2               	movwf	___fldiv@a+3
  6334  0BE6  3000               	movlw	0
  6335  0BE7  00C1               	movwf	___fldiv@a+2
  6336  0BE8  3000               	movlw	0
  6337  0BE9  00C0               	movwf	___fldiv@a+1
  6338  0BEA  3000               	movlw	0
  6339  0BEB  00BF               	movwf	___fldiv@a
  6340  0BEC                     l2541:
  6341  0BEC  17C1               	bsf	___fldiv@a+2,7
  6342  0BED                     l2543:
  6343  0BED  01C2               	clrf	___fldiv@a+3
  6344  0BEE  2BF7               	goto	l584
  6345  0BEF                     l2545:
  6346  0BEF  3000               	movlw	0
  6347  0BF0  00C2               	movwf	___fldiv@a+3
  6348  0BF1  3000               	movlw	0
  6349  0BF2  00C1               	movwf	___fldiv@a+2
  6350  0BF3  3000               	movlw	0
  6351  0BF4  00C0               	movwf	___fldiv@a+1
  6352  0BF5  3000               	movlw	0
  6353  0BF6  00BF               	movwf	___fldiv@a
  6354  0BF7                     l584:
  6355  0BF7  0842               	movf	___fldiv@a+3,w
  6356  0BF8  0441               	iorwf	___fldiv@a+2,w
  6357  0BF9  0440               	iorwf	___fldiv@a+1,w
  6358  0BFA  043F               	iorwf	___fldiv@a,w
  6359  0BFB  1D03               	skipz
  6360  0BFC  2BFE               	goto	u3421
  6361  0BFD  2BFF               	goto	u3420
  6362  0BFE                     u3421:
  6363  0BFE  2C18               	goto	l2555
  6364  0BFF                     u3420:
  6365  0BFF                     l2547:
  6366  0BFF  3000               	movlw	0
  6367  0C00  00C6               	movwf	___fldiv@b+3
  6368  0C01  3000               	movlw	0
  6369  0C02  00C5               	movwf	___fldiv@b+2
  6370  0C03  3000               	movlw	0
  6371  0C04  00C4               	movwf	___fldiv@b+1
  6372  0C05  3000               	movlw	0
  6373  0C06  00C3               	movwf	___fldiv@b
  6374  0C07  3080               	movlw	128
  6375  0C08  04C5               	iorwf	___fldiv@b+2,f
  6376  0C09  307F               	movlw	127
  6377  0C0A  04C6               	iorwf	___fldiv@b+3,f
  6378  0C0B                     l2549:
  6379  0C0B  0850               	movf	___fldiv@sign,w
  6380  0C0C  00C7               	movwf	??___fldiv
  6381  0C0D  0847               	movf	??___fldiv,w
  6382  0C0E  04C6               	iorwf	___fldiv@b+3,f
  6383  0C0F                     l2551:
  6384  0C0F  0846               	movf	___fldiv@b+3,w
  6385  0C10  00C2               	movwf	?___fldiv+3
  6386  0C11  0845               	movf	___fldiv@b+2,w
  6387  0C12  00C1               	movwf	?___fldiv+2
  6388  0C13  0844               	movf	___fldiv@b+1,w
  6389  0C14  00C0               	movwf	?___fldiv+1
  6390  0C15  0843               	movf	___fldiv@b,w
  6391  0C16  00BF               	movwf	?___fldiv
  6392  0C17  2D77               	goto	l586
  6393  0C18                     l2555:
  6394  0C18  0857               	movf	___fldiv@bexp,w
  6395  0C19  1D03               	btfss	3,2
  6396  0C1A  2C1C               	goto	u3431
  6397  0C1B  2C1D               	goto	u3430
  6398  0C1C                     u3431:
  6399  0C1C  2C26               	goto	l2561
  6400  0C1D                     u3430:
  6401  0C1D                     l2557:
  6402  0C1D  3000               	movlw	0
  6403  0C1E  00C2               	movwf	?___fldiv+3
  6404  0C1F  3000               	movlw	0
  6405  0C20  00C1               	movwf	?___fldiv+2
  6406  0C21  3000               	movlw	0
  6407  0C22  00C0               	movwf	?___fldiv+1
  6408  0C23  3000               	movlw	0
  6409  0C24  00BF               	movwf	?___fldiv
  6410  0C25  2D77               	goto	l586
  6411  0C26                     l2561:
  6412  0C26  0857               	movf	___fldiv@bexp,w
  6413  0C27  00C7               	movwf	??___fldiv
  6414  0C28  01C8               	clrf	??___fldiv+1
  6415  0C29  0848               	movf	??___fldiv+1,w
  6416  0C2A  00CA               	movwf	??___fldiv+3
  6417  0C2B  0858               	movf	___fldiv@aexp,w
  6418  0C2C  0247               	subwf	??___fldiv,w
  6419  0C2D  00C9               	movwf	??___fldiv+2
  6420  0C2E  1C03               	skipc
  6421  0C2F  03CA               	decf	??___fldiv+3,f
  6422  0C30  0849               	movf	??___fldiv+2,w
  6423  0C31  3E7F               	addlw	127
  6424  0C32  00D1               	movwf	___fldiv@new_exp
  6425  0C33  084A               	movf	??___fldiv+3,w
  6426  0C34  1803               	skipnc
  6427  0C35  3E01               	addlw	1
  6428  0C36  3E00               	addlw	0
  6429  0C37  00D2               	movwf	___fldiv@new_exp+1
  6430  0C38                     l2563:
  6431  0C38  0846               	movf	___fldiv@b+3,w
  6432  0C39  00CF               	movwf	___fldiv@rem+3
  6433  0C3A  0845               	movf	___fldiv@b+2,w
  6434  0C3B  00CE               	movwf	___fldiv@rem+2
  6435  0C3C  0844               	movf	___fldiv@b+1,w
  6436  0C3D  00CD               	movwf	___fldiv@rem+1
  6437  0C3E  0843               	movf	___fldiv@b,w
  6438  0C3F  00CC               	movwf	___fldiv@rem
  6439  0C40                     l2565:
  6440  0C40  3000               	movlw	0
  6441  0C41  00C6               	movwf	___fldiv@b+3
  6442  0C42  3000               	movlw	0
  6443  0C43  00C5               	movwf	___fldiv@b+2
  6444  0C44  3000               	movlw	0
  6445  0C45  00C4               	movwf	___fldiv@b+1
  6446  0C46  3000               	movlw	0
  6447  0C47  00C3               	movwf	___fldiv@b
  6448  0C48                     l2567:
  6449  0C48  3000               	movlw	0
  6450  0C49  00D6               	movwf	___fldiv@grs+3
  6451  0C4A  3000               	movlw	0
  6452  0C4B  00D5               	movwf	___fldiv@grs+2
  6453  0C4C  3000               	movlw	0
  6454  0C4D  00D4               	movwf	___fldiv@grs+1
  6455  0C4E  3000               	movlw	0
  6456  0C4F  00D3               	movwf	___fldiv@grs
  6457  0C50                     l2569:
  6458  0C50  01D8               	clrf	___fldiv@aexp
  6459  0C51  2C9C               	goto	l2589
  6460  0C52                     l2571:
  6461  0C52  0858               	movf	___fldiv@aexp,w
  6462  0C53  1903               	btfsc	3,2
  6463  0C54  2C56               	goto	u3441
  6464  0C55  2C57               	goto	u3440
  6465  0C56                     u3441:
  6466  0C56  2C77               	goto	l2581
  6467  0C57                     u3440:
  6468  0C57                     l2573:
  6469  0C57  3001               	movlw	1
  6470  0C58  00C7               	movwf	??___fldiv
  6471  0C59                     u3455:
  6472  0C59  1003               	clrc
  6473  0C5A  0DCC               	rlf	___fldiv@rem,f
  6474  0C5B  0DCD               	rlf	___fldiv@rem+1,f
  6475  0C5C  0DCE               	rlf	___fldiv@rem+2,f
  6476  0C5D  0DCF               	rlf	___fldiv@rem+3,f
  6477  0C5E  0BC7               	decfsz	??___fldiv,f
  6478  0C5F  2C59               	goto	u3455
  6479  0C60  3001               	movlw	1
  6480  0C61  00C7               	movwf	??___fldiv
  6481  0C62                     u3465:
  6482  0C62  1003               	clrc
  6483  0C63  0DC3               	rlf	___fldiv@b,f
  6484  0C64  0DC4               	rlf	___fldiv@b+1,f
  6485  0C65  0DC5               	rlf	___fldiv@b+2,f
  6486  0C66  0DC6               	rlf	___fldiv@b+3,f
  6487  0C67  0BC7               	decfsz	??___fldiv,f
  6488  0C68  2C62               	goto	u3465
  6489  0C69                     l2575:
  6490  0C69  1FD6               	btfss	___fldiv@grs+3,7
  6491  0C6A  2C6C               	goto	u3471
  6492  0C6B  2C6D               	goto	u3470
  6493  0C6C                     u3471:
  6494  0C6C  2C6E               	goto	l2579
  6495  0C6D                     u3470:
  6496  0C6D                     l2577:
  6497  0C6D  1443               	bsf	___fldiv@b,0
  6498  0C6E                     l2579:
  6499  0C6E  3001               	movlw	1
  6500  0C6F  00C7               	movwf	??___fldiv
  6501  0C70                     u3485:
  6502  0C70  1003               	clrc
  6503  0C71  0DD3               	rlf	___fldiv@grs,f
  6504  0C72  0DD4               	rlf	___fldiv@grs+1,f
  6505  0C73  0DD5               	rlf	___fldiv@grs+2,f
  6506  0C74  0DD6               	rlf	___fldiv@grs+3,f
  6507  0C75  0BC7               	decfsz	??___fldiv,f
  6508  0C76  2C70               	goto	u3485
  6509  0C77                     l2581:
  6510  0C77  0842               	movf	___fldiv@a+3,w
  6511  0C78  024F               	subwf	___fldiv@rem+3,w
  6512  0C79  1D03               	skipz
  6513  0C7A  2C85               	goto	u3495
  6514  0C7B  0841               	movf	___fldiv@a+2,w
  6515  0C7C  024E               	subwf	___fldiv@rem+2,w
  6516  0C7D  1D03               	skipz
  6517  0C7E  2C85               	goto	u3495
  6518  0C7F  0840               	movf	___fldiv@a+1,w
  6519  0C80  024D               	subwf	___fldiv@rem+1,w
  6520  0C81  1D03               	skipz
  6521  0C82  2C85               	goto	u3495
  6522  0C83  083F               	movf	___fldiv@a,w
  6523  0C84  024C               	subwf	___fldiv@rem,w
  6524  0C85                     u3495:
  6525  0C85  1C03               	skipc
  6526  0C86  2C88               	goto	u3491
  6527  0C87  2C89               	goto	u3490
  6528  0C88                     u3491:
  6529  0C88  2C98               	goto	l2587
  6530  0C89                     u3490:
  6531  0C89                     l2583:
  6532  0C89  1756               	bsf	___fldiv@grs+3,6
  6533  0C8A                     l2585:
  6534  0C8A  083F               	movf	___fldiv@a,w
  6535  0C8B  02CC               	subwf	___fldiv@rem,f
  6536  0C8C  0840               	movf	___fldiv@a+1,w
  6537  0C8D  1C03               	skipc
  6538  0C8E  0F40               	incfsz	___fldiv@a+1,w
  6539  0C8F  02CD               	subwf	___fldiv@rem+1,f
  6540  0C90  0841               	movf	___fldiv@a+2,w
  6541  0C91  1C03               	skipc
  6542  0C92  0F41               	incfsz	___fldiv@a+2,w
  6543  0C93  02CE               	subwf	___fldiv@rem+2,f
  6544  0C94  0842               	movf	___fldiv@a+3,w
  6545  0C95  1C03               	skipc
  6546  0C96  0F42               	incfsz	___fldiv@a+3,w
  6547  0C97  02CF               	subwf	___fldiv@rem+3,f
  6548  0C98                     l2587:
  6549  0C98  3001               	movlw	1
  6550  0C99  00C7               	movwf	??___fldiv
  6551  0C9A  0847               	movf	??___fldiv,w
  6552  0C9B  07D8               	addwf	___fldiv@aexp,f
  6553  0C9C                     l2589:
  6554  0C9C  301A               	movlw	26
  6555  0C9D  0258               	subwf	___fldiv@aexp,w
  6556  0C9E  1C03               	skipc
  6557  0C9F  2CA1               	goto	u3501
  6558  0CA0  2CA2               	goto	u3500
  6559  0CA1                     u3501:
  6560  0CA1  2C52               	goto	l2571
  6561  0CA2                     u3500:
  6562  0CA2                     l2591:
  6563  0CA2  084F               	movf	___fldiv@rem+3,w
  6564  0CA3  044E               	iorwf	___fldiv@rem+2,w
  6565  0CA4  044D               	iorwf	___fldiv@rem+1,w
  6566  0CA5  044C               	iorwf	___fldiv@rem,w
  6567  0CA6  1903               	skipnz
  6568  0CA7  2CA9               	goto	u3511
  6569  0CA8  2CAA               	goto	u3510
  6570  0CA9                     u3511:
  6571  0CA9  2CC9               	goto	l2605
  6572  0CAA                     u3510:
  6573  0CAA                     l2593:
  6574  0CAA  1453               	bsf	___fldiv@grs,0
  6575  0CAB  2CC9               	goto	l2605
  6576  0CAC                     l2595:
  6577  0CAC  3001               	movlw	1
  6578  0CAD  00C7               	movwf	??___fldiv
  6579  0CAE                     u3525:
  6580  0CAE  1003               	clrc
  6581  0CAF  0DC3               	rlf	___fldiv@b,f
  6582  0CB0  0DC4               	rlf	___fldiv@b+1,f
  6583  0CB1  0DC5               	rlf	___fldiv@b+2,f
  6584  0CB2  0DC6               	rlf	___fldiv@b+3,f
  6585  0CB3  0BC7               	decfsz	??___fldiv,f
  6586  0CB4  2CAE               	goto	u3525
  6587  0CB5                     l2597:
  6588  0CB5  1FD6               	btfss	___fldiv@grs+3,7
  6589  0CB6  2CB8               	goto	u3531
  6590  0CB7  2CB9               	goto	u3530
  6591  0CB8                     u3531:
  6592  0CB8  2CBA               	goto	l2601
  6593  0CB9                     u3530:
  6594  0CB9                     l2599:
  6595  0CB9  1443               	bsf	___fldiv@b,0
  6596  0CBA                     l2601:
  6597  0CBA  3001               	movlw	1
  6598  0CBB  00C7               	movwf	??___fldiv
  6599  0CBC                     u3545:
  6600  0CBC  1003               	clrc
  6601  0CBD  0DD3               	rlf	___fldiv@grs,f
  6602  0CBE  0DD4               	rlf	___fldiv@grs+1,f
  6603  0CBF  0DD5               	rlf	___fldiv@grs+2,f
  6604  0CC0  0DD6               	rlf	___fldiv@grs+3,f
  6605  0CC1  0BC7               	decfsz	??___fldiv,f
  6606  0CC2  2CBC               	goto	u3545
  6607  0CC3                     l2603:
  6608  0CC3  30FF               	movlw	255
  6609  0CC4  07D1               	addwf	___fldiv@new_exp,f
  6610  0CC5  1803               	skipnc
  6611  0CC6  0AD2               	incf	___fldiv@new_exp+1,f
  6612  0CC7  30FF               	movlw	255
  6613  0CC8  07D2               	addwf	___fldiv@new_exp+1,f
  6614  0CC9                     l2605:
  6615  0CC9  1FC5               	btfss	___fldiv@b+2,7
  6616  0CCA  2CCC               	goto	u3551
  6617  0CCB  2CCD               	goto	u3550
  6618  0CCC                     u3551:
  6619  0CCC  2CAC               	goto	l2595
  6620  0CCD                     u3550:
  6621  0CCD                     l2607:
  6622  0CCD  01D8               	clrf	___fldiv@aexp
  6623  0CCE                     l2609:
  6624  0CCE  1FD6               	btfss	___fldiv@grs+3,7
  6625  0CCF  2CD1               	goto	u3561
  6626  0CD0  2CD2               	goto	u3560
  6627  0CD1                     u3561:
  6628  0CD1  2CEE               	goto	l2617
  6629  0CD2                     u3560:
  6630  0CD2                     l2611:
  6631  0CD2  30FF               	movlw	255
  6632  0CD3  0553               	andwf	___fldiv@grs,w
  6633  0CD4  00C7               	movwf	??___fldiv
  6634  0CD5  30FF               	movlw	255
  6635  0CD6  0554               	andwf	___fldiv@grs+1,w
  6636  0CD7  00C8               	movwf	??___fldiv+1
  6637  0CD8  30FF               	movlw	255
  6638  0CD9  0555               	andwf	___fldiv@grs+2,w
  6639  0CDA  00C9               	movwf	??___fldiv+2
  6640  0CDB  307F               	movlw	127
  6641  0CDC  0556               	andwf	___fldiv@grs+3,w
  6642  0CDD  00CA               	movwf	??___fldiv+3
  6643  0CDE  084A               	movf	??___fldiv+3,w
  6644  0CDF  0449               	iorwf	??___fldiv+2,w
  6645  0CE0  0448               	iorwf	??___fldiv+1,w
  6646  0CE1  0447               	iorwf	??___fldiv,w
  6647  0CE2  1903               	skipnz
  6648  0CE3  2CE5               	goto	u3571
  6649  0CE4  2CE6               	goto	u3570
  6650  0CE5                     u3571:
  6651  0CE5  2CE9               	goto	l600
  6652  0CE6                     u3570:
  6653  0CE6                     l2613:
  6654  0CE6  01D8               	clrf	___fldiv@aexp
  6655  0CE7  0AD8               	incf	___fldiv@aexp,f
  6656  0CE8  2CEE               	goto	l2617
  6657  0CE9                     l600:
  6658  0CE9  1C43               	btfss	___fldiv@b,0
  6659  0CEA  2CEC               	goto	u3581
  6660  0CEB  2CED               	goto	u3580
  6661  0CEC                     u3581:
  6662  0CEC  2CEE               	goto	l2617
  6663  0CED                     u3580:
  6664  0CED  2CE6               	goto	l2613
  6665  0CEE                     l2617:
  6666  0CEE  0858               	movf	___fldiv@aexp,w
  6667  0CEF  1903               	btfsc	3,2
  6668  0CF0  2CF2               	goto	u3591
  6669  0CF1  2CF3               	goto	u3590
  6670  0CF2                     u3591:
  6671  0CF2  2D24               	goto	l2627
  6672  0CF3                     u3590:
  6673  0CF3                     l2619:
  6674  0CF3  3001               	movlw	1
  6675  0CF4  07C3               	addwf	___fldiv@b,f
  6676  0CF5  3000               	movlw	0
  6677  0CF6  1803               	skipnc
  6678  0CF7  3001               	movlw	1
  6679  0CF8  07C4               	addwf	___fldiv@b+1,f
  6680  0CF9  3000               	movlw	0
  6681  0CFA  1803               	skipnc
  6682  0CFB  3001               	movlw	1
  6683  0CFC  07C5               	addwf	___fldiv@b+2,f
  6684  0CFD  3000               	movlw	0
  6685  0CFE  1803               	skipnc
  6686  0CFF  3001               	movlw	1
  6687  0D00  07C6               	addwf	___fldiv@b+3,f
  6688  0D01                     l2621:
  6689  0D01  1C46               	btfss	___fldiv@b+3,0
  6690  0D02  2D04               	goto	u3601
  6691  0D03  2D05               	goto	u3600
  6692  0D04                     u3601:
  6693  0D04  2D24               	goto	l2627
  6694  0D05                     u3600:
  6695  0D05                     l2623:
  6696  0D05  0843               	movf	___fldiv@b,w
  6697  0D06  00C7               	movwf	??___fldiv
  6698  0D07  0844               	movf	___fldiv@b+1,w
  6699  0D08  00C8               	movwf	??___fldiv+1
  6700  0D09  0845               	movf	___fldiv@b+2,w
  6701  0D0A  00C9               	movwf	??___fldiv+2
  6702  0D0B  0846               	movf	___fldiv@b+3,w
  6703  0D0C  00CA               	movwf	??___fldiv+3
  6704  0D0D  3001               	movlw	1
  6705  0D0E  00CB               	movwf	??___fldiv+4
  6706  0D0F                     u3615:
  6707  0D0F  0D4A               	rlf	??___fldiv+3,w
  6708  0D10  0CCA               	rrf	??___fldiv+3,f
  6709  0D11  0CC9               	rrf	??___fldiv+2,f
  6710  0D12  0CC8               	rrf	??___fldiv+1,f
  6711  0D13  0CC7               	rrf	??___fldiv,f
  6712  0D14                     u3610:
  6713  0D14  0BCB               	decfsz	??___fldiv+4,f
  6714  0D15  2D0F               	goto	u3615
  6715  0D16  084A               	movf	??___fldiv+3,w
  6716  0D17  00C6               	movwf	___fldiv@b+3
  6717  0D18  0849               	movf	??___fldiv+2,w
  6718  0D19  00C5               	movwf	___fldiv@b+2
  6719  0D1A  0848               	movf	??___fldiv+1,w
  6720  0D1B  00C4               	movwf	___fldiv@b+1
  6721  0D1C  0847               	movf	??___fldiv,w
  6722  0D1D  00C3               	movwf	___fldiv@b
  6723  0D1E                     l2625:
  6724  0D1E  3001               	movlw	1
  6725  0D1F  07D1               	addwf	___fldiv@new_exp,f
  6726  0D20  1803               	skipnc
  6727  0D21  0AD2               	incf	___fldiv@new_exp+1,f
  6728  0D22  3000               	movlw	0
  6729  0D23  07D2               	addwf	___fldiv@new_exp+1,f
  6730  0D24                     l2627:
  6731  0D24  0852               	movf	___fldiv@new_exp+1,w
  6732  0D25  3A80               	xorlw	128
  6733  0D26  00FF               	movwf	btemp+1
  6734  0D27  3080               	movlw	128
  6735  0D28  027F               	subwf	btemp+1,w
  6736  0D29  1D03               	skipz
  6737  0D2A  2D2D               	goto	u3625
  6738  0D2B  30FF               	movlw	255
  6739  0D2C  0251               	subwf	___fldiv@new_exp,w
  6740  0D2D                     u3625:
  6741  0D2D  1C03               	skipc
  6742  0D2E  2D30               	goto	u3621
  6743  0D2F  2D31               	goto	u3620
  6744  0D30                     u3621:
  6745  0D30  2D3F               	goto	l2631
  6746  0D31                     u3620:
  6747  0D31                     l2629:
  6748  0D31  30FF               	movlw	255
  6749  0D32  1283               	bcf	3,5	;RP0=0, select bank0
  6750  0D33  1303               	bcf	3,6	;RP1=0, select bank0
  6751  0D34  00D1               	movwf	___fldiv@new_exp
  6752  0D35  3000               	movlw	0
  6753  0D36  00D2               	movwf	___fldiv@new_exp+1
  6754  0D37  3000               	movlw	0
  6755  0D38  00C6               	movwf	___fldiv@b+3
  6756  0D39  3000               	movlw	0
  6757  0D3A  00C5               	movwf	___fldiv@b+2
  6758  0D3B  3000               	movlw	0
  6759  0D3C  00C4               	movwf	___fldiv@b+1
  6760  0D3D  3000               	movlw	0
  6761  0D3E  00C3               	movwf	___fldiv@b
  6762  0D3F                     l2631:
  6763  0D3F  1283               	bcf	3,5	;RP0=0, select bank0
  6764  0D40  1303               	bcf	3,6	;RP1=0, select bank0
  6765  0D41  0852               	movf	___fldiv@new_exp+1,w
  6766  0D42  3A80               	xorlw	128
  6767  0D43  00FF               	movwf	btemp+1
  6768  0D44  3080               	movlw	128
  6769  0D45  027F               	subwf	btemp+1,w
  6770  0D46  1D03               	skipz
  6771  0D47  2D4A               	goto	u3635
  6772  0D48  3001               	movlw	1
  6773  0D49  0251               	subwf	___fldiv@new_exp,w
  6774  0D4A                     u3635:
  6775  0D4A  1803               	skipnc
  6776  0D4B  2D4D               	goto	u3631
  6777  0D4C  2D4E               	goto	u3630
  6778  0D4D                     u3631:
  6779  0D4D  2D5B               	goto	l606
  6780  0D4E                     u3630:
  6781  0D4E                     l2633:
  6782  0D4E  1283               	bcf	3,5	;RP0=0, select bank0
  6783  0D4F  1303               	bcf	3,6	;RP1=0, select bank0
  6784  0D50  01D1               	clrf	___fldiv@new_exp
  6785  0D51  01D2               	clrf	___fldiv@new_exp+1
  6786  0D52                     l2635:
  6787  0D52  3000               	movlw	0
  6788  0D53  00C6               	movwf	___fldiv@b+3
  6789  0D54  3000               	movlw	0
  6790  0D55  00C5               	movwf	___fldiv@b+2
  6791  0D56  3000               	movlw	0
  6792  0D57  00C4               	movwf	___fldiv@b+1
  6793  0D58  3000               	movlw	0
  6794  0D59  00C3               	movwf	___fldiv@b
  6795  0D5A                     l2637:
  6796  0D5A  01D0               	clrf	___fldiv@sign
  6797  0D5B                     l606:
  6798  0D5B  1283               	bcf	3,5	;RP0=0, select bank0
  6799  0D5C  1303               	bcf	3,6	;RP1=0, select bank0
  6800  0D5D  0851               	movf	___fldiv@new_exp,w
  6801  0D5E  00C7               	movwf	??___fldiv
  6802  0D5F  0847               	movf	??___fldiv,w
  6803  0D60  00D7               	movwf	___fldiv@bexp
  6804  0D61                     l2639:
  6805  0D61  1C57               	btfss	___fldiv@bexp,0
  6806  0D62  2D64               	goto	u3641
  6807  0D63  2D65               	goto	u3640
  6808  0D64                     u3641:
  6809  0D64  2D67               	goto	l2643
  6810  0D65                     u3640:
  6811  0D65                     l2641:
  6812  0D65  17C5               	bsf	___fldiv@b+2,7
  6813  0D66  2D6B               	goto	l608
  6814  0D67                     l2643:
  6815  0D67  307F               	movlw	127
  6816  0D68  00C7               	movwf	??___fldiv
  6817  0D69  0847               	movf	??___fldiv,w
  6818  0D6A  05C5               	andwf	___fldiv@b+2,f
  6819  0D6B                     l608:
  6820  0D6B  0857               	movf	___fldiv@bexp,w
  6821  0D6C  00C7               	movwf	??___fldiv
  6822  0D6D  1003               	clrc
  6823  0D6E  0C47               	rrf	??___fldiv,w
  6824  0D6F  00C8               	movwf	??___fldiv+1
  6825  0D70  0848               	movf	??___fldiv+1,w
  6826  0D71  00C6               	movwf	___fldiv@b+3
  6827  0D72  0850               	movf	___fldiv@sign,w
  6828  0D73  00C7               	movwf	??___fldiv
  6829  0D74  0847               	movf	??___fldiv,w
  6830  0D75  04C6               	iorwf	___fldiv@b+3,f
  6831  0D76  2C0F               	goto	l2551
  6832  0D77                     l586:
  6833  0D77  0008               	return
  6834  0D78                     __end_of___fldiv:
  6835                           
  6836                           	psect	text16
  6837  15BA                     __ptext16:	
  6838 ;; *************** function _LCD_String_xy *****************
  6839 ;; Defined at:
  6840 ;;		line 113 in file "LCD.c"
  6841 ;; Parameters:    Size  Location     Type
  6842 ;;  row             1    wreg     unsigned char 
  6843 ;;  pos             1    5[COMMON] unsigned char 
  6844 ;;  msg             1    6[COMMON] PTR const unsigned char 
  6845 ;;		 -> STR_6(14), STR_5(14), STR_4(15), STR_2(13), 
  6846 ;; Auto vars:     Size  Location     Type
  6847 ;;  row             1    8[COMMON] unsigned char 
  6848 ;;  location        1    9[COMMON] unsigned char 
  6849 ;; Return value:  Size  Location     Type
  6850 ;;                  1    wreg      void 
  6851 ;; Registers used:
  6852 ;;		wreg, fsr0l, fsr0h, status,2, status,0, btemp+1, pclath, cstack
  6853 ;; Tracked objects:
  6854 ;;		On entry : 0/0
  6855 ;;		On exit  : 0/0
  6856 ;;		Unchanged: 0/0
  6857 ;; Data sizes:     COMMON   BANK0   BANK1   BANK3   BANK2
  6858 ;;      Params:         2       0       0       0       0
  6859 ;;      Locals:         2       0       0       0       0
  6860 ;;      Temps:          1       0       0       0       0
  6861 ;;      Totals:         5       0       0       0       0
  6862 ;;Total ram usage:        5 bytes
  6863 ;; Hardware stack levels used: 1
  6864 ;; Hardware stack levels required when called: 2
  6865 ;; This function calls:
  6866 ;;		_LCD_Command
  6867 ;;		_LCD_String
  6868 ;; This function is called by:
  6869 ;;		_main
  6870 ;; This function uses a non-reentrant model
  6871 ;;
  6872                           
  6873  15BA                     _LCD_String_xy:	
  6874                           ;psect for function _LCD_String_xy
  6875                           
  6876                           
  6877                           ;incstack = 0
  6878                           ; Regs used in _LCD_String_xy: [wreg-fsr0h+status,2+status,0+btemp+1+pclath+cstack]
  6879                           ;LCD_String_xy@row stored from wreg
  6880  15BA  00F8               	movwf	LCD_String_xy@row
  6881  15BB                     l2451:
  6882  15BB                     l2453:
  6883                           
  6884                           ;LCD.c: 116:     if(row<=1)
  6885  15BB  3002               	movlw	2
  6886  15BC  0278               	subwf	LCD_String_xy@row,w
  6887  15BD  1803               	skipnc
  6888  15BE  2DC0               	goto	u3251
  6889  15BF  2DC1               	goto	u3250
  6890  15C0                     u3251:
  6891  15C0  2DCE               	goto	l2459
  6892  15C1                     u3250:
  6893  15C1                     l2455:
  6894                           
  6895                           ;LCD.c: 117:     {;LCD.c: 118:         location=(0x80) | ((pos) & 0x0f);
  6896  15C1  0875               	movf	LCD_String_xy@pos,w
  6897  15C2  390F               	andlw	15
  6898  15C3  3880               	iorlw	128
  6899  15C4  00F7               	movwf	??_LCD_String_xy
  6900  15C5  0877               	movf	??_LCD_String_xy,w
  6901  15C6  00F9               	movwf	LCD_String_xy@location
  6902  15C7                     l2457:
  6903                           
  6904                           ;LCD.c: 119:         LCD_Command(location);
  6905  15C7  0879               	movf	LCD_String_xy@location,w
  6906  15C8  160A  118A  25E6  160A  118A  	fcall	_LCD_Command
  6907                           
  6908                           ;LCD.c: 120:     }
  6909  15CD  2DDA               	goto	l2463
  6910  15CE                     l2459:
  6911                           
  6912                           ;LCD.c: 122:     {;LCD.c: 123:         location=(0xC0) | ((pos) & 0x0f);
  6913  15CE  0875               	movf	LCD_String_xy@pos,w
  6914  15CF  390F               	andlw	15
  6915  15D0  38C0               	iorlw	192
  6916  15D1  00F7               	movwf	??_LCD_String_xy
  6917  15D2  0877               	movf	??_LCD_String_xy,w
  6918  15D3  00F9               	movwf	LCD_String_xy@location
  6919  15D4                     l2461:
  6920                           
  6921                           ;LCD.c: 124:         LCD_Command(location);
  6922  15D4  0879               	movf	LCD_String_xy@location,w
  6923  15D5  160A  118A  25E6  160A  118A  	fcall	_LCD_Command
  6924  15DA                     l2463:
  6925                           
  6926                           ;LCD.c: 128:     LCD_String(msg);
  6927  15DA  0876               	movf	LCD_String_xy@msg,w
  6928  15DB  00F3               	movwf	LCD_String@msg
  6929  15DC  3000               	movlw	0
  6930  15DD  1D03               	btfss	3,2
  6931  15DE  3080               	movlw	128
  6932  15DF  00F4               	movwf	LCD_String@msg+1
  6933  15E0  160A  118A  2543  160A  118A  	fcall	_LCD_String
  6934  15E5                     l117:
  6935  15E5  0008               	return
  6936  15E6                     __end_of_LCD_String_xy:
  6937                           
  6938                           	psect	text17
  6939  1543                     __ptext17:	
  6940 ;; *************** function _LCD_String *****************
  6941 ;; Defined at:
  6942 ;;		line 103 in file "LCD.c"
  6943 ;; Parameters:    Size  Location     Type
  6944 ;;  msg             2    3[COMMON] PTR const unsigned char 
  6945 ;;		 -> STR_6(14), STR_5(14), STR_4(15), STR_3(3), 
  6946 ;;		 -> STR_2(13), main@Temperature(10), 
  6947 ;; Auto vars:     Size  Location     Type
  6948 ;;		None
  6949 ;; Return value:  Size  Location     Type
  6950 ;;                  1    wreg      void 
  6951 ;; Registers used:
  6952 ;;		wreg, fsr0l, fsr0h, status,2, status,0, btemp+1, pclath, cstack
  6953 ;; Tracked objects:
  6954 ;;		On entry : 0/0
  6955 ;;		On exit  : 0/0
  6956 ;;		Unchanged: 0/0
  6957 ;; Data sizes:     COMMON   BANK0   BANK1   BANK3   BANK2
  6958 ;;      Params:         2       0       0       0       0
  6959 ;;      Locals:         0       0       0       0       0
  6960 ;;      Temps:          0       0       0       0       0
  6961 ;;      Totals:         2       0       0       0       0
  6962 ;;Total ram usage:        2 bytes
  6963 ;; Hardware stack levels used: 1
  6964 ;; Hardware stack levels required when called: 1
  6965 ;; This function calls:
  6966 ;;		_LCD_Char
  6967 ;; This function is called by:
  6968 ;;		_main
  6969 ;;		_LCD_String_xy
  6970 ;; This function uses a non-reentrant model
  6971 ;;
  6972                           
  6973  1543                     _LCD_String:	
  6974                           ;psect for function _LCD_String
  6975                           
  6976  1543                     l2177:	
  6977                           ;incstack = 0
  6978                           ; Regs used in _LCD_String: [wreg-fsr0h+status,2+status,0+btemp+1+pclath+cstack]
  6979                           
  6980                           
  6981                           ;LCD.c: 103: void LCD_String(const char *msg);LCD.c: 104: {;LCD.c: 105:  while((*msg)!=0
      +                          )
  6982  1543  2D58               	goto	l2183
  6983  1544                     l2179:
  6984                           
  6985                           ;LCD.c: 106:  {;LCD.c: 107:    LCD_Char(*msg);
  6986  1544  0874               	movf	LCD_String@msg+1,w
  6987  1545  00FF               	movwf	btemp+1
  6988  1546  0873               	movf	LCD_String@msg,w
  6989  1547  0084               	movwf	4
  6990  1548  120A  118A  2003  160A  118A  	fcall	stringtab
  6991  154D  160A  118A  261C  160A  118A  	fcall	_LCD_Char
  6992  1552                     l2181:
  6993                           
  6994                           ;LCD.c: 108:    msg++;
  6995  1552  3001               	movlw	1
  6996  1553  07F3               	addwf	LCD_String@msg,f
  6997  1554  1803               	skipnc
  6998  1555  0AF4               	incf	LCD_String@msg+1,f
  6999  1556  3000               	movlw	0
  7000  1557  07F4               	addwf	LCD_String@msg+1,f
  7001  1558                     l2183:
  7002                           
  7003                           ;LCD.c: 105:  while((*msg)!=0)
  7004  1558  0874               	movf	LCD_String@msg+1,w
  7005  1559  1283               	bcf	3,5	;RP0=0, select bank0
  7006  155A  1303               	bcf	3,6	;RP1=0, select bank0
  7007  155B  00FF               	movwf	btemp+1
  7008  155C  0873               	movf	LCD_String@msg,w
  7009  155D  0084               	movwf	4
  7010  155E  120A  118A  2003  160A  118A  	fcall	stringtab
  7011  1563  3A00               	xorlw	0
  7012  1564  1D03               	skipz
  7013  1565  2D67               	goto	u2761
  7014  1566  2D68               	goto	u2760
  7015  1567                     u2761:
  7016  1567  2D44               	goto	l2179
  7017  1568                     u2760:
  7018  1568                     l112:
  7019  1568  0008               	return
  7020  1569                     __end_of_LCD_String:
  7021                           
  7022                           	psect	text18
  7023  161C                     __ptext18:	
  7024 ;; *************** function _LCD_Char *****************
  7025 ;; Defined at:
  7026 ;;		line 88 in file "LCD.c"
  7027 ;; Parameters:    Size  Location     Type
  7028 ;;  dat             1    wreg     unsigned char 
  7029 ;; Auto vars:     Size  Location     Type
  7030 ;;  dat             1    2[COMMON] unsigned char 
  7031 ;; Return value:  Size  Location     Type
  7032 ;;                  1    wreg      void 
  7033 ;; Registers used:
  7034 ;;		wreg, status,2, status,0
  7035 ;; Tracked objects:
  7036 ;;		On entry : 0/0
  7037 ;;		On exit  : 0/0
  7038 ;;		Unchanged: 0/0
  7039 ;; Data sizes:     COMMON   BANK0   BANK1   BANK3   BANK2
  7040 ;;      Params:         0       0       0       0       0
  7041 ;;      Locals:         1       0       0       0       0
  7042 ;;      Temps:          2       0       0       0       0
  7043 ;;      Totals:         3       0       0       0       0
  7044 ;;Total ram usage:        3 bytes
  7045 ;; Hardware stack levels used: 1
  7046 ;; This function calls:
  7047 ;;		Nothing
  7048 ;; This function is called by:
  7049 ;;		_LCD_String
  7050 ;; This function uses a non-reentrant model
  7051 ;;
  7052                           
  7053  161C                     _LCD_Char:	
  7054                           ;psect for function _LCD_Char
  7055                           
  7056                           
  7057                           ;incstack = 0
  7058                           ; Regs used in _LCD_Char: [wreg+status,2+status,0]
  7059                           ;LCD_Char@dat stored from wreg
  7060  161C  00F2               	movwf	LCD_Char@dat
  7061  161D                     l1811:
  7062                           
  7063                           ;LCD.c: 88: void LCD_Char(unsigned char dat);LCD.c: 89: {;LCD.c: 90:  PORTD = (PORTD & 0
      +                          x0f) | (0xF0 & dat);
  7064  161D  30F0               	movlw	240
  7065  161E  0572               	andwf	LCD_Char@dat,w
  7066  161F  00F0               	movwf	??_LCD_Char
  7067  1620  1283               	bcf	3,5	;RP0=0, select bank0
  7068  1621  1303               	bcf	3,6	;RP1=0, select bank0
  7069  1622  0808               	movf	8,w	;volatile
  7070  1623  390F               	andlw	15
  7071  1624  0470               	iorwf	??_LCD_Char,w
  7072  1625  0088               	movwf	8	;volatile
  7073  1626                     l1813:
  7074                           
  7075                           ;LCD.c: 91:  PORTDbits.RD0 = 1;
  7076  1626  1408               	bsf	8,0	;volatile
  7077  1627                     l1815:
  7078                           
  7079                           ;LCD.c: 92:  PORTDbits.RD1 = 1;
  7080  1627  1488               	bsf	8,1	;volatile
  7081  1628                     l1817:
  7082                           
  7083                           ;LCD.c: 93:  __nop();
  7084  1628  0000               	nop
  7085  1629                     l1819:
  7086                           
  7087                           ;LCD.c: 94:  PORTDbits.RD1 = 0;
  7088  1629  1283               	bcf	3,5	;RP0=0, select bank0
  7089  162A  1303               	bcf	3,6	;RP1=0, select bank0
  7090  162B  1088               	bcf	8,1	;volatile
  7091  162C                     l1821:
  7092                           
  7093                           ;LCD.c: 95:  _delay((unsigned long)((1)*(8000000/4000.0)));
  7094  162C  3003               	movlw	3
  7095  162D  00F1               	movwf	??_LCD_Char+1
  7096  162E  3097               	movlw	151
  7097  162F  00F0               	movwf	??_LCD_Char
  7098  1630                     u3727:
  7099  1630  0BF0               	decfsz	??_LCD_Char,f
  7100  1631  2E30               	goto	u3727
  7101  1632  0BF1               	decfsz	??_LCD_Char+1,f
  7102  1633  2E30               	goto	u3727
  7103  1634  2E35               	nop2
  7104  1635                     l1823:
  7105                           
  7106                           ;LCD.c: 96:     PORTD = (unsigned char)((PORTD & 0x0f) | (dat<<4));
  7107  1635  0872               	movf	LCD_Char@dat,w
  7108  1636  00F0               	movwf	??_LCD_Char
  7109  1637  3004               	movlw	4
  7110  1638                     u1895:
  7111  1638  1003               	clrc
  7112  1639  0DF0               	rlf	??_LCD_Char,f
  7113  163A  3EFF               	addlw	-1
  7114  163B  1D03               	skipz
  7115  163C  2E38               	goto	u1895
  7116  163D  1283               	bcf	3,5	;RP0=0, select bank0
  7117  163E  1303               	bcf	3,6	;RP1=0, select bank0
  7118  163F  0808               	movf	8,w	;volatile
  7119  1640  390F               	andlw	15
  7120  1641  0470               	iorwf	??_LCD_Char,w
  7121  1642  0088               	movwf	8	;volatile
  7122  1643                     l1825:
  7123                           
  7124                           ;LCD.c: 97:  PORTDbits.RD1 = 1;
  7125  1643  1488               	bsf	8,1	;volatile
  7126  1644                     l1827:
  7127                           
  7128                           ;LCD.c: 98:  __nop();
  7129  1644  0000               	nop
  7130  1645                     l1829:
  7131                           
  7132                           ;LCD.c: 99:  PORTDbits.RD1 = 0;
  7133  1645  1283               	bcf	3,5	;RP0=0, select bank0
  7134  1646  1303               	bcf	3,6	;RP1=0, select bank0
  7135  1647  1088               	bcf	8,1	;volatile
  7136                           
  7137                           ;LCD.c: 100:  _delay((unsigned long)((3)*(8000000/4000.0)));
  7138  1648  3008               	movlw	8
  7139  1649  00F1               	movwf	??_LCD_Char+1
  7140  164A  30C9               	movlw	201
  7141  164B  00F0               	movwf	??_LCD_Char
  7142  164C                     u3737:
  7143  164C  0BF0               	decfsz	??_LCD_Char,f
  7144  164D  2E4C               	goto	u3737
  7145  164E  0BF1               	decfsz	??_LCD_Char+1,f
  7146  164F  2E4C               	goto	u3737
  7147  1650  2E51               	nop2
  7148  1651                     l106:
  7149  1651  0008               	return
  7150  1652                     __end_of_LCD_Char:
  7151                           
  7152                           	psect	text19
  7153  1590                     __ptext19:	
  7154 ;; *************** function _LCD_Init *****************
  7155 ;; Defined at:
  7156 ;;		line 35 in file "LCD.c"
  7157 ;; Parameters:    Size  Location     Type
  7158 ;;		None
  7159 ;; Auto vars:     Size  Location     Type
  7160 ;;		None
  7161 ;; Return value:  Size  Location     Type
  7162 ;;                  1    wreg      void 
  7163 ;; Registers used:
  7164 ;;		wreg, status,2, status,0, pclath, cstack
  7165 ;; Tracked objects:
  7166 ;;		On entry : 0/0
  7167 ;;		On exit  : 0/0
  7168 ;;		Unchanged: 0/0
  7169 ;; Data sizes:     COMMON   BANK0   BANK1   BANK3   BANK2
  7170 ;;      Params:         0       0       0       0       0
  7171 ;;      Locals:         0       0       0       0       0
  7172 ;;      Temps:          2       0       0       0       0
  7173 ;;      Totals:         2       0       0       0       0
  7174 ;;Total ram usage:        2 bytes
  7175 ;; Hardware stack levels used: 1
  7176 ;; Hardware stack levels required when called: 1
  7177 ;; This function calls:
  7178 ;;		_LCD_Command
  7179 ;; This function is called by:
  7180 ;;		_main
  7181 ;; This function uses a non-reentrant model
  7182 ;;
  7183                           
  7184  1590                     _LCD_Init:	
  7185                           ;psect for function _LCD_Init
  7186                           
  7187  1590                     l2347:	
  7188                           ;incstack = 0
  7189                           ; Regs used in _LCD_Init: [wreg+status,2+status,0+pclath+cstack]
  7190                           
  7191                           
  7192                           ;LCD.c: 37:     TRISD = 0;
  7193  1590  1683               	bsf	3,5	;RP0=1, select bank1
  7194  1591  1303               	bcf	3,6	;RP1=0, select bank1
  7195  1592  0188               	clrf	8	;volatile
  7196  1593                     l2349:
  7197                           
  7198                           ;LCD.c: 38:     _delay((unsigned long)((15)*(8000000/4000.0)));
  7199  1593  3027               	movlw	39
  7200  1594  00F4               	movwf	??_LCD_Init+1
  7201  1595  30F5               	movlw	245
  7202  1596  00F3               	movwf	??_LCD_Init
  7203  1597                     u3747:
  7204  1597  0BF3               	decfsz	??_LCD_Init,f
  7205  1598  2D97               	goto	u3747
  7206  1599  0BF4               	decfsz	??_LCD_Init+1,f
  7207  159A  2D97               	goto	u3747
  7208  159B                     l2351:
  7209                           
  7210                           ;LCD.c: 39:     LCD_Command(0x02);
  7211  159B  3002               	movlw	2
  7212  159C  160A  118A  25E6  160A  118A  	fcall	_LCD_Command
  7213  15A1                     l2353:
  7214                           
  7215                           ;LCD.c: 40:     LCD_Command(0x28);
  7216  15A1  3028               	movlw	40
  7217  15A2  160A  118A  25E6  160A  118A  	fcall	_LCD_Command
  7218  15A7                     l2355:
  7219                           
  7220                           ;LCD.c: 41:     LCD_Command(0x01);
  7221  15A7  3001               	movlw	1
  7222  15A8  160A  118A  25E6  160A  118A  	fcall	_LCD_Command
  7223  15AD                     l2357:
  7224                           
  7225                           ;LCD.c: 42:     LCD_Command(0x0c);
  7226  15AD  300C               	movlw	12
  7227  15AE  160A  118A  25E6  160A  118A  	fcall	_LCD_Command
  7228  15B3                     l2359:
  7229                           
  7230                           ;LCD.c: 43:     LCD_Command(0x06);
  7231  15B3  3006               	movlw	6
  7232  15B4  160A  118A  25E6  160A  118A  	fcall	_LCD_Command
  7233  15B9                     l100:
  7234  15B9  0008               	return
  7235  15BA                     __end_of_LCD_Init:
  7236                           
  7237                           	psect	text20
  7238  15E6                     __ptext20:	
  7239 ;; *************** function _LCD_Command *****************
  7240 ;; Defined at:
  7241 ;;		line 59 in file "LCD.c"
  7242 ;; Parameters:    Size  Location     Type
  7243 ;;  cmd             1    wreg     unsigned char 
  7244 ;; Auto vars:     Size  Location     Type
  7245 ;;  cmd             1    2[COMMON] unsigned char 
  7246 ;; Return value:  Size  Location     Type
  7247 ;;                  1    wreg      void 
  7248 ;; Registers used:
  7249 ;;		wreg, status,2, status,0
  7250 ;; Tracked objects:
  7251 ;;		On entry : 0/0
  7252 ;;		On exit  : 0/0
  7253 ;;		Unchanged: 0/0
  7254 ;; Data sizes:     COMMON   BANK0   BANK1   BANK3   BANK2
  7255 ;;      Params:         0       0       0       0       0
  7256 ;;      Locals:         1       0       0       0       0
  7257 ;;      Temps:          2       0       0       0       0
  7258 ;;      Totals:         3       0       0       0       0
  7259 ;;Total ram usage:        3 bytes
  7260 ;; Hardware stack levels used: 1
  7261 ;; This function calls:
  7262 ;;		Nothing
  7263 ;; This function is called by:
  7264 ;;		_LCD_Init
  7265 ;;		_LCD_String_xy
  7266 ;;		_LCD_Clear
  7267 ;; This function uses a non-reentrant model
  7268 ;;
  7269                           
  7270  15E6                     _LCD_Command:	
  7271                           ;psect for function _LCD_Command
  7272                           
  7273                           
  7274                           ;incstack = 0
  7275                           ; Regs used in _LCD_Command: [wreg+status,2+status,0]
  7276                           ;LCD_Command@cmd stored from wreg
  7277  15E6  00F2               	movwf	LCD_Command@cmd
  7278  15E7                     l2185:
  7279                           
  7280                           ;LCD.c: 59: void LCD_Command(unsigned char cmd );LCD.c: 60: {;LCD.c: 61:  PORTD = (PORTD
      +                           & 0x0f) |(0xF0 & cmd);
  7281  15E7  30F0               	movlw	240
  7282  15E8  0572               	andwf	LCD_Command@cmd,w
  7283  15E9  00F0               	movwf	??_LCD_Command
  7284  15EA  1283               	bcf	3,5	;RP0=0, select bank0
  7285  15EB  1303               	bcf	3,6	;RP1=0, select bank0
  7286  15EC  0808               	movf	8,w	;volatile
  7287  15ED  390F               	andlw	15
  7288  15EE  0470               	iorwf	??_LCD_Command,w
  7289  15EF  0088               	movwf	8	;volatile
  7290  15F0                     l2187:
  7291                           
  7292                           ;LCD.c: 62:  PORTDbits.RD0 = 0;
  7293  15F0  1008               	bcf	8,0	;volatile
  7294  15F1                     l2189:
  7295                           
  7296                           ;LCD.c: 63:  PORTDbits.RD1 = 1;
  7297  15F1  1488               	bsf	8,1	;volatile
  7298  15F2                     l2191:
  7299                           
  7300                           ;LCD.c: 64:  __nop();
  7301  15F2  0000               	nop
  7302  15F3                     l2193:
  7303                           
  7304                           ;LCD.c: 65:  PORTDbits.RD1 = 0;
  7305  15F3  1283               	bcf	3,5	;RP0=0, select bank0
  7306  15F4  1303               	bcf	3,6	;RP1=0, select bank0
  7307  15F5  1088               	bcf	8,1	;volatile
  7308  15F6                     l2195:
  7309                           
  7310                           ;LCD.c: 66:  _delay((unsigned long)((1)*(8000000/4000.0)));
  7311  15F6  3003               	movlw	3
  7312  15F7  00F1               	movwf	??_LCD_Command+1
  7313  15F8  3097               	movlw	151
  7314  15F9  00F0               	movwf	??_LCD_Command
  7315  15FA                     u3757:
  7316  15FA  0BF0               	decfsz	??_LCD_Command,f
  7317  15FB  2DFA               	goto	u3757
  7318  15FC  0BF1               	decfsz	??_LCD_Command+1,f
  7319  15FD  2DFA               	goto	u3757
  7320  15FE  2DFF               	nop2
  7321  15FF                     l2197:
  7322                           
  7323                           ;LCD.c: 67:     PORTD = (unsigned char)((PORTD & 0x0f) | (cmd<<4));
  7324  15FF  0872               	movf	LCD_Command@cmd,w
  7325  1600  00F0               	movwf	??_LCD_Command
  7326  1601  3004               	movlw	4
  7327  1602                     u2775:
  7328  1602  1003               	clrc
  7329  1603  0DF0               	rlf	??_LCD_Command,f
  7330  1604  3EFF               	addlw	-1
  7331  1605  1D03               	skipz
  7332  1606  2E02               	goto	u2775
  7333  1607  1283               	bcf	3,5	;RP0=0, select bank0
  7334  1608  1303               	bcf	3,6	;RP1=0, select bank0
  7335  1609  0808               	movf	8,w	;volatile
  7336  160A  390F               	andlw	15
  7337  160B  0470               	iorwf	??_LCD_Command,w
  7338  160C  0088               	movwf	8	;volatile
  7339  160D                     l2199:
  7340                           
  7341                           ;LCD.c: 68:  PORTDbits.RD1 = 1;
  7342  160D  1488               	bsf	8,1	;volatile
  7343  160E                     l2201:
  7344                           
  7345                           ;LCD.c: 69:  __nop();
  7346  160E  0000               	nop
  7347  160F                     l2203:
  7348                           
  7349                           ;LCD.c: 70:  PORTDbits.RD1 = 0;
  7350  160F  1283               	bcf	3,5	;RP0=0, select bank0
  7351  1610  1303               	bcf	3,6	;RP1=0, select bank0
  7352  1611  1088               	bcf	8,1	;volatile
  7353                           
  7354                           ;LCD.c: 71:  _delay((unsigned long)((3)*(8000000/4000.0)));
  7355  1612  3008               	movlw	8
  7356  1613  00F1               	movwf	??_LCD_Command+1
  7357  1614  30C9               	movlw	201
  7358  1615  00F0               	movwf	??_LCD_Command
  7359  1616                     u3767:
  7360  1616  0BF0               	decfsz	??_LCD_Command,f
  7361  1617  2E16               	goto	u3767
  7362  1618  0BF1               	decfsz	??_LCD_Command+1,f
  7363  1619  2E16               	goto	u3767
  7364  161A  2E1B               	nop2
  7365  161B                     l103:
  7366  161B  0008               	return
  7367  161C                     __end_of_LCD_Command:
  7368  007E                     btemp	set	126	;btemp
  7369  007E                     wtemp0	set	126
  7370                           
  7371                           	psect	idloc
  7372                           
  7373                           ;Config register IDLOC0 @ 0x2000
  7374                           ;	unspecified, using default values
  7375  2000                     	org	8192
  7376  2000  3FFF               	dw	16383
  7377                           
  7378                           ;Config register IDLOC1 @ 0x2001
  7379                           ;	unspecified, using default values
  7380  2001                     	org	8193
  7381  2001  3FFF               	dw	16383
  7382                           
  7383                           ;Config register IDLOC2 @ 0x2002
  7384                           ;	unspecified, using default values
  7385  2002                     	org	8194
  7386  2002  3FFF               	dw	16383
  7387                           
  7388                           ;Config register IDLOC3 @ 0x2003
  7389                           ;	unspecified, using default values
  7390  2003                     	org	8195
  7391  2003  3FFF               	dw	16383
  7392                           
  7393                           	psect	config
  7394                           
  7395                           ;Config register CONFIG1 @ 0x2007
  7396                           ;	Oscillator Selection bits
  7397                           ;	FOSC = INTRC_CLKOUT, INTOSC oscillator: CLKOUT function on RA6/OSC2/CLKOUT pin, I/O fu
      +                          nction on RA7/OSC1/CLKIN
  7398                           ;	Watchdog Timer Enable bit
  7399                           ;	WDTE = OFF, WDT disabled and can be enabled by SWDTEN bit of the WDTCON register
  7400                           ;	Power-up Timer Enable bit
  7401                           ;	PWRTE = OFF, PWRT disabled
  7402                           ;	RE3/MCLR pin function select bit
  7403                           ;	MCLRE = OFF, RE3/MCLR pin function is digital input, MCLR internally tied to VDD
  7404                           ;	Code Protection bit
  7405                           ;	CP = OFF, Program memory code protection is disabled
  7406                           ;	Data Code Protection bit
  7407                           ;	CPD = OFF, Data memory code protection is disabled
  7408                           ;	Brown Out Reset Selection bits
  7409                           ;	BOREN = OFF, BOR disabled
  7410                           ;	Internal External Switchover bit
  7411                           ;	IESO = OFF, Internal/External Switchover mode is disabled
  7412                           ;	Fail-Safe Clock Monitor Enabled bit
  7413                           ;	FCMEN = OFF, Fail-Safe Clock Monitor is disabled
  7414                           ;	Low Voltage Programming Enable bit
  7415                           ;	LVP = OFF, RB3 pin has digital I/O, HV on MCLR must be used for programming
  7416                           ;	In-Circuit Debugger Mode bit
  7417                           ;	DEBUG = 0x1, unprogrammed default
  7418  2007                     	org	8199
  7419  2007  20D5               	dw	8405
  7420                           
  7421                           ;Config register CONFIG2 @ 0x2008
  7422                           ;	Brown-out Reset Selection bit
  7423                           ;	BOR4V = BOR40V, Brown-out Reset set to 4.0V
  7424                           ;	Flash Program Memory Self Write Enable bits
  7425                           ;	WRT = OFF, Write protection off
  7426  2008                     	org	8200
  7427  2008  3FFF               	dw	16383

Data Sizes:
    Strings     65
    Constant    46
    Data        0
    BSS         10
    Persistent  0
    Stack       0

Auto Spaces:
    Space          Size  Autos    Used
    COMMON           14     14      14
    BANK0            80     79      80
    BANK1            80     66      75
    BANK3            96      0       0
    BANK2            96      0       0

Pointer List with Targets:

    frexp@eptr	PTR int  size(1) Largest target is 2
		 -> log@exponent(BANK1[2]), 

    eval_poly@d	PTR const  size(1) Largest target is 36
		 -> log@coeff(CODE[36]), 

    sprintf@f	PTR const unsigned char  size(1) Largest target is 6
		 -> STR_1(CODE[6]), 

    sprintf@sp	PTR unsigned char  size(1) Largest target is 10
		 -> main@Temperature(BANK1[10]), 

    sprintf@ap	PTR void [1] size(1) Largest target is 2
		 -> ?_sprintf(BANK1[2]), 

    LCD_String_xy@msg	PTR const unsigned char  size(1) Largest target is 15
		 -> STR_6(CODE[14]), STR_5(CODE[14]), STR_4(CODE[15]), STR_2(CODE[13]), 

    LCD_String@msg	PTR const unsigned char  size(2) Largest target is 15
		 -> STR_6(CODE[14]), STR_5(CODE[14]), STR_4(CODE[15]), STR_3(CODE[3]), 
		 -> STR_2(CODE[13]), main@Temperature(BANK1[10]), 


Critical Paths under _main in COMMON

    _main->___xxtofl
    _sprintf->___lwmod
    ___lwmod->___lwdiv
    _log->___xxtofl
    _log->_frexp
    _frexp->___fleq
    ___flmul->___xxtofl
    ___flmul->_frexp
    ___fladd->___xxtofl
    ___fladd->_frexp
    ___fldiv->___xxtofl
    ___fldiv->_frexp
    _LCD_String_xy->_LCD_String
    _LCD_String->_LCD_Char
    _LCD_Init->_LCD_Command

Critical Paths under _main in BANK0

    _main->___fltol
    _sprintf->___fltol
    _log->___fladd
    _eval_poly->___fladd
    ___flmul->_frexp
    ___flsub->___fladd
    ___fladd->___fldiv
    ___fldiv->___flmul

Critical Paths under _main in BANK1

    _main->_sprintf
    _sprintf->___fltol
    _log->_eval_poly
    ___fltol->___flsub

Critical Paths under _main in BANK3

    None.

Critical Paths under _main in BANK2

    None.

Call Graph Tables:

 ---------------------------------------------------------------------------------
 (Depth) Function   	        Calls       Base Space   Used Autos Params    Refs
 ---------------------------------------------------------------------------------
 (0) _main                                                34    34      0   27755
                                             32 BANK1     34    34      0
                           _LCD_Init
                         _LCD_String
                      _LCD_String_xy
                            ___fladd
                            ___fldiv
                             ___flge
                            ___flsub
                            ___fltol
                           ___xxtofl
                                _log
                            _sprintf
 ---------------------------------------------------------------------------------
 (1) _sprintf                                             23    18      5    1280
                                             17 BANK1     15    10      5
                            ___fltol (ARG)
                            ___lwdiv
                            ___lwmod
 ---------------------------------------------------------------------------------
 (2) ___lwmod                                              6     2      4     311
                                              8 COMMON     6     2      4
                            ___lwdiv (ARG)
 ---------------------------------------------------------------------------------
 (2) ___lwdiv                                              8     4      4     314
                                              0 COMMON     8     4      4
 ---------------------------------------------------------------------------------
 (1) _log                                                  7     3      4   15230
                                             77 BANK0      1     1      0
                                             16 BANK1      6     2      4
                            ___fladd
                            ___fldiv (ARG)
                             ___fleq
                             ___flge
                            ___flmul
                           ___xxtofl
                          _eval_poly
                              _frexp
 ---------------------------------------------------------------------------------
 (2) _frexp                                                7     2      5     896
                                             12 COMMON     2     2      0
                                              0 BANK0      5     0      5
                             ___fleq
 ---------------------------------------------------------------------------------
 (3) ___fleq                                              12     4      8     520
                                              0 COMMON    12     4      8
 ---------------------------------------------------------------------------------
 (2) _eval_poly                                           16     9      7    6301
                                              0 BANK1     16     9      7
                            ___fladd
                            ___fldiv (ARG)
                            ___flmul
 ---------------------------------------------------------------------------------
 (3) ___flmul                                             26    18      8    2847
                                              5 BANK0     26    18      8
                          __Umul8_16
                           ___xxtofl (ARG)
                              _frexp (ARG)
 ---------------------------------------------------------------------------------
 (4) __Umul8_16                                            9     7      2     799
                                              0 COMMON     9     7      2
 ---------------------------------------------------------------------------------
 (2) ___xxtofl                                            14    10      4     550
                                              0 COMMON    14    10      4
 ---------------------------------------------------------------------------------
 (2) ___flge                                              12     4      8     764
                                              0 COMMON    12     4      8
 ---------------------------------------------------------------------------------
 (1) ___fltol                                             11     7      4     381
                                             77 BANK0      2     2      0
                                              8 BANK1      9     5      4
                            ___flsub (ARG)
 ---------------------------------------------------------------------------------
 (1) ___flsub                                              8     0      8    3245
                                              0 BANK1      8     0      8
                            ___fladd
 ---------------------------------------------------------------------------------
 (3) ___fladd                                             20    12      8    3048
                                             57 BANK0     20    12      8
                            ___fldiv (ARG)
                            ___flmul (ARG)
                           ___xxtofl (ARG)
                              _frexp (ARG)
 ---------------------------------------------------------------------------------
 (1) ___fldiv                                             26    18      8    1577
                                             31 BANK0     26    18      8
                          __Umul8_16 (ARG)
                             ___fleq (ARG)
                             ___flge (ARG)
                            ___flmul (ARG)
                           ___xxtofl (ARG)
                              _frexp (ARG)
 ---------------------------------------------------------------------------------
 (1) _LCD_String_xy                                        5     3      2    1104
                                              5 COMMON     5     3      2
                        _LCD_Command
                         _LCD_String
 ---------------------------------------------------------------------------------
 (2) _LCD_String                                           2     0      2     317
                                              3 COMMON     2     0      2
                           _LCD_Char
 ---------------------------------------------------------------------------------
 (3) _LCD_Char                                             3     3      0      44
                                              0 COMMON     3     3      0
 ---------------------------------------------------------------------------------
 (1) _LCD_Init                                             2     2      0      44
                                              3 COMMON     2     2      0
                        _LCD_Command
 ---------------------------------------------------------------------------------
 (2) _LCD_Command                                          3     3      0      44
                                              0 COMMON     3     3      0
 ---------------------------------------------------------------------------------
 Estimated maximum stack depth 4
 ---------------------------------------------------------------------------------

 Call Graph Graphs:

 _main (ROOT)
   _LCD_Init
     _LCD_Command
   _LCD_String
     _LCD_Char
   _LCD_String_xy
     _LCD_Command
     _LCD_String
   ___fladd
     ___fldiv (ARG)
       __Umul8_16 (ARG)
       ___fleq (ARG)
       ___flge (ARG)
       ___flmul (ARG)
         __Umul8_16
         ___xxtofl (ARG)
         _frexp (ARG)
           ___fleq
       ___xxtofl (ARG)
       _frexp (ARG)
     ___flmul (ARG)
     ___xxtofl (ARG)
     _frexp (ARG)
   ___fldiv
   ___flge
   ___flsub
     ___fladd
   ___fltol
     ___flsub (ARG)
   ___xxtofl
   _log
     ___fladd
     ___fldiv (ARG)
     ___fleq (ARG)
     ___flge (ARG)
     ___flmul (ARG)
     ___xxtofl (ARG)
     _eval_poly (ARG)
       ___fladd
       ___fldiv (ARG)
       ___flmul (ARG)
     _frexp (ARG)
   _sprintf
     ___fltol (ARG)
     ___lwdiv (ARG)
     ___lwmod (ARG)
       ___lwdiv (ARG)

 Address spaces:
Name               Size   Autos  Total    Cost      Usage
BITCOMMON            E      0       0       0        0.0%
EEDATA             100      0       0       0        0.0%
NULL                 0      0       0       0        0.0%
CODE                 0      0       0       0        0.0%
COMMON               E      E       E       1      100.0%
BITSFR0              0      0       0       1        0.0%
SFR0                 0      0       0       1        0.0%
BITSFR1              0      0       0       2        0.0%
SFR1                 0      0       0       2        0.0%
STACK                0      0       0       2        0.0%
ABS                  0      0      A9       3        0.0%
BITBANK0            50      0       0       4        0.0%
BITSFR3              0      0       0       4        0.0%
SFR3                 0      0       0       4        0.0%
BANK0               50     4F      50       5      100.0%
BITSFR2              0      0       0       5        0.0%
SFR2                 0      0       0       5        0.0%
BITBANK1            50      0       0       6        0.0%
BANK1               50     42      4B       7       93.8%
BITBANK3            60      0       0       8        0.0%
BANK3               60      0       0       9        0.0%
BITBANK2            60      0       0      10        0.0%
BANK2               60      0       0      11        0.0%
DATA                 0      0      A9      12        0.0%


Microchip Technology PIC Macro Assembler V2.36 build 20220127204148 
Symbol Table                                                                                   Wed Aug 10 19:06:28 2022

           ___fldiv@aexp 0058             ___fldiv@bexp 0057                        pc 0002  
           ___fldiv@sign 0050             ?_LCD_Command 0070                       l70 0229  
                     l71 0239                       l72 022F                       l74 0236  
                     l76 023A                       fsr 0004              ?_LCD_String 0073  
    __Umul8_16@word_mpld 0076                      l100 15B9                      l103 161B  
                    l112 1568                      l106 1651                      l117 15E5  
                    l231 0B9A                      l412 08EA                      l404 16EC  
                    l421 17FF                      l413 0903                      l405 1708  
                    l406 171D                      l431 17FF                      l600 0CE9  
                    l409 087E                      l507 16CF                      l532 0E82  
                    l428 17E8                      l541 0FFF                      l517 168B  
                    l606 0D5B                      l534 0E59                      l630 0759  
                    l608 0D6B                      l528 0DDB                      l624 07ED  
                    l553 0F71                      l713 0861                      l570 0FF3  
                    l562 0FD1                      l571 0FFF                      l643 157D  
                    l707 0A97                      l636 07E1                      l549 0F4D  
                    l645 158F                      l574 176D                      l670 09BD  
                    l559 0F93                      l584 0BF7                      l681 0987  
                    l586 0D77                      l682 0993                      l674 096B  
                    l668 0926                      l695 01DC                      _log 0091  
                    fsr0 0004                      indf 0000             ___flmul@aexp 0037  
           ___flmul@bexp 0038             ___flmul@sign 0032             ___flmul@temp 003D  
           ___flmul@prod 0039              LCD_Char@dat 0072             ___fltol@exp1 006E  
                   l2001 0F86                     l2011 0F9D                     l2003 0F8A  
                   l2021 0FDB                     l2013 0FAB                     l2005 0F90  
                   l2101 05EA                     l2031 0FEF                     l2023 0FE3  
                   l2015 0FAF                     l2111 067A                     l2103 05FA  
                   l2201 160E                     l2033 0FFA                     l2025 0FE8  
                   l2017 0FCD                     l2009 0F98                     l2121 070E  
                   l2113 068A                     l2105 0617                     l2041 049A  
                   l2203 160F                     l2035 0FFE                     l2027 0FE9  
                   l2019 0FD6                     l2211 089A                     l2131 0733  
                   l2123 071C                     l2115 06B7                     l2107 0630  
                   l2051 04B1                     l2043 049E                     l2029 0FED  
                   l2221 0902                     l2213 089E                     l2205 0862  
                   l2301 0981                     l2141 0756                     l2125 0725  
                   l2133 0739                     l2117 06DD                     l2109 064D  
                   l2061 04CA                     l2053 04B3                     l2045 049F  
                   l2037 048D                     l2215 08C2                     l2207 0876  
                   l2311 09B4                     l2303 098B                     l2151 0775  
                   l2135 073D                     l2127 0729                     l2119 0705  
                   l2071 04DF                     l2063 04CB                     l2055 04BB  
                   l2047 04A4                     l2039 0494                     l2231 1697  
                   l2217 08C6                     l2209 0892                     l2313 09B5  
                   l2305 0995                     l2161 07BB                     l2153 078E  
                   l2145 075E                     l2137 073E                     l2129 072A  
                   l2081 04FA                     l2073 04E7                     l2065 04D0  
                   l2057 04C0                     l2049 04A9                     l2321 0829  
                   l2241 16BD                     l2233 169E                     l2225 168C  
                   l2401 0ACB                     l2219 0900                     l2307 09AB  
                   l2171 07DA                     l2163 07C5                     l2147 0763  
                   l2155 0794                     l2139 0742                     l2091 057C  
                   l2083 050A                     l2075 04EC                     l2067 04D5  
                   l2059 04C6                     l2331 0860                     l2243 16BE  
                   l2235 16A2                     l2227 168E                     l2251 1652  
                   l2411 0AFF                     l2403 0AEB                     l2181 1552  
                   l2501 171E                     l2309 09B0                     l2173 07E5  
                   l2165 07C7                     l2157 07A1                     l2149 0771  
                   l2093 0598                     l2085 0517                     l2077 04F1  
                   l2069 04DD                     l2341 0A89                     l2333 0861  
                   l2325 0832                     l2317 0806                     l2245 16C5  
                   l2237 16A6                     l2229 1694                     l2261 166A  
                   l2253 1658                     l2413 0B04                     l2405 0AF3  
                   l2191 15F2                     l2351 159B                     l2183 1558  
                   l2511 0BA8                     l2503 1722                     l2167 07D5  
                   l2159 07AC                     l2095 05B4                     l2087 0534  
                   l2343 0A8F                     l2327 084F                     l2319 0821  
                   l2239 16B7                     l2247 16CB                     l2263 1674  
                   l2255 165B                     l2431 0B3D                     l2423 0B22  
                   l2407 0AF7                     l2193 15F3                     l2185 15E7  
                   l2353 15A1                     l2177 1543                     l2601 0CBA  
                   l2521 0BBF                     l2513 0BAC                     l2281 092E  
                   l2273 0905                     l1801 1573                     l2169 07D9  
                   l2097 05BD                     l2089 0550                     l2337 09BE  
                   l2329 085C                     l2361 0091                     l2265 167A  
                   l2257 1662                     l2433 0B42                     l2425 0B2C  
                   l2409 0AFB                     l2441 0B84                     l2195 15F6  
                   l2187 15F0                     l2355 15A7                     l2347 1590  
                   l1811 161D                     l2179 1544                     l2451 15BB  
                   l2611 0CD2                     l2603 0CC3                     l2531 0BD5  
                   l2523 0BC0                     l2515 0BAD                     l2507 0B9B  
                   l2291 0950                     l2275 090A                     l1803 1577  
                   l2099 05CD                     l2339 09ED                     l2363 00AC  
                   l2267 1681                     l2259 1666                     l2435 0B70  
                   l2427 0B32                     l2419 0B06                     l2443 0B96  
                   l2197 15FF                     l2189 15F1                     l2357 15AD  
                   l2349 1593                     l1821 162C                     l1813 1626  
                   l2461 15D4                     l2453 15BB                     l2621 0D01  
                   l2613 0CE6                     l2605 0CC9                     l2541 0BEC  
                   l2533 0BD9                     l2517 0BB2                     l2525 0BC2  
                   l2509 0BA2                     l1901 0DFD                     l2293 0954  
                   l2285 0937                     l2277 090E                     l1805 1586  
                   l2373 00E5                     l2269 1687                     l2437 0B77  
                   l2429 0B39                     l2701 0216                     l2199 160D  
                   l2359 15B3                     l1823 1635                     l1815 1627  
                   l2463 15DA                     l2455 15C1                     l2631 0D3F  
                   l2623 0D05                     l2607 0CCD                     l2551 0C0F  
                   l2543 0BED                     l2535 0BDA                     l2527 0BCA  
                   l2519 0BB7                     l1911 0E11                     l1903 0E01  
                   l2471 1788                     l2295 0962                     l2287 093C  
                   l2279 091E                     l1807 158B                     l1831 16D0  
                   l2375 014E                     l2367 00BB                     l2439 0B7B  
                   l2391 0AB2                     l2383 0A9B                     l2711 0226  
                   l2703 0217                     l1825 1643                     l1817 1628  
                   l2457 15C7                     l2641 0D65                     l2633 0D4E  
                   l2625 0D1E                     l2617 0CEE                     l2609 0CCE  
                   l2561 0C26                     l2537 0BDF                     l2545 0BEF  
                   l2529 0BCF                     l1913 0E15                     l1905 0E05  
                   l1921 0E25                     l2481 17B4                     l2473 17A1  
                   l2465 176E                     l2297 0972                     l2289 0949  
                   l1833 16E4                     l2377 0154                     l2369 00D6  
                   l2393 0AB4                     l2385 0AA0                     l2721 025A  
                   l2713 022D                     l2705 021A                     l1827 1644  
                   l1819 1629                     l2459 15CE                     l2643 0D67  
                   l2635 0D52                     l2619 0CF3                     l2627 0D24  
                   l2571 0C52                     l2563 0C38                     l2547 0BFF  
                   l2555 0C18                     l2539 0BE4                     l1931 0E68  
                   l1923 0E26                     l1915 0E19                     l1907 0E09  
                   l1851 0D8A                     l1843 0D78                     l2475 17A4  
                   l2467 177D                     l2299 097D                     l1835 1700  
                   l2379 0177                     l2395 0ABB                     l2387 0AA6  
                   l2731 039D                     l2723 0273                     l2715 0233  
                   l2707 021B                     l2651 01E1                     l1829 1645  
                   l2637 0D5A                     l2629 0D31                     l2573 0C57  
                   l2581 0C77                     l2565 0C40                     l2557 0C1D  
                   l2549 0C0B                     l1941 0E86                     l1933 0E6C  
                   l1925 0E3D                     l1917 0E1D                     l1909 0E0D  
                   l1853 0D8F                     l1861 0D9F                     l1845 0D7F  
                   l2477 17AC                     l1837 171A                     l2397 0ABF  
                   l2389 0AAD                     l2741 041C                     l2733 03DC  
                   l2725 02A1                     l2717 023E                     l2709 0220  
                   l2661 01F2                     l2653 01E4                     l2639 0D61  
                   l2591 0CA2                     l2583 0C89                     l2575 0C69  
                   l2567 0C48                     l1951 0EAF                     l1943 0E8B  
                   l1935 0E6D                     l1927 0E5D                     l1919 0E21  
                   l1871 0DB9                     l1863 0DA7                     l1855 0D94  
                   l1847 0D85                     l2495 17D9                     l2487 17BC  
                   l2479 17B0                     l1839 171C                     l2751 047B  
                   l2743 0437                     l2735 03FD                     l2727 02F9  
                   l2719 0247                     l2671 01F7                     l2663 01F3  
                   l2655 01E7                     l2593 0CAA                     l2585 0C8A  
                   l2577 0C6D                     l2569 0C50                     l1961 0EC3  
                   l1953 0EB3                     l1937 0E76                     l1929 0E66  
                   l1881 0DD0                     l1873 0DBD                     l1865 0DAC  
                   l1857 0D9C                     l1849 0D89                     l2497 17ED  
                   l2489 17D2                     l2745 0445                     l2737 040A  
                   l2729 0347                     l2681 0204                     l2673 01F8  
                   l2665 01F4                     l2657 01E8                     l2649 01DD  
                   l2595 0CAC                     l2587 0C98                     l2579 0C6E  
                   l1971 0F2B                     l1963 0ECC                     l1955 0EBC  
                   l1947 0E94                     l1939 0E7A                     l1891 0DE9  
                   l1883 0DD1                     l1875 0DBE                     l1867 0DB2  
                   l1859 0D9D                     l2499 17F2                     l2747 0460  
                   l2739 0413                     l2691 020B                     l2683 0205  
                   l2675 01FC                     l2667 01F5                     l2659 01EF  
                   l2597 0CB5                     l2589 0C9C                     l1973 0F30  
                   l1957 0EBE                     l1949 0EAB                     l1965 0ED1  
                   l1893 0DED                     l1877 0DC3                     l1885 0DD3  
                   l1869 0DB3                     l1797 156A                     l2749 046E  
                   l2693 020E                     l2685 0206                     l2677 0200  
                   l2669 01F6                     l2599 0CB9                     l1991 0F78  
                   l1983 0F63                     l1967 0EE7                     l1975 0F3F  
                   l1959 0EC2                     l1895 0DF1                     l1887 0DE1  
                   l1879 0DC8                     l1799 156C                     l2695 020F  
                   l2687 0209                     l2679 0201                     l1993 0F7A  
                   l1985 0F6C                     l1977 0F55                     l1969 0F25  
                   l1897 0DF5                     l1889 0DE5                     l2777 0ADD  
                   l2697 0212                     l2689 020A                     l1995 0F7F  
                   l1987 0F70                     l1979 0F5A                     l1899 0DF9  
                   l2699 0213                     l1989 0F75                     l1997 0F81  
                   l1999 0F85                     ?_log 00B0                     STR_1 0079  
                   STR_2 006C                     STR_3 007F                     STR_4 0041  
                   STR_5 005E                     STR_6 0050                     u2000 0DE1  
                   u2001 0DE0                     u2010 0DE5                     u2011 0DE4  
                   u2100 0E8B                     u2020 0E3D                     u2101 0E8A  
                   u2021 0E3C                     u2030 0E48                     u2111 0E9D  
                   u2031 0E46                     u2200 0F55                     u2120 0EAF  
                   u2112 0EA4                     u2040 0E49                     u3000 092E  
                   u2201 0F54                     u2121 0EAE                     u2113 0EAB  
                   u2025 0E39                     u3001 092D                     u2210 0F5A  
                   u2130 0EB3                     u2050 0E5D                     u2211 0F59  
                   u2131 0EB2                     u2051 0E5C                     u2300 0F9D  
                   u2140 0EC2                     u2060 0E6C                     u3100 09B0  
                   u3020 094F                     u2301 0F9C                     u2141 0EC1  
                   u2061 0E6B                     u3101 09AF                     u3021 094E  
                   u2310 0FAF                     u2230 0F70                     u3110 09B4  
                   u2311 0FAE                     u2231 0F6F                     u3111 09B3  
                   u3015 0941                     u2320 0FBE                     u2240 0F75  
                   u2160 0EE7                     u2080 0E82                     u3040 0971  
                   u2400 04A4                     u3120 0821                     u3200 0B21  
                   u2241 0F74                     u2225 0F65                     u2161 0EE6  
                   u2081 0E81                     u3041 0970                     u2401 04A3  
                   u3121 0820                     u3201 0B20                     u2330 0FCD  
                   u2250 0F7F                     u2090 0E86                     u2410 04A9  
                   u3210 0B2C                     u2331 0FCC                     u2251 0F7E  
                   u2171 0EFE                     u2163 0EE3                     u2155 0EC5  
                   u2091 0E85                     u2075 0E6F                     u3035 0963  
                   u2411 04A8                     u3211 0B2B                     u2340 0FD6  
                   u2260 0F85                     u2180 0F12                     u2172 0EFF  
                   u3060 0981                     u2420 04CA                     u3220 0B32  
                   u2341 0FD5                     u2325 0FB9                     u2261 0F84  
                   u2181 0F13                     u2173 0F04                     u3061 0980  
                   u2501 05A6                     u2421 04C9                     u3221 0B31  
                   u3205 0B1D                     u2350 0FDB                     u2270 0F8A  
                   u2190 0F30                     u2182 0F18                     u2174 0F05  
                   u3310 17D1                     u3070 0987                     u2502 05AD  
                   u2430 04D0                     u3150 0A8F                     u3230 0B84  
                   u2351 0FDA                     u2271 0F89                     u2191 0F2F  
                   u2183 0F19                     u2175 0F0A                     u3311 17D0  
                   u3071 0986                     u3055 0976                     u2503 05B4  
                   u2431 04CF                     u3151 0A8E                     u3135 09C3  
                   u3231 0B83                     u3400 0BDF                     u2360 0FE8  
                   u2280 0F90                     u2176 0F0B                     u3320 17D8  
                   u3080 098B                     u2600 06EB                     u2440 04D5  
                   u3160 00AC                     u3240 0B96                     u3401 0BDE  
                   u2361 0FE7                     u2281 0F8F                     u3321 17D7  
                   u3305 17BD                     u3081 098A                     u2521 05DC  
                   u2441 04D4                     u3145 09F6                     u3161 00AB  
                   u3241 0B95                     u3250 15C1                     u3410 0BE4  
                   u2370 0FED                     u2290 0F97                     u3090 09A0  
                   u2522 05E3                     u2450 04EC                     u3170 00D6  
                   u3251 15C0                     u3411 0BE3                     u2371 0FEC  
                   u2291 0F96                     u2611 06F7                     u2531 0609  
                   u2523 05EA                     u2515 05B6                     u2451 04EB  
                   u3171 00D5                     u3500 0CA2                     u3420 0BFF  
                   u2380 0FFE                     u3340 17ED                     u3260 177D  
                   u2700 0763                     u2612 06FE                     u2532 0610  
                   u2460 04F1                     u1900 16E4                     u3180 0AA6  
                   u3501 0CA1                     u3421 0BFE                     u2381 0FFD  
                   u3341 17EC                     u3261 177C                     u2701 0762  
                   u2613 0705                     u2605 06E6                     u2533 0617  
                   u2461 04F0                     u1901 16E3                     u3181 0AA5  
                   u3510 0CAA                     u3430 0C1D                     u3350 17F2  
                   u3270 1798                     u2710 0775                     u2390 049E  
                   u1910 1700                     u3190 0AFB                     u3511 0CA9  
                   u3431 0C1C                     u3351 17F1                     u3335 17DD  
                   u3095 099B                     u2711 0774                     u2551 063F  
                   u2471 0542                     u2391 049D                     u1911 16FF  
                   u3191 0AFA                     u3600 0D05                     u3440 0C57  
                   u3360 0BAC                     u3280 17B4                     u2800 089E  
                   u2720 0784                     u2640 0729                     u2552 0646  
                   u2472 0549                     u1920 171A                     u3601 0D04  
                   u3441 0C56                     u3361 0BAB                     u3281 17B3  
                   u2801 089D                     u2641 0728                     u2625 0707  
                   u2561 066C                     u2553 064D                     u2545 0619  
                   u2481 055E                     u2473 0550                     u1921 1719  
                   u3610 0D14                     u3530 0CB9                     u3370 0BB2  
                   u1930 0D89                     u3290 17BB                     u2730 07A1  
                   u2562 0673                     u2482 0565                     u3531 0CB8  
                   u3371 0BB1                     u1931 0D88                     u3291 17BA  
                   u3275 1793                     u2811 08AD                     u2731 07A0  
                   u2635 071E                     u2571 0699                     u2563 067A  
                   u2491 058A                     u2483 056C                     u3620 0D31  
                   u3380 0BB7                     u1940 0D8F                     u2820 08C6  
                   u2812 08AE                     u1860 1577                     u2740 07BB  
                   u2660 073D                     u2580 06C3                     u2572 06A0  
                   u2492 0591                     u3700 0460                     u3621 0D30  
                   u3525 0CAE                     u3381 0BB6                     u1941 0D8E  
                   u2821 08C5                     u2813 08B3                     u1861 1576  
                   u2741 07BA                     u2725 077F                     u2661 073C  
                   u2573 06A7                     u2493 0598                     u1925 1716  
                   u3701 045F                     u3630 0D4E                     u3550 0CCD  
                   u3470 0C6D                     u3390 0BD9                     u1950 0D94  
                   u2814 08B4                     u2750 07D9                     u2670 0742  
                   u2910 16CB                     u3631 0D4D                     u3615 0D0F  
                   u3551 0CCC                     u3471 0C6C                     u3455 0C59  
                   u3391 0BD8                     u1951 0D93                     u2831 08D5  
                   u2815 08B9                     u2751 07D8                     u2735 079D  
                   u2671 0741                     u2655 072C                     u2591 06CF  
                   u2911 16CA                     u2760 1568                     u3640 0D65  
                   u3560 0CD2                     u1960 0DB2                     u2840 0900  
                   u2832 08D6                     u2816 08BA                     u1880 158B  
                   u2680 0756                     u2592 06D6                     u2920 1658  
                   u2761 1567                     u3641 0D64                     u3625 0D2D  
                   u3561 0CD1                     u3545 0CBC                     u3465 0C62  
                   u1961 0DB1                     u2841 08FF                     u2833 08DB  
                   u1881 158A                     u2745 07B7                     u2681 0755  
                   u2593 06DD                     u2585 06BE                     u2905 16BF  
                   u2921 1657                     u3570 0CE6                     u3490 0C89  
                   u1970 0DBD                     u2834 08DC                     u2690 075D  
                   u2850 1694                     u3650 0226                     u3635 0D4A  
                   u3571 0CE5                     u3491 0C88                     u1971 0DBC  
                   u2835 08E1                     u1875 157E                     u2691 075C  
                   u2851 1693                     u3651 0225                     u3580 0CED  
                   u1980 0DC3                     u2836 08E2                     u2780 0876  
                   u2940 166A                     u3660 022D                     u3581 0CEC  
                   u3485 0C70                     u1981 0DC2                     u2845 08FC  
                   u2781 0875                     u2941 1669                     u3717 0483  
                   u3661 022C                     u3590 0CF3                     u1990 0DC8  
                   u2790 0892                     u2870 16A6                     u2950 1674  
                   u3670 0233                     u2775 1602                     u1895 1638  
                   u3727 1630                     u3591 0CF2                     u3495 0C85  
                   u1991 0DC7                     u2791 0891                     u2871 16A5  
                   u2951 1673                     u2935 165C                     u3671 0232  
                   u3680 023E                     u3737 164C                     u2865 1698  
                   u3681 023D                     u2890 16B7                     u2970 1687  
                   u3690 0437                     u3747 1597                     u2891 16B6  
                   u2971 1686                     u2955 1670                     u3691 0436  
                   u2980 090A                     u3757 15FA                     u2981 0909  
                   u2885 16A7                     u2965 167B                     u2990 090E  
                   u3767 1616                     u2991 090D                     u2895 16B3  
                   _lm35 00EA                     _main 01DD                     _temp 00E2  
                   btemp 007E                     log@x 00B0                     start 0000  
        ___fldiv@new_exp 0051            _LCD_String_xy 15BA                    ??_log 006D  
       __end_of_LCD_Char 1652         __end_of_LCD_Init 15BA            ___fltol@sign1 006D  
        __end_of___fladd 1000                    ?_main 0070          __end_of___fldiv 0D78  
        __end_of___flmul 07EE          __end_of___flsub 176E          __end_of___fltol 1800  
                  _ANSEL 0188          __end_of___lwdiv 16D0          __end_of___lwmod 168C  
                  _PORTA 0005                    _PORTD 0008                    _TRISA 0085  
                  _TRISC 0087                    _TRISD 0088          __end_of_dpowers 001D  
                  _frexp 0806                    _errno 00E6                    main@a 00CE  
                  pclath 000A                    status 0003                    wtemp0 007E  
        __end_of_sprintf 0B9B           ?_LCD_String_xy 0075          __initialization 07EE  
            log@exponent 00B4             __end_of_main 048D                   ??_main 00C0  
                 ?_frexp 0020                   _ADRESH 001E                   _ADRESL 009E  
                 _ANSELH 0189         LCD_String_xy@msg 0076         LCD_String_xy@pos 0075  
       LCD_String_xy@row 0078                   _OSCCON 008F                   _TRISA0 0428  
                 _TRISA1 0429                   _TRISA2 042A                   _TRISA3 042B  
                 _TRISC0 0438                   _TRISC1 0439                   _TRISC2 043A  
                 _TRISC3 043B                   _TRISC4 043C                   _TRISC5 043D  
                 _TRISC6 043E         __end_of___xxtofl 09BE                   ___flge 0862  
                 ___fleq 16D0                ??___fladd 0061                ??___fldiv 0047  
              ??___flmul 002D                ??___flsub 007E                ??___fltol 00AC  
              ??___lwdiv 0074                ??___lwmod 007C                ??_sprintf 00B6  
             ___flge@ff1 0070               ___flge@ff2 0074             ___xxtofl@arg 007A  
           ___xxtofl@exp 0079             ___xxtofl@val 0070               ___fleq@ff1 0070  
             ___fleq@ff2 0074         __end_oflog@coeff 0041                ?_LCD_Char 0070  
__end_of__initialization 07FC                ?_LCD_Init 0070          ??_LCD_String_xy 0077  
           eval_poly@res 00AC               ___fltol@f1 00A8           __pcstackCOMMON 0070  
          __end_of_frexp 0862             ??_LCD_String 0075                  ??_frexp 007C  
             __pbssBANK0 006F               __pbssBANK1 00E2               ??_LCD_Char 0070  
             ??_LCD_Init 0073       __end_of_LCD_String 1569        __end_of__Umul8_16 1590  
             __pmaintext 01DD           _counter_digito 006F                  ?___flge 0070  
                ?___fleq 0070          main@Temperature 00C4                ?___xxtofl 0070  
             __stringtab 0003            LCD_String@msg 0073                  ___fladd 0D78  
                ___fldiv 0B9B                  ___flmul 048D                  ___flsub 171E  
                ___fltol 176E                  ___lwdiv 168C                  ___lwmod 1652  
      __end_of_eval_poly 0A98                  __ptext1 0A98                  __ptext2 1652  
                __ptext3 168C                  __ptext4 0091                  __ptext5 0806  
                __ptext6 16D0                  __ptext7 09BE                  __ptext8 048D  
                __ptext9 1569                  _dpowers 0013               ??___xxtofl 0074  
                _sprintf 0A98     end_of_initialization 07FC           LCD_Command@cmd 0072  
              _PORTCbits 0007                _PORTDbits 0008              ___fladd@grs 006C  
          ___xxtofl@sign 0078              ___fldiv@grs 0053              ___fldiv@rem 004C  
            ___flmul@grs 0033            ??_LCD_Command 0070           __end_of___flge 0904  
         __end_of___fleq 171E      start_initialization 07EE               eval_poly@d 00A4  
             eval_poly@n 00A5               eval_poly@x 00A0              __end_of_log 01DD  
             frexp@value 0020    __end_of_LCD_String_xy 15E6                 ??___flge 0078  
               ??___fleq 0078                __Umul8_16 1569                ___fladd@a 005D  
              ___fladd@b 0059                ___fldiv@a 003F                ___fldiv@b 0043  
    __end_of_LCD_Command 161C                ___flmul@a 0029                ___flmul@b 0025  
              ___flsub@a 00A0                ___flsub@b 00A4                ___latbits 0002  
          __pcstackBANK0 0020            __pcstackBANK1 00A0              sprintf@flag 00B9  
            sprintf@prec 00BA         ___lwdiv@dividend 0072                 ?___fladd 0059  
               ?___fldiv 003F                 ?___flmul 0025                 ?___flsub 00A0  
               ?___fltol 00A8               ?__Umul8_16 0070                 ?___lwdiv 0070  
               ?___lwmod 0078                __pstrings 0003                _eval_poly 09BE  
       ___lwdiv@quotient 0075    LCD_String_xy@location 0079                 ?_sprintf 00B1  
               _LCD_Char 161C                 _LCD_Init 1590                _value_adc 00E8  
            _LCD_Command 15E6               _ADCON0bits 001F              __stringbase 0012  
             _ADCON1bits 009F               ?_eval_poly 00A0                main@tempC 00DE  
              frexp@eptr 0024              ??__Umul8_16 0072       __end_of__stringtab 0013  
             sprintf@val 00BC                 ___xxtofl 0904                 _main$940 00DA  
               _main$938 00D2                 _main$939 00D6          ___lwdiv@divisor 0070  
        ___lwdiv@counter 0077                 __ptext10 0904                 __ptext11 0862  
               __ptext20 15E6                 __ptext12 176E                 __ptext13 171E  
               __ptext14 0D78                 __ptext15 0B9B                 __ptext16 15BA  
               __ptext17 1543                 __ptext18 161C                 __ptext19 1590  
             _LCD_String 1543                 log@coeff 001D              ??_eval_poly 00A7  
              sprintf@ap 00BB                sprintf@sp 00BE         ___lwmod@dividend 007A  
              stringcode 000D   __Umul8_16@multiplicand 0070                 sprintf@c 00BF  
               sprintf@f 00B1          ___lwmod@divisor 0078          ___lwmod@counter 007D  
               stringdir 000D                 stringtab 0003            ___fladd@signs 0069  
           ___fladd@aexp 006A             ___fladd@bexp 006B     __Umul8_16@multiplier 0078  
      __Umul8_16@product 0074  
