

Microchip MPLAB XC8 Assembler V2.36 build 20220127204148 
                                                                                               Wed Aug 10 12:32:34 2022

Microchip MPLAB XC8 C Compiler v2.36 (Free license) build 20220127204148 Og1 
     1                           	processor	16F887
     2                           	pagewidth 120
     3                           	opt	flic
     4                           	psect	idataBANK3,global,class=CODE,delta=2,noexec
     5                           	psect	strings,global,class=STRING,delta=2,noexec
     6                           	psect	cinit,global,class=CODE,merge=1,delta=2
     7                           	psect	bssBANK0,global,class=BANK0,space=1,delta=1,noexec
     8                           	psect	bssBANK1,global,class=BANK1,space=1,delta=1,noexec
     9                           	psect	dataBANK3,global,class=BANK3,space=1,delta=1,noexec
    10                           	psect	inittext,global,class=CODE,delta=2
    11                           	psect	cstackBANK1,global,class=BANK1,space=1,delta=1,noexec
    12                           	psect	cstackCOMMON,global,class=COMMON,space=1,delta=1,noexec
    13                           	psect	cstackBANK0,global,class=BANK0,space=1,delta=1,noexec
    14                           	psect	maintext,global,class=CODE,split=1,delta=2
    15                           	psect	text1,local,class=CODE,merge=1,delta=2,group=1
    16                           	psect	text2,local,class=CODE,merge=1,delta=2,group=2
    17                           	psect	text3,local,class=CODE,merge=1,delta=2,group=2
    18                           	psect	text4,local,class=CODE,merge=1,delta=2,group=3
    19                           	psect	text5,local,class=CODE,merge=1,delta=2,group=3
    20                           	psect	text6,local,class=CODE,merge=1,delta=2,group=2
    21                           	psect	text7,local,class=CODE,merge=1,delta=2,group=3
    22                           	psect	text8,local,class=CODE,merge=1,delta=2,group=2
    23                           	psect	text9,local,class=CODE,merge=1,delta=2,group=2
    24                           	psect	text10,local,class=CODE,merge=1,delta=2,group=2
    25                           	psect	text11,local,class=CODE,merge=1,delta=2,group=2
    26                           	psect	text12,local,class=CODE,merge=1,delta=2,group=2
    27                           	psect	text13,local,class=CODE,merge=1,delta=2,group=2
    28                           	psect	text14,local,class=CODE,merge=1,delta=2,group=2
    29                           	psect	text15,local,class=CODE,merge=1,delta=2,group=2
    30                           	psect	text16,local,class=CODE,merge=1,delta=2
    31                           	psect	text17,local,class=CODE,merge=1,delta=2
    32                           	psect	text18,local,class=CODE,merge=1,delta=2
    33                           	psect	text19,local,class=CODE,merge=1,delta=2
    34                           	psect	text20,local,class=CODE,merge=1,delta=2
    35                           	psect	idloc,global,abs,ovrld,class=IDLOC,space=5,delta=2,noexec
    36                           	psect	config,global,abs,ovrld,class=CONFIG,space=4,delta=2,noexec
    37                           	dabs	1,0x7E,2
    38  0000                     
    39                           ; Version 2.40
    40                           ; Generated 17/11/2021 GMT
    41                           ; 
    42                           ; Copyright © 2021, Microchip Technology Inc. and its subsidiaries ("Microchip")
    43                           ; All rights reserved.
    44                           ; 
    45                           ; This software is developed by Microchip Technology Inc. and its subsidiaries ("Microch
      +                          ip").
    46                           ; 
    47                           ; Redistribution and use in source and binary forms, with or without modification, are
    48                           ; permitted provided that the following conditions are met:
    49                           ; 
    50                           ;     1. Redistributions of source code must retain the above copyright notice, this lis
      +                          t of
    51                           ;        conditions and the following disclaimer.
    52                           ; 
    53                           ;     2. Redistributions in binary form must reproduce the above copyright notice, this 
      +                          list
    54                           ;        of conditions and the following disclaimer in the documentation and/or other
    55                           ;        materials provided with the distribution. Publication is not required when
    56                           ;        this file is used in an embedded application.
    57                           ; 
    58                           ;     3. Microchip's name may not be used to endorse or promote products derived from th
      +                          is
    59                           ;        software without specific prior written permission.
    60                           ; 
    61                           ; THIS SOFTWARE IS PROVIDED BY MICROCHIP "AS IS" AND ANY EXPRESS OR IMPLIED WARRANTIES,
    62                           ; INCLUDING, BUT NOT LIMITED TO, THE IMPLIED WARRANTIES OF MERCHANTABILITY AND FITNESS F
      +                          OR
    63                           ; PURPOSE ARE DISCLAIMED.  IN NO EVENT SHALL MICROCHIP BE LIABLE FOR ANY DIRECT, INDIREC
      +                          T,
    64                           ; INCIDENTAL, SPECIAL, EXEMPLARY, OR CONSEQUENTIAL DAMAGES (INCLUDING BUT NOT LIMITED TO
    65                           ; PROCUREMENT OF SUBSTITUTE GOODS OR SERVICES; LOSS OF USE, DATA OR PROFITS; OR BUSINESS
    66                           ; INTERRUPTION) HOWSOEVER CAUSED AND ON ANY THEORY OF LIABILITY, WHETHER IN CONTRACT, ST
      +                          RICT
    67                           ; LIABILITY, OR TORT (INCLUDING NEGLIGENCE OR OTHERWISE) ARISING IN ANY WAY OUT OF THE U
      +                          SE OF
    68                           ; THIS SOFTWARE, EVEN IF ADVISED OF THE POSSIBILITY OF SUCH DAMAGE.
    69                           ; 
    70                           ; 
    71                           ; Code-generator required, PIC16F887 Definitions
    72                           ; 
    73                           ; SFR Addresses
    74  0000                     	;# 
    75  0001                     	;# 
    76  0002                     	;# 
    77  0003                     	;# 
    78  0004                     	;# 
    79  0005                     	;# 
    80  0006                     	;# 
    81  0007                     	;# 
    82  0008                     	;# 
    83  0009                     	;# 
    84  000A                     	;# 
    85  000B                     	;# 
    86  000C                     	;# 
    87  000D                     	;# 
    88  000E                     	;# 
    89  000E                     	;# 
    90  000F                     	;# 
    91  0010                     	;# 
    92  0011                     	;# 
    93  0012                     	;# 
    94  0013                     	;# 
    95  0014                     	;# 
    96  0015                     	;# 
    97  0015                     	;# 
    98  0016                     	;# 
    99  0017                     	;# 
   100  0018                     	;# 
   101  0019                     	;# 
   102  001A                     	;# 
   103  001B                     	;# 
   104  001B                     	;# 
   105  001C                     	;# 
   106  001D                     	;# 
   107  001E                     	;# 
   108  001F                     	;# 
   109  0081                     	;# 
   110  0085                     	;# 
   111  0086                     	;# 
   112  0087                     	;# 
   113  0088                     	;# 
   114  0089                     	;# 
   115  008C                     	;# 
   116  008D                     	;# 
   117  008E                     	;# 
   118  008F                     	;# 
   119  0090                     	;# 
   120  0091                     	;# 
   121  0092                     	;# 
   122  0093                     	;# 
   123  0093                     	;# 
   124  0093                     	;# 
   125  0094                     	;# 
   126  0095                     	;# 
   127  0096                     	;# 
   128  0097                     	;# 
   129  0098                     	;# 
   130  0099                     	;# 
   131  009A                     	;# 
   132  009B                     	;# 
   133  009C                     	;# 
   134  009D                     	;# 
   135  009E                     	;# 
   136  009F                     	;# 
   137  0105                     	;# 
   138  0107                     	;# 
   139  0108                     	;# 
   140  0109                     	;# 
   141  010C                     	;# 
   142  010C                     	;# 
   143  010D                     	;# 
   144  010E                     	;# 
   145  010F                     	;# 
   146  0185                     	;# 
   147  0187                     	;# 
   148  0188                     	;# 
   149  0189                     	;# 
   150  018C                     	;# 
   151  018D                     	;# 
   152  0000                     	;# 
   153  0001                     	;# 
   154  0002                     	;# 
   155  0003                     	;# 
   156  0004                     	;# 
   157  0005                     	;# 
   158  0006                     	;# 
   159  0007                     	;# 
   160  0008                     	;# 
   161  0009                     	;# 
   162  000A                     	;# 
   163  000B                     	;# 
   164  000C                     	;# 
   165  000D                     	;# 
   166  000E                     	;# 
   167  000E                     	;# 
   168  000F                     	;# 
   169  0010                     	;# 
   170  0011                     	;# 
   171  0012                     	;# 
   172  0013                     	;# 
   173  0014                     	;# 
   174  0015                     	;# 
   175  0015                     	;# 
   176  0016                     	;# 
   177  0017                     	;# 
   178  0018                     	;# 
   179  0019                     	;# 
   180  001A                     	;# 
   181  001B                     	;# 
   182  001B                     	;# 
   183  001C                     	;# 
   184  001D                     	;# 
   185  001E                     	;# 
   186  001F                     	;# 
   187  0081                     	;# 
   188  0085                     	;# 
   189  0086                     	;# 
   190  0087                     	;# 
   191  0088                     	;# 
   192  0089                     	;# 
   193  008C                     	;# 
   194  008D                     	;# 
   195  008E                     	;# 
   196  008F                     	;# 
   197  0090                     	;# 
   198  0091                     	;# 
   199  0092                     	;# 
   200  0093                     	;# 
   201  0093                     	;# 
   202  0093                     	;# 
   203  0094                     	;# 
   204  0095                     	;# 
   205  0096                     	;# 
   206  0097                     	;# 
   207  0098                     	;# 
   208  0099                     	;# 
   209  009A                     	;# 
   210  009B                     	;# 
   211  009C                     	;# 
   212  009D                     	;# 
   213  009E                     	;# 
   214  009F                     	;# 
   215  0105                     	;# 
   216  0107                     	;# 
   217  0108                     	;# 
   218  0109                     	;# 
   219  010C                     	;# 
   220  010C                     	;# 
   221  010D                     	;# 
   222  010E                     	;# 
   223  010F                     	;# 
   224  0185                     	;# 
   225  0187                     	;# 
   226  0188                     	;# 
   227  0189                     	;# 
   228  018C                     	;# 
   229  018D                     	;# 
   230  0000                     	;# 
   231  0001                     	;# 
   232  0002                     	;# 
   233  0003                     	;# 
   234  0004                     	;# 
   235  0005                     	;# 
   236  0006                     	;# 
   237  0007                     	;# 
   238  0008                     	;# 
   239  0009                     	;# 
   240  000A                     	;# 
   241  000B                     	;# 
   242  000C                     	;# 
   243  000D                     	;# 
   244  000E                     	;# 
   245  000E                     	;# 
   246  000F                     	;# 
   247  0010                     	;# 
   248  0011                     	;# 
   249  0012                     	;# 
   250  0013                     	;# 
   251  0014                     	;# 
   252  0015                     	;# 
   253  0015                     	;# 
   254  0016                     	;# 
   255  0017                     	;# 
   256  0018                     	;# 
   257  0019                     	;# 
   258  001A                     	;# 
   259  001B                     	;# 
   260  001B                     	;# 
   261  001C                     	;# 
   262  001D                     	;# 
   263  001E                     	;# 
   264  001F                     	;# 
   265  0081                     	;# 
   266  0085                     	;# 
   267  0086                     	;# 
   268  0087                     	;# 
   269  0088                     	;# 
   270  0089                     	;# 
   271  008C                     	;# 
   272  008D                     	;# 
   273  008E                     	;# 
   274  008F                     	;# 
   275  0090                     	;# 
   276  0091                     	;# 
   277  0092                     	;# 
   278  0093                     	;# 
   279  0093                     	;# 
   280  0093                     	;# 
   281  0094                     	;# 
   282  0095                     	;# 
   283  0096                     	;# 
   284  0097                     	;# 
   285  0098                     	;# 
   286  0099                     	;# 
   287  009A                     	;# 
   288  009B                     	;# 
   289  009C                     	;# 
   290  009D                     	;# 
   291  009E                     	;# 
   292  009F                     	;# 
   293  0105                     	;# 
   294  0107                     	;# 
   295  0108                     	;# 
   296  0109                     	;# 
   297  010C                     	;# 
   298  010C                     	;# 
   299  010D                     	;# 
   300  010E                     	;# 
   301  010F                     	;# 
   302  0185                     	;# 
   303  0187                     	;# 
   304  0188                     	;# 
   305  0189                     	;# 
   306  018C                     	;# 
   307  018D                     	;# 
   308  0000                     	;# 
   309  0001                     	;# 
   310  0002                     	;# 
   311  0003                     	;# 
   312  0004                     	;# 
   313  0005                     	;# 
   314  0006                     	;# 
   315  0007                     	;# 
   316  0008                     	;# 
   317  0009                     	;# 
   318  000A                     	;# 
   319  000B                     	;# 
   320  000C                     	;# 
   321  000D                     	;# 
   322  000E                     	;# 
   323  000E                     	;# 
   324  000F                     	;# 
   325  0010                     	;# 
   326  0011                     	;# 
   327  0012                     	;# 
   328  0013                     	;# 
   329  0014                     	;# 
   330  0015                     	;# 
   331  0015                     	;# 
   332  0016                     	;# 
   333  0017                     	;# 
   334  0018                     	;# 
   335  0019                     	;# 
   336  001A                     	;# 
   337  001B                     	;# 
   338  001B                     	;# 
   339  001C                     	;# 
   340  001D                     	;# 
   341  001E                     	;# 
   342  001F                     	;# 
   343  0081                     	;# 
   344  0085                     	;# 
   345  0086                     	;# 
   346  0087                     	;# 
   347  0088                     	;# 
   348  0089                     	;# 
   349  008C                     	;# 
   350  008D                     	;# 
   351  008E                     	;# 
   352  008F                     	;# 
   353  0090                     	;# 
   354  0091                     	;# 
   355  0092                     	;# 
   356  0093                     	;# 
   357  0093                     	;# 
   358  0093                     	;# 
   359  0094                     	;# 
   360  0095                     	;# 
   361  0096                     	;# 
   362  0097                     	;# 
   363  0098                     	;# 
   364  0099                     	;# 
   365  009A                     	;# 
   366  009B                     	;# 
   367  009C                     	;# 
   368  009D                     	;# 
   369  009E                     	;# 
   370  009F                     	;# 
   371  0105                     	;# 
   372  0107                     	;# 
   373  0108                     	;# 
   374  0109                     	;# 
   375  010C                     	;# 
   376  010C                     	;# 
   377  010D                     	;# 
   378  010E                     	;# 
   379  010F                     	;# 
   380  0185                     	;# 
   381  0187                     	;# 
   382  0188                     	;# 
   383  0189                     	;# 
   384  018C                     	;# 
   385  018D                     	;# 
   386  0000                     	;# 
   387  0001                     	;# 
   388  0002                     	;# 
   389  0003                     	;# 
   390  0004                     	;# 
   391  0005                     	;# 
   392  0006                     	;# 
   393  0007                     	;# 
   394  0008                     	;# 
   395  0009                     	;# 
   396  000A                     	;# 
   397  000B                     	;# 
   398  000C                     	;# 
   399  000D                     	;# 
   400  000E                     	;# 
   401  000E                     	;# 
   402  000F                     	;# 
   403  0010                     	;# 
   404  0011                     	;# 
   405  0012                     	;# 
   406  0013                     	;# 
   407  0014                     	;# 
   408  0015                     	;# 
   409  0015                     	;# 
   410  0016                     	;# 
   411  0017                     	;# 
   412  0018                     	;# 
   413  0019                     	;# 
   414  001A                     	;# 
   415  001B                     	;# 
   416  001B                     	;# 
   417  001C                     	;# 
   418  001D                     	;# 
   419  001E                     	;# 
   420  001F                     	;# 
   421  0081                     	;# 
   422  0085                     	;# 
   423  0086                     	;# 
   424  0087                     	;# 
   425  0088                     	;# 
   426  0089                     	;# 
   427  008C                     	;# 
   428  008D                     	;# 
   429  008E                     	;# 
   430  008F                     	;# 
   431  0090                     	;# 
   432  0091                     	;# 
   433  0092                     	;# 
   434  0093                     	;# 
   435  0093                     	;# 
   436  0093                     	;# 
   437  0094                     	;# 
   438  0095                     	;# 
   439  0096                     	;# 
   440  0097                     	;# 
   441  0098                     	;# 
   442  0099                     	;# 
   443  009A                     	;# 
   444  009B                     	;# 
   445  009C                     	;# 
   446  009D                     	;# 
   447  009E                     	;# 
   448  009F                     	;# 
   449  0105                     	;# 
   450  0107                     	;# 
   451  0108                     	;# 
   452  0109                     	;# 
   453  010C                     	;# 
   454  010C                     	;# 
   455  010D                     	;# 
   456  010E                     	;# 
   457  010F                     	;# 
   458  0185                     	;# 
   459  0187                     	;# 
   460  0188                     	;# 
   461  0189                     	;# 
   462  018C                     	;# 
   463  018D                     	;# 
   464                           
   465                           	psect	idataBANK3
   466  0003                     __pidataBANK3:
   467                           
   468                           ;initializer for keypad_getkey2@F1320
   469  0003  3431               	retlw	49
   470  0004  3432               	retlw	50
   471  0005  3433               	retlw	51
   472  0006  3441               	retlw	65
   473  0007  3434               	retlw	52
   474  0008  3435               	retlw	53
   475  0009  3436               	retlw	54
   476  000A  3442               	retlw	66
   477  000B  3437               	retlw	55
   478  000C  3438               	retlw	56
   479  000D  3439               	retlw	57
   480  000E  3443               	retlw	67
   481  000F  342A               	retlw	42
   482  0010  3430               	retlw	48
   483  0011  3423               	retlw	35
   484  0012  3444               	retlw	68
   485                           
   486                           ;initializer for keypad_getkey@F1297
   487  0013  3431               	retlw	49
   488  0014  3432               	retlw	50
   489  0015  3433               	retlw	51
   490  0016  3441               	retlw	65
   491  0017  3434               	retlw	52
   492  0018  3435               	retlw	53
   493  0019  3436               	retlw	54
   494  001A  3442               	retlw	66
   495  001B  3437               	retlw	55
   496  001C  3438               	retlw	56
   497  001D  3439               	retlw	57
   498  001E  3443               	retlw	67
   499  001F  342A               	retlw	42
   500  0020  3430               	retlw	48
   501  0021  3423               	retlw	35
   502  0022  3444               	retlw	68
   503                           
   504                           	psect	strings
   505  1000                     __pstrings:
   506  1000                     stringtab:
   507  1000                     __stringtab:
   508                           
   509                           ;	String table - string pointers are 1 byte each
   510  1000  1BFF               	btfsc	btemp+1,7
   511  1001  280A               	ljmp	stringcode
   512  1002  1383               	bcf	3,7
   513  1003  187F               	btfsc	btemp+1,0
   514  1004  1783               	bsf	3,7
   515  1005  0800               	movf	0,w
   516  1006  0A84               	incf	4,f
   517  1007  1903               	skipnz
   518  1008  0AFF               	incf	btemp+1,f
   519  1009  0008               	return
   520  100A                     stringcode:
   521  100A                     stringdir:
   522  100A  3010               	movlw	high stringdir
   523  100B  008A               	movwf	10
   524  100C  0804               	movf	4,w
   525  100D  0A84               	incf	4,f
   526  100E  0782               	addwf	2,f
   527  100F                     __stringbase:
   528  100F  3400               	retlw	0
   529  1010                     __end_of__stringtab:
   530  1010                     _dpowers:
   531  1010  3401               	retlw	1
   532  1011  3400               	retlw	0
   533  1012  340A               	retlw	10
   534  1013  3400               	retlw	0
   535  1014  3464               	retlw	100
   536  1015  3400               	retlw	0
   537  1016  34E8               	retlw	232
   538  1017  3403               	retlw	3
   539  1018  3410               	retlw	16
   540  1019  3427               	retlw	39
   541  101A                     __end_of_dpowers:
   542  101A                     log@coeff:
   543  101A  3400               	retlw	0
   544  101B  3400               	retlw	0
   545  101C  3400               	retlw	0
   546  101D  3400               	retlw	0
   547  101E  34C4               	retlw	196
   548  101F  34FF               	retlw	255
   549  1020  347F               	retlw	127
   550  1021  343F               	retlw	63
   551  1022  3480               	retlw	128
   552  1023  34EF               	retlw	239
   553  1024  34FF               	retlw	255
   554  1025  34BE               	retlw	190
   555  1026  3490               	retlw	144
   556  1027  34E1               	retlw	225
   557  1028  34A9               	retlw	169
   558  1029  343E               	retlw	62
   559  102A  34EC               	retlw	236
   560  102B  3482               	retlw	130
   561  102C  3476               	retlw	118
   562  102D  34BE               	retlw	190
   563  102E  3482               	retlw	130
   564  102F  34AD               	retlw	173
   565  1030  342B               	retlw	43
   566  1031  343E               	retlw	62
   567  1032  340E               	retlw	14
   568  1033  343C               	retlw	60
   569  1034  34C3               	retlw	195
   570  1035  34BD               	retlw	189
   571  1036  3487               	retlw	135
   572  1037  34D1               	retlw	209
   573  1038  3413               	retlw	19
   574  1039  343D               	retlw	61
   575  103A  3441               	retlw	65
   576  103B  3478               	retlw	120
   577  103C  34D3               	retlw	211
   578  103D  34BB               	retlw	187
   579  103E                     __end_oflog@coeff:
   580  0008                     _PORTDbits	set	8
   581  0008                     _PORTD	set	8
   582  0006                     _PORTB	set	6
   583  001E                     _ADRESH	set	30
   584  0007                     _PORTCbits	set	7
   585  001F                     _ADCON0bits	set	31
   586  0005                     _PORTA	set	5
   587  0088                     _TRISD	set	136
   588  0081                     _OPTION_REGbits	set	129
   589  0086                     _TRISB	set	134
   590  009E                     _ADRESL	set	158
   591  009F                     _ADCON1bits	set	159
   592  0085                     _TRISA	set	133
   593  0087                     _TRISC	set	135
   594  008F                     _OSCCON	set	143
   595  043D                     _TRISC5	set	1085
   596  0439                     _TRISC1	set	1081
   597  043E                     _TRISC6	set	1086
   598  043A                     _TRISC2	set	1082
   599  043C                     _TRISC4	set	1084
   600  043B                     _TRISC3	set	1083
   601  0438                     _TRISC0	set	1080
   602  042B                     _TRISA3	set	1067
   603  042A                     _TRISA2	set	1066
   604  0429                     _TRISA1	set	1065
   605  0428                     _TRISA0	set	1064
   606  0188                     _ANSEL	set	392
   607  0189                     _ANSELH	set	393
   608  103E                     STR_4:
   609  103E  3444               	retlw	68	;'D'
   610  103F  3469               	retlw	105	;'i'
   611  1040  3473               	retlw	115	;'s'
   612  1041  346D               	retlw	109	;'m'
   613  1042  3469               	retlw	105	;'i'
   614  1043  346E               	retlw	110	;'n'
   615  1044  3475               	retlw	117	;'u'
   616  1045  3469               	retlw	105	;'i'
   617  1046  3472               	retlw	114	;'r'
   618  1047  3420               	retlw	32	;' '
   619  1048  3454               	retlw	84	;'T'
   620  1049  3465               	retlw	101	;'e'
   621  104A  346D               	retlw	109	;'m'
   622  104B  3470               	retlw	112	;'p'
   623  104C  3400               	retlw	0
   624  104D                     STR_6:
   625  104D  3454               	retlw	84	;'T'
   626  104E  3465               	retlw	101	;'e'
   627  104F  346D               	retlw	109	;'m'
   628  1050  3470               	retlw	112	;'p'
   629  1051  3420               	retlw	32	;' '
   630  1052  3441               	retlw	65	;'A'
   631  1053  3464               	retlw	100	;'d'
   632  1054  3465               	retlw	101	;'e'
   633  1055  3463               	retlw	99	;'c'
   634  1056  3475               	retlw	117	;'u'
   635  1057  3461               	retlw	97	;'a'
   636  1058  3464               	retlw	100	;'d'
   637  1059  3461               	retlw	97	;'a'
   638  105A  3400               	retlw	0
   639  105B                     STR_5:
   640  105B  3441               	retlw	65	;'A'
   641  105C  3475               	retlw	117	;'u'
   642  105D  346D               	retlw	109	;'m'
   643  105E  3465               	retlw	101	;'e'
   644  105F  346E               	retlw	110	;'n'
   645  1060  3474               	retlw	116	;'t'
   646  1061  3461               	retlw	97	;'a'
   647  1062  3472               	retlw	114	;'r'
   648  1063  3420               	retlw	32	;' '
   649  1064  3454               	retlw	84	;'T'
   650  1065  3465               	retlw	101	;'e'
   651  1066  346D               	retlw	109	;'m'
   652  1067  3470               	retlw	112	;'p'
   653  1068  3400               	retlw	0
   654  1069                     STR_2:
   655  1069  3454               	retlw	84	;'T'
   656  106A  3465               	retlw	101	;'e'
   657  106B  346D               	retlw	109	;'m'
   658  106C  3470               	retlw	112	;'p'
   659  106D  3465               	retlw	101	;'e'
   660  106E  3472               	retlw	114	;'r'
   661  106F  3461               	retlw	97	;'a'
   662  1070  3474               	retlw	116	;'t'
   663  1071  3475               	retlw	117	;'u'
   664  1072  3472               	retlw	114	;'r'
   665  1073  3461               	retlw	97	;'a'
   666  1074  343A               	retlw	58	;':'
   667  1075  3400               	retlw	0
   668  1076                     STR_1:
   669  1076  3425               	retlw	37	;'%'
   670  1077  3464               	retlw	100	;'d'
   671  1078  3425               	retlw	37	;'%'
   672  1079  3463               	retlw	99	;'c'
   673  107A  3443               	retlw	67	;'C'
   674  107B  3400               	retlw	0
   675  107C                     STR_3:
   676  107C  3420               	retlw	32	;' '
   677  107D  3420               	retlw	32	;' '
   678  107E  3400               	retlw	0
   679                           
   680                           	psect	cinit
   681  07DC                     start_initialization:	
   682                           ; #config settings
   683                           
   684  07DC                     __initialization:
   685                           
   686                           ; Initialize objects allocated to BANK3
   687  07DC  1783               	bsf	3,7	;select IRP bank2
   688  07DD  30B0               	movlw	low (__pdataBANK3+32)
   689  07DE  00FD               	movwf	btemp+-1
   690  07DF  3000               	movlw	high __pidataBANK3
   691  07E0  00FE               	movwf	btemp
   692  07E1  3003               	movlw	low __pidataBANK3
   693  07E2  00FF               	movwf	btemp+1
   694  07E3  3090               	movlw	low __pdataBANK3
   695  07E4  0084               	movwf	4
   696  07E5  160A  118A  2584  120A  118A  	fcall	init_ram0
   697                           
   698                           ; Clear objects allocated to BANK1
   699  07EA  1683               	bsf	3,5	;RP0=1, select bank1
   700  07EB  1303               	bcf	3,6	;RP1=0, select bank1
   701  07EC  01E2               	clrf	__pbssBANK1& (0+127)
   702  07ED  01E3               	clrf	(__pbssBANK1+1)& (0+127)
   703  07EE  01E4               	clrf	(__pbssBANK1+2)& (0+127)
   704  07EF  01E5               	clrf	(__pbssBANK1+3)& (0+127)
   705  07F0  01E6               	clrf	(__pbssBANK1+4)& (0+127)
   706  07F1  01E7               	clrf	(__pbssBANK1+5)& (0+127)
   707  07F2  01E8               	clrf	(__pbssBANK1+6)& (0+127)
   708  07F3  01E9               	clrf	(__pbssBANK1+7)& (0+127)
   709  07F4  01EA               	clrf	(__pbssBANK1+8)& (0+127)
   710  07F5  01EB               	clrf	(__pbssBANK1+9)& (0+127)
   711  07F6  01EC               	clrf	(__pbssBANK1+10)& (0+127)
   712  07F7  01ED               	clrf	(__pbssBANK1+11)& (0+127)
   713  07F8  01EE               	clrf	(__pbssBANK1+12)& (0+127)
   714                           
   715                           ; Clear objects allocated to BANK0
   716  07F9  1283               	bcf	3,5	;RP0=0, select bank0
   717  07FA  1303               	bcf	3,6	;RP1=0, select bank0
   718  07FB  01EF               	clrf	__pbssBANK0& (0+127)
   719  07FC                     end_of_initialization:	
   720                           ;End of C runtime variable initialization code
   721                           
   722  07FC                     __end_of__initialization:
   723  07FC  0183               	clrf	3
   724  07FD  120A  118A  29CB   	ljmp	_main	;jump to C main() function
   725                           
   726                           	psect	bssBANK0
   727  006F                     __pbssBANK0:
   728  006F                     _counter_digito:
   729  006F                     	ds	1
   730                           
   731                           	psect	bssBANK1
   732  00E2                     __pbssBANK1:
   733  00E2                     _temp:
   734  00E2                     	ds	4
   735  00E6                     _errno:
   736  00E6                     	ds	2
   737  00E8                     _flag:
   738  00E8                     	ds	2
   739  00EA                     _stateHome:
   740  00EA                     	ds	2
   741  00EC                     _value_adc:
   742  00EC                     	ds	2
   743  00EE                     _lm35:
   744  00EE                     	ds	1
   745                           
   746                           	psect	dataBANK3
   747  0190                     __pdataBANK3:
   748  0190                     keypad_getkey2@F1320:
   749  0190                     	ds	16
   750  01A0                     keypad_getkey@F1297:
   751  01A0                     	ds	16
   752                           
   753                           	psect	inittext
   754  1580                     init_fetch0:	
   755                           ;	Called with low address in FSR and high address in W
   756                           
   757  1580  087E               	movf	btemp,w
   758  1581  008A               	movwf	10
   759  1582  087F               	movf	btemp+1,w
   760  1583  0082               	movwf	2
   761  1584                     init_ram0:	
   762                           ;Called with:
   763                           ;	high address of idata address in btemp 
   764                           ;	low address of idata address in btemp+1 
   765                           ;	low address of data in FSR
   766                           ;	high address + 1 of data in btemp-1
   767                           
   768  1584  160A  118A  2580  160A  118A  	fcall	init_fetch0
   769  1589  0080               	movwf	0
   770  158A  0A84               	incf	4,f
   771  158B  0804               	movf	4,w
   772  158C  067D               	xorwf	btemp+-1,w
   773  158D  1903               	btfsc	3,2
   774  158E  3400               	retlw	0
   775  158F  0AFF               	incf	btemp+1,f
   776  1590  1903               	btfsc	3,2
   777  1591  0AFE               	incf	btemp,f
   778  1592  2D84               	goto	init_ram0
   779                           
   780                           	psect	cstackBANK1
   781  00A0                     __pcstackBANK1:
   782  00A0                     ?_eval_poly:
   783  00A0                     ?___flsub:	
   784                           ; 4 bytes @ 0x0
   785                           
   786  00A0                     ___flsub@a:	
   787                           ; 4 bytes @ 0x0
   788                           
   789  00A0                     eval_poly@x:	
   790                           ; 4 bytes @ 0x0
   791                           
   792                           
   793                           ; 4 bytes @ 0x0
   794  00A0                     	ds	4
   795  00A4                     eval_poly@d:
   796  00A4                     ___flsub@b:	
   797                           ; 1 bytes @ 0x4
   798                           
   799                           
   800                           ; 4 bytes @ 0x4
   801  00A4                     	ds	1
   802  00A5                     eval_poly@n:
   803                           
   804                           ; 2 bytes @ 0x5
   805  00A5                     	ds	2
   806  00A7                     ??_eval_poly:
   807                           
   808                           ; 1 bytes @ 0x7
   809  00A7                     	ds	1
   810  00A8                     ?___fltol:
   811  00A8                     ___fltol@f1:	
   812                           ; 4 bytes @ 0x8
   813                           
   814                           
   815                           ; 4 bytes @ 0x8
   816  00A8                     	ds	4
   817  00AC                     ??___fltol:
   818  00AC                     eval_poly@res:	
   819                           ; 1 bytes @ 0xC
   820                           
   821                           
   822                           ; 4 bytes @ 0xC
   823  00AC                     	ds	4
   824  00B0                     ?_log:
   825  00B0                     log@x:	
   826                           ; 4 bytes @ 0x10
   827                           
   828                           
   829                           ; 4 bytes @ 0x10
   830  00B0                     	ds	1
   831  00B1                     ?_sprintf:
   832  00B1                     sprintf@f:	
   833                           ; 2 bytes @ 0x11
   834                           
   835                           
   836                           ; 1 bytes @ 0x11
   837  00B1                     	ds	3
   838  00B4                     log@exponent:
   839                           
   840                           ; 2 bytes @ 0x14
   841  00B4                     	ds	2
   842  00B6                     ??_sprintf:
   843                           
   844                           ; 1 bytes @ 0x16
   845  00B6                     	ds	3
   846  00B9                     sprintf@flag:
   847                           
   848                           ; 1 bytes @ 0x19
   849  00B9                     	ds	1
   850  00BA                     sprintf@prec:
   851                           
   852                           ; 1 bytes @ 0x1A
   853  00BA                     	ds	1
   854  00BB                     sprintf@ap:
   855                           
   856                           ; 1 bytes @ 0x1B
   857  00BB                     	ds	1
   858  00BC                     sprintf@val:
   859                           
   860                           ; 2 bytes @ 0x1C
   861  00BC                     	ds	2
   862  00BE                     sprintf@sp:
   863                           
   864                           ; 1 bytes @ 0x1E
   865  00BE                     	ds	1
   866  00BF                     sprintf@c:
   867                           
   868                           ; 1 bytes @ 0x1F
   869  00BF                     	ds	1
   870  00C0                     ??_main:
   871                           
   872                           ; 1 bytes @ 0x20
   873  00C0                     	ds	4
   874  00C4                     main@Temperature:
   875                           
   876                           ; 10 bytes @ 0x24
   877  00C4                     	ds	10
   878  00CE                     main@a:
   879                           
   880                           ; 4 bytes @ 0x2E
   881  00CE                     	ds	4
   882  00D2                     _main$1055:
   883                           
   884                           ; 4 bytes @ 0x32
   885  00D2                     	ds	4
   886  00D6                     _main$1056:
   887                           
   888                           ; 4 bytes @ 0x36
   889  00D6                     	ds	4
   890  00DA                     _main$1057:
   891                           
   892                           ; 4 bytes @ 0x3A
   893  00DA                     	ds	4
   894  00DE                     main@tempC:
   895                           
   896                           ; 4 bytes @ 0x3E
   897  00DE                     	ds	4
   898                           
   899                           	psect	cstackCOMMON
   900  0070                     __pcstackCOMMON:
   901  0070                     ?___fleq:
   902  0070                     ?___flge:	
   903                           ; 1 bit 
   904                           
   905  0070                     ?_LCD_Init:	
   906                           ; 1 bit 
   907                           
   908  0070                     ?_LCD_Command:	
   909                           ; 1 bytes @ 0x0
   910                           
   911  0070                     ??_LCD_Command:	
   912                           ; 1 bytes @ 0x0
   913                           
   914  0070                     ?_main:	
   915                           ; 1 bytes @ 0x0
   916                           
   917  0070                     ?_LCD_Char:	
   918                           ; 1 bytes @ 0x0
   919                           
   920  0070                     ??_LCD_Char:	
   921                           ; 1 bytes @ 0x0
   922                           
   923  0070                     ?__Umul8_16:	
   924                           ; 1 bytes @ 0x0
   925                           
   926  0070                     ?___lwdiv:	
   927                           ; 2 bytes @ 0x0
   928                           
   929  0070                     ?___xxtofl:	
   930                           ; 2 bytes @ 0x0
   931                           
   932  0070                     __Umul8_16@multiplicand:	
   933                           ; 4 bytes @ 0x0
   934                           
   935  0070                     ___lwdiv@divisor:	
   936                           ; 1 bytes @ 0x0
   937                           
   938  0070                     ___fleq@ff1:	
   939                           ; 2 bytes @ 0x0
   940                           
   941  0070                     ___flge@ff1:	
   942                           ; 4 bytes @ 0x0
   943                           
   944  0070                     ___xxtofl@val:	
   945                           ; 4 bytes @ 0x0
   946                           
   947                           
   948                           ; 4 bytes @ 0x0
   949  0070                     	ds	2
   950  0072                     ??__Umul8_16:
   951  0072                     LCD_Command@cmd:	
   952                           ; 1 bytes @ 0x2
   953                           
   954  0072                     LCD_Char@dat:	
   955                           ; 1 bytes @ 0x2
   956                           
   957  0072                     ___lwdiv@dividend:	
   958                           ; 1 bytes @ 0x2
   959                           
   960                           
   961                           ; 2 bytes @ 0x2
   962  0072                     	ds	1
   963  0073                     ??_LCD_Init:
   964  0073                     ?_LCD_String:	
   965                           ; 1 bytes @ 0x3
   966                           
   967  0073                     LCD_String@msg:	
   968                           ; 1 bytes @ 0x3
   969                           
   970                           
   971                           ; 2 bytes @ 0x3
   972  0073                     	ds	1
   973  0074                     ??___lwdiv:
   974  0074                     ??___xxtofl:	
   975                           ; 1 bytes @ 0x4
   976                           
   977  0074                     __Umul8_16@product:	
   978                           ; 1 bytes @ 0x4
   979                           
   980  0074                     ___fleq@ff2:	
   981                           ; 2 bytes @ 0x4
   982                           
   983  0074                     ___flge@ff2:	
   984                           ; 4 bytes @ 0x4
   985                           
   986                           
   987                           ; 4 bytes @ 0x4
   988  0074                     	ds	1
   989  0075                     ?_LCD_String_xy:
   990  0075                     ??_LCD_String:	
   991                           ; 1 bytes @ 0x5
   992                           
   993  0075                     LCD_String_xy@pos:	
   994                           ; 1 bytes @ 0x5
   995                           
   996  0075                     ___lwdiv@quotient:	
   997                           ; 1 bytes @ 0x5
   998                           
   999                           
  1000                           ; 2 bytes @ 0x5
  1001  0075                     	ds	1
  1002  0076                     LCD_String_xy@msg:
  1003  0076                     __Umul8_16@word_mpld:	
  1004                           ; 1 bytes @ 0x6
  1005                           
  1006                           
  1007                           ; 2 bytes @ 0x6
  1008  0076                     	ds	1
  1009  0077                     ??_LCD_String_xy:
  1010  0077                     ___lwdiv@counter:	
  1011                           ; 1 bytes @ 0x7
  1012                           
  1013                           
  1014                           ; 1 bytes @ 0x7
  1015  0077                     	ds	1
  1016  0078                     ??___fleq:
  1017  0078                     ??___flge:	
  1018                           ; 1 bytes @ 0x8
  1019                           
  1020  0078                     ?___lwmod:	
  1021                           ; 1 bytes @ 0x8
  1022                           
  1023  0078                     LCD_String_xy@row:	
  1024                           ; 2 bytes @ 0x8
  1025                           
  1026  0078                     __Umul8_16@multiplier:	
  1027                           ; 1 bytes @ 0x8
  1028                           
  1029  0078                     ___xxtofl@sign:	
  1030                           ; 1 bytes @ 0x8
  1031                           
  1032  0078                     ___lwmod@divisor:	
  1033                           ; 1 bytes @ 0x8
  1034                           
  1035                           
  1036                           ; 2 bytes @ 0x8
  1037  0078                     	ds	1
  1038  0079                     LCD_String_xy@location:
  1039  0079                     ___xxtofl@exp:	
  1040                           ; 1 bytes @ 0x9
  1041                           
  1042                           
  1043                           ; 1 bytes @ 0x9
  1044  0079                     	ds	1
  1045  007A                     ___lwmod@dividend:
  1046  007A                     ___xxtofl@arg:	
  1047                           ; 2 bytes @ 0xA
  1048                           
  1049                           
  1050                           ; 4 bytes @ 0xA
  1051  007A                     	ds	2
  1052  007C                     ??_frexp:
  1053  007C                     ??___lwmod:	
  1054                           ; 1 bytes @ 0xC
  1055                           
  1056                           
  1057                           ; 1 bytes @ 0xC
  1058  007C                     	ds	1
  1059  007D                     ___lwmod@counter:
  1060                           
  1061                           ; 1 bytes @ 0xD
  1062  007D                     	ds	1
  1063  007E                     ??___flsub:
  1064                           
  1065                           	psect	cstackBANK0
  1066  0020                     __pcstackBANK0:	
  1067                           ; 1 bytes @ 0xE
  1068                           
  1069  0020                     ?_frexp:
  1070  0020                     frexp@value:	
  1071                           ; 4 bytes @ 0x0
  1072                           
  1073                           
  1074                           ; 4 bytes @ 0x0
  1075  0020                     	ds	4
  1076  0024                     frexp@eptr:
  1077                           
  1078                           ; 1 bytes @ 0x4
  1079  0024                     	ds	1
  1080  0025                     ?___flmul:
  1081  0025                     ___flmul@b:	
  1082                           ; 4 bytes @ 0x5
  1083                           
  1084                           
  1085                           ; 4 bytes @ 0x5
  1086  0025                     	ds	4
  1087  0029                     ___flmul@a:
  1088                           
  1089                           ; 4 bytes @ 0x9
  1090  0029                     	ds	4
  1091  002D                     ??___flmul:
  1092                           
  1093                           ; 1 bytes @ 0xD
  1094  002D                     	ds	5
  1095  0032                     ___flmul@sign:
  1096                           
  1097                           ; 1 bytes @ 0x12
  1098  0032                     	ds	1
  1099  0033                     ___flmul@grs:
  1100                           
  1101                           ; 4 bytes @ 0x13
  1102  0033                     	ds	4
  1103  0037                     ___flmul@aexp:
  1104                           
  1105                           ; 1 bytes @ 0x17
  1106  0037                     	ds	1
  1107  0038                     ___flmul@bexp:
  1108                           
  1109                           ; 1 bytes @ 0x18
  1110  0038                     	ds	1
  1111  0039                     ___flmul@prod:
  1112                           
  1113                           ; 4 bytes @ 0x19
  1114  0039                     	ds	4
  1115  003D                     ___flmul@temp:
  1116                           
  1117                           ; 2 bytes @ 0x1D
  1118  003D                     	ds	2
  1119  003F                     ?___fldiv:
  1120  003F                     ___fldiv@a:	
  1121                           ; 4 bytes @ 0x1F
  1122                           
  1123                           
  1124                           ; 4 bytes @ 0x1F
  1125  003F                     	ds	4
  1126  0043                     ___fldiv@b:
  1127                           
  1128                           ; 4 bytes @ 0x23
  1129  0043                     	ds	4
  1130  0047                     ??___fldiv:
  1131                           
  1132                           ; 1 bytes @ 0x27
  1133  0047                     	ds	5
  1134  004C                     ___fldiv@rem:
  1135                           
  1136                           ; 4 bytes @ 0x2C
  1137  004C                     	ds	4
  1138  0050                     ___fldiv@sign:
  1139                           
  1140                           ; 1 bytes @ 0x30
  1141  0050                     	ds	1
  1142  0051                     ___fldiv@new_exp:
  1143                           
  1144                           ; 2 bytes @ 0x31
  1145  0051                     	ds	2
  1146  0053                     ___fldiv@grs:
  1147                           
  1148                           ; 4 bytes @ 0x33
  1149  0053                     	ds	4
  1150  0057                     ___fldiv@bexp:
  1151                           
  1152                           ; 1 bytes @ 0x37
  1153  0057                     	ds	1
  1154  0058                     ___fldiv@aexp:
  1155                           
  1156                           ; 1 bytes @ 0x38
  1157  0058                     	ds	1
  1158  0059                     ?___fladd:
  1159  0059                     ___fladd@b:	
  1160                           ; 4 bytes @ 0x39
  1161                           
  1162                           
  1163                           ; 4 bytes @ 0x39
  1164  0059                     	ds	4
  1165  005D                     ___fladd@a:
  1166                           
  1167                           ; 4 bytes @ 0x3D
  1168  005D                     	ds	4
  1169  0061                     ??___fladd:
  1170                           
  1171                           ; 1 bytes @ 0x41
  1172  0061                     	ds	8
  1173  0069                     ___fladd@signs:
  1174                           
  1175                           ; 1 bytes @ 0x49
  1176  0069                     	ds	1
  1177  006A                     ___fladd@aexp:
  1178                           
  1179                           ; 1 bytes @ 0x4A
  1180  006A                     	ds	1
  1181  006B                     ___fladd@bexp:
  1182                           
  1183                           ; 1 bytes @ 0x4B
  1184  006B                     	ds	1
  1185  006C                     ___fladd@grs:
  1186                           
  1187                           ; 1 bytes @ 0x4C
  1188  006C                     	ds	1
  1189  006D                     ??_log:
  1190  006D                     ___fltol@sign1:	
  1191                           ; 1 bytes @ 0x4D
  1192                           
  1193                           
  1194                           ; 1 bytes @ 0x4D
  1195  006D                     	ds	1
  1196  006E                     ___fltol@exp1:
  1197                           
  1198                           ; 1 bytes @ 0x4E
  1199  006E                     	ds	1
  1200                           
  1201                           	psect	maintext
  1202  01CB                     __pmaintext:	
  1203 ;;
  1204 ;;Main: autosize = 0, tempsize = 4, incstack = 0, save=0
  1205 ;;
  1206 ;; *************** function _main *****************
  1207 ;; Defined at:
  1208 ;;		line 35 in file "main.c"
  1209 ;; Parameters:    Size  Location     Type
  1210 ;;		None
  1211 ;; Auto vars:     Size  Location     Type
  1212 ;;  Temperature    10   36[BANK1 ] unsigned char [10]
  1213 ;;  tempC           4   62[BANK1 ] float 
  1214 ;;  a               4   46[BANK1 ] long 
  1215 ;; Return value:  Size  Location     Type
  1216 ;;                  1    wreg      void 
  1217 ;; Registers used:
  1218 ;;		wreg, fsr0l, fsr0h, status,2, status,0, btemp+1, pclath, cstack
  1219 ;; Tracked objects:
  1220 ;;		On entry : B00/0
  1221 ;;		On exit  : 0/0
  1222 ;;		Unchanged: 0/0
  1223 ;; Data sizes:     COMMON   BANK0   BANK1   BANK3   BANK2
  1224 ;;      Params:         0       0       0       0       0
  1225 ;;      Locals:         0       0      30       0       0
  1226 ;;      Temps:          0       0       4       0       0
  1227 ;;      Totals:         0       0      34       0       0
  1228 ;;Total ram usage:       34 bytes
  1229 ;; Hardware stack levels required when called: 4
  1230 ;; This function calls:
  1231 ;;		_LCD_Init
  1232 ;;		_LCD_String
  1233 ;;		_LCD_String_xy
  1234 ;;		___fladd
  1235 ;;		___fldiv
  1236 ;;		___flge
  1237 ;;		___flsub
  1238 ;;		___fltol
  1239 ;;		___xxtofl
  1240 ;;		_log
  1241 ;;		_sprintf
  1242 ;; This function is called by:
  1243 ;;		Startup code after reset
  1244 ;; This function uses a non-reentrant model
  1245 ;;
  1246                           
  1247  01CB                     _main:	
  1248                           ;psect for function _main
  1249                           
  1250  01CB                     l3051:	
  1251                           ;incstack = 0
  1252                           ; Regs used in _main: [wreg-fsr0h+status,2+status,0+btemp+1+pclath+cstack]
  1253                           
  1254                           
  1255                           ;main.c: 37:     OSCCON = 0x71;
  1256  01CB  3071               	movlw	113
  1257  01CC  1683               	bsf	3,5	;RP0=1, select bank1
  1258  01CD  1303               	bcf	3,6	;RP1=0, select bank1
  1259  01CE  008F               	movwf	15	;volatile
  1260  01CF                     l3053:
  1261                           
  1262                           ;main.c: 38:     ANSELH = 0x00;
  1263  01CF  1683               	bsf	3,5	;RP0=1, select bank3
  1264  01D0  1703               	bsf	3,6	;RP1=1, select bank3
  1265  01D1  0189               	clrf	9	;volatile
  1266  01D2                     l3055:
  1267                           
  1268                           ;main.c: 39:     TRISC = 0x00;
  1269  01D2  1683               	bsf	3,5	;RP0=1, select bank1
  1270  01D3  1303               	bcf	3,6	;RP1=0, select bank1
  1271  01D4  0187               	clrf	7	;volatile
  1272  01D5                     l3057:
  1273                           
  1274                           ;main.c: 40:     TRISA = 0x00;
  1275  01D5  0185               	clrf	5	;volatile
  1276  01D6                     l3059:
  1277                           
  1278                           ;main.c: 42:     ANSEL = 0x01;
  1279  01D6  3001               	movlw	1
  1280  01D7  1683               	bsf	3,5	;RP0=1, select bank3
  1281  01D8  1703               	bsf	3,6	;RP1=1, select bank3
  1282  01D9  0088               	movwf	8	;volatile
  1283                           
  1284                           ;main.c: 43:     PORTA = 0;
  1285  01DA  1283               	bcf	3,5	;RP0=0, select bank0
  1286  01DB  1303               	bcf	3,6	;RP1=0, select bank0
  1287  01DC  0185               	clrf	5	;volatile
  1288  01DD                     l3061:
  1289                           
  1290                           ;main.c: 44:     TRISA0 = 1;
  1291  01DD  1683               	bsf	3,5	;RP0=1, select bank1
  1292  01DE  1303               	bcf	3,6	;RP1=0, select bank1
  1293  01DF  1405               	bsf	5,0	;volatile
  1294  01E0                     l3063:
  1295                           
  1296                           ;main.c: 45:     TRISA1 = 0;
  1297  01E0  1085               	bcf	5,1	;volatile
  1298  01E1                     l3065:
  1299                           
  1300                           ;main.c: 46:     TRISA2 = 0;
  1301  01E1  1105               	bcf	5,2	;volatile
  1302  01E2                     l3067:
  1303                           
  1304                           ;main.c: 47:     TRISA3 = 0;
  1305  01E2  1185               	bcf	5,3	;volatile
  1306  01E3                     l3069:
  1307                           
  1308                           ;main.c: 50:     ADCON1bits.ADFM = 1;
  1309  01E3  179F               	bsf	31,7	;volatile
  1310  01E4                     l3071:
  1311                           
  1312                           ;main.c: 51:     ADCON1bits.VCFG0 = 0;
  1313  01E4  121F               	bcf	31,4	;volatile
  1314  01E5                     l3073:
  1315                           
  1316                           ;main.c: 52:     ADCON1bits.VCFG1 = 0;
  1317  01E5  129F               	bcf	31,5	;volatile
  1318  01E6                     l3075:
  1319                           
  1320                           ;main.c: 54:     ADCON0bits.CHS = 0b0000;
  1321  01E6  30C3               	movlw	-61
  1322  01E7  1283               	bcf	3,5	;RP0=0, select bank0
  1323  01E8  1303               	bcf	3,6	;RP1=0, select bank0
  1324  01E9  059F               	andwf	31,f	;volatile
  1325  01EA                     l3077:
  1326                           
  1327                           ;main.c: 55:     ADCON0bits.ADCS = 0b01;
  1328  01EA  081F               	movf	31,w	;volatile
  1329  01EB  393F               	andlw	-193
  1330  01EC  3840               	iorlw	64
  1331  01ED  009F               	movwf	31	;volatile
  1332  01EE                     l3079:
  1333                           
  1334                           ;main.c: 56:     ADCON0bits.ADON = 1;
  1335  01EE  141F               	bsf	31,0	;volatile
  1336  01EF                     l3081:
  1337                           
  1338                           ;main.c: 59:     TRISC0 = 1;
  1339  01EF  1683               	bsf	3,5	;RP0=1, select bank1
  1340  01F0  1303               	bcf	3,6	;RP1=0, select bank1
  1341  01F1  1407               	bsf	7,0	;volatile
  1342  01F2                     l3083:
  1343                           
  1344                           ;main.c: 60:     TRISC3 = 0;
  1345  01F2  1187               	bcf	7,3	;volatile
  1346  01F3                     l3085:
  1347                           
  1348                           ;main.c: 61:     TRISC4 = 0;
  1349  01F3  1207               	bcf	7,4	;volatile
  1350  01F4                     l3087:
  1351                           
  1352                           ;main.c: 62:     PORTCbits.RC0 = 0;
  1353  01F4  1283               	bcf	3,5	;RP0=0, select bank0
  1354  01F5  1303               	bcf	3,6	;RP1=0, select bank0
  1355  01F6  1007               	bcf	7,0	;volatile
  1356  01F7                     l3089:
  1357                           
  1358                           ;main.c: 63:     PORTCbits.RC3 = 0;
  1359  01F7  1187               	bcf	7,3	;volatile
  1360  01F8                     l3091:
  1361                           
  1362                           ;main.c: 64:     PORTCbits.RC4 = 0;
  1363  01F8  1207               	bcf	7,4	;volatile
  1364  01F9                     l3093:
  1365                           
  1366                           ;main.c: 67:     TRISC2 = 1;
  1367  01F9  1683               	bsf	3,5	;RP0=1, select bank1
  1368  01FA  1303               	bcf	3,6	;RP1=0, select bank1
  1369  01FB  1507               	bsf	7,2	;volatile
  1370  01FC                     l3095:
  1371                           
  1372                           ;main.c: 68:     TRISC6 = 0;
  1373  01FC  1307               	bcf	7,6	;volatile
  1374  01FD                     l3097:
  1375                           
  1376                           ;main.c: 69:     PORTCbits.RC6 = 0;
  1377  01FD  1283               	bcf	3,5	;RP0=0, select bank0
  1378  01FE  1303               	bcf	3,6	;RP1=0, select bank0
  1379  01FF  1307               	bcf	7,6	;volatile
  1380  0200                     l3099:
  1381                           
  1382                           ;main.c: 70:     PORTCbits.RC2 = 0;
  1383  0200  1107               	bcf	7,2	;volatile
  1384  0201                     l3101:
  1385                           
  1386                           ;main.c: 73:     TRISC1 = 1;
  1387  0201  1683               	bsf	3,5	;RP0=1, select bank1
  1388  0202  1303               	bcf	3,6	;RP1=0, select bank1
  1389  0203  1487               	bsf	7,1	;volatile
  1390  0204                     l3103:
  1391                           
  1392                           ;main.c: 74:     TRISC5 = 0;
  1393  0204  1287               	bcf	7,5	;volatile
  1394  0205                     l3105:
  1395                           
  1396                           ;main.c: 75:     PORTCbits.RC1 = 0;
  1397  0205  1283               	bcf	3,5	;RP0=0, select bank0
  1398  0206  1303               	bcf	3,6	;RP1=0, select bank0
  1399  0207  1087               	bcf	7,1	;volatile
  1400  0208                     l3107:
  1401                           
  1402                           ;main.c: 76:     PORTCbits.RC5 = 0;
  1403  0208  1287               	bcf	7,5	;volatile
  1404  0209                     l3109:
  1405                           
  1406                           ;main.c: 78:     LCD_Init();
  1407  0209  160A  118A  25E0  120A  118A  	fcall	_LCD_Init
  1408  020E                     l3111:
  1409                           
  1410                           ;main.c: 83:         if( PORTCbits.RC0 == 1){
  1411  020E  1283               	bcf	3,5	;RP0=0, select bank0
  1412  020F  1303               	bcf	3,6	;RP1=0, select bank0
  1413  0210  1C07               	btfss	7,0	;volatile
  1414  0211  2A13               	goto	u4101
  1415  0212  2A14               	goto	u4100
  1416  0213                     u4101:
  1417  0213  2A17               	goto	l74
  1418  0214                     u4100:
  1419  0214                     l3113:
  1420                           
  1421                           ;main.c: 84:             PORTCbits.RC4 = 1;
  1422  0214  1607               	bsf	7,4	;volatile
  1423                           
  1424                           ;main.c: 85:             PORTCbits.RC3 = 1;
  1425  0215  1587               	bsf	7,3	;volatile
  1426                           
  1427                           ;main.c: 86:         }
  1428  0216  2A27               	goto	l75
  1429  0217                     l74:	
  1430                           ;main.c: 88:         else if( PORTCbits.RC2 == 1){
  1431                           
  1432  0217  1D07               	btfss	7,2	;volatile
  1433  0218  2A1A               	goto	u4111
  1434  0219  2A1B               	goto	u4110
  1435  021A                     u4111:
  1436  021A  2A1D               	goto	l76
  1437  021B                     u4110:
  1438  021B                     l3115:
  1439                           
  1440                           ;main.c: 89:             PORTCbits.RC6 = 1;
  1441  021B  1707               	bsf	7,6	;volatile
  1442                           
  1443                           ;main.c: 90:         }
  1444  021C  2A27               	goto	l75
  1445  021D                     l76:	
  1446                           ;main.c: 92:         else if ( PORTCbits.RC1 == 1){
  1447                           
  1448  021D  1C87               	btfss	7,1	;volatile
  1449  021E  2A20               	goto	u4121
  1450  021F  2A21               	goto	u4120
  1451  0220                     u4121:
  1452  0220  2A24               	goto	l78
  1453  0221                     u4120:
  1454  0221                     l3117:
  1455                           
  1456                           ;main.c: 93:             PORTCbits.RC4 = 1;
  1457  0221  1607               	bsf	7,4	;volatile
  1458                           
  1459                           ;main.c: 94:             PORTCbits.RC5 = 1;
  1460  0222  1687               	bsf	7,5	;volatile
  1461                           
  1462                           ;main.c: 95:         }
  1463  0223  2A27               	goto	l75
  1464  0224                     l78:	
  1465                           ;main.c: 96:         else{
  1466                           
  1467                           
  1468                           ;main.c: 97:             PORTCbits.RC4 = 0;
  1469  0224  1207               	bcf	7,4	;volatile
  1470                           
  1471                           ;main.c: 98:             PORTCbits.RC3 = 0;
  1472  0225  1187               	bcf	7,3	;volatile
  1473                           
  1474                           ;main.c: 99:             PORTCbits.RC5 = 0;
  1475  0226  1287               	bcf	7,5	;volatile
  1476  0227                     l75:
  1477                           
  1478                           ;main.c: 103:         ADCON0bits.GO_DONE = 1;
  1479  0227  149F               	bsf	31,1	;volatile
  1480  0228                     l80:	
  1481                           ;main.c: 104:         while (ADCON0bits.GO_DONE);
  1482                           
  1483  0228  189F               	btfsc	31,1	;volatile
  1484  0229  2A2B               	goto	u4131
  1485  022A  2A2C               	goto	u4130
  1486  022B                     u4131:
  1487  022B  2A28               	goto	l80
  1488  022C                     u4130:
  1489  022C                     l3119:
  1490                           
  1491                           ;main.c: 105:         value_adc = ADRESH;
  1492  022C  081E               	movf	30,w	;volatile
  1493  022D  1683               	bsf	3,5	;RP0=1, select bank1
  1494  022E  1303               	bcf	3,6	;RP1=0, select bank1
  1495  022F  00C0               	movwf	??_main^(0+128)
  1496  0230  01C1               	clrf	(??_main^(0+128)+1)
  1497  0231  0840               	movf	??_main^(0+128),w
  1498  0232  00EC               	movwf	_value_adc^(0+128)
  1499  0233  0841               	movf	(??_main+1)^(0+128),w
  1500  0234  00ED               	movwf	(_value_adc+1)^(0+128)
  1501  0235                     l3121:
  1502                           
  1503                           ;main.c: 106:         value_adc = (value_adc << 8) + ADRESL;
  1504  0235  086D               	movf	(_value_adc+1)^(0+128),w
  1505  0236  00C1               	movwf	(??_main^(0+128)+1)
  1506  0237  086C               	movf	_value_adc^(0+128),w
  1507  0238  00C0               	movwf	??_main^(0+128)
  1508  0239  0840               	movf	??_main^(0+128),w
  1509  023A  00C1               	movwf	(??_main^(0+128)+1)
  1510  023B  01C0               	clrf	??_main^(0+128)
  1511  023C  081E               	movf	30,w	;volatile
  1512  023D  0740               	addwf	??_main^(0+128),w
  1513  023E  00C2               	movwf	(??_main+2)^(0+128)
  1514  023F  3000               	movlw	0
  1515  0240  1803               	skipnc
  1516  0241  3001               	movlw	1
  1517  0242  0741               	addwf	(??_main+1)^(0+128),w
  1518  0243  00C3               	movwf	(??_main+3)^(0+128)
  1519  0244  0842               	movf	(??_main+2)^(0+128),w
  1520  0245  00EC               	movwf	_value_adc^(0+128)
  1521  0246  0843               	movf	(??_main+3)^(0+128),w
  1522  0247  00ED               	movwf	(_value_adc+1)^(0+128)
  1523  0248                     l3123:
  1524                           
  1525                           ;main.c: 107:         temp = value_adc;
  1526  0248  086C               	movf	_value_adc^(0+128),w
  1527  0249  00F0               	movwf	___xxtofl@val
  1528  024A  086D               	movf	(_value_adc+1)^(0+128),w
  1529  024B  00F1               	movwf	___xxtofl@val+1
  1530  024C  3000               	movlw	0
  1531  024D  1BF1               	btfsc	___xxtofl@val+1,7
  1532  024E  30FF               	movlw	255
  1533  024F  00F2               	movwf	___xxtofl@val+2
  1534  0250  00F3               	movwf	___xxtofl@val+3
  1535  0251  3001               	movlw	1
  1536  0252  120A  158A  2104  120A  118A  	fcall	___xxtofl
  1537  0257  0873               	movf	?___xxtofl+3,w
  1538  0258  1683               	bsf	3,5	;RP0=1, select bank1
  1539  0259  1303               	bcf	3,6	;RP1=0, select bank1
  1540  025A  00E5               	movwf	(_temp+3)^(0+128)
  1541  025B  0872               	movf	?___xxtofl+2,w
  1542  025C  00E4               	movwf	(_temp+2)^(0+128)
  1543  025D  0871               	movf	?___xxtofl+1,w
  1544  025E  00E3               	movwf	(_temp+1)^(0+128)
  1545  025F  0870               	movf	?___xxtofl,w
  1546  0260  00E2               	movwf	_temp^(0+128)
  1547  0261                     l3125:
  1548                           
  1549                           ;main.c: 110:         long a = (long)(1023 - temp);
  1550  0261  3044               	movlw	68
  1551  0262  00A7               	movwf	(___flsub@b+3)^(0+128)
  1552  0263  307F               	movlw	127
  1553  0264  00A6               	movwf	(___flsub@b+2)^(0+128)
  1554  0265  30C0               	movlw	192
  1555  0266  00A5               	movwf	(___flsub@b+1)^(0+128)
  1556  0267  3000               	movlw	0
  1557  0268  00A4               	movwf	___flsub@b^(0+128)
  1558  0269  0865               	movf	(_temp+3)^(0+128),w
  1559  026A  00A3               	movwf	(___flsub@a+3)^(0+128)
  1560  026B  0864               	movf	(_temp+2)^(0+128),w
  1561  026C  00A2               	movwf	(___flsub@a+2)^(0+128)
  1562  026D  0863               	movf	(_temp+1)^(0+128),w
  1563  026E  00A1               	movwf	(___flsub@a+1)^(0+128)
  1564  026F  0862               	movf	_temp^(0+128),w
  1565  0270  00A0               	movwf	___flsub@a^(0+128)
  1566  0271  120A  158A  2012  120A  118A  	fcall	___flsub
  1567  0276  1683               	bsf	3,5	;RP0=1, select bank1
  1568  0277  1303               	bcf	3,6	;RP1=0, select bank1
  1569  0278  0823               	movf	(?___flsub+3)^(0+128),w
  1570  0279  00AB               	movwf	(___fltol@f1+3)^(0+128)
  1571  027A  0822               	movf	(?___flsub+2)^(0+128),w
  1572  027B  00AA               	movwf	(___fltol@f1+2)^(0+128)
  1573  027C  0821               	movf	(?___flsub+1)^(0+128),w
  1574  027D  00A9               	movwf	(___fltol@f1+1)^(0+128)
  1575  027E  0820               	movf	?___flsub^(0+128),w
  1576  027F  00A8               	movwf	___fltol@f1^(0+128)
  1577  0280  160A  118A  276E  120A  118A  	fcall	___fltol
  1578  0285  1683               	bsf	3,5	;RP0=1, select bank1
  1579  0286  1303               	bcf	3,6	;RP1=0, select bank1
  1580  0287  082B               	movf	(?___fltol+3)^(0+128),w
  1581  0288  00D1               	movwf	(main@a+3)^(0+128)
  1582  0289  082A               	movf	(?___fltol+2)^(0+128),w
  1583  028A  00D0               	movwf	(main@a+2)^(0+128)
  1584  028B  0829               	movf	(?___fltol+1)^(0+128),w
  1585  028C  00CF               	movwf	(main@a+1)^(0+128)
  1586  028D  0828               	movf	?___fltol^(0+128),w
  1587  028E  00CE               	movwf	main@a^(0+128)
  1588  028F                     l3127:
  1589                           
  1590                           ;main.c: 111:         float tempC = (float)(4090 /(log((1025.0 * 10/ a - 10) / 10) + 409
      +                          0 / 298.0) - 273.0);
  1591  028F  30C1               	movlw	193
  1592  0290  1283               	bcf	3,5	;RP0=0, select bank0
  1593  0291  1303               	bcf	3,6	;RP1=0, select bank0
  1594  0292  00DC               	movwf	___fladd@b+3
  1595  0293  3020               	movlw	32
  1596  0294  00DB               	movwf	___fladd@b+2
  1597  0295  3000               	movlw	0
  1598  0296  00DA               	movwf	___fladd@b+1
  1599  0297  3000               	movlw	0
  1600  0298  00D9               	movwf	___fladd@b
  1601  0299  1683               	bsf	3,5	;RP0=1, select bank1
  1602  029A  1303               	bcf	3,6	;RP1=0, select bank1
  1603  029B  0851               	movf	(main@a+3)^(0+128),w
  1604  029C  00F3               	movwf	___xxtofl@val+3
  1605  029D  0850               	movf	(main@a+2)^(0+128),w
  1606  029E  00F2               	movwf	___xxtofl@val+2
  1607  029F  084F               	movf	(main@a+1)^(0+128),w
  1608  02A0  00F1               	movwf	___xxtofl@val+1
  1609  02A1  084E               	movf	main@a^(0+128),w
  1610  02A2  00F0               	movwf	___xxtofl@val
  1611  02A3  3001               	movlw	1
  1612  02A4  120A  158A  2104  120A  118A  	fcall	___xxtofl
  1613  02A9  0873               	movf	?___xxtofl+3,w
  1614  02AA  1283               	bcf	3,5	;RP0=0, select bank0
  1615  02AB  1303               	bcf	3,6	;RP1=0, select bank0
  1616  02AC  00C2               	movwf	___fldiv@a+3
  1617  02AD  0872               	movf	?___xxtofl+2,w
  1618  02AE  00C1               	movwf	___fldiv@a+2
  1619  02AF  0871               	movf	?___xxtofl+1,w
  1620  02B0  00C0               	movwf	___fldiv@a+1
  1621  02B1  0870               	movf	?___xxtofl,w
  1622  02B2  00BF               	movwf	___fldiv@a
  1623  02B3  3046               	movlw	70
  1624  02B4  00C6               	movwf	___fldiv@b+3
  1625  02B5  3020               	movlw	32
  1626  02B6  00C5               	movwf	___fldiv@b+2
  1627  02B7  3028               	movlw	40
  1628  02B8  00C4               	movwf	___fldiv@b+1
  1629  02B9  3000               	movlw	0
  1630  02BA  00C3               	movwf	___fldiv@b
  1631  02BB  120A  158A  239B  120A  118A  	fcall	___fldiv
  1632  02C0  1283               	bcf	3,5	;RP0=0, select bank0
  1633  02C1  1303               	bcf	3,6	;RP1=0, select bank0
  1634  02C2  0842               	movf	?___fldiv+3,w
  1635  02C3  00E0               	movwf	___fladd@a+3
  1636  02C4  0841               	movf	?___fldiv+2,w
  1637  02C5  00DF               	movwf	___fladd@a+2
  1638  02C6  0840               	movf	?___fldiv+1,w
  1639  02C7  00DE               	movwf	___fladd@a+1
  1640  02C8  083F               	movf	?___fldiv,w
  1641  02C9  00DD               	movwf	___fladd@a
  1642  02CA  120A  158A  2578  120A  118A  	fcall	___fladd
  1643  02CF  1283               	bcf	3,5	;RP0=0, select bank0
  1644  02D0  1303               	bcf	3,6	;RP1=0, select bank0
  1645  02D1  085C               	movf	?___fladd+3,w
  1646  02D2  1683               	bsf	3,5	;RP0=1, select bank1
  1647  02D3  1303               	bcf	3,6	;RP1=0, select bank1
  1648  02D4  00D5               	movwf	(_main$1055+3)^(0+128)
  1649  02D5  1283               	bcf	3,5	;RP0=0, select bank0
  1650  02D6  1303               	bcf	3,6	;RP1=0, select bank0
  1651  02D7  085B               	movf	?___fladd+2,w
  1652  02D8  1683               	bsf	3,5	;RP0=1, select bank1
  1653  02D9  1303               	bcf	3,6	;RP1=0, select bank1
  1654  02DA  00D4               	movwf	(_main$1055+2)^(0+128)
  1655  02DB  1283               	bcf	3,5	;RP0=0, select bank0
  1656  02DC  1303               	bcf	3,6	;RP1=0, select bank0
  1657  02DD  085A               	movf	?___fladd+1,w
  1658  02DE  1683               	bsf	3,5	;RP0=1, select bank1
  1659  02DF  1303               	bcf	3,6	;RP1=0, select bank1
  1660  02E0  00D3               	movwf	(_main$1055+1)^(0+128)
  1661  02E1  1283               	bcf	3,5	;RP0=0, select bank0
  1662  02E2  1303               	bcf	3,6	;RP1=0, select bank0
  1663  02E3  0859               	movf	?___fladd,w
  1664  02E4  1683               	bsf	3,5	;RP0=1, select bank1
  1665  02E5  1303               	bcf	3,6	;RP1=0, select bank1
  1666  02E6  00D2               	movwf	_main$1055^(0+128)
  1667  02E7                     l3129:
  1668                           
  1669                           ;main.c: 111:         float tempC = (float)(4090 /(log((1025.0 * 10/ a - 10) / 10) + 409
      +                          0 / 298.0) - 273.0);
  1670  02E7  3041               	movlw	65
  1671  02E8  1283               	bcf	3,5	;RP0=0, select bank0
  1672  02E9  1303               	bcf	3,6	;RP1=0, select bank0
  1673  02EA  00C2               	movwf	___fldiv@a+3
  1674  02EB  3020               	movlw	32
  1675  02EC  00C1               	movwf	___fldiv@a+2
  1676  02ED  3000               	movlw	0
  1677  02EE  00C0               	movwf	___fldiv@a+1
  1678  02EF  3000               	movlw	0
  1679  02F0  00BF               	movwf	___fldiv@a
  1680  02F1  1683               	bsf	3,5	;RP0=1, select bank1
  1681  02F2  1303               	bcf	3,6	;RP1=0, select bank1
  1682  02F3  0855               	movf	(_main$1055+3)^(0+128),w
  1683  02F4  1283               	bcf	3,5	;RP0=0, select bank0
  1684  02F5  1303               	bcf	3,6	;RP1=0, select bank0
  1685  02F6  00C6               	movwf	___fldiv@b+3
  1686  02F7  1683               	bsf	3,5	;RP0=1, select bank1
  1687  02F8  1303               	bcf	3,6	;RP1=0, select bank1
  1688  02F9  0854               	movf	(_main$1055+2)^(0+128),w
  1689  02FA  1283               	bcf	3,5	;RP0=0, select bank0
  1690  02FB  1303               	bcf	3,6	;RP1=0, select bank0
  1691  02FC  00C5               	movwf	___fldiv@b+2
  1692  02FD  1683               	bsf	3,5	;RP0=1, select bank1
  1693  02FE  1303               	bcf	3,6	;RP1=0, select bank1
  1694  02FF  0853               	movf	(_main$1055+1)^(0+128),w
  1695  0300  1283               	bcf	3,5	;RP0=0, select bank0
  1696  0301  1303               	bcf	3,6	;RP1=0, select bank0
  1697  0302  00C4               	movwf	___fldiv@b+1
  1698  0303  1683               	bsf	3,5	;RP0=1, select bank1
  1699  0304  1303               	bcf	3,6	;RP1=0, select bank1
  1700  0305  0852               	movf	_main$1055^(0+128),w
  1701  0306  1283               	bcf	3,5	;RP0=0, select bank0
  1702  0307  1303               	bcf	3,6	;RP1=0, select bank0
  1703  0308  00C3               	movwf	___fldiv@b
  1704  0309  120A  158A  239B  120A  118A  	fcall	___fldiv
  1705  030E  1283               	bcf	3,5	;RP0=0, select bank0
  1706  030F  1303               	bcf	3,6	;RP1=0, select bank0
  1707  0310  0842               	movf	?___fldiv+3,w
  1708  0311  1683               	bsf	3,5	;RP0=1, select bank1
  1709  0312  1303               	bcf	3,6	;RP1=0, select bank1
  1710  0313  00B3               	movwf	(log@x+3)^(0+128)
  1711  0314  1283               	bcf	3,5	;RP0=0, select bank0
  1712  0315  1303               	bcf	3,6	;RP1=0, select bank0
  1713  0316  0841               	movf	?___fldiv+2,w
  1714  0317  1683               	bsf	3,5	;RP0=1, select bank1
  1715  0318  1303               	bcf	3,6	;RP1=0, select bank1
  1716  0319  00B2               	movwf	(log@x+2)^(0+128)
  1717  031A  1283               	bcf	3,5	;RP0=0, select bank0
  1718  031B  1303               	bcf	3,6	;RP1=0, select bank0
  1719  031C  0840               	movf	?___fldiv+1,w
  1720  031D  1683               	bsf	3,5	;RP0=1, select bank1
  1721  031E  1303               	bcf	3,6	;RP1=0, select bank1
  1722  031F  00B1               	movwf	(log@x+1)^(0+128)
  1723  0320  1283               	bcf	3,5	;RP0=0, select bank0
  1724  0321  1303               	bcf	3,6	;RP1=0, select bank0
  1725  0322  083F               	movf	?___fldiv,w
  1726  0323  1683               	bsf	3,5	;RP0=1, select bank1
  1727  0324  1303               	bcf	3,6	;RP1=0, select bank1
  1728  0325  00B0               	movwf	log@x^(0+128)
  1729  0326  120A  118A  207F  120A  118A  	fcall	_log
  1730  032B  1683               	bsf	3,5	;RP0=1, select bank1
  1731  032C  1303               	bcf	3,6	;RP1=0, select bank1
  1732  032D  0833               	movf	(?_log+3)^(0+128),w
  1733  032E  00D9               	movwf	(_main$1056+3)^(0+128)
  1734  032F  0832               	movf	(?_log+2)^(0+128),w
  1735  0330  00D8               	movwf	(_main$1056+2)^(0+128)
  1736  0331  0831               	movf	(?_log+1)^(0+128),w
  1737  0332  00D7               	movwf	(_main$1056+1)^(0+128)
  1738  0333  0830               	movf	?_log^(0+128),w
  1739  0334  00D6               	movwf	_main$1056^(0+128)
  1740  0335                     l3131:
  1741                           
  1742                           ;main.c: 111:         float tempC = (float)(4090 /(log((1025.0 * 10/ a - 10) / 10) + 409
      +                          0 / 298.0) - 273.0);
  1743  0335  3041               	movlw	65
  1744  0336  1283               	bcf	3,5	;RP0=0, select bank0
  1745  0337  1303               	bcf	3,6	;RP1=0, select bank0
  1746  0338  00DC               	movwf	___fladd@b+3
  1747  0339  305B               	movlw	91
  1748  033A  00DB               	movwf	___fladd@b+2
  1749  033B  3098               	movlw	152
  1750  033C  00DA               	movwf	___fladd@b+1
  1751  033D  30EA               	movlw	234
  1752  033E  00D9               	movwf	___fladd@b
  1753  033F  1683               	bsf	3,5	;RP0=1, select bank1
  1754  0340  1303               	bcf	3,6	;RP1=0, select bank1
  1755  0341  0859               	movf	(_main$1056+3)^(0+128),w
  1756  0342  1283               	bcf	3,5	;RP0=0, select bank0
  1757  0343  1303               	bcf	3,6	;RP1=0, select bank0
  1758  0344  00E0               	movwf	___fladd@a+3
  1759  0345  1683               	bsf	3,5	;RP0=1, select bank1
  1760  0346  1303               	bcf	3,6	;RP1=0, select bank1
  1761  0347  0858               	movf	(_main$1056+2)^(0+128),w
  1762  0348  1283               	bcf	3,5	;RP0=0, select bank0
  1763  0349  1303               	bcf	3,6	;RP1=0, select bank0
  1764  034A  00DF               	movwf	___fladd@a+2
  1765  034B  1683               	bsf	3,5	;RP0=1, select bank1
  1766  034C  1303               	bcf	3,6	;RP1=0, select bank1
  1767  034D  0857               	movf	(_main$1056+1)^(0+128),w
  1768  034E  1283               	bcf	3,5	;RP0=0, select bank0
  1769  034F  1303               	bcf	3,6	;RP1=0, select bank0
  1770  0350  00DE               	movwf	___fladd@a+1
  1771  0351  1683               	bsf	3,5	;RP0=1, select bank1
  1772  0352  1303               	bcf	3,6	;RP1=0, select bank1
  1773  0353  0856               	movf	_main$1056^(0+128),w
  1774  0354  1283               	bcf	3,5	;RP0=0, select bank0
  1775  0355  1303               	bcf	3,6	;RP1=0, select bank0
  1776  0356  00DD               	movwf	___fladd@a
  1777  0357  120A  158A  2578  120A  118A  	fcall	___fladd
  1778  035C  1283               	bcf	3,5	;RP0=0, select bank0
  1779  035D  1303               	bcf	3,6	;RP1=0, select bank0
  1780  035E  085C               	movf	?___fladd+3,w
  1781  035F  00C2               	movwf	___fldiv@a+3
  1782  0360  085B               	movf	?___fladd+2,w
  1783  0361  00C1               	movwf	___fldiv@a+2
  1784  0362  085A               	movf	?___fladd+1,w
  1785  0363  00C0               	movwf	___fldiv@a+1
  1786  0364  0859               	movf	?___fladd,w
  1787  0365  00BF               	movwf	___fldiv@a
  1788  0366  3045               	movlw	69
  1789  0367  00C6               	movwf	___fldiv@b+3
  1790  0368  307F               	movlw	127
  1791  0369  00C5               	movwf	___fldiv@b+2
  1792  036A  30A0               	movlw	160
  1793  036B  00C4               	movwf	___fldiv@b+1
  1794  036C  3000               	movlw	0
  1795  036D  00C3               	movwf	___fldiv@b
  1796  036E  120A  158A  239B  120A  118A  	fcall	___fldiv
  1797  0373  1283               	bcf	3,5	;RP0=0, select bank0
  1798  0374  1303               	bcf	3,6	;RP1=0, select bank0
  1799  0375  0842               	movf	?___fldiv+3,w
  1800  0376  1683               	bsf	3,5	;RP0=1, select bank1
  1801  0377  1303               	bcf	3,6	;RP1=0, select bank1
  1802  0378  00DD               	movwf	(_main$1057+3)^(0+128)
  1803  0379  1283               	bcf	3,5	;RP0=0, select bank0
  1804  037A  1303               	bcf	3,6	;RP1=0, select bank0
  1805  037B  0841               	movf	?___fldiv+2,w
  1806  037C  1683               	bsf	3,5	;RP0=1, select bank1
  1807  037D  1303               	bcf	3,6	;RP1=0, select bank1
  1808  037E  00DC               	movwf	(_main$1057+2)^(0+128)
  1809  037F  1283               	bcf	3,5	;RP0=0, select bank0
  1810  0380  1303               	bcf	3,6	;RP1=0, select bank0
  1811  0381  0840               	movf	?___fldiv+1,w
  1812  0382  1683               	bsf	3,5	;RP0=1, select bank1
  1813  0383  1303               	bcf	3,6	;RP1=0, select bank1
  1814  0384  00DB               	movwf	(_main$1057+1)^(0+128)
  1815  0385  1283               	bcf	3,5	;RP0=0, select bank0
  1816  0386  1303               	bcf	3,6	;RP1=0, select bank0
  1817  0387  083F               	movf	?___fldiv,w
  1818  0388  1683               	bsf	3,5	;RP0=1, select bank1
  1819  0389  1303               	bcf	3,6	;RP1=0, select bank1
  1820  038A  00DA               	movwf	_main$1057^(0+128)
  1821  038B                     l3133:
  1822                           
  1823                           ;main.c: 111:         float tempC = (float)(4090 /(log((1025.0 * 10/ a - 10) / 10) + 409
      +                          0 / 298.0) - 273.0);
  1824  038B  30C3               	movlw	195
  1825  038C  1283               	bcf	3,5	;RP0=0, select bank0
  1826  038D  1303               	bcf	3,6	;RP1=0, select bank0
  1827  038E  00DC               	movwf	___fladd@b+3
  1828  038F  3088               	movlw	136
  1829  0390  00DB               	movwf	___fladd@b+2
  1830  0391  3080               	movlw	128
  1831  0392  00DA               	movwf	___fladd@b+1
  1832  0393  3000               	movlw	0
  1833  0394  00D9               	movwf	___fladd@b
  1834  0395  1683               	bsf	3,5	;RP0=1, select bank1
  1835  0396  1303               	bcf	3,6	;RP1=0, select bank1
  1836  0397  085D               	movf	(_main$1057+3)^(0+128),w
  1837  0398  1283               	bcf	3,5	;RP0=0, select bank0
  1838  0399  1303               	bcf	3,6	;RP1=0, select bank0
  1839  039A  00E0               	movwf	___fladd@a+3
  1840  039B  1683               	bsf	3,5	;RP0=1, select bank1
  1841  039C  1303               	bcf	3,6	;RP1=0, select bank1
  1842  039D  085C               	movf	(_main$1057+2)^(0+128),w
  1843  039E  1283               	bcf	3,5	;RP0=0, select bank0
  1844  039F  1303               	bcf	3,6	;RP1=0, select bank0
  1845  03A0  00DF               	movwf	___fladd@a+2
  1846  03A1  1683               	bsf	3,5	;RP0=1, select bank1
  1847  03A2  1303               	bcf	3,6	;RP1=0, select bank1
  1848  03A3  085B               	movf	(_main$1057+1)^(0+128),w
  1849  03A4  1283               	bcf	3,5	;RP0=0, select bank0
  1850  03A5  1303               	bcf	3,6	;RP1=0, select bank0
  1851  03A6  00DE               	movwf	___fladd@a+1
  1852  03A7  1683               	bsf	3,5	;RP0=1, select bank1
  1853  03A8  1303               	bcf	3,6	;RP1=0, select bank1
  1854  03A9  085A               	movf	_main$1057^(0+128),w
  1855  03AA  1283               	bcf	3,5	;RP0=0, select bank0
  1856  03AB  1303               	bcf	3,6	;RP1=0, select bank0
  1857  03AC  00DD               	movwf	___fladd@a
  1858  03AD  120A  158A  2578  120A  118A  	fcall	___fladd
  1859  03B2  1283               	bcf	3,5	;RP0=0, select bank0
  1860  03B3  1303               	bcf	3,6	;RP1=0, select bank0
  1861  03B4  085C               	movf	?___fladd+3,w
  1862  03B5  1683               	bsf	3,5	;RP0=1, select bank1
  1863  03B6  1303               	bcf	3,6	;RP1=0, select bank1
  1864  03B7  00E1               	movwf	(main@tempC+3)^(0+128)
  1865  03B8  1283               	bcf	3,5	;RP0=0, select bank0
  1866  03B9  1303               	bcf	3,6	;RP1=0, select bank0
  1867  03BA  085B               	movf	?___fladd+2,w
  1868  03BB  1683               	bsf	3,5	;RP0=1, select bank1
  1869  03BC  1303               	bcf	3,6	;RP1=0, select bank1
  1870  03BD  00E0               	movwf	(main@tempC+2)^(0+128)
  1871  03BE  1283               	bcf	3,5	;RP0=0, select bank0
  1872  03BF  1303               	bcf	3,6	;RP1=0, select bank0
  1873  03C0  085A               	movf	?___fladd+1,w
  1874  03C1  1683               	bsf	3,5	;RP0=1, select bank1
  1875  03C2  1303               	bcf	3,6	;RP1=0, select bank1
  1876  03C3  00DF               	movwf	(main@tempC+1)^(0+128)
  1877  03C4  1283               	bcf	3,5	;RP0=0, select bank0
  1878  03C5  1303               	bcf	3,6	;RP1=0, select bank0
  1879  03C6  0859               	movf	?___fladd,w
  1880  03C7  1683               	bsf	3,5	;RP0=1, select bank1
  1881  03C8  1303               	bcf	3,6	;RP1=0, select bank1
  1882  03C9  00DE               	movwf	main@tempC^(0+128)
  1883  03CA                     l3135:
  1884                           
  1885                           ;main.c: 114:         char Temperature [10];;main.c: 115:         sprintf(Temperature, "
      +                          %d%cC", (int)tempC,0xdf );
  1886  03CA  3067               	movlw	(low ((STR_1-__stringbase)| (0+32768)))& (0+255)
  1887  03CB  00C0               	movwf	??_main^(0+128)
  1888  03CC  0840               	movf	??_main^(0+128),w
  1889  03CD  00B1               	movwf	sprintf@f^(0+128)
  1890  03CE  0861               	movf	(main@tempC+3)^(0+128),w
  1891  03CF  00AB               	movwf	(___fltol@f1+3)^(0+128)
  1892  03D0  0860               	movf	(main@tempC+2)^(0+128),w
  1893  03D1  00AA               	movwf	(___fltol@f1+2)^(0+128)
  1894  03D2  085F               	movf	(main@tempC+1)^(0+128),w
  1895  03D3  00A9               	movwf	(___fltol@f1+1)^(0+128)
  1896  03D4  085E               	movf	main@tempC^(0+128),w
  1897  03D5  00A8               	movwf	___fltol@f1^(0+128)
  1898  03D6  160A  118A  276E  120A  118A  	fcall	___fltol
  1899  03DB  1683               	bsf	3,5	;RP0=1, select bank1
  1900  03DC  1303               	bcf	3,6	;RP1=0, select bank1
  1901  03DD  0829               	movf	(?___fltol+1)^(0+128),w
  1902  03DE  00B3               	movwf	((?_sprintf+1)^(0+128)+1)
  1903  03DF  0828               	movf	?___fltol^(0+128),w
  1904  03E0  00B2               	movwf	(?_sprintf^(0+128)+1)
  1905  03E1  30DF               	movlw	223
  1906  03E2  00B4               	movwf	(?_sprintf^(0+128)+3)
  1907  03E3  3000               	movlw	0
  1908  03E4  00B5               	movwf	(?_sprintf^(0+128)+4)
  1909  03E5  30C4               	movlw	(low (main@Temperature| 0))& (0+255)
  1910  03E6  120A  158A  2298  120A  118A  	fcall	_sprintf
  1911  03EB                     l3137:
  1912                           
  1913                           ;main.c: 117:         LCD_String_xy(1,0,"Temperatura:");
  1914  03EB  01F5               	clrf	LCD_String_xy@pos
  1915  03EC  305A               	movlw	(low ((STR_2-__stringbase)| (0+32768)))& (0+255)
  1916  03ED  1683               	bsf	3,5	;RP0=1, select bank1
  1917  03EE  1303               	bcf	3,6	;RP1=0, select bank1
  1918  03EF  00C0               	movwf	??_main^(0+128)
  1919  03F0  0840               	movf	??_main^(0+128),w
  1920  03F1  00F6               	movwf	LCD_String_xy@msg
  1921  03F2  3001               	movlw	1
  1922  03F3  160A  118A  260A  120A  118A  	fcall	_LCD_String_xy
  1923  03F8                     l3139:
  1924                           
  1925                           ;main.c: 118:         LCD_String(Temperature);
  1926  03F8  30C4               	movlw	(low (main@Temperature| 0))& (0+255)
  1927  03F9  00F3               	movwf	LCD_String@msg
  1928  03FA  3000               	movlw	0
  1929  03FB  00F4               	movwf	LCD_String@msg+1
  1930  03FC  160A  118A  2593  120A  118A  	fcall	_LCD_String
  1931  0401                     l3141:
  1932                           
  1933                           ;main.c: 119:         LCD_String("  ");
  1934  0401  306D               	movlw	(low ((STR_3-__stringbase)| (0+32768)))& (0+255)
  1935  0402  00F3               	movwf	LCD_String@msg
  1936  0403  3080               	movlw	128
  1937  0404  00F4               	movwf	LCD_String@msg+1
  1938  0405  160A  118A  2593  120A  118A  	fcall	_LCD_String
  1939  040A                     l3143:
  1940                           
  1941                           ;main.c: 121:         if ( tempC > 25){
  1942  040A  3041               	movlw	65
  1943  040B  00F3               	movwf	___flge@ff1+3
  1944  040C  30C8               	movlw	200
  1945  040D  00F2               	movwf	___flge@ff1+2
  1946  040E  3000               	movlw	0
  1947  040F  00F1               	movwf	___flge@ff1+1
  1948  0410  3000               	movlw	0
  1949  0411  00F0               	movwf	___flge@ff1
  1950  0412  1683               	bsf	3,5	;RP0=1, select bank1
  1951  0413  1303               	bcf	3,6	;RP1=0, select bank1
  1952  0414  0861               	movf	(main@tempC+3)^(0+128),w
  1953  0415  00F7               	movwf	___flge@ff2+3
  1954  0416  0860               	movf	(main@tempC+2)^(0+128),w
  1955  0417  00F6               	movwf	___flge@ff2+2
  1956  0418  085F               	movf	(main@tempC+1)^(0+128),w
  1957  0419  00F5               	movwf	___flge@ff2+1
  1958  041A  085E               	movf	main@tempC^(0+128),w
  1959  041B  00F4               	movwf	___flge@ff2
  1960  041C  120A  158A  2062  120A  118A  	fcall	___flge
  1961  0421  1803               	btfsc	3,0
  1962  0422  2C24               	goto	u4141
  1963  0423  2C25               	goto	u4140
  1964  0424                     u4141:
  1965  0424  2C33               	goto	l3147
  1966  0425                     u4140:
  1967  0425                     l3145:
  1968                           
  1969                           ;main.c: 122:             LCD_String_xy(2,0,"Disminuir Temp");
  1970  0425  01F5               	clrf	LCD_String_xy@pos
  1971  0426  302F               	movlw	(low ((STR_4-__stringbase)| (0+32768)))& (0+255)
  1972  0427  1683               	bsf	3,5	;RP0=1, select bank1
  1973  0428  1303               	bcf	3,6	;RP1=0, select bank1
  1974  0429  00C0               	movwf	??_main^(0+128)
  1975  042A  0840               	movf	??_main^(0+128),w
  1976  042B  00F6               	movwf	LCD_String_xy@msg
  1977  042C  3002               	movlw	2
  1978  042D  160A  118A  260A  120A  118A  	fcall	_LCD_String_xy
  1979                           
  1980                           ;main.c: 124:         }
  1981  0432  2C69               	goto	l3153
  1982  0433                     l3147:
  1983  0433  1683               	bsf	3,5	;RP0=1, select bank1
  1984  0434  1303               	bcf	3,6	;RP1=0, select bank1
  1985  0435  0861               	movf	(main@tempC+3)^(0+128),w
  1986  0436  00F3               	movwf	___flge@ff1+3
  1987  0437  0860               	movf	(main@tempC+2)^(0+128),w
  1988  0438  00F2               	movwf	___flge@ff1+2
  1989  0439  085F               	movf	(main@tempC+1)^(0+128),w
  1990  043A  00F1               	movwf	___flge@ff1+1
  1991  043B  085E               	movf	main@tempC^(0+128),w
  1992  043C  00F0               	movwf	___flge@ff1
  1993  043D  3041               	movlw	65
  1994  043E  00F7               	movwf	___flge@ff2+3
  1995  043F  3090               	movlw	144
  1996  0440  00F6               	movwf	___flge@ff2+2
  1997  0441  3000               	movlw	0
  1998  0442  00F5               	movwf	___flge@ff2+1
  1999  0443  3000               	movlw	0
  2000  0444  00F4               	movwf	___flge@ff2
  2001  0445  120A  158A  2062  120A  118A  	fcall	___flge
  2002  044A  1803               	btfsc	3,0
  2003  044B  2C4D               	goto	u4151
  2004  044C  2C4E               	goto	u4150
  2005  044D                     u4151:
  2006  044D  2C5C               	goto	l3151
  2007  044E                     u4150:
  2008  044E                     l3149:
  2009                           
  2010                           ;main.c: 126:             LCD_String_xy(2,0,"Aumentar Temp");
  2011  044E  01F5               	clrf	LCD_String_xy@pos
  2012  044F  304C               	movlw	(low ((STR_5-__stringbase)| (0+32768)))& (0+255)
  2013  0450  1683               	bsf	3,5	;RP0=1, select bank1
  2014  0451  1303               	bcf	3,6	;RP1=0, select bank1
  2015  0452  00C0               	movwf	??_main^(0+128)
  2016  0453  0840               	movf	??_main^(0+128),w
  2017  0454  00F6               	movwf	LCD_String_xy@msg
  2018  0455  3002               	movlw	2
  2019  0456  160A  118A  260A  120A  118A  	fcall	_LCD_String_xy
  2020                           
  2021                           ;main.c: 128:         }
  2022  045B  2C69               	goto	l3153
  2023  045C                     l3151:
  2024                           
  2025                           ;main.c: 130:             LCD_String_xy(2,0,"Temp Adecuada");
  2026  045C  01F5               	clrf	LCD_String_xy@pos
  2027  045D  303E               	movlw	(low ((STR_6-__stringbase)| (0+32768)))& (0+255)
  2028  045E  1683               	bsf	3,5	;RP0=1, select bank1
  2029  045F  1303               	bcf	3,6	;RP1=0, select bank1
  2030  0460  00C0               	movwf	??_main^(0+128)
  2031  0461  0840               	movf	??_main^(0+128),w
  2032  0462  00F6               	movwf	LCD_String_xy@msg
  2033  0463  3002               	movlw	2
  2034  0464  160A  118A  260A  120A  118A  	fcall	_LCD_String_xy
  2035  0469                     l3153:
  2036                           
  2037                           ;main.c: 133:         _delay((unsigned long)((1000)*(8000000/4000.0)));
  2038  0469  300B               	movlw	11
  2039  046A  1683               	bsf	3,5	;RP0=1, select bank1
  2040  046B  1303               	bcf	3,6	;RP1=0, select bank1
  2041  046C  00C2               	movwf	(??_main^(0+128)+2)
  2042  046D  3026               	movlw	38
  2043  046E  00C1               	movwf	(??_main^(0+128)+1)
  2044  046F  305D               	movlw	93
  2045  0470  00C0               	movwf	??_main^(0+128)
  2046  0471                     u4617:
  2047  0471  0BC0               	decfsz	??_main^(0+128),f
  2048  0472  2C71               	goto	u4617
  2049  0473  0BC1               	decfsz	(??_main^(0+128)+1),f
  2050  0474  2C71               	goto	u4617
  2051  0475  0BC2               	decfsz	(??_main^(0+128)+2),f
  2052  0476  2C71               	goto	u4617
  2053  0477  2A0E               	goto	l3111
  2054  0478  120A  118A  2800   	ljmp	start
  2055  047B                     __end_of_main:
  2056                           
  2057                           	psect	text1
  2058  0A98                     __ptext1:	
  2059 ;; *************** function _sprintf *****************
  2060 ;; Defined at:
  2061 ;;		line 505 in file "C:\Program Files\Microchip\xc8\v2.36\pic\sources\c90\common\doprnt.c"
  2062 ;; Parameters:    Size  Location     Type
  2063 ;;  sp              1    wreg     PTR unsigned char 
  2064 ;;		 -> main@Temperature(10), 
  2065 ;;  f               1   17[BANK1 ] PTR const unsigned char 
  2066 ;;		 -> STR_1(6), 
  2067 ;; Auto vars:     Size  Location     Type
  2068 ;;  sp              1   30[BANK1 ] PTR unsigned char 
  2069 ;;		 -> main@Temperature(10), 
  2070 ;;  tmpval          4    0        struct .
  2071 ;;  val             2   28[BANK1 ] unsigned int 
  2072 ;;  cp              2    0        PTR const unsigned char 
  2073 ;;  len             2    0        unsigned int 
  2074 ;;  c               1   31[BANK1 ] unsigned char 
  2075 ;;  ap              1   27[BANK1 ] PTR void [1]
  2076 ;;		 -> ?_sprintf(2), 
  2077 ;;  prec            1   26[BANK1 ] char 
  2078 ;;  flag            1   25[BANK1 ] unsigned char 
  2079 ;; Return value:  Size  Location     Type
  2080 ;;                  2   17[BANK1 ] int 
  2081 ;; Registers used:
  2082 ;;		wreg, fsr0l, fsr0h, status,2, status,0, btemp+1, pclath, cstack
  2083 ;; Tracked objects:
  2084 ;;		On entry : 0/0
  2085 ;;		On exit  : 0/0
  2086 ;;		Unchanged: 0/0
  2087 ;; Data sizes:     COMMON   BANK0   BANK1   BANK3   BANK2
  2088 ;;      Params:         0       0       5       0       0
  2089 ;;      Locals:         0       0       7       0       0
  2090 ;;      Temps:          0       0       3       0       0
  2091 ;;      Totals:         0       0      15       0       0
  2092 ;;Total ram usage:       15 bytes
  2093 ;; Hardware stack levels used: 1
  2094 ;; Hardware stack levels required when called: 1
  2095 ;; This function calls:
  2096 ;;		___lwdiv
  2097 ;;		___lwmod
  2098 ;; This function is called by:
  2099 ;;		_main
  2100 ;; This function uses a non-reentrant model
  2101 ;;
  2102                           
  2103  0A98                     _sprintf:	
  2104                           ;psect for function _sprintf
  2105                           
  2106                           
  2107                           ;incstack = 0
  2108                           ; Regs used in _sprintf: [wreg-fsr0h+status,2+status,0+btemp+1+pclath+cstack]
  2109                           ;sprintf@sp stored from wreg
  2110  0A98  1683               	bsf	3,5	;RP0=1, select bank1
  2111  0A99  1303               	bcf	3,6	;RP1=0, select bank1
  2112  0A9A  00BE               	movwf	sprintf@sp^(0+128)
  2113  0A9B                     l2785:
  2114                           
  2115                           ;C:\Program Files\Microchip\xc8\v2.36\pic\sources\c90\common\doprnt.c: 505: sprintf(char
      +                           * sp, const char * f, ...);C:\Program Files\Microchip\xc8\v2.36\pic\sources\c90\common\
      +                          doprnt.c: 506: {;C:\Program Files\Microchip\xc8\v2.36\pic\sources\c90\common\doprnt.c: 5
      +                          07:  va_list ap;;C:\Program Files\Microchip\xc8\v2.36\pic\sources\c90\common\doprnt.c: 5
      +                          12:  char c;;C:\Program Files\Microchip\xc8\v2.36\pic\sources\c90\common\doprnt.c: 521: 
      +                           signed char prec;;C:\Program Files\Microchip\xc8\v2.36\pic\sources\c90\common\doprnt.c:
      +                           525:  unsigned char flag;
  2116  0A9B  30B2               	movlw	(low ((?_sprintf| 0+1)))& (0+255)
  2117  0A9C  00B6               	movwf	??_sprintf^(0+128)
  2118  0A9D  0836               	movf	??_sprintf^(0+128),w
  2119  0A9E  00BB               	movwf	sprintf@ap^(0+128)
  2120                           
  2121                           ;C:\Program Files\Microchip\xc8\v2.36\pic\sources\c90\common\doprnt.c: 553:  while((c = 
      +                          *f++)) {
  2122  0A9F  2B84               	goto	l2843
  2123  0AA0                     l2787:
  2124                           
  2125                           ;C:\Program Files\Microchip\xc8\v2.36\pic\sources\c90\common\doprnt.c: 555:   if(c != '%
      +                          ')
  2126  0AA0  3025               	movlw	37
  2127  0AA1  063F               	xorwf	sprintf@c^(0+128),w
  2128  0AA2  1903               	btfsc	3,2
  2129  0AA3  2AA5               	goto	u3631
  2130  0AA4  2AA6               	goto	u3630
  2131  0AA5                     u3631:
  2132  0AA5  2AB2               	goto	l2793
  2133  0AA6                     u3630:
  2134  0AA6                     l2789:
  2135                           
  2136                           ;C:\Program Files\Microchip\xc8\v2.36\pic\sources\c90\common\doprnt.c: 557:   {;C:\Progr
      +                          am Files\Microchip\xc8\v2.36\pic\sources\c90\common\doprnt.c: 558:    ((*sp++ = (c)));
  2137  0AA6  083F               	movf	sprintf@c^(0+128),w
  2138  0AA7  00B6               	movwf	??_sprintf^(0+128)
  2139  0AA8  083E               	movf	sprintf@sp^(0+128),w
  2140  0AA9  0084               	movwf	4
  2141  0AAA  0836               	movf	??_sprintf^(0+128),w
  2142  0AAB  1383               	bcf	3,7	;select IRP bank0
  2143  0AAC  0080               	movwf	0
  2144  0AAD                     l2791:
  2145  0AAD  3001               	movlw	1
  2146  0AAE  00B6               	movwf	??_sprintf^(0+128)
  2147  0AAF  0836               	movf	??_sprintf^(0+128),w
  2148  0AB0  07BE               	addwf	sprintf@sp^(0+128),f
  2149                           
  2150                           ;C:\Program Files\Microchip\xc8\v2.36\pic\sources\c90\common\doprnt.c: 559:    continue;
  2151  0AB1  2B84               	goto	l2843
  2152  0AB2                     l2793:
  2153                           
  2154                           ;C:\Program Files\Microchip\xc8\v2.36\pic\sources\c90\common\doprnt.c: 565:   flag = 0;
  2155  0AB2  01B9               	clrf	sprintf@flag^(0+128)
  2156                           
  2157                           ;C:\Program Files\Microchip\xc8\v2.36\pic\sources\c90\common\doprnt.c: 661:   switch(c =
      +                           *f++) {
  2158  0AB3  2ACB               	goto	l2803
  2159  0AB4                     l2795:
  2160                           
  2161                           ;C:\Program Files\Microchip\xc8\v2.36\pic\sources\c90\common\doprnt.c: 825:    c = (char
      +                          )(*(int *)__va_arg((*(int **)ap), (int)0));
  2162  0AB4  083B               	movf	sprintf@ap^(0+128),w
  2163  0AB5  0084               	movwf	4
  2164  0AB6  1383               	bcf	3,7	;select IRP bank0
  2165  0AB7  0800               	movf	0,w
  2166  0AB8  00B6               	movwf	??_sprintf^(0+128)
  2167  0AB9  0836               	movf	??_sprintf^(0+128),w
  2168  0ABA  00BF               	movwf	sprintf@c^(0+128)
  2169  0ABB                     l2797:
  2170  0ABB  3002               	movlw	2
  2171  0ABC  00B6               	movwf	??_sprintf^(0+128)
  2172  0ABD  0836               	movf	??_sprintf^(0+128),w
  2173  0ABE  07BB               	addwf	sprintf@ap^(0+128),f
  2174  0ABF                     l2799:
  2175                           
  2176                           ;C:\Program Files\Microchip\xc8\v2.36\pic\sources\c90\common\doprnt.c: 835:    ((*sp++ =
      +                           (c)));
  2177  0ABF  083F               	movf	sprintf@c^(0+128),w
  2178  0AC0  00B6               	movwf	??_sprintf^(0+128)
  2179  0AC1  083E               	movf	sprintf@sp^(0+128),w
  2180  0AC2  0084               	movwf	4
  2181  0AC3  0836               	movf	??_sprintf^(0+128),w
  2182  0AC4  1383               	bcf	3,7	;select IRP bank0
  2183  0AC5  0080               	movwf	0
  2184  0AC6  3001               	movlw	1
  2185  0AC7  00B6               	movwf	??_sprintf^(0+128)
  2186  0AC8  0836               	movf	??_sprintf^(0+128),w
  2187  0AC9  07BE               	addwf	sprintf@sp^(0+128),f
  2188                           
  2189                           ;C:\Program Files\Microchip\xc8\v2.36\pic\sources\c90\common\doprnt.c: 836:    continue;
  2190  0ACA  2B84               	goto	l2843
  2191  0ACB                     l2803:
  2192  0ACB  3001               	movlw	1
  2193  0ACC  07B1               	addwf	sprintf@f^(0+128),f
  2194  0ACD  30FF               	movlw	-1
  2195  0ACE  0731               	addwf	sprintf@f^(0+128),w
  2196  0ACF  0084               	movwf	4
  2197  0AD0  160A  118A  200A  120A  158A  	fcall	stringdir
  2198  0AD5  00BF               	movwf	sprintf@c^(0+128)
  2199  0AD6  00B6               	movwf	??_sprintf^(0+128)
  2200  0AD7  01B7               	clrf	(??_sprintf^(0+128)+1)
  2201                           
  2202                           ; Switch on 2 bytes has been partitioned into a top level switch of size 1, and 1 sub-sw
      +                          itches
  2203                           ; Switch size 1, requested type "simple"
  2204                           ; Number of cases is 1, Range of values is 0 to 0
  2205                           ; switch strategies available:
  2206                           ; Name         Instructions Cycles
  2207                           ; simple_byte            4     3 (average)
  2208                           ; direct_byte           11     8 (fixed)
  2209                           ; jumptable            260     6 (fixed)
  2210                           ;	Chosen strategy is simple_byte
  2211  0AD8  0837               	movf	(??_sprintf+1)^(0+128),w
  2212  0AD9  3A00               	xorlw	0	; case 0
  2213  0ADA  1903               	skipnz
  2214  0ADB  2ADD               	goto	l3383
  2215  0ADC  2ABF               	goto	l2799
  2216  0ADD                     l3383:
  2217                           
  2218                           ; Switch size 1, requested type "simple"
  2219                           ; Number of cases is 4, Range of values is 0 to 105
  2220                           ; switch strategies available:
  2221                           ; Name         Instructions Cycles
  2222                           ; simple_byte           13     7 (average)
  2223                           ; jumptable            260     6 (fixed)
  2224                           ;	Chosen strategy is simple_byte
  2225  0ADD  0836               	movf	??_sprintf^(0+128),w
  2226  0ADE  3A00               	xorlw	0	; case 0
  2227  0ADF  1903               	skipnz
  2228  0AE0  2B96               	goto	l2845
  2229  0AE1  3A63               	xorlw	99	; case 99
  2230  0AE2  1903               	skipnz
  2231  0AE3  2AB4               	goto	l2795
  2232  0AE4  3A07               	xorlw	7	; case 100
  2233  0AE5  1903               	skipnz
  2234  0AE6  2AEB               	goto	l2805
  2235  0AE7  3A0D               	xorlw	13	; case 105
  2236  0AE8  1903               	skipnz
  2237  0AE9  2AEB               	goto	l2805
  2238  0AEA  2ABF               	goto	l2799
  2239  0AEB                     l2805:
  2240                           
  2241                           ;C:\Program Files\Microchip\xc8\v2.36\pic\sources\c90\common\doprnt.c: 1279:   {;C:\Prog
      +                          ram Files\Microchip\xc8\v2.36\pic\sources\c90\common\doprnt.c: 1285:     val = (unsigned
      +                           int)(*(int *)__va_arg((*(int **)ap), (int)0));
  2242  0AEB  083B               	movf	sprintf@ap^(0+128),w
  2243  0AEC  0084               	movwf	4
  2244  0AED  1383               	bcf	3,7	;select IRP bank0
  2245  0AEE  0800               	movf	0,w
  2246  0AEF  00BC               	movwf	sprintf@val^(0+128)
  2247  0AF0  0A84               	incf	4,f
  2248  0AF1  0800               	movf	0,w
  2249  0AF2  00BD               	movwf	(sprintf@val+1)^(0+128)
  2250  0AF3                     l2807:
  2251  0AF3  3002               	movlw	2
  2252  0AF4  00B6               	movwf	??_sprintf^(0+128)
  2253  0AF5  0836               	movf	??_sprintf^(0+128),w
  2254  0AF6  07BB               	addwf	sprintf@ap^(0+128),f
  2255  0AF7                     l2809:
  2256                           
  2257                           ;C:\Program Files\Microchip\xc8\v2.36\pic\sources\c90\common\doprnt.c: 1287:    if((int)
      +                          val < 0) {
  2258  0AF7  1FBD               	btfss	(sprintf@val+1)^(0+128),7
  2259  0AF8  2AFA               	goto	u3641
  2260  0AF9  2AFB               	goto	u3640
  2261  0AFA                     u3641:
  2262  0AFA  2B04               	goto	l2815
  2263  0AFB                     u3640:
  2264  0AFB                     l2811:
  2265                           
  2266                           ;C:\Program Files\Microchip\xc8\v2.36\pic\sources\c90\common\doprnt.c: 1288:     flag |=
      +                           0x03;
  2267  0AFB  3003               	movlw	3
  2268  0AFC  00B6               	movwf	??_sprintf^(0+128)
  2269  0AFD  0836               	movf	??_sprintf^(0+128),w
  2270  0AFE  04B9               	iorwf	sprintf@flag^(0+128),f
  2271  0AFF                     l2813:
  2272                           
  2273                           ;C:\Program Files\Microchip\xc8\v2.36\pic\sources\c90\common\doprnt.c: 1289:     val = -
      +                          val;
  2274  0AFF  09BC               	comf	sprintf@val^(0+128),f
  2275  0B00  09BD               	comf	(sprintf@val+1)^(0+128),f
  2276  0B01  0ABC               	incf	sprintf@val^(0+128),f
  2277  0B02  1903               	skipnz
  2278  0B03  0ABD               	incf	(sprintf@val+1)^(0+128),f
  2279  0B04                     l2815:
  2280                           
  2281                           ;C:\Program Files\Microchip\xc8\v2.36\pic\sources\c90\common\doprnt.c: 1292:   };C:\Prog
      +                          ram Files\Microchip\xc8\v2.36\pic\sources\c90\common\doprnt.c: 1331:    for(c = 1 ; c !=
      +                           sizeof dpowers/sizeof dpowers[0] ; c++)
  2282  0B04  01BF               	clrf	sprintf@c^(0+128)
  2283  0B05  0ABF               	incf	sprintf@c^(0+128),f
  2284  0B06                     l2821:
  2285                           
  2286                           ;C:\Program Files\Microchip\xc8\v2.36\pic\sources\c90\common\doprnt.c: 1332:     if(val 
      +                          < dpowers[c])
  2287  0B06  083F               	movf	sprintf@c^(0+128),w
  2288  0B07  00B6               	movwf	??_sprintf^(0+128)
  2289  0B08  0736               	addwf	??_sprintf^(0+128),w
  2290  0B09  3E01               	addlw	low ((_dpowers-__stringbase)| (0+32768))
  2291  0B0A  0084               	movwf	4
  2292  0B0B  160A  118A  200A  120A  158A  	fcall	stringdir
  2293  0B10  00B7               	movwf	(??_sprintf+1)^(0+128)
  2294  0B11  160A  118A  200A  120A  158A  	fcall	stringdir
  2295  0B16  00B8               	movwf	((??_sprintf+1)^(0+128)+1)
  2296  0B17  0838               	movf	(??_sprintf+2)^(0+128),w
  2297  0B18  023D               	subwf	(sprintf@val+1)^(0+128),w
  2298  0B19  1D03               	skipz
  2299  0B1A  2B1D               	goto	u3655
  2300  0B1B  0837               	movf	(??_sprintf+1)^(0+128),w
  2301  0B1C  023C               	subwf	sprintf@val^(0+128),w
  2302  0B1D                     u3655:
  2303  0B1D  1803               	skipnc
  2304  0B1E  2B20               	goto	u3651
  2305  0B1F  2B21               	goto	u3650
  2306  0B20                     u3651:
  2307  0B20  2B22               	goto	l2825
  2308  0B21                     u3650:
  2309  0B21  2B2C               	goto	l2827
  2310  0B22                     l2825:
  2311  0B22  3001               	movlw	1
  2312  0B23  00B6               	movwf	??_sprintf^(0+128)
  2313  0B24  0836               	movf	??_sprintf^(0+128),w
  2314  0B25  07BF               	addwf	sprintf@c^(0+128),f
  2315  0B26  3005               	movlw	5
  2316  0B27  063F               	xorwf	sprintf@c^(0+128),w
  2317  0B28  1D03               	btfss	3,2
  2318  0B29  2B2B               	goto	u3661
  2319  0B2A  2B2C               	goto	u3660
  2320  0B2B                     u3661:
  2321  0B2B  2B06               	goto	l2821
  2322  0B2C                     u3660:
  2323  0B2C                     l2827:
  2324                           
  2325                           ;C:\Program Files\Microchip\xc8\v2.36\pic\sources\c90\common\doprnt.c: 1448:   {;C:\Prog
      +                          ram Files\Microchip\xc8\v2.36\pic\sources\c90\common\doprnt.c: 1464:    if(flag & 0x03)
  2326  0B2C  0839               	movf	sprintf@flag^(0+128),w
  2327  0B2D  3903               	andlw	3
  2328  0B2E  1903               	btfsc	3,2
  2329  0B2F  2B31               	goto	u3671
  2330  0B30  2B32               	goto	u3670
  2331  0B31                     u3671:
  2332  0B31  2B3D               	goto	l2833
  2333  0B32                     u3670:
  2334  0B32                     l2829:
  2335                           
  2336                           ;C:\Program Files\Microchip\xc8\v2.36\pic\sources\c90\common\doprnt.c: 1465:     ((*sp++
      +                           = ('-')));
  2337  0B32  302D               	movlw	45
  2338  0B33  00B6               	movwf	??_sprintf^(0+128)
  2339  0B34  083E               	movf	sprintf@sp^(0+128),w
  2340  0B35  0084               	movwf	4
  2341  0B36  0836               	movf	??_sprintf^(0+128),w
  2342  0B37  1383               	bcf	3,7	;select IRP bank0
  2343  0B38  0080               	movwf	0
  2344  0B39                     l2831:
  2345  0B39  3001               	movlw	1
  2346  0B3A  00B6               	movwf	??_sprintf^(0+128)
  2347  0B3B  0836               	movf	??_sprintf^(0+128),w
  2348  0B3C  07BE               	addwf	sprintf@sp^(0+128),f
  2349  0B3D                     l2833:
  2350                           
  2351                           ;C:\Program Files\Microchip\xc8\v2.36\pic\sources\c90\common\doprnt.c: 1495:   };C:\Prog
      +                          ram Files\Microchip\xc8\v2.36\pic\sources\c90\common\doprnt.c: 1498:   prec = c;
  2352  0B3D  083F               	movf	sprintf@c^(0+128),w
  2353  0B3E  00B6               	movwf	??_sprintf^(0+128)
  2354  0B3F  0836               	movf	??_sprintf^(0+128),w
  2355  0B40  00BA               	movwf	sprintf@prec^(0+128)
  2356                           
  2357                           ;C:\Program Files\Microchip\xc8\v2.36\pic\sources\c90\common\doprnt.c: 1500:   while(pre
      +                          c--) {
  2358  0B41  2B7B               	goto	l2841
  2359  0B42                     l2835:
  2360                           
  2361                           ;C:\Program Files\Microchip\xc8\v2.36\pic\sources\c90\common\doprnt.c: 1504:    {;C:\Pro
      +                          gram Files\Microchip\xc8\v2.36\pic\sources\c90\common\doprnt.c: 1515:     c = (val / dpo
      +                          wers[(unsigned char)prec]) % 10 + '0';
  2362  0B42  300A               	movlw	10
  2363  0B43  00F8               	movwf	___lwmod@divisor
  2364  0B44  3000               	movlw	0
  2365  0B45  00F9               	movwf	___lwmod@divisor+1
  2366  0B46  083A               	movf	sprintf@prec^(0+128),w
  2367  0B47  00B6               	movwf	??_sprintf^(0+128)
  2368  0B48  0736               	addwf	??_sprintf^(0+128),w
  2369  0B49  3E01               	addlw	low ((_dpowers-__stringbase)| (0+32768))
  2370  0B4A  0084               	movwf	4
  2371  0B4B  160A  118A  200A  120A  158A  	fcall	stringdir
  2372  0B50  00F0               	movwf	___lwdiv@divisor
  2373  0B51  160A  118A  200A  120A  158A  	fcall	stringdir
  2374  0B56  00F1               	movwf	___lwdiv@divisor+1
  2375  0B57  083D               	movf	(sprintf@val+1)^(0+128),w
  2376  0B58  00F3               	movwf	___lwdiv@dividend+1
  2377  0B59  083C               	movf	sprintf@val^(0+128),w
  2378  0B5A  00F2               	movwf	___lwdiv@dividend
  2379  0B5B  160A  118A  26DC  120A  158A  	fcall	___lwdiv
  2380  0B60  0871               	movf	?___lwdiv+1,w
  2381  0B61  00FB               	movwf	___lwmod@dividend+1
  2382  0B62  0870               	movf	?___lwdiv,w
  2383  0B63  00FA               	movwf	___lwmod@dividend
  2384  0B64  160A  118A  26A2  120A  158A  	fcall	___lwmod
  2385  0B69  0878               	movf	?___lwmod,w
  2386  0B6A  3E30               	addlw	48
  2387  0B6B  1683               	bsf	3,5	;RP0=1, select bank1
  2388  0B6C  1303               	bcf	3,6	;RP1=0, select bank1
  2389  0B6D  00B7               	movwf	(??_sprintf+1)^(0+128)
  2390  0B6E  0837               	movf	(??_sprintf+1)^(0+128),w
  2391  0B6F  00BF               	movwf	sprintf@c^(0+128)
  2392  0B70                     l2837:
  2393                           
  2394                           ;C:\Program Files\Microchip\xc8\v2.36\pic\sources\c90\common\doprnt.c: 1549:    };C:\Pro
      +                          gram Files\Microchip\xc8\v2.36\pic\sources\c90\common\doprnt.c: 1550:    ((*sp++ = (c)))
      +                          ;
  2395  0B70  083F               	movf	sprintf@c^(0+128),w
  2396  0B71  00B6               	movwf	??_sprintf^(0+128)
  2397  0B72  083E               	movf	sprintf@sp^(0+128),w
  2398  0B73  0084               	movwf	4
  2399  0B74  0836               	movf	??_sprintf^(0+128),w
  2400  0B75  1383               	bcf	3,7	;select IRP bank0
  2401  0B76  0080               	movwf	0
  2402  0B77                     l2839:
  2403  0B77  3001               	movlw	1
  2404  0B78  00B6               	movwf	??_sprintf^(0+128)
  2405  0B79  0836               	movf	??_sprintf^(0+128),w
  2406  0B7A  07BE               	addwf	sprintf@sp^(0+128),f
  2407  0B7B                     l2841:
  2408                           
  2409                           ;C:\Program Files\Microchip\xc8\v2.36\pic\sources\c90\common\doprnt.c: 1500:   while(pre
      +                          c--) {
  2410  0B7B  30FF               	movlw	255
  2411  0B7C  00B6               	movwf	??_sprintf^(0+128)
  2412  0B7D  0836               	movf	??_sprintf^(0+128),w
  2413  0B7E  07BA               	addwf	sprintf@prec^(0+128),f
  2414  0B7F  0A3A               	incf	sprintf@prec^(0+128),w
  2415  0B80  1D03               	btfss	3,2
  2416  0B81  2B83               	goto	u3681
  2417  0B82  2B84               	goto	u3680
  2418  0B83                     u3681:
  2419  0B83  2B42               	goto	l2835
  2420  0B84                     u3680:
  2421  0B84                     l2843:
  2422                           
  2423                           ;C:\Program Files\Microchip\xc8\v2.36\pic\sources\c90\common\doprnt.c: 553:  while((c = 
      +                          *f++)) {
  2424  0B84  3001               	movlw	1
  2425  0B85  07B1               	addwf	sprintf@f^(0+128),f
  2426  0B86  30FF               	movlw	-1
  2427  0B87  0731               	addwf	sprintf@f^(0+128),w
  2428  0B88  0084               	movwf	4
  2429  0B89  160A  118A  200A  120A  158A  	fcall	stringdir
  2430  0B8E  00B6               	movwf	??_sprintf^(0+128)
  2431  0B8F  0836               	movf	??_sprintf^(0+128),w
  2432  0B90  00BF               	movwf	sprintf@c^(0+128)
  2433  0B91  083F               	movf	sprintf@c^(0+128),w
  2434  0B92  1D03               	btfss	3,2
  2435  0B93  2B95               	goto	u3691
  2436  0B94  2B96               	goto	u3690
  2437  0B95                     u3691:
  2438  0B95  2AA0               	goto	l2787
  2439  0B96                     u3690:
  2440  0B96                     l2845:
  2441                           
  2442                           ;C:\Program Files\Microchip\xc8\v2.36\pic\sources\c90\common\doprnt.c: 1564:  *sp = 0;
  2443  0B96  083E               	movf	sprintf@sp^(0+128),w
  2444  0B97  0084               	movwf	4
  2445  0B98  1383               	bcf	3,7	;select IRP bank0
  2446  0B99  0180               	clrf	0
  2447  0B9A                     l401:
  2448  0B9A  0008               	return
  2449  0B9B                     __end_of_sprintf:
  2450                           
  2451                           	psect	text2
  2452  16A2                     __ptext2:	
  2453 ;; *************** function ___lwmod *****************
  2454 ;; Defined at:
  2455 ;;		line 5 in file "C:\Program Files\Microchip\xc8\v2.36\pic\sources\c90\common\lwmod.c"
  2456 ;; Parameters:    Size  Location     Type
  2457 ;;  divisor         2    8[COMMON] unsigned int 
  2458 ;;  dividend        2   10[COMMON] unsigned int 
  2459 ;; Auto vars:     Size  Location     Type
  2460 ;;  counter         1   13[COMMON] unsigned char 
  2461 ;; Return value:  Size  Location     Type
  2462 ;;                  2    8[COMMON] unsigned int 
  2463 ;; Registers used:
  2464 ;;		wreg, status,2, status,0
  2465 ;; Tracked objects:
  2466 ;;		On entry : 0/0
  2467 ;;		On exit  : 0/0
  2468 ;;		Unchanged: 0/0
  2469 ;; Data sizes:     COMMON   BANK0   BANK1   BANK3   BANK2
  2470 ;;      Params:         4       0       0       0       0
  2471 ;;      Locals:         1       0       0       0       0
  2472 ;;      Temps:          1       0       0       0       0
  2473 ;;      Totals:         6       0       0       0       0
  2474 ;;Total ram usage:        6 bytes
  2475 ;; Hardware stack levels used: 1
  2476 ;; This function calls:
  2477 ;;		Nothing
  2478 ;; This function is called by:
  2479 ;;		_sprintf
  2480 ;; This function uses a non-reentrant model
  2481 ;;
  2482                           
  2483  16A2                     ___lwmod:	
  2484                           ;psect for function ___lwmod
  2485                           
  2486  16A2                     l2653:	
  2487                           ;incstack = 0
  2488                           ; Regs used in ___lwmod: [wreg+status,2+status,0]
  2489                           
  2490  16A2  0878               	movf	___lwmod@divisor,w
  2491  16A3  0479               	iorwf	___lwmod@divisor+1,w
  2492  16A4  1903               	btfsc	3,2
  2493  16A5  2EA7               	goto	u3371
  2494  16A6  2EA8               	goto	u3370
  2495  16A7                     u3371:
  2496  16A7  2ED7               	goto	l2671
  2497  16A8                     u3370:
  2498  16A8                     l2655:
  2499  16A8  01FD               	clrf	___lwmod@counter
  2500  16A9  0AFD               	incf	___lwmod@counter,f
  2501  16AA  2EB6               	goto	l2661
  2502  16AB                     l2657:
  2503  16AB  3001               	movlw	1
  2504  16AC                     u3385:
  2505  16AC  1003               	clrc
  2506  16AD  0DF8               	rlf	___lwmod@divisor,f
  2507  16AE  0DF9               	rlf	___lwmod@divisor+1,f
  2508  16AF  3EFF               	addlw	-1
  2509  16B0  1D03               	skipz
  2510  16B1  2EAC               	goto	u3385
  2511  16B2                     l2659:
  2512  16B2  3001               	movlw	1
  2513  16B3  00FC               	movwf	??___lwmod
  2514  16B4  087C               	movf	??___lwmod,w
  2515  16B5  07FD               	addwf	___lwmod@counter,f
  2516  16B6                     l2661:
  2517  16B6  1FF9               	btfss	___lwmod@divisor+1,7
  2518  16B7  2EB9               	goto	u3391
  2519  16B8  2EBA               	goto	u3390
  2520  16B9                     u3391:
  2521  16B9  2EAB               	goto	l2657
  2522  16BA                     u3390:
  2523  16BA                     l2663:
  2524  16BA  0879               	movf	___lwmod@divisor+1,w
  2525  16BB  027B               	subwf	___lwmod@dividend+1,w
  2526  16BC  1D03               	skipz
  2527  16BD  2EC0               	goto	u3405
  2528  16BE  0878               	movf	___lwmod@divisor,w
  2529  16BF  027A               	subwf	___lwmod@dividend,w
  2530  16C0                     u3405:
  2531  16C0  1C03               	skipc
  2532  16C1  2EC3               	goto	u3401
  2533  16C2  2EC4               	goto	u3400
  2534  16C3                     u3401:
  2535  16C3  2ECA               	goto	l2667
  2536  16C4                     u3400:
  2537  16C4                     l2665:
  2538  16C4  0878               	movf	___lwmod@divisor,w
  2539  16C5  02FA               	subwf	___lwmod@dividend,f
  2540  16C6  0879               	movf	___lwmod@divisor+1,w
  2541  16C7  1C03               	skipc
  2542  16C8  03FB               	decf	___lwmod@dividend+1,f
  2543  16C9  02FB               	subwf	___lwmod@dividend+1,f
  2544  16CA                     l2667:
  2545  16CA  3001               	movlw	1
  2546  16CB                     u3415:
  2547  16CB  1003               	clrc
  2548  16CC  0CF9               	rrf	___lwmod@divisor+1,f
  2549  16CD  0CF8               	rrf	___lwmod@divisor,f
  2550  16CE  3EFF               	addlw	-1
  2551  16CF  1D03               	skipz
  2552  16D0  2ECB               	goto	u3415
  2553  16D1                     l2669:
  2554  16D1  3001               	movlw	1
  2555  16D2  02FD               	subwf	___lwmod@counter,f
  2556  16D3  1D03               	btfss	3,2
  2557  16D4  2ED6               	goto	u3421
  2558  16D5  2ED7               	goto	u3420
  2559  16D6                     u3421:
  2560  16D6  2EBA               	goto	l2663
  2561  16D7                     u3420:
  2562  16D7                     l2671:
  2563  16D7  087B               	movf	___lwmod@dividend+1,w
  2564  16D8  00F9               	movwf	?___lwmod+1
  2565  16D9  087A               	movf	___lwmod@dividend,w
  2566  16DA  00F8               	movwf	?___lwmod
  2567  16DB                     l687:
  2568  16DB  0008               	return
  2569  16DC                     __end_of___lwmod:
  2570                           
  2571                           	psect	text3
  2572  16DC                     __ptext3:	
  2573 ;; *************** function ___lwdiv *****************
  2574 ;; Defined at:
  2575 ;;		line 5 in file "C:\Program Files\Microchip\xc8\v2.36\pic\sources\c90\common\lwdiv.c"
  2576 ;; Parameters:    Size  Location     Type
  2577 ;;  divisor         2    0[COMMON] unsigned int 
  2578 ;;  dividend        2    2[COMMON] unsigned int 
  2579 ;; Auto vars:     Size  Location     Type
  2580 ;;  quotient        2    5[COMMON] unsigned int 
  2581 ;;  counter         1    7[COMMON] unsigned char 
  2582 ;; Return value:  Size  Location     Type
  2583 ;;                  2    0[COMMON] unsigned int 
  2584 ;; Registers used:
  2585 ;;		wreg, status,2, status,0
  2586 ;; Tracked objects:
  2587 ;;		On entry : 0/0
  2588 ;;		On exit  : 0/0
  2589 ;;		Unchanged: 0/0
  2590 ;; Data sizes:     COMMON   BANK0   BANK1   BANK3   BANK2
  2591 ;;      Params:         4       0       0       0       0
  2592 ;;      Locals:         3       0       0       0       0
  2593 ;;      Temps:          1       0       0       0       0
  2594 ;;      Totals:         8       0       0       0       0
  2595 ;;Total ram usage:        8 bytes
  2596 ;; Hardware stack levels used: 1
  2597 ;; This function calls:
  2598 ;;		Nothing
  2599 ;; This function is called by:
  2600 ;;		_sprintf
  2601 ;; This function uses a non-reentrant model
  2602 ;;
  2603                           
  2604  16DC                     ___lwdiv:	
  2605                           ;psect for function ___lwdiv
  2606                           
  2607  16DC                     l2627:	
  2608                           ;incstack = 0
  2609                           ; Regs used in ___lwdiv: [wreg+status,2+status,0]
  2610                           
  2611  16DC  01F5               	clrf	___lwdiv@quotient
  2612  16DD  01F6               	clrf	___lwdiv@quotient+1
  2613  16DE                     l2629:
  2614  16DE  0870               	movf	___lwdiv@divisor,w
  2615  16DF  0471               	iorwf	___lwdiv@divisor+1,w
  2616  16E0  1903               	btfsc	3,2
  2617  16E1  2EE3               	goto	u3301
  2618  16E2  2EE4               	goto	u3300
  2619  16E3                     u3301:
  2620  16E3  2F1B               	goto	l2649
  2621  16E4                     u3300:
  2622  16E4                     l2631:
  2623  16E4  01F7               	clrf	___lwdiv@counter
  2624  16E5  0AF7               	incf	___lwdiv@counter,f
  2625  16E6  2EF2               	goto	l2637
  2626  16E7                     l2633:
  2627  16E7  3001               	movlw	1
  2628  16E8                     u3315:
  2629  16E8  1003               	clrc
  2630  16E9  0DF0               	rlf	___lwdiv@divisor,f
  2631  16EA  0DF1               	rlf	___lwdiv@divisor+1,f
  2632  16EB  3EFF               	addlw	-1
  2633  16EC  1D03               	skipz
  2634  16ED  2EE8               	goto	u3315
  2635  16EE                     l2635:
  2636  16EE  3001               	movlw	1
  2637  16EF  00F4               	movwf	??___lwdiv
  2638  16F0  0874               	movf	??___lwdiv,w
  2639  16F1  07F7               	addwf	___lwdiv@counter,f
  2640  16F2                     l2637:
  2641  16F2  1FF1               	btfss	___lwdiv@divisor+1,7
  2642  16F3  2EF5               	goto	u3321
  2643  16F4  2EF6               	goto	u3320
  2644  16F5                     u3321:
  2645  16F5  2EE7               	goto	l2633
  2646  16F6                     u3320:
  2647  16F6                     l2639:
  2648  16F6  3001               	movlw	1
  2649  16F7                     u3335:
  2650  16F7  1003               	clrc
  2651  16F8  0DF5               	rlf	___lwdiv@quotient,f
  2652  16F9  0DF6               	rlf	___lwdiv@quotient+1,f
  2653  16FA  3EFF               	addlw	-1
  2654  16FB  1D03               	skipz
  2655  16FC  2EF7               	goto	u3335
  2656  16FD  0871               	movf	___lwdiv@divisor+1,w
  2657  16FE  0273               	subwf	___lwdiv@dividend+1,w
  2658  16FF  1D03               	skipz
  2659  1700  2F03               	goto	u3345
  2660  1701  0870               	movf	___lwdiv@divisor,w
  2661  1702  0272               	subwf	___lwdiv@dividend,w
  2662  1703                     u3345:
  2663  1703  1C03               	skipc
  2664  1704  2F06               	goto	u3341
  2665  1705  2F07               	goto	u3340
  2666  1706                     u3341:
  2667  1706  2F0E               	goto	l2645
  2668  1707                     u3340:
  2669  1707                     l2641:
  2670  1707  0870               	movf	___lwdiv@divisor,w
  2671  1708  02F2               	subwf	___lwdiv@dividend,f
  2672  1709  0871               	movf	___lwdiv@divisor+1,w
  2673  170A  1C03               	skipc
  2674  170B  03F3               	decf	___lwdiv@dividend+1,f
  2675  170C  02F3               	subwf	___lwdiv@dividend+1,f
  2676  170D                     l2643:
  2677  170D  1475               	bsf	___lwdiv@quotient,0
  2678  170E                     l2645:
  2679  170E  3001               	movlw	1
  2680  170F                     u3355:
  2681  170F  1003               	clrc
  2682  1710  0CF1               	rrf	___lwdiv@divisor+1,f
  2683  1711  0CF0               	rrf	___lwdiv@divisor,f
  2684  1712  3EFF               	addlw	-1
  2685  1713  1D03               	skipz
  2686  1714  2F0F               	goto	u3355
  2687  1715                     l2647:
  2688  1715  3001               	movlw	1
  2689  1716  02F7               	subwf	___lwdiv@counter,f
  2690  1717  1D03               	btfss	3,2
  2691  1718  2F1A               	goto	u3361
  2692  1719  2F1B               	goto	u3360
  2693  171A                     u3361:
  2694  171A  2EF6               	goto	l2639
  2695  171B                     u3360:
  2696  171B                     l2649:
  2697  171B  0876               	movf	___lwdiv@quotient+1,w
  2698  171C  00F1               	movwf	?___lwdiv+1
  2699  171D  0875               	movf	___lwdiv@quotient,w
  2700  171E  00F0               	movwf	?___lwdiv
  2701  171F                     l677:
  2702  171F  0008               	return
  2703  1720                     __end_of___lwdiv:
  2704                           
  2705                           	psect	text4
  2706  007F                     __ptext4:	
  2707 ;; *************** function _log *****************
  2708 ;; Defined at:
  2709 ;;		line 5 in file "C:\Program Files\Microchip\xc8\v2.36\pic\sources\c90\common\log.c"
  2710 ;; Parameters:    Size  Location     Type
  2711 ;;  x               4   16[BANK1 ] unsigned int 
  2712 ;; Auto vars:     Size  Location     Type
  2713 ;;  exponent        2   20[BANK1 ] int 
  2714 ;; Return value:  Size  Location     Type
  2715 ;;                  4   16[BANK1 ] int 
  2716 ;; Registers used:
  2717 ;;		wreg, fsr0l, fsr0h, status,2, status,0, btemp+1, pclath, cstack
  2718 ;; Tracked objects:
  2719 ;;		On entry : 0/0
  2720 ;;		On exit  : 0/0
  2721 ;;		Unchanged: 0/0
  2722 ;; Data sizes:     COMMON   BANK0   BANK1   BANK3   BANK2
  2723 ;;      Params:         0       0       4       0       0
  2724 ;;      Locals:         0       0       2       0       0
  2725 ;;      Temps:          0       1       0       0       0
  2726 ;;      Totals:         0       1       6       0       0
  2727 ;;Total ram usage:        7 bytes
  2728 ;; Hardware stack levels used: 1
  2729 ;; Hardware stack levels required when called: 3
  2730 ;; This function calls:
  2731 ;;		___fladd
  2732 ;;		___fleq
  2733 ;;		___flge
  2734 ;;		___flmul
  2735 ;;		___xxtofl
  2736 ;;		_eval_poly
  2737 ;;		_frexp
  2738 ;; This function is called by:
  2739 ;;		_main
  2740 ;; This function uses a non-reentrant model
  2741 ;;
  2742                           
  2743  007F                     _log:	
  2744                           ;psect for function _log
  2745                           
  2746  007F                     l2763:	
  2747                           ;incstack = 0
  2748                           ; Regs used in _log: [wreg-fsr0h+status,2+status,0+btemp+1+pclath+cstack]
  2749                           
  2750  007F  1683               	bsf	3,5	;RP0=1, select bank1
  2751  0080  1303               	bcf	3,6	;RP1=0, select bank1
  2752  0081  0833               	movf	(log@x+3)^(0+128),w
  2753  0082  00F3               	movwf	___flge@ff1+3
  2754  0083  0832               	movf	(log@x+2)^(0+128),w
  2755  0084  00F2               	movwf	___flge@ff1+2
  2756  0085  0831               	movf	(log@x+1)^(0+128),w
  2757  0086  00F1               	movwf	___flge@ff1+1
  2758  0087  0830               	movf	log@x^(0+128),w
  2759  0088  00F0               	movwf	___flge@ff1
  2760  0089  3000               	movlw	0
  2761  008A  00F7               	movwf	___flge@ff2+3
  2762  008B  3000               	movlw	0
  2763  008C  00F6               	movwf	___flge@ff2+2
  2764  008D  3000               	movlw	0
  2765  008E  00F5               	movwf	___flge@ff2+1
  2766  008F  3000               	movlw	0
  2767  0090  00F4               	movwf	___flge@ff2
  2768  0091  120A  158A  2062  120A  118A  	fcall	___flge
  2769  0096  1803               	btfsc	3,0
  2770  0097  2899               	goto	u3611
  2771  0098  289A               	goto	u3610
  2772  0099                     u3611:
  2773  0099  28A9               	goto	l2769
  2774  009A                     u3610:
  2775  009A                     l2765:
  2776  009A  3021               	movlw	33
  2777  009B  1683               	bsf	3,5	;RP0=1, select bank1
  2778  009C  1303               	bcf	3,6	;RP1=0, select bank1
  2779  009D  00E6               	movwf	_errno^(0+128)
  2780  009E  3000               	movlw	0
  2781  009F  00E7               	movwf	(_errno^(0+128)+1)
  2782  00A0  3000               	movlw	0
  2783  00A1  00B3               	movwf	(?_log+3)^(0+128)
  2784  00A2  3000               	movlw	0
  2785  00A3  00B2               	movwf	(?_log+2)^(0+128)
  2786  00A4  3000               	movlw	0
  2787  00A5  00B1               	movwf	(?_log+1)^(0+128)
  2788  00A6  3000               	movlw	0
  2789  00A7  00B0               	movwf	?_log^(0+128)
  2790  00A8  29CA               	goto	l865
  2791  00A9                     l2769:
  2792  00A9  1683               	bsf	3,5	;RP0=1, select bank1
  2793  00AA  1303               	bcf	3,6	;RP1=0, select bank1
  2794  00AB  0833               	movf	(log@x+3)^(0+128),w
  2795  00AC  00F3               	movwf	___fleq@ff1+3
  2796  00AD  0832               	movf	(log@x+2)^(0+128),w
  2797  00AE  00F2               	movwf	___fleq@ff1+2
  2798  00AF  0831               	movf	(log@x+1)^(0+128),w
  2799  00B0  00F1               	movwf	___fleq@ff1+1
  2800  00B1  0830               	movf	log@x^(0+128),w
  2801  00B2  00F0               	movwf	___fleq@ff1
  2802  00B3  3000               	movlw	0
  2803  00B4  00F7               	movwf	___fleq@ff2+3
  2804  00B5  3000               	movlw	0
  2805  00B6  00F6               	movwf	___fleq@ff2+2
  2806  00B7  3000               	movlw	0
  2807  00B8  00F5               	movwf	___fleq@ff2+1
  2808  00B9  3000               	movlw	0
  2809  00BA  00F4               	movwf	___fleq@ff2
  2810  00BB  160A  118A  2720  120A  118A  	fcall	___fleq
  2811  00C0  1C03               	btfss	3,0
  2812  00C1  28C3               	goto	u3621
  2813  00C2  28C4               	goto	u3620
  2814  00C3                     u3621:
  2815  00C3  28D3               	goto	l2775
  2816  00C4                     u3620:
  2817  00C4                     l2771:
  2818  00C4  3022               	movlw	34
  2819  00C5  1683               	bsf	3,5	;RP0=1, select bank1
  2820  00C6  1303               	bcf	3,6	;RP1=0, select bank1
  2821  00C7  00E6               	movwf	_errno^(0+128)
  2822  00C8  3000               	movlw	0
  2823  00C9  00E7               	movwf	(_errno^(0+128)+1)
  2824  00CA  3000               	movlw	0
  2825  00CB  00B3               	movwf	(?_log+3)^(0+128)
  2826  00CC  3000               	movlw	0
  2827  00CD  00B2               	movwf	(?_log+2)^(0+128)
  2828  00CE  3000               	movlw	0
  2829  00CF  00B1               	movwf	(?_log+1)^(0+128)
  2830  00D0  3000               	movlw	0
  2831  00D1  00B0               	movwf	?_log^(0+128)
  2832  00D2  29CA               	goto	l865
  2833  00D3                     l2775:
  2834  00D3  30BF               	movlw	191
  2835  00D4  1283               	bcf	3,5	;RP0=0, select bank0
  2836  00D5  1303               	bcf	3,6	;RP1=0, select bank0
  2837  00D6  00DC               	movwf	___fladd@b+3
  2838  00D7  3080               	movlw	128
  2839  00D8  00DB               	movwf	___fladd@b+2
  2840  00D9  3000               	movlw	0
  2841  00DA  00DA               	movwf	___fladd@b+1
  2842  00DB  3000               	movlw	0
  2843  00DC  00D9               	movwf	___fladd@b
  2844  00DD  3040               	movlw	64
  2845  00DE  00A8               	movwf	___flmul@b+3
  2846  00DF  3000               	movlw	0
  2847  00E0  00A7               	movwf	___flmul@b+2
  2848  00E1  3000               	movlw	0
  2849  00E2  00A6               	movwf	___flmul@b+1
  2850  00E3  3000               	movlw	0
  2851  00E4  00A5               	movwf	___flmul@b
  2852  00E5  30B4               	movlw	(low (log@exponent| 0))& (0+255)
  2853  00E6  00ED               	movwf	??_log
  2854  00E7  086D               	movf	??_log,w
  2855  00E8  00A4               	movwf	frexp@eptr
  2856  00E9  1683               	bsf	3,5	;RP0=1, select bank1
  2857  00EA  1303               	bcf	3,6	;RP1=0, select bank1
  2858  00EB  0833               	movf	(log@x+3)^(0+128),w
  2859  00EC  1283               	bcf	3,5	;RP0=0, select bank0
  2860  00ED  1303               	bcf	3,6	;RP1=0, select bank0
  2861  00EE  00A3               	movwf	frexp@value+3
  2862  00EF  1683               	bsf	3,5	;RP0=1, select bank1
  2863  00F0  1303               	bcf	3,6	;RP1=0, select bank1
  2864  00F1  0832               	movf	(log@x+2)^(0+128),w
  2865  00F2  1283               	bcf	3,5	;RP0=0, select bank0
  2866  00F3  1303               	bcf	3,6	;RP1=0, select bank0
  2867  00F4  00A2               	movwf	frexp@value+2
  2868  00F5  1683               	bsf	3,5	;RP0=1, select bank1
  2869  00F6  1303               	bcf	3,6	;RP1=0, select bank1
  2870  00F7  0831               	movf	(log@x+1)^(0+128),w
  2871  00F8  1283               	bcf	3,5	;RP0=0, select bank0
  2872  00F9  1303               	bcf	3,6	;RP1=0, select bank0
  2873  00FA  00A1               	movwf	frexp@value+1
  2874  00FB  1683               	bsf	3,5	;RP0=1, select bank1
  2875  00FC  1303               	bcf	3,6	;RP1=0, select bank1
  2876  00FD  0830               	movf	log@x^(0+128),w
  2877  00FE  1283               	bcf	3,5	;RP0=0, select bank0
  2878  00FF  1303               	bcf	3,6	;RP1=0, select bank0
  2879  0100  00A0               	movwf	frexp@value
  2880  0101  120A  118A  2023  120A  118A  	fcall	_frexp
  2881  0106  1283               	bcf	3,5	;RP0=0, select bank0
  2882  0107  1303               	bcf	3,6	;RP1=0, select bank0
  2883  0108  0823               	movf	?_frexp+3,w
  2884  0109  00AC               	movwf	___flmul@a+3
  2885  010A  0822               	movf	?_frexp+2,w
  2886  010B  00AB               	movwf	___flmul@a+2
  2887  010C  0821               	movf	?_frexp+1,w
  2888  010D  00AA               	movwf	___flmul@a+1
  2889  010E  0820               	movf	?_frexp,w
  2890  010F  00A9               	movwf	___flmul@a
  2891  0110  120A  118A  247B  120A  118A  	fcall	___flmul
  2892  0115  1283               	bcf	3,5	;RP0=0, select bank0
  2893  0116  1303               	bcf	3,6	;RP1=0, select bank0
  2894  0117  0828               	movf	?___flmul+3,w
  2895  0118  00E0               	movwf	___fladd@a+3
  2896  0119  0827               	movf	?___flmul+2,w
  2897  011A  00DF               	movwf	___fladd@a+2
  2898  011B  0826               	movf	?___flmul+1,w
  2899  011C  00DE               	movwf	___fladd@a+1
  2900  011D  0825               	movf	?___flmul,w
  2901  011E  00DD               	movwf	___fladd@a
  2902  011F  120A  158A  2578  120A  118A  	fcall	___fladd
  2903  0124  1283               	bcf	3,5	;RP0=0, select bank0
  2904  0125  1303               	bcf	3,6	;RP1=0, select bank0
  2905  0126  085C               	movf	?___fladd+3,w
  2906  0127  1683               	bsf	3,5	;RP0=1, select bank1
  2907  0128  1303               	bcf	3,6	;RP1=0, select bank1
  2908  0129  00B3               	movwf	(log@x+3)^(0+128)
  2909  012A  1283               	bcf	3,5	;RP0=0, select bank0
  2910  012B  1303               	bcf	3,6	;RP1=0, select bank0
  2911  012C  085B               	movf	?___fladd+2,w
  2912  012D  1683               	bsf	3,5	;RP0=1, select bank1
  2913  012E  1303               	bcf	3,6	;RP1=0, select bank1
  2914  012F  00B2               	movwf	(log@x+2)^(0+128)
  2915  0130  1283               	bcf	3,5	;RP0=0, select bank0
  2916  0131  1303               	bcf	3,6	;RP1=0, select bank0
  2917  0132  085A               	movf	?___fladd+1,w
  2918  0133  1683               	bsf	3,5	;RP0=1, select bank1
  2919  0134  1303               	bcf	3,6	;RP1=0, select bank1
  2920  0135  00B1               	movwf	(log@x+1)^(0+128)
  2921  0136  1283               	bcf	3,5	;RP0=0, select bank0
  2922  0137  1303               	bcf	3,6	;RP1=0, select bank0
  2923  0138  0859               	movf	?___fladd,w
  2924  0139  1683               	bsf	3,5	;RP0=1, select bank1
  2925  013A  1303               	bcf	3,6	;RP1=0, select bank1
  2926  013B  00B0               	movwf	log@x^(0+128)
  2927  013C                     l2777:
  2928  013C  30FF               	movlw	255
  2929  013D  07B4               	addwf	log@exponent^(0+128),f
  2930  013E  1803               	skipnc
  2931  013F  0AB5               	incf	(log@exponent+1)^(0+128),f
  2932  0140  30FF               	movlw	255
  2933  0141  07B5               	addwf	(log@exponent+1)^(0+128),f
  2934  0142                     l2779:
  2935  0142  0833               	movf	(log@x+3)^(0+128),w
  2936  0143  00A3               	movwf	(eval_poly@x+3)^(0+128)
  2937  0144  0832               	movf	(log@x+2)^(0+128),w
  2938  0145  00A2               	movwf	(eval_poly@x+2)^(0+128)
  2939  0146  0831               	movf	(log@x+1)^(0+128),w
  2940  0147  00A1               	movwf	(eval_poly@x+1)^(0+128)
  2941  0148  0830               	movf	log@x^(0+128),w
  2942  0149  00A0               	movwf	eval_poly@x^(0+128)
  2943  014A  300B               	movlw	(low ((log@coeff-__stringbase)| (0+32768)))& (0+255)
  2944  014B  1283               	bcf	3,5	;RP0=0, select bank0
  2945  014C  1303               	bcf	3,6	;RP1=0, select bank0
  2946  014D  00ED               	movwf	??_log
  2947  014E  086D               	movf	??_log,w
  2948  014F  1683               	bsf	3,5	;RP0=1, select bank1
  2949  0150  1303               	bcf	3,6	;RP1=0, select bank1
  2950  0151  00A4               	movwf	eval_poly@d^(0+128)
  2951  0152  3008               	movlw	8
  2952  0153  00A5               	movwf	eval_poly@n^(0+128)
  2953  0154  3000               	movlw	0
  2954  0155  00A6               	movwf	(eval_poly@n^(0+128)+1)
  2955  0156  120A  158A  21BE  120A  118A  	fcall	_eval_poly
  2956  015B  1683               	bsf	3,5	;RP0=1, select bank1
  2957  015C  1303               	bcf	3,6	;RP1=0, select bank1
  2958  015D  0823               	movf	(?_eval_poly+3)^(0+128),w
  2959  015E  00B3               	movwf	(log@x+3)^(0+128)
  2960  015F  0822               	movf	(?_eval_poly+2)^(0+128),w
  2961  0160  00B2               	movwf	(log@x+2)^(0+128)
  2962  0161  0821               	movf	(?_eval_poly+1)^(0+128),w
  2963  0162  00B1               	movwf	(log@x+1)^(0+128)
  2964  0163  0820               	movf	?_eval_poly^(0+128),w
  2965  0164  00B0               	movwf	log@x^(0+128)
  2966  0165                     l2781:
  2967  0165  0833               	movf	(log@x+3)^(0+128),w
  2968  0166  1283               	bcf	3,5	;RP0=0, select bank0
  2969  0167  1303               	bcf	3,6	;RP1=0, select bank0
  2970  0168  00DC               	movwf	___fladd@b+3
  2971  0169  1683               	bsf	3,5	;RP0=1, select bank1
  2972  016A  1303               	bcf	3,6	;RP1=0, select bank1
  2973  016B  0832               	movf	(log@x+2)^(0+128),w
  2974  016C  1283               	bcf	3,5	;RP0=0, select bank0
  2975  016D  1303               	bcf	3,6	;RP1=0, select bank0
  2976  016E  00DB               	movwf	___fladd@b+2
  2977  016F  1683               	bsf	3,5	;RP0=1, select bank1
  2978  0170  1303               	bcf	3,6	;RP1=0, select bank1
  2979  0171  0831               	movf	(log@x+1)^(0+128),w
  2980  0172  1283               	bcf	3,5	;RP0=0, select bank0
  2981  0173  1303               	bcf	3,6	;RP1=0, select bank0
  2982  0174  00DA               	movwf	___fladd@b+1
  2983  0175  1683               	bsf	3,5	;RP0=1, select bank1
  2984  0176  1303               	bcf	3,6	;RP1=0, select bank1
  2985  0177  0830               	movf	log@x^(0+128),w
  2986  0178  1283               	bcf	3,5	;RP0=0, select bank0
  2987  0179  1303               	bcf	3,6	;RP1=0, select bank0
  2988  017A  00D9               	movwf	___fladd@b
  2989  017B  303F               	movlw	63
  2990  017C  00A8               	movwf	___flmul@b+3
  2991  017D  3031               	movlw	49
  2992  017E  00A7               	movwf	___flmul@b+2
  2993  017F  3072               	movlw	114
  2994  0180  00A6               	movwf	___flmul@b+1
  2995  0181  3018               	movlw	24
  2996  0182  00A5               	movwf	___flmul@b
  2997  0183  1683               	bsf	3,5	;RP0=1, select bank1
  2998  0184  1303               	bcf	3,6	;RP1=0, select bank1
  2999  0185  0834               	movf	log@exponent^(0+128),w
  3000  0186  00F0               	movwf	___xxtofl@val
  3001  0187  0835               	movf	(log@exponent+1)^(0+128),w
  3002  0188  00F1               	movwf	___xxtofl@val+1
  3003  0189  3000               	movlw	0
  3004  018A  1BF1               	btfsc	___xxtofl@val+1,7
  3005  018B  30FF               	movlw	255
  3006  018C  00F2               	movwf	___xxtofl@val+2
  3007  018D  00F3               	movwf	___xxtofl@val+3
  3008  018E  3001               	movlw	1
  3009  018F  120A  158A  2104  120A  118A  	fcall	___xxtofl
  3010  0194  0873               	movf	?___xxtofl+3,w
  3011  0195  1283               	bcf	3,5	;RP0=0, select bank0
  3012  0196  1303               	bcf	3,6	;RP1=0, select bank0
  3013  0197  00AC               	movwf	___flmul@a+3
  3014  0198  0872               	movf	?___xxtofl+2,w
  3015  0199  00AB               	movwf	___flmul@a+2
  3016  019A  0871               	movf	?___xxtofl+1,w
  3017  019B  00AA               	movwf	___flmul@a+1
  3018  019C  0870               	movf	?___xxtofl,w
  3019  019D  00A9               	movwf	___flmul@a
  3020  019E  120A  118A  247B  120A  118A  	fcall	___flmul
  3021  01A3  1283               	bcf	3,5	;RP0=0, select bank0
  3022  01A4  1303               	bcf	3,6	;RP1=0, select bank0
  3023  01A5  0828               	movf	?___flmul+3,w
  3024  01A6  00E0               	movwf	___fladd@a+3
  3025  01A7  0827               	movf	?___flmul+2,w
  3026  01A8  00DF               	movwf	___fladd@a+2
  3027  01A9  0826               	movf	?___flmul+1,w
  3028  01AA  00DE               	movwf	___fladd@a+1
  3029  01AB  0825               	movf	?___flmul,w
  3030  01AC  00DD               	movwf	___fladd@a
  3031  01AD  120A  158A  2578  120A  118A  	fcall	___fladd
  3032  01B2  1283               	bcf	3,5	;RP0=0, select bank0
  3033  01B3  1303               	bcf	3,6	;RP1=0, select bank0
  3034  01B4  085C               	movf	?___fladd+3,w
  3035  01B5  1683               	bsf	3,5	;RP0=1, select bank1
  3036  01B6  1303               	bcf	3,6	;RP1=0, select bank1
  3037  01B7  00B3               	movwf	(?_log+3)^(0+128)
  3038  01B8  1283               	bcf	3,5	;RP0=0, select bank0
  3039  01B9  1303               	bcf	3,6	;RP1=0, select bank0
  3040  01BA  085B               	movf	?___fladd+2,w
  3041  01BB  1683               	bsf	3,5	;RP0=1, select bank1
  3042  01BC  1303               	bcf	3,6	;RP1=0, select bank1
  3043  01BD  00B2               	movwf	(?_log+2)^(0+128)
  3044  01BE  1283               	bcf	3,5	;RP0=0, select bank0
  3045  01BF  1303               	bcf	3,6	;RP1=0, select bank0
  3046  01C0  085A               	movf	?___fladd+1,w
  3047  01C1  1683               	bsf	3,5	;RP0=1, select bank1
  3048  01C2  1303               	bcf	3,6	;RP1=0, select bank1
  3049  01C3  00B1               	movwf	(?_log+1)^(0+128)
  3050  01C4  1283               	bcf	3,5	;RP0=0, select bank0
  3051  01C5  1303               	bcf	3,6	;RP1=0, select bank0
  3052  01C6  0859               	movf	?___fladd,w
  3053  01C7  1683               	bsf	3,5	;RP0=1, select bank1
  3054  01C8  1303               	bcf	3,6	;RP1=0, select bank1
  3055  01C9  00B0               	movwf	?_log^(0+128)
  3056  01CA                     l865:
  3057  01CA  0008               	return
  3058  01CB                     __end_of_log:
  3059                           
  3060                           	psect	text5
  3061  0023                     __ptext5:	
  3062 ;; *************** function _frexp *****************
  3063 ;; Defined at:
  3064 ;;		line 254 in file "C:\Program Files\Microchip\xc8\v2.36\pic\sources\c90\common\frexp.c"
  3065 ;; Parameters:    Size  Location     Type
  3066 ;;  value           4    0[BANK0 ] int 
  3067 ;;  eptr            1    4[BANK0 ] PTR int 
  3068 ;;		 -> log@exponent(2), 
  3069 ;; Auto vars:     Size  Location     Type
  3070 ;;		None
  3071 ;; Return value:  Size  Location     Type
  3072 ;;                  4    0[BANK0 ] PTR int 
  3073 ;; Registers used:
  3074 ;;		wreg, fsr0l, fsr0h, status,2, status,0, btemp+1, pclath, cstack
  3075 ;; Tracked objects:
  3076 ;;		On entry : 0/0
  3077 ;;		On exit  : 0/0
  3078 ;;		Unchanged: 0/0
  3079 ;; Data sizes:     COMMON   BANK0   BANK1   BANK3   BANK2
  3080 ;;      Params:         0       5       0       0       0
  3081 ;;      Locals:         0       0       0       0       0
  3082 ;;      Temps:          2       0       0       0       0
  3083 ;;      Totals:         2       5       0       0       0
  3084 ;;Total ram usage:        7 bytes
  3085 ;; Hardware stack levels used: 1
  3086 ;; Hardware stack levels required when called: 1
  3087 ;; This function calls:
  3088 ;;		___fleq
  3089 ;; This function is called by:
  3090 ;;		_log
  3091 ;; This function uses a non-reentrant model
  3092 ;;
  3093                           
  3094  0023                     _frexp:	
  3095                           ;psect for function _frexp
  3096                           
  3097  0023                     l2719:	
  3098                           ;incstack = 0
  3099                           ; Regs used in _frexp: [wreg-fsr0h+status,2+status,0+btemp+1+pclath+cstack]
  3100                           
  3101  0023  1283               	bcf	3,5	;RP0=0, select bank0
  3102  0024  1303               	bcf	3,6	;RP1=0, select bank0
  3103  0025  0823               	movf	frexp@value+3,w
  3104  0026  00F3               	movwf	___fleq@ff1+3
  3105  0027  0822               	movf	frexp@value+2,w
  3106  0028  00F2               	movwf	___fleq@ff1+2
  3107  0029  0821               	movf	frexp@value+1,w
  3108  002A  00F1               	movwf	___fleq@ff1+1
  3109  002B  0820               	movf	frexp@value,w
  3110  002C  00F0               	movwf	___fleq@ff1
  3111  002D  3000               	movlw	0
  3112  002E  00F7               	movwf	___fleq@ff2+3
  3113  002F  3000               	movlw	0
  3114  0030  00F6               	movwf	___fleq@ff2+2
  3115  0031  3000               	movlw	0
  3116  0032  00F5               	movwf	___fleq@ff2+1
  3117  0033  3000               	movlw	0
  3118  0034  00F4               	movwf	___fleq@ff2
  3119  0035  160A  118A  2720  120A  118A  	fcall	___fleq
  3120  003A  1C03               	btfss	3,0
  3121  003B  283D               	goto	u3571
  3122  003C  283E               	goto	u3570
  3123  003D                     u3571:
  3124  003D  284F               	goto	l2727
  3125  003E                     u3570:
  3126  003E                     l2721:
  3127  003E  1283               	bcf	3,5	;RP0=0, select bank0
  3128  003F  1303               	bcf	3,6	;RP1=0, select bank0
  3129  0040  0824               	movf	frexp@eptr,w
  3130  0041  0084               	movwf	4
  3131  0042  1383               	bcf	3,7	;select IRP bank0
  3132  0043  0180               	clrf	0
  3133  0044  0A84               	incf	4,f
  3134  0045  0180               	clrf	0
  3135  0046                     l2723:
  3136  0046  3000               	movlw	0
  3137  0047  00A3               	movwf	?_frexp+3
  3138  0048  3000               	movlw	0
  3139  0049  00A2               	movwf	?_frexp+2
  3140  004A  3000               	movlw	0
  3141  004B  00A1               	movwf	?_frexp+1
  3142  004C  3000               	movlw	0
  3143  004D  00A0               	movwf	?_frexp
  3144  004E  287E               	goto	l883
  3145  004F                     l2727:
  3146  004F  1283               	bcf	3,5	;RP0=0, select bank0
  3147  0050  1303               	bcf	3,6	;RP1=0, select bank0
  3148  0051  0823               	movf	frexp@value+3,w
  3149  0052  397F               	andlw	127
  3150  0053  00FC               	movwf	??_frexp
  3151  0054  01FD               	clrf	??_frexp+1
  3152  0055  1003               	clrc
  3153  0056  0DFC               	rlf	??_frexp,f
  3154  0057  0DFD               	rlf	??_frexp+1,f
  3155  0058  0824               	movf	frexp@eptr,w
  3156  0059  0084               	movwf	4
  3157  005A  087C               	movf	??_frexp,w
  3158  005B  1383               	bcf	3,7	;select IRP bank0
  3159  005C  0080               	movwf	0
  3160  005D  0A84               	incf	4,f
  3161  005E  087D               	movf	??_frexp+1,w
  3162  005F  0080               	movwf	0
  3163  0060  0D22               	rlf	frexp@value+2,w
  3164  0061  0D22               	rlf	frexp@value+2,w
  3165  0062  3901               	andlw	1
  3166  0063  00FC               	movwf	??_frexp
  3167  0064  01FD               	clrf	??_frexp+1
  3168  0065  0824               	movf	frexp@eptr,w
  3169  0066  0084               	movwf	4
  3170  0067  087C               	movf	??_frexp,w
  3171  0068  0480               	iorwf	0,f
  3172  0069  0A84               	incf	4,f
  3173  006A  087D               	movf	??_frexp+1,w
  3174  006B  0480               	iorwf	0,f
  3175  006C                     l2729:
  3176  006C  0824               	movf	frexp@eptr,w
  3177  006D  0084               	movwf	4
  3178  006E  3082               	movlw	130
  3179  006F  0780               	addwf	0,f
  3180  0070  0F84               	incfsz	4,f
  3181  0071  0800               	movf	0,w
  3182  0072  1803               	skipnc
  3183  0073  0A00               	incf	0,w
  3184  0074  00FF               	movwf	btemp+1
  3185  0075  30FF               	movlw	255
  3186  0076  077F               	addwf	btemp+1,w
  3187  0077  0080               	movwf	0
  3188  0078  0384               	decf	4,f
  3189  0079                     l2731:
  3190  0079  0823               	movf	frexp@value+3,w
  3191  007A  3980               	andlw	-128
  3192  007B  383F               	iorlw	63
  3193  007C  00A3               	movwf	frexp@value+3
  3194  007D                     l2733:
  3195  007D  13A2               	bcf	frexp@value+2,7
  3196  007E                     l2735:
  3197  007E                     l883:
  3198  007E  0008               	return
  3199  007F                     __end_of_frexp:
  3200                           
  3201                           	psect	text6
  3202  1720                     __ptext6:	
  3203 ;; *************** function ___fleq *****************
  3204 ;; Defined at:
  3205 ;;		line 4 in file "C:\Program Files\Microchip\xc8\v2.36\pic\sources\c90\common\fleq.c"
  3206 ;; Parameters:    Size  Location     Type
  3207 ;;  ff1             4    0[COMMON] PTR int 
  3208 ;;  ff2             4    4[COMMON] PTR int 
  3209 ;; Auto vars:     Size  Location     Type
  3210 ;;		None
  3211 ;; Return value:  Size  Location     Type
  3212 ;;		None               void
  3213 ;; Registers used:
  3214 ;;		wreg, status,2, status,0
  3215 ;; Tracked objects:
  3216 ;;		On entry : 0/0
  3217 ;;		On exit  : 0/0
  3218 ;;		Unchanged: 0/0
  3219 ;; Data sizes:     COMMON   BANK0   BANK1   BANK3   BANK2
  3220 ;;      Params:         8       0       0       0       0
  3221 ;;      Locals:         0       0       0       0       0
  3222 ;;      Temps:          4       0       0       0       0
  3223 ;;      Totals:        12       0       0       0       0
  3224 ;;Total ram usage:       12 bytes
  3225 ;; Hardware stack levels used: 1
  3226 ;; This function calls:
  3227 ;;		Nothing
  3228 ;; This function is called by:
  3229 ;;		_log
  3230 ;;		_frexp
  3231 ;; This function uses a non-reentrant model
  3232 ;;
  3233                           
  3234  1720                     ___fleq:	
  3235                           ;psect for function ___fleq
  3236                           
  3237  1720                     l2233:	
  3238                           ;incstack = 0
  3239                           ; Regs used in ___fleq: [wreg+status,2+status,0]
  3240                           
  3241  1720  3000               	movlw	0
  3242  1721  0570               	andwf	___fleq@ff1,w
  3243  1722  00F8               	movwf	??___fleq
  3244  1723  3000               	movlw	0
  3245  1724  0571               	andwf	___fleq@ff1+1,w
  3246  1725  00F9               	movwf	??___fleq+1
  3247  1726  3080               	movlw	128
  3248  1727  0572               	andwf	___fleq@ff1+2,w
  3249  1728  00FA               	movwf	??___fleq+2
  3250  1729  307F               	movlw	127
  3251  172A  0573               	andwf	___fleq@ff1+3,w
  3252  172B  00FB               	movwf	??___fleq+3
  3253  172C  087B               	movf	??___fleq+3,w
  3254  172D  047A               	iorwf	??___fleq+2,w
  3255  172E  0479               	iorwf	??___fleq+1,w
  3256  172F  0478               	iorwf	??___fleq,w
  3257  1730  1D03               	skipz
  3258  1731  2F33               	goto	u2351
  3259  1732  2F34               	goto	u2350
  3260  1733                     u2351:
  3261  1733  2F3C               	goto	l574
  3262  1734                     u2350:
  3263  1734                     l2235:
  3264  1734  3000               	movlw	0
  3265  1735  00F3               	movwf	___fleq@ff1+3
  3266  1736  3000               	movlw	0
  3267  1737  00F2               	movwf	___fleq@ff1+2
  3268  1738  3000               	movlw	0
  3269  1739  00F1               	movwf	___fleq@ff1+1
  3270  173A  3000               	movlw	0
  3271  173B  00F0               	movwf	___fleq@ff1
  3272  173C                     l574:
  3273  173C  3000               	movlw	0
  3274  173D  0574               	andwf	___fleq@ff2,w
  3275  173E  00F8               	movwf	??___fleq
  3276  173F  3000               	movlw	0
  3277  1740  0575               	andwf	___fleq@ff2+1,w
  3278  1741  00F9               	movwf	??___fleq+1
  3279  1742  3080               	movlw	128
  3280  1743  0576               	andwf	___fleq@ff2+2,w
  3281  1744  00FA               	movwf	??___fleq+2
  3282  1745  307F               	movlw	127
  3283  1746  0577               	andwf	___fleq@ff2+3,w
  3284  1747  00FB               	movwf	??___fleq+3
  3285  1748  087B               	movf	??___fleq+3,w
  3286  1749  047A               	iorwf	??___fleq+2,w
  3287  174A  0479               	iorwf	??___fleq+1,w
  3288  174B  0478               	iorwf	??___fleq,w
  3289  174C  1D03               	skipz
  3290  174D  2F4F               	goto	u2361
  3291  174E  2F50               	goto	u2360
  3292  174F                     u2361:
  3293  174F  2F58               	goto	l575
  3294  1750                     u2360:
  3295  1750                     l2237:
  3296  1750  3000               	movlw	0
  3297  1751  00F7               	movwf	___fleq@ff2+3
  3298  1752  3000               	movlw	0
  3299  1753  00F6               	movwf	___fleq@ff2+2
  3300  1754  3000               	movlw	0
  3301  1755  00F5               	movwf	___fleq@ff2+1
  3302  1756  3000               	movlw	0
  3303  1757  00F4               	movwf	___fleq@ff2
  3304  1758                     l575:
  3305  1758  0877               	movf	___fleq@ff2+3,w
  3306  1759  0673               	xorwf	___fleq@ff1+3,w
  3307  175A  1D03               	skipz
  3308  175B  2F66               	goto	u2375
  3309  175C  0876               	movf	___fleq@ff2+2,w
  3310  175D  0672               	xorwf	___fleq@ff1+2,w
  3311  175E  1D03               	skipz
  3312  175F  2F66               	goto	u2375
  3313  1760  0875               	movf	___fleq@ff2+1,w
  3314  1761  0671               	xorwf	___fleq@ff1+1,w
  3315  1762  1D03               	skipz
  3316  1763  2F66               	goto	u2375
  3317  1764  0874               	movf	___fleq@ff2,w
  3318  1765  0670               	xorwf	___fleq@ff1,w
  3319  1766                     u2375:
  3320  1766  1903               	skipnz
  3321  1767  2F69               	goto	u2371
  3322  1768  2F6A               	goto	u2370
  3323  1769                     u2371:
  3324  1769  2F6C               	goto	l2241
  3325  176A                     u2370:
  3326  176A                     l2239:
  3327  176A  1003               	clrc
  3328  176B  2F6D               	goto	l576
  3329  176C                     l2241:
  3330  176C  1403               	setc
  3331  176D                     l576:
  3332  176D  0008               	return
  3333  176E                     __end_of___fleq:
  3334                           
  3335                           	psect	text7
  3336  09BE                     __ptext7:	
  3337 ;; *************** function _eval_poly *****************
  3338 ;; Defined at:
  3339 ;;		line 4 in file "C:\Program Files\Microchip\xc8\v2.36\pic\sources\c90\common\evalpoly.c"
  3340 ;; Parameters:    Size  Location     Type
  3341 ;;  x               4    0[BANK1 ] PTR int 
  3342 ;;  d               1    4[BANK1 ] PTR const 
  3343 ;;		 -> log@coeff(36), 
  3344 ;;  n               2    5[BANK1 ] int 
  3345 ;; Auto vars:     Size  Location     Type
  3346 ;;  res             4   12[BANK1 ] int 
  3347 ;; Return value:  Size  Location     Type
  3348 ;;                  4    0[BANK1 ] int 
  3349 ;; Registers used:
  3350 ;;		wreg, fsr0l, fsr0h, status,2, status,0, btemp+1, pclath, cstack
  3351 ;; Tracked objects:
  3352 ;;		On entry : 0/0
  3353 ;;		On exit  : 0/0
  3354 ;;		Unchanged: 0/0
  3355 ;; Data sizes:     COMMON   BANK0   BANK1   BANK3   BANK2
  3356 ;;      Params:         0       0       7       0       0
  3357 ;;      Locals:         0       0       4       0       0
  3358 ;;      Temps:          0       0       5       0       0
  3359 ;;      Totals:         0       0      16       0       0
  3360 ;;Total ram usage:       16 bytes
  3361 ;; Hardware stack levels used: 1
  3362 ;; Hardware stack levels required when called: 2
  3363 ;; This function calls:
  3364 ;;		___fladd
  3365 ;;		___flmul
  3366 ;; This function is called by:
  3367 ;;		_log
  3368 ;; This function uses a non-reentrant model
  3369 ;;
  3370                           
  3371  09BE                     _eval_poly:	
  3372                           ;psect for function _eval_poly
  3373                           
  3374  09BE                     l2739:	
  3375                           ;incstack = 0
  3376                           ; Regs used in _eval_poly: [wreg-fsr0h+status,2+status,0+btemp+1+pclath+cstack]
  3377                           
  3378  09BE  1683               	bsf	3,5	;RP0=1, select bank1
  3379  09BF  1303               	bcf	3,6	;RP1=0, select bank1
  3380  09C0  0825               	movf	eval_poly@n^(0+128),w
  3381  09C1  00A7               	movwf	??_eval_poly^(0+128)
  3382  09C2  3001               	movlw	1
  3383  09C3                     u3585:
  3384  09C3  1003               	clrc
  3385  09C4  0DA7               	rlf	??_eval_poly^(0+128),f
  3386  09C5  3EFF               	addlw	-1
  3387  09C6  1D03               	skipz
  3388  09C7  29C3               	goto	u3585
  3389  09C8  1003               	clrc
  3390  09C9  0D27               	rlf	??_eval_poly^(0+128),w
  3391  09CA  0724               	addwf	eval_poly@d^(0+128),w
  3392  09CB  0084               	movwf	4
  3393  09CC  160A  118A  200A  120A  158A  	fcall	stringdir
  3394  09D1  00A8               	movwf	(??_eval_poly+1)^(0+128)
  3395  09D2  160A  118A  200A  120A  158A  	fcall	stringdir
  3396  09D7  00A9               	movwf	((??_eval_poly+1)^(0+128)+1)
  3397  09D8  160A  118A  200A  120A  158A  	fcall	stringdir
  3398  09DD  00AA               	movwf	((??_eval_poly+1)^(0+128)+2)
  3399  09DE  160A  118A  200A  120A  158A  	fcall	stringdir
  3400  09E3  00AB               	movwf	((??_eval_poly+1)^(0+128)+3)
  3401  09E4  082B               	movf	(??_eval_poly+4)^(0+128),w
  3402  09E5  00AF               	movwf	(eval_poly@res+3)^(0+128)
  3403  09E6  082A               	movf	(??_eval_poly+3)^(0+128),w
  3404  09E7  00AE               	movwf	(eval_poly@res+2)^(0+128)
  3405  09E8  0829               	movf	(??_eval_poly+2)^(0+128),w
  3406  09E9  00AD               	movwf	(eval_poly@res+1)^(0+128)
  3407  09EA  0828               	movf	(??_eval_poly+1)^(0+128),w
  3408  09EB  00AC               	movwf	eval_poly@res^(0+128)
  3409  09EC  2A89               	goto	l2743
  3410  09ED                     l2741:
  3411  09ED  30FF               	movlw	255
  3412  09EE  07A5               	addwf	eval_poly@n^(0+128),f
  3413  09EF  1803               	skipnc
  3414  09F0  0AA6               	incf	(eval_poly@n+1)^(0+128),f
  3415  09F1  30FF               	movlw	255
  3416  09F2  07A6               	addwf	(eval_poly@n+1)^(0+128),f
  3417  09F3  0825               	movf	eval_poly@n^(0+128),w
  3418  09F4  00A7               	movwf	??_eval_poly^(0+128)
  3419  09F5  3001               	movlw	1
  3420  09F6                     u3595:
  3421  09F6  1003               	clrc
  3422  09F7  0DA7               	rlf	??_eval_poly^(0+128),f
  3423  09F8  3EFF               	addlw	-1
  3424  09F9  1D03               	skipz
  3425  09FA  29F6               	goto	u3595
  3426  09FB  1003               	clrc
  3427  09FC  0D27               	rlf	??_eval_poly^(0+128),w
  3428  09FD  0724               	addwf	eval_poly@d^(0+128),w
  3429  09FE  0084               	movwf	4
  3430  09FF  160A  118A  200A  120A  158A  	fcall	stringdir
  3431  0A04  00A8               	movwf	(??_eval_poly+1)^(0+128)
  3432  0A05  160A  118A  200A  120A  158A  	fcall	stringdir
  3433  0A0A  00A9               	movwf	((??_eval_poly+1)^(0+128)+1)
  3434  0A0B  160A  118A  200A  120A  158A  	fcall	stringdir
  3435  0A10  00AA               	movwf	((??_eval_poly+1)^(0+128)+2)
  3436  0A11  160A  118A  200A  120A  158A  	fcall	stringdir
  3437  0A16  00AB               	movwf	((??_eval_poly+1)^(0+128)+3)
  3438  0A17  082B               	movf	(??_eval_poly+4)^(0+128),w
  3439  0A18  1283               	bcf	3,5	;RP0=0, select bank0
  3440  0A19  1303               	bcf	3,6	;RP1=0, select bank0
  3441  0A1A  00DC               	movwf	___fladd@b+3
  3442  0A1B  1683               	bsf	3,5	;RP0=1, select bank1
  3443  0A1C  1303               	bcf	3,6	;RP1=0, select bank1
  3444  0A1D  082A               	movf	(??_eval_poly+3)^(0+128),w
  3445  0A1E  1283               	bcf	3,5	;RP0=0, select bank0
  3446  0A1F  1303               	bcf	3,6	;RP1=0, select bank0
  3447  0A20  00DB               	movwf	___fladd@b+2
  3448  0A21  1683               	bsf	3,5	;RP0=1, select bank1
  3449  0A22  1303               	bcf	3,6	;RP1=0, select bank1
  3450  0A23  0829               	movf	(??_eval_poly+2)^(0+128),w
  3451  0A24  1283               	bcf	3,5	;RP0=0, select bank0
  3452  0A25  1303               	bcf	3,6	;RP1=0, select bank0
  3453  0A26  00DA               	movwf	___fladd@b+1
  3454  0A27  1683               	bsf	3,5	;RP0=1, select bank1
  3455  0A28  1303               	bcf	3,6	;RP1=0, select bank1
  3456  0A29  0828               	movf	(??_eval_poly+1)^(0+128),w
  3457  0A2A  1283               	bcf	3,5	;RP0=0, select bank0
  3458  0A2B  1303               	bcf	3,6	;RP1=0, select bank0
  3459  0A2C  00D9               	movwf	___fladd@b
  3460  0A2D  1683               	bsf	3,5	;RP0=1, select bank1
  3461  0A2E  1303               	bcf	3,6	;RP1=0, select bank1
  3462  0A2F  082F               	movf	(eval_poly@res+3)^(0+128),w
  3463  0A30  1283               	bcf	3,5	;RP0=0, select bank0
  3464  0A31  1303               	bcf	3,6	;RP1=0, select bank0
  3465  0A32  00A8               	movwf	___flmul@b+3
  3466  0A33  1683               	bsf	3,5	;RP0=1, select bank1
  3467  0A34  1303               	bcf	3,6	;RP1=0, select bank1
  3468  0A35  082E               	movf	(eval_poly@res+2)^(0+128),w
  3469  0A36  1283               	bcf	3,5	;RP0=0, select bank0
  3470  0A37  1303               	bcf	3,6	;RP1=0, select bank0
  3471  0A38  00A7               	movwf	___flmul@b+2
  3472  0A39  1683               	bsf	3,5	;RP0=1, select bank1
  3473  0A3A  1303               	bcf	3,6	;RP1=0, select bank1
  3474  0A3B  082D               	movf	(eval_poly@res+1)^(0+128),w
  3475  0A3C  1283               	bcf	3,5	;RP0=0, select bank0
  3476  0A3D  1303               	bcf	3,6	;RP1=0, select bank0
  3477  0A3E  00A6               	movwf	___flmul@b+1
  3478  0A3F  1683               	bsf	3,5	;RP0=1, select bank1
  3479  0A40  1303               	bcf	3,6	;RP1=0, select bank1
  3480  0A41  082C               	movf	eval_poly@res^(0+128),w
  3481  0A42  1283               	bcf	3,5	;RP0=0, select bank0
  3482  0A43  1303               	bcf	3,6	;RP1=0, select bank0
  3483  0A44  00A5               	movwf	___flmul@b
  3484  0A45  1683               	bsf	3,5	;RP0=1, select bank1
  3485  0A46  1303               	bcf	3,6	;RP1=0, select bank1
  3486  0A47  0823               	movf	(eval_poly@x+3)^(0+128),w
  3487  0A48  1283               	bcf	3,5	;RP0=0, select bank0
  3488  0A49  1303               	bcf	3,6	;RP1=0, select bank0
  3489  0A4A  00AC               	movwf	___flmul@a+3
  3490  0A4B  1683               	bsf	3,5	;RP0=1, select bank1
  3491  0A4C  1303               	bcf	3,6	;RP1=0, select bank1
  3492  0A4D  0822               	movf	(eval_poly@x+2)^(0+128),w
  3493  0A4E  1283               	bcf	3,5	;RP0=0, select bank0
  3494  0A4F  1303               	bcf	3,6	;RP1=0, select bank0
  3495  0A50  00AB               	movwf	___flmul@a+2
  3496  0A51  1683               	bsf	3,5	;RP0=1, select bank1
  3497  0A52  1303               	bcf	3,6	;RP1=0, select bank1
  3498  0A53  0821               	movf	(eval_poly@x+1)^(0+128),w
  3499  0A54  1283               	bcf	3,5	;RP0=0, select bank0
  3500  0A55  1303               	bcf	3,6	;RP1=0, select bank0
  3501  0A56  00AA               	movwf	___flmul@a+1
  3502  0A57  1683               	bsf	3,5	;RP0=1, select bank1
  3503  0A58  1303               	bcf	3,6	;RP1=0, select bank1
  3504  0A59  0820               	movf	eval_poly@x^(0+128),w
  3505  0A5A  1283               	bcf	3,5	;RP0=0, select bank0
  3506  0A5B  1303               	bcf	3,6	;RP1=0, select bank0
  3507  0A5C  00A9               	movwf	___flmul@a
  3508  0A5D  120A  118A  247B  120A  158A  	fcall	___flmul
  3509  0A62  1283               	bcf	3,5	;RP0=0, select bank0
  3510  0A63  1303               	bcf	3,6	;RP1=0, select bank0
  3511  0A64  0828               	movf	?___flmul+3,w
  3512  0A65  00E0               	movwf	___fladd@a+3
  3513  0A66  0827               	movf	?___flmul+2,w
  3514  0A67  00DF               	movwf	___fladd@a+2
  3515  0A68  0826               	movf	?___flmul+1,w
  3516  0A69  00DE               	movwf	___fladd@a+1
  3517  0A6A  0825               	movf	?___flmul,w
  3518  0A6B  00DD               	movwf	___fladd@a
  3519  0A6C  120A  158A  2578  120A  158A  	fcall	___fladd
  3520  0A71  1283               	bcf	3,5	;RP0=0, select bank0
  3521  0A72  1303               	bcf	3,6	;RP1=0, select bank0
  3522  0A73  085C               	movf	?___fladd+3,w
  3523  0A74  1683               	bsf	3,5	;RP0=1, select bank1
  3524  0A75  1303               	bcf	3,6	;RP1=0, select bank1
  3525  0A76  00AF               	movwf	(eval_poly@res+3)^(0+128)
  3526  0A77  1283               	bcf	3,5	;RP0=0, select bank0
  3527  0A78  1303               	bcf	3,6	;RP1=0, select bank0
  3528  0A79  085B               	movf	?___fladd+2,w
  3529  0A7A  1683               	bsf	3,5	;RP0=1, select bank1
  3530  0A7B  1303               	bcf	3,6	;RP1=0, select bank1
  3531  0A7C  00AE               	movwf	(eval_poly@res+2)^(0+128)
  3532  0A7D  1283               	bcf	3,5	;RP0=0, select bank0
  3533  0A7E  1303               	bcf	3,6	;RP1=0, select bank0
  3534  0A7F  085A               	movf	?___fladd+1,w
  3535  0A80  1683               	bsf	3,5	;RP0=1, select bank1
  3536  0A81  1303               	bcf	3,6	;RP1=0, select bank1
  3537  0A82  00AD               	movwf	(eval_poly@res+1)^(0+128)
  3538  0A83  1283               	bcf	3,5	;RP0=0, select bank0
  3539  0A84  1303               	bcf	3,6	;RP1=0, select bank0
  3540  0A85  0859               	movf	?___fladd,w
  3541  0A86  1683               	bsf	3,5	;RP0=1, select bank1
  3542  0A87  1303               	bcf	3,6	;RP1=0, select bank1
  3543  0A88  00AC               	movwf	eval_poly@res^(0+128)
  3544  0A89                     l2743:
  3545  0A89  0825               	movf	eval_poly@n^(0+128),w
  3546  0A8A  0426               	iorwf	(eval_poly@n+1)^(0+128),w
  3547  0A8B  1D03               	btfss	3,2
  3548  0A8C  2A8E               	goto	u3601
  3549  0A8D  2A8F               	goto	u3600
  3550  0A8E                     u3601:
  3551  0A8E  29ED               	goto	l2741
  3552  0A8F                     u3600:
  3553  0A8F                     l2745:
  3554  0A8F  082F               	movf	(eval_poly@res+3)^(0+128),w
  3555  0A90  00A3               	movwf	(?_eval_poly+3)^(0+128)
  3556  0A91  082E               	movf	(eval_poly@res+2)^(0+128),w
  3557  0A92  00A2               	movwf	(?_eval_poly+2)^(0+128)
  3558  0A93  082D               	movf	(eval_poly@res+1)^(0+128),w
  3559  0A94  00A1               	movwf	(?_eval_poly+1)^(0+128)
  3560  0A95  082C               	movf	eval_poly@res^(0+128),w
  3561  0A96  00A0               	movwf	?_eval_poly^(0+128)
  3562  0A97                     l877:
  3563  0A97  0008               	return
  3564  0A98                     __end_of_eval_poly:
  3565                           
  3566                           	psect	text8
  3567  047B                     __ptext8:	
  3568 ;; *************** function ___flmul *****************
  3569 ;; Defined at:
  3570 ;;		line 8 in file "C:\Program Files\Microchip\xc8\v2.36\pic\sources\c90\common\sprcmul.c"
  3571 ;; Parameters:    Size  Location     Type
  3572 ;;  b               4    5[BANK0 ] int 
  3573 ;;  a               4    9[BANK0 ] int 
  3574 ;; Auto vars:     Size  Location     Type
  3575 ;;  prod            4   25[BANK0 ] struct .
  3576 ;;  grs             4   19[BANK0 ] unsigned long 
  3577 ;;  temp            2   29[BANK0 ] struct .
  3578 ;;  bexp            1   24[BANK0 ] unsigned char 
  3579 ;;  aexp            1   23[BANK0 ] unsigned char 
  3580 ;;  sign            1   18[BANK0 ] unsigned char 
  3581 ;; Return value:  Size  Location     Type
  3582 ;;                  4    5[BANK0 ] unsigned char 
  3583 ;; Registers used:
  3584 ;;		wreg, status,2, status,0, btemp+1, pclath, cstack
  3585 ;; Tracked objects:
  3586 ;;		On entry : 0/0
  3587 ;;		On exit  : 0/0
  3588 ;;		Unchanged: 0/0
  3589 ;; Data sizes:     COMMON   BANK0   BANK1   BANK3   BANK2
  3590 ;;      Params:         0       8       0       0       0
  3591 ;;      Locals:         0      13       0       0       0
  3592 ;;      Temps:          0       5       0       0       0
  3593 ;;      Totals:         0      26       0       0       0
  3594 ;;Total ram usage:       26 bytes
  3595 ;; Hardware stack levels used: 1
  3596 ;; Hardware stack levels required when called: 1
  3597 ;; This function calls:
  3598 ;;		__Umul8_16
  3599 ;; This function is called by:
  3600 ;;		_log
  3601 ;;		_eval_poly
  3602 ;; This function uses a non-reentrant model
  3603 ;;
  3604                           
  3605  047B                     ___flmul:	
  3606                           ;psect for function ___flmul
  3607                           
  3608  047B                     l2439:	
  3609                           ;incstack = 0
  3610                           ; Regs used in ___flmul: [wreg+status,2+status,0+btemp+1+pclath+cstack]
  3611                           
  3612  047B  1283               	bcf	3,5	;RP0=0, select bank0
  3613  047C  1303               	bcf	3,6	;RP1=0, select bank0
  3614  047D  0828               	movf	___flmul@b+3,w
  3615  047E  3980               	andlw	128
  3616  047F  00AD               	movwf	??___flmul
  3617  0480  082D               	movf	??___flmul,w
  3618  0481  00B2               	movwf	___flmul@sign
  3619  0482                     l2441:
  3620  0482  0828               	movf	___flmul@b+3,w
  3621  0483  00AD               	movwf	??___flmul
  3622  0484  072D               	addwf	??___flmul,w
  3623  0485  00AE               	movwf	??___flmul+1
  3624  0486  082E               	movf	??___flmul+1,w
  3625  0487  00B8               	movwf	___flmul@bexp
  3626  0488                     l2443:
  3627  0488  1FA7               	btfss	___flmul@b+2,7
  3628  0489  2C8B               	goto	u2841
  3629  048A  2C8C               	goto	u2840
  3630  048B                     u2841:
  3631  048B  2C8D               	goto	l2447
  3632  048C                     u2840:
  3633  048C                     l2445:
  3634  048C  1438               	bsf	___flmul@bexp,0
  3635  048D                     l2447:
  3636  048D  0838               	movf	___flmul@bexp,w
  3637  048E  1903               	btfsc	3,2
  3638  048F  2C91               	goto	u2851
  3639  0490  2C92               	goto	u2850
  3640  0491                     u2851:
  3641  0491  2CA1               	goto	l2455
  3642  0492                     u2850:
  3643  0492                     l2449:
  3644  0492  0A38               	incf	___flmul@bexp,w
  3645  0493  1D03               	btfss	3,2
  3646  0494  2C96               	goto	u2861
  3647  0495  2C97               	goto	u2860
  3648  0496                     u2861:
  3649  0496  2C9F               	goto	l2453
  3650  0497                     u2860:
  3651  0497                     l2451:
  3652  0497  3000               	movlw	0
  3653  0498  00A8               	movwf	___flmul@b+3
  3654  0499  3000               	movlw	0
  3655  049A  00A7               	movwf	___flmul@b+2
  3656  049B  3000               	movlw	0
  3657  049C  00A6               	movwf	___flmul@b+1
  3658  049D  3000               	movlw	0
  3659  049E  00A5               	movwf	___flmul@b
  3660  049F                     l2453:
  3661  049F  17A7               	bsf	___flmul@b+2,7
  3662  04A0  2CA9               	goto	l2457
  3663  04A1                     l2455:
  3664  04A1  3000               	movlw	0
  3665  04A2  00A8               	movwf	___flmul@b+3
  3666  04A3  3000               	movlw	0
  3667  04A4  00A7               	movwf	___flmul@b+2
  3668  04A5  3000               	movlw	0
  3669  04A6  00A6               	movwf	___flmul@b+1
  3670  04A7  3000               	movlw	0
  3671  04A8  00A5               	movwf	___flmul@b
  3672  04A9                     l2457:
  3673  04A9  082C               	movf	___flmul@a+3,w
  3674  04AA  3980               	andlw	128
  3675  04AB  00AD               	movwf	??___flmul
  3676  04AC  082D               	movf	??___flmul,w
  3677  04AD  06B2               	xorwf	___flmul@sign,f
  3678  04AE                     l2459:
  3679  04AE  082C               	movf	___flmul@a+3,w
  3680  04AF  00AD               	movwf	??___flmul
  3681  04B0  072D               	addwf	??___flmul,w
  3682  04B1  00AE               	movwf	??___flmul+1
  3683  04B2  082E               	movf	??___flmul+1,w
  3684  04B3  00B7               	movwf	___flmul@aexp
  3685  04B4                     l2461:
  3686  04B4  1FAB               	btfss	___flmul@a+2,7
  3687  04B5  2CB7               	goto	u2871
  3688  04B6  2CB8               	goto	u2870
  3689  04B7                     u2871:
  3690  04B7  2CB9               	goto	l2465
  3691  04B8                     u2870:
  3692  04B8                     l2463:
  3693  04B8  1437               	bsf	___flmul@aexp,0
  3694  04B9                     l2465:
  3695  04B9  0837               	movf	___flmul@aexp,w
  3696  04BA  1903               	btfsc	3,2
  3697  04BB  2CBD               	goto	u2881
  3698  04BC  2CBE               	goto	u2880
  3699  04BD                     u2881:
  3700  04BD  2CCD               	goto	l2473
  3701  04BE                     u2880:
  3702  04BE                     l2467:
  3703  04BE  0A37               	incf	___flmul@aexp,w
  3704  04BF  1D03               	btfss	3,2
  3705  04C0  2CC2               	goto	u2891
  3706  04C1  2CC3               	goto	u2890
  3707  04C2                     u2891:
  3708  04C2  2CCB               	goto	l2471
  3709  04C3                     u2890:
  3710  04C3                     l2469:
  3711  04C3  3000               	movlw	0
  3712  04C4  00AC               	movwf	___flmul@a+3
  3713  04C5  3000               	movlw	0
  3714  04C6  00AB               	movwf	___flmul@a+2
  3715  04C7  3000               	movlw	0
  3716  04C8  00AA               	movwf	___flmul@a+1
  3717  04C9  3000               	movlw	0
  3718  04CA  00A9               	movwf	___flmul@a
  3719  04CB                     l2471:
  3720  04CB  17AB               	bsf	___flmul@a+2,7
  3721  04CC  2CD5               	goto	l2475
  3722  04CD                     l2473:
  3723  04CD  3000               	movlw	0
  3724  04CE  00AC               	movwf	___flmul@a+3
  3725  04CF  3000               	movlw	0
  3726  04D0  00AB               	movwf	___flmul@a+2
  3727  04D1  3000               	movlw	0
  3728  04D2  00AA               	movwf	___flmul@a+1
  3729  04D3  3000               	movlw	0
  3730  04D4  00A9               	movwf	___flmul@a
  3731  04D5                     l2475:
  3732  04D5  0837               	movf	___flmul@aexp,w
  3733  04D6  1903               	btfsc	3,2
  3734  04D7  2CD9               	goto	u2901
  3735  04D8  2CDA               	goto	u2900
  3736  04D9                     u2901:
  3737  04D9  2CDF               	goto	l2479
  3738  04DA                     u2900:
  3739  04DA                     l2477:
  3740  04DA  0838               	movf	___flmul@bexp,w
  3741  04DB  1D03               	btfss	3,2
  3742  04DC  2CDE               	goto	u2911
  3743  04DD  2CDF               	goto	u2910
  3744  04DE                     u2911:
  3745  04DE  2CE8               	goto	l2483
  3746  04DF                     u2910:
  3747  04DF                     l2479:
  3748  04DF  3000               	movlw	0
  3749  04E0  00A8               	movwf	?___flmul+3
  3750  04E1  3000               	movlw	0
  3751  04E2  00A7               	movwf	?___flmul+2
  3752  04E3  3000               	movlw	0
  3753  04E4  00A6               	movwf	?___flmul+1
  3754  04E5  3000               	movlw	0
  3755  04E6  00A5               	movwf	?___flmul
  3756  04E7  2FDB               	goto	l794
  3757  04E8                     l2483:
  3758  04E8  0825               	movf	___flmul@b,w
  3759  04E9  00AD               	movwf	??___flmul
  3760  04EA  082D               	movf	??___flmul,w
  3761  04EB  00F0               	movwf	__Umul8_16@multiplicand
  3762  04EC  082B               	movf	___flmul@a+2,w
  3763  04ED  160A  118A  25B9  120A  118A  	fcall	__Umul8_16
  3764  04F2  0871               	movf	?__Umul8_16+1,w
  3765  04F3  1283               	bcf	3,5	;RP0=0, select bank0
  3766  04F4  1303               	bcf	3,6	;RP1=0, select bank0
  3767  04F5  00BE               	movwf	___flmul@temp+1
  3768  04F6  0870               	movf	?__Umul8_16,w
  3769  04F7  00BD               	movwf	___flmul@temp
  3770  04F8                     l2485:
  3771  04F8  083D               	movf	___flmul@temp,w
  3772  04F9  00AD               	movwf	??___flmul
  3773  04FA  01AE               	clrf	??___flmul+1
  3774  04FB  01AF               	clrf	??___flmul+2
  3775  04FC  01B0               	clrf	??___flmul+3
  3776  04FD  0830               	movf	??___flmul+3,w
  3777  04FE  00B6               	movwf	___flmul@grs+3
  3778  04FF  082F               	movf	??___flmul+2,w
  3779  0500  00B5               	movwf	___flmul@grs+2
  3780  0501  082E               	movf	??___flmul+1,w
  3781  0502  00B4               	movwf	___flmul@grs+1
  3782  0503  082D               	movf	??___flmul,w
  3783  0504  00B3               	movwf	___flmul@grs
  3784  0505                     l2487:
  3785  0505  083E               	movf	___flmul@temp+1,w
  3786  0506  00AD               	movwf	??___flmul
  3787  0507  01AE               	clrf	??___flmul+1
  3788  0508  01AF               	clrf	??___flmul+2
  3789  0509  01B0               	clrf	??___flmul+3
  3790  050A  0830               	movf	??___flmul+3,w
  3791  050B  00BC               	movwf	___flmul@prod+3
  3792  050C  082F               	movf	??___flmul+2,w
  3793  050D  00BB               	movwf	___flmul@prod+2
  3794  050E  082E               	movf	??___flmul+1,w
  3795  050F  00BA               	movwf	___flmul@prod+1
  3796  0510  082D               	movf	??___flmul,w
  3797  0511  00B9               	movwf	___flmul@prod
  3798  0512  0826               	movf	___flmul@b+1,w
  3799  0513  00AD               	movwf	??___flmul
  3800  0514  082D               	movf	??___flmul,w
  3801  0515  00F0               	movwf	__Umul8_16@multiplicand
  3802  0516  082A               	movf	___flmul@a+1,w
  3803  0517  160A  118A  25B9  120A  118A  	fcall	__Umul8_16
  3804  051C  0871               	movf	?__Umul8_16+1,w
  3805  051D  1283               	bcf	3,5	;RP0=0, select bank0
  3806  051E  1303               	bcf	3,6	;RP1=0, select bank0
  3807  051F  00BE               	movwf	___flmul@temp+1
  3808  0520  0870               	movf	?__Umul8_16,w
  3809  0521  00BD               	movwf	___flmul@temp
  3810  0522                     l2489:
  3811  0522  083D               	movf	___flmul@temp,w
  3812  0523  00AD               	movwf	??___flmul
  3813  0524  01AE               	clrf	??___flmul+1
  3814  0525  01AF               	clrf	??___flmul+2
  3815  0526  01B0               	clrf	??___flmul+3
  3816  0527  082D               	movf	??___flmul,w
  3817  0528  07B3               	addwf	___flmul@grs,f
  3818  0529  082E               	movf	??___flmul+1,w
  3819  052A  1103               	clrz
  3820  052B  1803               	skipnc
  3821  052C  3E01               	addlw	1
  3822  052D  1903               	skipnz
  3823  052E  2D30               	goto	u2921
  3824  052F  07B4               	addwf	___flmul@grs+1,f
  3825  0530                     u2921:
  3826  0530  082F               	movf	??___flmul+2,w
  3827  0531  1103               	clrz
  3828  0532  1803               	skipnc
  3829  0533  3E01               	addlw	1
  3830  0534  1903               	skipnz
  3831  0535  2D37               	goto	u2922
  3832  0536  07B5               	addwf	___flmul@grs+2,f
  3833  0537                     u2922:
  3834  0537  0830               	movf	??___flmul+3,w
  3835  0538  1103               	clrz
  3836  0539  1803               	skipnc
  3837  053A  3E01               	addlw	1
  3838  053B  1903               	skipnz
  3839  053C  2D3E               	goto	u2923
  3840  053D  07B6               	addwf	___flmul@grs+3,f
  3841  053E                     u2923:
  3842  053E                     l2491:
  3843  053E  083E               	movf	___flmul@temp+1,w
  3844  053F  00AD               	movwf	??___flmul
  3845  0540  01AE               	clrf	??___flmul+1
  3846  0541  01AF               	clrf	??___flmul+2
  3847  0542  01B0               	clrf	??___flmul+3
  3848  0543  082D               	movf	??___flmul,w
  3849  0544  07B9               	addwf	___flmul@prod,f
  3850  0545  082E               	movf	??___flmul+1,w
  3851  0546  1103               	clrz
  3852  0547  1803               	skipnc
  3853  0548  3E01               	addlw	1
  3854  0549  1903               	skipnz
  3855  054A  2D4C               	goto	u2931
  3856  054B  07BA               	addwf	___flmul@prod+1,f
  3857  054C                     u2931:
  3858  054C  082F               	movf	??___flmul+2,w
  3859  054D  1103               	clrz
  3860  054E  1803               	skipnc
  3861  054F  3E01               	addlw	1
  3862  0550  1903               	skipnz
  3863  0551  2D53               	goto	u2932
  3864  0552  07BB               	addwf	___flmul@prod+2,f
  3865  0553                     u2932:
  3866  0553  0830               	movf	??___flmul+3,w
  3867  0554  1103               	clrz
  3868  0555  1803               	skipnc
  3869  0556  3E01               	addlw	1
  3870  0557  1903               	skipnz
  3871  0558  2D5A               	goto	u2933
  3872  0559  07BC               	addwf	___flmul@prod+3,f
  3873  055A                     u2933:
  3874  055A  0827               	movf	___flmul@b+2,w
  3875  055B  00AD               	movwf	??___flmul
  3876  055C  082D               	movf	??___flmul,w
  3877  055D  00F0               	movwf	__Umul8_16@multiplicand
  3878  055E  0829               	movf	___flmul@a,w
  3879  055F  160A  118A  25B9  120A  118A  	fcall	__Umul8_16
  3880  0564  0871               	movf	?__Umul8_16+1,w
  3881  0565  1283               	bcf	3,5	;RP0=0, select bank0
  3882  0566  1303               	bcf	3,6	;RP1=0, select bank0
  3883  0567  00BE               	movwf	___flmul@temp+1
  3884  0568  0870               	movf	?__Umul8_16,w
  3885  0569  00BD               	movwf	___flmul@temp
  3886  056A                     l2493:
  3887  056A  083D               	movf	___flmul@temp,w
  3888  056B  00AD               	movwf	??___flmul
  3889  056C  01AE               	clrf	??___flmul+1
  3890  056D  01AF               	clrf	??___flmul+2
  3891  056E  01B0               	clrf	??___flmul+3
  3892  056F  082D               	movf	??___flmul,w
  3893  0570  07B3               	addwf	___flmul@grs,f
  3894  0571  082E               	movf	??___flmul+1,w
  3895  0572  1103               	clrz
  3896  0573  1803               	skipnc
  3897  0574  3E01               	addlw	1
  3898  0575  1903               	skipnz
  3899  0576  2D78               	goto	u2941
  3900  0577  07B4               	addwf	___flmul@grs+1,f
  3901  0578                     u2941:
  3902  0578  082F               	movf	??___flmul+2,w
  3903  0579  1103               	clrz
  3904  057A  1803               	skipnc
  3905  057B  3E01               	addlw	1
  3906  057C  1903               	skipnz
  3907  057D  2D7F               	goto	u2942
  3908  057E  07B5               	addwf	___flmul@grs+2,f
  3909  057F                     u2942:
  3910  057F  0830               	movf	??___flmul+3,w
  3911  0580  1103               	clrz
  3912  0581  1803               	skipnc
  3913  0582  3E01               	addlw	1
  3914  0583  1903               	skipnz
  3915  0584  2D86               	goto	u2943
  3916  0585  07B6               	addwf	___flmul@grs+3,f
  3917  0586                     u2943:
  3918  0586                     l2495:
  3919  0586  083E               	movf	___flmul@temp+1,w
  3920  0587  00AD               	movwf	??___flmul
  3921  0588  01AE               	clrf	??___flmul+1
  3922  0589  01AF               	clrf	??___flmul+2
  3923  058A  01B0               	clrf	??___flmul+3
  3924  058B  082D               	movf	??___flmul,w
  3925  058C  07B9               	addwf	___flmul@prod,f
  3926  058D  082E               	movf	??___flmul+1,w
  3927  058E  1103               	clrz
  3928  058F  1803               	skipnc
  3929  0590  3E01               	addlw	1
  3930  0591  1903               	skipnz
  3931  0592  2D94               	goto	u2951
  3932  0593  07BA               	addwf	___flmul@prod+1,f
  3933  0594                     u2951:
  3934  0594  082F               	movf	??___flmul+2,w
  3935  0595  1103               	clrz
  3936  0596  1803               	skipnc
  3937  0597  3E01               	addlw	1
  3938  0598  1903               	skipnz
  3939  0599  2D9B               	goto	u2952
  3940  059A  07BB               	addwf	___flmul@prod+2,f
  3941  059B                     u2952:
  3942  059B  0830               	movf	??___flmul+3,w
  3943  059C  1103               	clrz
  3944  059D  1803               	skipnc
  3945  059E  3E01               	addlw	1
  3946  059F  1903               	skipnz
  3947  05A0  2DA2               	goto	u2953
  3948  05A1  07BC               	addwf	___flmul@prod+3,f
  3949  05A2                     u2953:
  3950  05A2                     l2497:
  3951  05A2  3008               	movlw	8
  3952  05A3  00AD               	movwf	??___flmul
  3953  05A4                     u2965:
  3954  05A4  1003               	clrc
  3955  05A5  0DB3               	rlf	___flmul@grs,f
  3956  05A6  0DB4               	rlf	___flmul@grs+1,f
  3957  05A7  0DB5               	rlf	___flmul@grs+2,f
  3958  05A8  0DB6               	rlf	___flmul@grs+3,f
  3959  05A9  0BAD               	decfsz	??___flmul,f
  3960  05AA  2DA4               	goto	u2965
  3961  05AB                     l2499:
  3962  05AB  0826               	movf	___flmul@b+1,w
  3963  05AC  00AD               	movwf	??___flmul
  3964  05AD  082D               	movf	??___flmul,w
  3965  05AE  00F0               	movwf	__Umul8_16@multiplicand
  3966  05AF  0829               	movf	___flmul@a,w
  3967  05B0  160A  118A  25B9  120A  118A  	fcall	__Umul8_16
  3968  05B5  0871               	movf	?__Umul8_16+1,w
  3969  05B6  1283               	bcf	3,5	;RP0=0, select bank0
  3970  05B7  1303               	bcf	3,6	;RP1=0, select bank0
  3971  05B8  00BE               	movwf	___flmul@temp+1
  3972  05B9  0870               	movf	?__Umul8_16,w
  3973  05BA  00BD               	movwf	___flmul@temp
  3974  05BB                     l2501:
  3975  05BB  083D               	movf	___flmul@temp,w
  3976  05BC  00AD               	movwf	??___flmul
  3977  05BD  083E               	movf	___flmul@temp+1,w
  3978  05BE  00AE               	movwf	??___flmul+1
  3979  05BF  01AF               	clrf	??___flmul+2
  3980  05C0  01B0               	clrf	??___flmul+3
  3981  05C1  082D               	movf	??___flmul,w
  3982  05C2  07B3               	addwf	___flmul@grs,f
  3983  05C3  082E               	movf	??___flmul+1,w
  3984  05C4  1103               	clrz
  3985  05C5  1803               	skipnc
  3986  05C6  3E01               	addlw	1
  3987  05C7  1903               	skipnz
  3988  05C8  2DCA               	goto	u2971
  3989  05C9  07B4               	addwf	___flmul@grs+1,f
  3990  05CA                     u2971:
  3991  05CA  082F               	movf	??___flmul+2,w
  3992  05CB  1103               	clrz
  3993  05CC  1803               	skipnc
  3994  05CD  3E01               	addlw	1
  3995  05CE  1903               	skipnz
  3996  05CF  2DD1               	goto	u2972
  3997  05D0  07B5               	addwf	___flmul@grs+2,f
  3998  05D1                     u2972:
  3999  05D1  0830               	movf	??___flmul+3,w
  4000  05D2  1103               	clrz
  4001  05D3  1803               	skipnc
  4002  05D4  3E01               	addlw	1
  4003  05D5  1903               	skipnz
  4004  05D6  2DD8               	goto	u2973
  4005  05D7  07B6               	addwf	___flmul@grs+3,f
  4006  05D8                     u2973:
  4007  05D8                     l2503:
  4008  05D8  0825               	movf	___flmul@b,w
  4009  05D9  00AD               	movwf	??___flmul
  4010  05DA  082D               	movf	??___flmul,w
  4011  05DB  00F0               	movwf	__Umul8_16@multiplicand
  4012  05DC  082A               	movf	___flmul@a+1,w
  4013  05DD  160A  118A  25B9  120A  118A  	fcall	__Umul8_16
  4014  05E2  0871               	movf	?__Umul8_16+1,w
  4015  05E3  1283               	bcf	3,5	;RP0=0, select bank0
  4016  05E4  1303               	bcf	3,6	;RP1=0, select bank0
  4017  05E5  00BE               	movwf	___flmul@temp+1
  4018  05E6  0870               	movf	?__Umul8_16,w
  4019  05E7  00BD               	movwf	___flmul@temp
  4020  05E8                     l2505:
  4021  05E8  083D               	movf	___flmul@temp,w
  4022  05E9  00AD               	movwf	??___flmul
  4023  05EA  083E               	movf	___flmul@temp+1,w
  4024  05EB  00AE               	movwf	??___flmul+1
  4025  05EC  01AF               	clrf	??___flmul+2
  4026  05ED  01B0               	clrf	??___flmul+3
  4027  05EE  082D               	movf	??___flmul,w
  4028  05EF  07B3               	addwf	___flmul@grs,f
  4029  05F0  082E               	movf	??___flmul+1,w
  4030  05F1  1103               	clrz
  4031  05F2  1803               	skipnc
  4032  05F3  3E01               	addlw	1
  4033  05F4  1903               	skipnz
  4034  05F5  2DF7               	goto	u2981
  4035  05F6  07B4               	addwf	___flmul@grs+1,f
  4036  05F7                     u2981:
  4037  05F7  082F               	movf	??___flmul+2,w
  4038  05F8  1103               	clrz
  4039  05F9  1803               	skipnc
  4040  05FA  3E01               	addlw	1
  4041  05FB  1903               	skipnz
  4042  05FC  2DFE               	goto	u2982
  4043  05FD  07B5               	addwf	___flmul@grs+2,f
  4044  05FE                     u2982:
  4045  05FE  0830               	movf	??___flmul+3,w
  4046  05FF  1103               	clrz
  4047  0600  1803               	skipnc
  4048  0601  3E01               	addlw	1
  4049  0602  1903               	skipnz
  4050  0603  2E05               	goto	u2983
  4051  0604  07B6               	addwf	___flmul@grs+3,f
  4052  0605                     u2983:
  4053  0605                     l2507:
  4054  0605  3008               	movlw	8
  4055  0606  00AD               	movwf	??___flmul
  4056  0607                     u2995:
  4057  0607  1003               	clrc
  4058  0608  0DB3               	rlf	___flmul@grs,f
  4059  0609  0DB4               	rlf	___flmul@grs+1,f
  4060  060A  0DB5               	rlf	___flmul@grs+2,f
  4061  060B  0DB6               	rlf	___flmul@grs+3,f
  4062  060C  0BAD               	decfsz	??___flmul,f
  4063  060D  2E07               	goto	u2995
  4064  060E  0825               	movf	___flmul@b,w
  4065  060F  00AD               	movwf	??___flmul
  4066  0610  082D               	movf	??___flmul,w
  4067  0611  00F0               	movwf	__Umul8_16@multiplicand
  4068  0612  0829               	movf	___flmul@a,w
  4069  0613  160A  118A  25B9  120A  118A  	fcall	__Umul8_16
  4070  0618  0871               	movf	?__Umul8_16+1,w
  4071  0619  1283               	bcf	3,5	;RP0=0, select bank0
  4072  061A  1303               	bcf	3,6	;RP1=0, select bank0
  4073  061B  00BE               	movwf	___flmul@temp+1
  4074  061C  0870               	movf	?__Umul8_16,w
  4075  061D  00BD               	movwf	___flmul@temp
  4076  061E                     l2509:
  4077  061E  083D               	movf	___flmul@temp,w
  4078  061F  00AD               	movwf	??___flmul
  4079  0620  083E               	movf	___flmul@temp+1,w
  4080  0621  00AE               	movwf	??___flmul+1
  4081  0622  01AF               	clrf	??___flmul+2
  4082  0623  01B0               	clrf	??___flmul+3
  4083  0624  082D               	movf	??___flmul,w
  4084  0625  07B3               	addwf	___flmul@grs,f
  4085  0626  082E               	movf	??___flmul+1,w
  4086  0627  1103               	clrz
  4087  0628  1803               	skipnc
  4088  0629  3E01               	addlw	1
  4089  062A  1903               	skipnz
  4090  062B  2E2D               	goto	u3001
  4091  062C  07B4               	addwf	___flmul@grs+1,f
  4092  062D                     u3001:
  4093  062D  082F               	movf	??___flmul+2,w
  4094  062E  1103               	clrz
  4095  062F  1803               	skipnc
  4096  0630  3E01               	addlw	1
  4097  0631  1903               	skipnz
  4098  0632  2E34               	goto	u3002
  4099  0633  07B5               	addwf	___flmul@grs+2,f
  4100  0634                     u3002:
  4101  0634  0830               	movf	??___flmul+3,w
  4102  0635  1103               	clrz
  4103  0636  1803               	skipnc
  4104  0637  3E01               	addlw	1
  4105  0638  1903               	skipnz
  4106  0639  2E3B               	goto	u3003
  4107  063A  07B6               	addwf	___flmul@grs+3,f
  4108  063B                     u3003:
  4109  063B                     l2511:
  4110  063B  0826               	movf	___flmul@b+1,w
  4111  063C  00AD               	movwf	??___flmul
  4112  063D  082D               	movf	??___flmul,w
  4113  063E  00F0               	movwf	__Umul8_16@multiplicand
  4114  063F  082B               	movf	___flmul@a+2,w
  4115  0640  160A  118A  25B9  120A  118A  	fcall	__Umul8_16
  4116  0645  0871               	movf	?__Umul8_16+1,w
  4117  0646  1283               	bcf	3,5	;RP0=0, select bank0
  4118  0647  1303               	bcf	3,6	;RP1=0, select bank0
  4119  0648  00BE               	movwf	___flmul@temp+1
  4120  0649  0870               	movf	?__Umul8_16,w
  4121  064A  00BD               	movwf	___flmul@temp
  4122  064B  083D               	movf	___flmul@temp,w
  4123  064C  00AD               	movwf	??___flmul
  4124  064D  083E               	movf	___flmul@temp+1,w
  4125  064E  00AE               	movwf	??___flmul+1
  4126  064F  01AF               	clrf	??___flmul+2
  4127  0650  01B0               	clrf	??___flmul+3
  4128  0651  082D               	movf	??___flmul,w
  4129  0652  07B9               	addwf	___flmul@prod,f
  4130  0653  082E               	movf	??___flmul+1,w
  4131  0654  1103               	clrz
  4132  0655  1803               	skipnc
  4133  0656  3E01               	addlw	1
  4134  0657  1903               	skipnz
  4135  0658  2E5A               	goto	u3011
  4136  0659  07BA               	addwf	___flmul@prod+1,f
  4137  065A                     u3011:
  4138  065A  082F               	movf	??___flmul+2,w
  4139  065B  1103               	clrz
  4140  065C  1803               	skipnc
  4141  065D  3E01               	addlw	1
  4142  065E  1903               	skipnz
  4143  065F  2E61               	goto	u3012
  4144  0660  07BB               	addwf	___flmul@prod+2,f
  4145  0661                     u3012:
  4146  0661  0830               	movf	??___flmul+3,w
  4147  0662  1103               	clrz
  4148  0663  1803               	skipnc
  4149  0664  3E01               	addlw	1
  4150  0665  1903               	skipnz
  4151  0666  2E68               	goto	u3013
  4152  0667  07BC               	addwf	___flmul@prod+3,f
  4153  0668                     u3013:
  4154  0668                     l2513:
  4155  0668  0827               	movf	___flmul@b+2,w
  4156  0669  00AD               	movwf	??___flmul
  4157  066A  082D               	movf	??___flmul,w
  4158  066B  00F0               	movwf	__Umul8_16@multiplicand
  4159  066C  082A               	movf	___flmul@a+1,w
  4160  066D  160A  118A  25B9  120A  118A  	fcall	__Umul8_16
  4161  0672  0871               	movf	?__Umul8_16+1,w
  4162  0673  1283               	bcf	3,5	;RP0=0, select bank0
  4163  0674  1303               	bcf	3,6	;RP1=0, select bank0
  4164  0675  00BE               	movwf	___flmul@temp+1
  4165  0676  0870               	movf	?__Umul8_16,w
  4166  0677  00BD               	movwf	___flmul@temp
  4167  0678                     l2515:
  4168  0678  083D               	movf	___flmul@temp,w
  4169  0679  00AD               	movwf	??___flmul
  4170  067A  083E               	movf	___flmul@temp+1,w
  4171  067B  00AE               	movwf	??___flmul+1
  4172  067C  01AF               	clrf	??___flmul+2
  4173  067D  01B0               	clrf	??___flmul+3
  4174  067E  082D               	movf	??___flmul,w
  4175  067F  07B9               	addwf	___flmul@prod,f
  4176  0680  082E               	movf	??___flmul+1,w
  4177  0681  1103               	clrz
  4178  0682  1803               	skipnc
  4179  0683  3E01               	addlw	1
  4180  0684  1903               	skipnz
  4181  0685  2E87               	goto	u3021
  4182  0686  07BA               	addwf	___flmul@prod+1,f
  4183  0687                     u3021:
  4184  0687  082F               	movf	??___flmul+2,w
  4185  0688  1103               	clrz
  4186  0689  1803               	skipnc
  4187  068A  3E01               	addlw	1
  4188  068B  1903               	skipnz
  4189  068C  2E8E               	goto	u3022
  4190  068D  07BB               	addwf	___flmul@prod+2,f
  4191  068E                     u3022:
  4192  068E  0830               	movf	??___flmul+3,w
  4193  068F  1103               	clrz
  4194  0690  1803               	skipnc
  4195  0691  3E01               	addlw	1
  4196  0692  1903               	skipnz
  4197  0693  2E95               	goto	u3023
  4198  0694  07BC               	addwf	___flmul@prod+3,f
  4199  0695                     u3023:
  4200  0695  0827               	movf	___flmul@b+2,w
  4201  0696  00AD               	movwf	??___flmul
  4202  0697  082D               	movf	??___flmul,w
  4203  0698  00F0               	movwf	__Umul8_16@multiplicand
  4204  0699  082B               	movf	___flmul@a+2,w
  4205  069A  160A  118A  25B9  120A  118A  	fcall	__Umul8_16
  4206  069F  0871               	movf	?__Umul8_16+1,w
  4207  06A0  1283               	bcf	3,5	;RP0=0, select bank0
  4208  06A1  1303               	bcf	3,6	;RP1=0, select bank0
  4209  06A2  00BE               	movwf	___flmul@temp+1
  4210  06A3  0870               	movf	?__Umul8_16,w
  4211  06A4  00BD               	movwf	___flmul@temp
  4212  06A5                     l2517:
  4213  06A5  083D               	movf	___flmul@temp,w
  4214  06A6  00AD               	movwf	??___flmul
  4215  06A7  083E               	movf	___flmul@temp+1,w
  4216  06A8  00AE               	movwf	??___flmul+1
  4217  06A9  01AF               	clrf	??___flmul+2
  4218  06AA  01B0               	clrf	??___flmul+3
  4219  06AB  3008               	movlw	8
  4220  06AC                     u3035:
  4221  06AC  1003               	clrc
  4222  06AD  0DAD               	rlf	??___flmul,f
  4223  06AE  0DAE               	rlf	??___flmul+1,f
  4224  06AF  0DAF               	rlf	??___flmul+2,f
  4225  06B0  0DB0               	rlf	??___flmul+3,f
  4226  06B1                     u3030:
  4227  06B1  3EFF               	addlw	-1
  4228  06B2  1D03               	skipz
  4229  06B3  2EAC               	goto	u3035
  4230  06B4  082D               	movf	??___flmul,w
  4231  06B5  07B9               	addwf	___flmul@prod,f
  4232  06B6  082E               	movf	??___flmul+1,w
  4233  06B7  1103               	clrz
  4234  06B8  1803               	skipnc
  4235  06B9  3E01               	addlw	1
  4236  06BA  1903               	skipnz
  4237  06BB  2EBD               	goto	u3041
  4238  06BC  07BA               	addwf	___flmul@prod+1,f
  4239  06BD                     u3041:
  4240  06BD  082F               	movf	??___flmul+2,w
  4241  06BE  1103               	clrz
  4242  06BF  1803               	skipnc
  4243  06C0  3E01               	addlw	1
  4244  06C1  1903               	skipnz
  4245  06C2  2EC4               	goto	u3042
  4246  06C3  07BB               	addwf	___flmul@prod+2,f
  4247  06C4                     u3042:
  4248  06C4  0830               	movf	??___flmul+3,w
  4249  06C5  1103               	clrz
  4250  06C6  1803               	skipnc
  4251  06C7  3E01               	addlw	1
  4252  06C8  1903               	skipnz
  4253  06C9  2ECB               	goto	u3043
  4254  06CA  07BC               	addwf	___flmul@prod+3,f
  4255  06CB                     u3043:
  4256  06CB                     l2519:
  4257  06CB  0833               	movf	___flmul@grs,w
  4258  06CC  00AD               	movwf	??___flmul
  4259  06CD  0834               	movf	___flmul@grs+1,w
  4260  06CE  00AE               	movwf	??___flmul+1
  4261  06CF  0835               	movf	___flmul@grs+2,w
  4262  06D0  00AF               	movwf	??___flmul+2
  4263  06D1  0836               	movf	___flmul@grs+3,w
  4264  06D2  00B0               	movwf	??___flmul+3
  4265  06D3  3018               	movlw	24
  4266  06D4                     u3055:
  4267  06D4  1003               	clrc
  4268  06D5  0CB0               	rrf	??___flmul+3,f
  4269  06D6  0CAF               	rrf	??___flmul+2,f
  4270  06D7  0CAE               	rrf	??___flmul+1,f
  4271  06D8  0CAD               	rrf	??___flmul,f
  4272  06D9                     u3050:
  4273  06D9  3EFF               	addlw	-1
  4274  06DA  1D03               	skipz
  4275  06DB  2ED4               	goto	u3055
  4276  06DC  082D               	movf	??___flmul,w
  4277  06DD  07B9               	addwf	___flmul@prod,f
  4278  06DE  082E               	movf	??___flmul+1,w
  4279  06DF  1103               	clrz
  4280  06E0  1803               	skipnc
  4281  06E1  3E01               	addlw	1
  4282  06E2  1903               	skipnz
  4283  06E3  2EE5               	goto	u3061
  4284  06E4  07BA               	addwf	___flmul@prod+1,f
  4285  06E5                     u3061:
  4286  06E5  082F               	movf	??___flmul+2,w
  4287  06E6  1103               	clrz
  4288  06E7  1803               	skipnc
  4289  06E8  3E01               	addlw	1
  4290  06E9  1903               	skipnz
  4291  06EA  2EEC               	goto	u3062
  4292  06EB  07BB               	addwf	___flmul@prod+2,f
  4293  06EC                     u3062:
  4294  06EC  0830               	movf	??___flmul+3,w
  4295  06ED  1103               	clrz
  4296  06EE  1803               	skipnc
  4297  06EF  3E01               	addlw	1
  4298  06F0  1903               	skipnz
  4299  06F1  2EF3               	goto	u3063
  4300  06F2  07BC               	addwf	___flmul@prod+3,f
  4301  06F3                     u3063:
  4302  06F3                     l2521:
  4303  06F3  3008               	movlw	8
  4304  06F4  00AD               	movwf	??___flmul
  4305  06F5                     u3075:
  4306  06F5  1003               	clrc
  4307  06F6  0DB3               	rlf	___flmul@grs,f
  4308  06F7  0DB4               	rlf	___flmul@grs+1,f
  4309  06F8  0DB5               	rlf	___flmul@grs+2,f
  4310  06F9  0DB6               	rlf	___flmul@grs+3,f
  4311  06FA  0BAD               	decfsz	??___flmul,f
  4312  06FB  2EF5               	goto	u3075
  4313  06FC                     l2523:
  4314  06FC  0838               	movf	___flmul@bexp,w
  4315  06FD  0737               	addwf	___flmul@aexp,w
  4316  06FE  00AD               	movwf	??___flmul
  4317  06FF  01AE               	clrf	??___flmul+1
  4318  0700  0DAE               	rlf	??___flmul+1,f
  4319  0701  082D               	movf	??___flmul,w
  4320  0702  3E82               	addlw	130
  4321  0703  00BD               	movwf	___flmul@temp
  4322  0704  082E               	movf	??___flmul+1,w
  4323  0705  1803               	skipnc
  4324  0706  3E01               	addlw	1
  4325  0707  3EFF               	addlw	255
  4326  0708  00BE               	movwf	___flmul@temp+1
  4327  0709  2F27               	goto	l2535
  4328  070A                     l2525:
  4329  070A  3001               	movlw	1
  4330  070B  00AD               	movwf	??___flmul
  4331  070C                     u3085:
  4332  070C  1003               	clrc
  4333  070D  0DB9               	rlf	___flmul@prod,f
  4334  070E  0DBA               	rlf	___flmul@prod+1,f
  4335  070F  0DBB               	rlf	___flmul@prod+2,f
  4336  0710  0DBC               	rlf	___flmul@prod+3,f
  4337  0711  0BAD               	decfsz	??___flmul,f
  4338  0712  2F0C               	goto	u3085
  4339  0713                     l2527:
  4340  0713  1FB6               	btfss	___flmul@grs+3,7
  4341  0714  2F16               	goto	u3091
  4342  0715  2F17               	goto	u3090
  4343  0716                     u3091:
  4344  0716  2F18               	goto	l2531
  4345  0717                     u3090:
  4346  0717                     l2529:
  4347  0717  1439               	bsf	___flmul@prod,0
  4348  0718                     l2531:
  4349  0718  3001               	movlw	1
  4350  0719  00AD               	movwf	??___flmul
  4351  071A                     u3105:
  4352  071A  1003               	clrc
  4353  071B  0DB3               	rlf	___flmul@grs,f
  4354  071C  0DB4               	rlf	___flmul@grs+1,f
  4355  071D  0DB5               	rlf	___flmul@grs+2,f
  4356  071E  0DB6               	rlf	___flmul@grs+3,f
  4357  071F  0BAD               	decfsz	??___flmul,f
  4358  0720  2F1A               	goto	u3105
  4359  0721                     l2533:
  4360  0721  30FF               	movlw	255
  4361  0722  07BD               	addwf	___flmul@temp,f
  4362  0723  1803               	skipnc
  4363  0724  0ABE               	incf	___flmul@temp+1,f
  4364  0725  30FF               	movlw	255
  4365  0726  07BE               	addwf	___flmul@temp+1,f
  4366  0727                     l2535:
  4367  0727  1FBB               	btfss	___flmul@prod+2,7
  4368  0728  2F2A               	goto	u3111
  4369  0729  2F2B               	goto	u3110
  4370  072A                     u3111:
  4371  072A  2F0A               	goto	l2525
  4372  072B                     u3110:
  4373  072B                     l2537:
  4374  072B  01B7               	clrf	___flmul@aexp
  4375  072C                     l2539:
  4376  072C  1FB6               	btfss	___flmul@grs+3,7
  4377  072D  2F2F               	goto	u3121
  4378  072E  2F30               	goto	u3120
  4379  072F                     u3121:
  4380  072F  2F4C               	goto	l2547
  4381  0730                     u3120:
  4382  0730                     l2541:
  4383  0730  30FF               	movlw	255
  4384  0731  0533               	andwf	___flmul@grs,w
  4385  0732  00AD               	movwf	??___flmul
  4386  0733  30FF               	movlw	255
  4387  0734  0534               	andwf	___flmul@grs+1,w
  4388  0735  00AE               	movwf	??___flmul+1
  4389  0736  30FF               	movlw	255
  4390  0737  0535               	andwf	___flmul@grs+2,w
  4391  0738  00AF               	movwf	??___flmul+2
  4392  0739  307F               	movlw	127
  4393  073A  0536               	andwf	___flmul@grs+3,w
  4394  073B  00B0               	movwf	??___flmul+3
  4395  073C  0830               	movf	??___flmul+3,w
  4396  073D  042F               	iorwf	??___flmul+2,w
  4397  073E  042E               	iorwf	??___flmul+1,w
  4398  073F  042D               	iorwf	??___flmul,w
  4399  0740  1903               	skipnz
  4400  0741  2F43               	goto	u3131
  4401  0742  2F44               	goto	u3130
  4402  0743                     u3131:
  4403  0743  2F47               	goto	l800
  4404  0744                     u3130:
  4405  0744                     l2543:
  4406  0744  01B7               	clrf	___flmul@aexp
  4407  0745  0AB7               	incf	___flmul@aexp,f
  4408  0746  2F4C               	goto	l2547
  4409  0747                     l800:
  4410  0747  1C39               	btfss	___flmul@prod,0
  4411  0748  2F4A               	goto	u3141
  4412  0749  2F4B               	goto	u3140
  4413  074A                     u3141:
  4414  074A  2F4C               	goto	l2547
  4415  074B                     u3140:
  4416  074B  2F44               	goto	l2543
  4417  074C                     l2547:
  4418  074C  0837               	movf	___flmul@aexp,w
  4419  074D  1903               	btfsc	3,2
  4420  074E  2F50               	goto	u3151
  4421  074F  2F51               	goto	u3150
  4422  0750                     u3151:
  4423  0750  2F82               	goto	l2557
  4424  0751                     u3150:
  4425  0751                     l2549:
  4426  0751  3001               	movlw	1
  4427  0752  07B9               	addwf	___flmul@prod,f
  4428  0753  3000               	movlw	0
  4429  0754  1803               	skipnc
  4430  0755  3001               	movlw	1
  4431  0756  07BA               	addwf	___flmul@prod+1,f
  4432  0757  3000               	movlw	0
  4433  0758  1803               	skipnc
  4434  0759  3001               	movlw	1
  4435  075A  07BB               	addwf	___flmul@prod+2,f
  4436  075B  3000               	movlw	0
  4437  075C  1803               	skipnc
  4438  075D  3001               	movlw	1
  4439  075E  07BC               	addwf	___flmul@prod+3,f
  4440  075F                     l2551:
  4441  075F  1C3C               	btfss	___flmul@prod+3,0
  4442  0760  2F62               	goto	u3161
  4443  0761  2F63               	goto	u3160
  4444  0762                     u3161:
  4445  0762  2F82               	goto	l2557
  4446  0763                     u3160:
  4447  0763                     l2553:
  4448  0763  0839               	movf	___flmul@prod,w
  4449  0764  00AD               	movwf	??___flmul
  4450  0765  083A               	movf	___flmul@prod+1,w
  4451  0766  00AE               	movwf	??___flmul+1
  4452  0767  083B               	movf	___flmul@prod+2,w
  4453  0768  00AF               	movwf	??___flmul+2
  4454  0769  083C               	movf	___flmul@prod+3,w
  4455  076A  00B0               	movwf	??___flmul+3
  4456  076B  3001               	movlw	1
  4457  076C  00B1               	movwf	??___flmul+4
  4458  076D                     u3175:
  4459  076D  0D30               	rlf	??___flmul+3,w
  4460  076E  0CB0               	rrf	??___flmul+3,f
  4461  076F  0CAF               	rrf	??___flmul+2,f
  4462  0770  0CAE               	rrf	??___flmul+1,f
  4463  0771  0CAD               	rrf	??___flmul,f
  4464  0772                     u3170:
  4465  0772  0BB1               	decfsz	??___flmul+4,f
  4466  0773  2F6D               	goto	u3175
  4467  0774  0830               	movf	??___flmul+3,w
  4468  0775  00BC               	movwf	___flmul@prod+3
  4469  0776  082F               	movf	??___flmul+2,w
  4470  0777  00BB               	movwf	___flmul@prod+2
  4471  0778  082E               	movf	??___flmul+1,w
  4472  0779  00BA               	movwf	___flmul@prod+1
  4473  077A  082D               	movf	??___flmul,w
  4474  077B  00B9               	movwf	___flmul@prod
  4475  077C                     l2555:
  4476  077C  3001               	movlw	1
  4477  077D  07BD               	addwf	___flmul@temp,f
  4478  077E  1803               	skipnc
  4479  077F  0ABE               	incf	___flmul@temp+1,f
  4480  0780  3000               	movlw	0
  4481  0781  07BE               	addwf	___flmul@temp+1,f
  4482  0782                     l2557:
  4483  0782  083E               	movf	___flmul@temp+1,w
  4484  0783  3A80               	xorlw	128
  4485  0784  00FF               	movwf	btemp+1
  4486  0785  3080               	movlw	128
  4487  0786  027F               	subwf	btemp+1,w
  4488  0787  1D03               	skipz
  4489  0788  2F8B               	goto	u3185
  4490  0789  30FF               	movlw	255
  4491  078A  023D               	subwf	___flmul@temp,w
  4492  078B                     u3185:
  4493  078B  1C03               	skipc
  4494  078C  2F8E               	goto	u3181
  4495  078D  2F8F               	goto	u3180
  4496  078E                     u3181:
  4497  078E  2F9A               	goto	l2561
  4498  078F                     u3180:
  4499  078F                     l2559:
  4500  078F  307F               	movlw	127
  4501  0790  1283               	bcf	3,5	;RP0=0, select bank0
  4502  0791  1303               	bcf	3,6	;RP1=0, select bank0
  4503  0792  00BC               	movwf	___flmul@prod+3
  4504  0793  3080               	movlw	128
  4505  0794  00BB               	movwf	___flmul@prod+2
  4506  0795  3000               	movlw	0
  4507  0796  00BA               	movwf	___flmul@prod+1
  4508  0797  3000               	movlw	0
  4509  0798  00B9               	movwf	___flmul@prod
  4510  0799  2FCF               	goto	l806
  4511  079A                     l2561:
  4512  079A  1283               	bcf	3,5	;RP0=0, select bank0
  4513  079B  1303               	bcf	3,6	;RP1=0, select bank0
  4514  079C  083E               	movf	___flmul@temp+1,w
  4515  079D  3A80               	xorlw	128
  4516  079E  00FF               	movwf	btemp+1
  4517  079F  3080               	movlw	128
  4518  07A0  027F               	subwf	btemp+1,w
  4519  07A1  1D03               	skipz
  4520  07A2  2FA5               	goto	u3195
  4521  07A3  3001               	movlw	1
  4522  07A4  023D               	subwf	___flmul@temp,w
  4523  07A5                     u3195:
  4524  07A5  1803               	skipnc
  4525  07A6  2FA8               	goto	u3191
  4526  07A7  2FA9               	goto	u3190
  4527  07A8                     u3191:
  4528  07A8  2FB5               	goto	l2567
  4529  07A9                     u3190:
  4530  07A9                     l2563:
  4531  07A9  3000               	movlw	0
  4532  07AA  1283               	bcf	3,5	;RP0=0, select bank0
  4533  07AB  1303               	bcf	3,6	;RP1=0, select bank0
  4534  07AC  00BC               	movwf	___flmul@prod+3
  4535  07AD  3000               	movlw	0
  4536  07AE  00BB               	movwf	___flmul@prod+2
  4537  07AF  3000               	movlw	0
  4538  07B0  00BA               	movwf	___flmul@prod+1
  4539  07B1  3000               	movlw	0
  4540  07B2  00B9               	movwf	___flmul@prod
  4541  07B3                     l2565:
  4542  07B3  01B2               	clrf	___flmul@sign
  4543  07B4  2FCF               	goto	l806
  4544  07B5                     l2567:
  4545  07B5  1283               	bcf	3,5	;RP0=0, select bank0
  4546  07B6  1303               	bcf	3,6	;RP1=0, select bank0
  4547  07B7  083D               	movf	___flmul@temp,w
  4548  07B8  00AD               	movwf	??___flmul
  4549  07B9  082D               	movf	??___flmul,w
  4550  07BA  00B8               	movwf	___flmul@bexp
  4551  07BB  30FF               	movlw	255
  4552  07BC  05B9               	andwf	___flmul@prod,f
  4553  07BD  30FF               	movlw	255
  4554  07BE  05BA               	andwf	___flmul@prod+1,f
  4555  07BF  307F               	movlw	127
  4556  07C0  05BB               	andwf	___flmul@prod+2,f
  4557  07C1  3000               	movlw	0
  4558  07C2  05BC               	andwf	___flmul@prod+3,f
  4559  07C3                     l2569:
  4560  07C3  1C38               	btfss	___flmul@bexp,0
  4561  07C4  2FC6               	goto	u3201
  4562  07C5  2FC7               	goto	u3200
  4563  07C6                     u3201:
  4564  07C6  2FC8               	goto	l2573
  4565  07C7                     u3200:
  4566  07C7                     l2571:
  4567  07C7  17BB               	bsf	___flmul@prod+2,7
  4568  07C8                     l2573:
  4569  07C8  0838               	movf	___flmul@bexp,w
  4570  07C9  00AD               	movwf	??___flmul
  4571  07CA  1003               	clrc
  4572  07CB  0C2D               	rrf	??___flmul,w
  4573  07CC  00AE               	movwf	??___flmul+1
  4574  07CD  082E               	movf	??___flmul+1,w
  4575  07CE  00BC               	movwf	___flmul@prod+3
  4576  07CF                     l806:
  4577  07CF  0832               	movf	___flmul@sign,w
  4578  07D0  00AD               	movwf	??___flmul
  4579  07D1  082D               	movf	??___flmul,w
  4580  07D2  04BC               	iorwf	___flmul@prod+3,f
  4581  07D3                     l2575:
  4582  07D3  083C               	movf	___flmul@prod+3,w
  4583  07D4  00A8               	movwf	?___flmul+3
  4584  07D5  083B               	movf	___flmul@prod+2,w
  4585  07D6  00A7               	movwf	?___flmul+2
  4586  07D7  083A               	movf	___flmul@prod+1,w
  4587  07D8  00A6               	movwf	?___flmul+1
  4588  07D9  0839               	movf	___flmul@prod,w
  4589  07DA  00A5               	movwf	?___flmul
  4590  07DB                     l794:
  4591  07DB  0008               	return
  4592  07DC                     __end_of___flmul:
  4593                           
  4594                           	psect	text9
  4595  15B9                     __ptext9:	
  4596 ;; *************** function __Umul8_16 *****************
  4597 ;; Defined at:
  4598 ;;		line 4 in file "C:\Program Files\Microchip\xc8\v2.36\pic\sources\c90\common\Umul8_16.c"
  4599 ;; Parameters:    Size  Location     Type
  4600 ;;  multiplier      1    wreg     unsigned char 
  4601 ;;  multiplicand    1    0[COMMON] unsigned char 
  4602 ;; Auto vars:     Size  Location     Type
  4603 ;;  multiplier      1    8[COMMON] unsigned char 
  4604 ;;  word_mpld       2    6[COMMON] unsigned int 
  4605 ;;  product         2    4[COMMON] unsigned int 
  4606 ;; Return value:  Size  Location     Type
  4607 ;;                  2    0[COMMON] unsigned int 
  4608 ;; Registers used:
  4609 ;;		wreg, status,2, status,0
  4610 ;; Tracked objects:
  4611 ;;		On entry : 0/0
  4612 ;;		On exit  : 0/0
  4613 ;;		Unchanged: 0/0
  4614 ;; Data sizes:     COMMON   BANK0   BANK1   BANK3   BANK2
  4615 ;;      Params:         2       0       0       0       0
  4616 ;;      Locals:         5       0       0       0       0
  4617 ;;      Temps:          2       0       0       0       0
  4618 ;;      Totals:         9       0       0       0       0
  4619 ;;Total ram usage:        9 bytes
  4620 ;; Hardware stack levels used: 1
  4621 ;; This function calls:
  4622 ;;		Nothing
  4623 ;; This function is called by:
  4624 ;;		___flmul
  4625 ;; This function uses a non-reentrant model
  4626 ;;
  4627                           
  4628  15B9                     __Umul8_16:	
  4629                           ;psect for function __Umul8_16
  4630                           
  4631                           
  4632                           ;incstack = 0
  4633                           ; Regs used in __Umul8_16: [wreg+status,2+status,0]
  4634                           ;__Umul8_16@multiplier stored from wreg
  4635  15B9  00F8               	movwf	__Umul8_16@multiplier
  4636  15BA                     l2199:
  4637  15BA  01F4               	clrf	__Umul8_16@product
  4638  15BB  01F5               	clrf	__Umul8_16@product+1
  4639  15BC                     l2201:
  4640  15BC  0870               	movf	__Umul8_16@multiplicand,w
  4641  15BD  00F2               	movwf	??__Umul8_16
  4642  15BE  01F3               	clrf	??__Umul8_16+1
  4643  15BF  0872               	movf	??__Umul8_16,w
  4644  15C0  00F6               	movwf	__Umul8_16@word_mpld
  4645  15C1  0873               	movf	??__Umul8_16+1,w
  4646  15C2  00F7               	movwf	__Umul8_16@word_mpld+1
  4647  15C3                     l2203:
  4648  15C3  1C78               	btfss	__Umul8_16@multiplier,0
  4649  15C4  2DC6               	goto	u2311
  4650  15C5  2DC7               	goto	u2310
  4651  15C6                     u2311:
  4652  15C6  2DCD               	goto	l813
  4653  15C7                     u2310:
  4654  15C7                     l2205:
  4655  15C7  0876               	movf	__Umul8_16@word_mpld,w
  4656  15C8  07F4               	addwf	__Umul8_16@product,f
  4657  15C9  1803               	skipnc
  4658  15CA  0AF5               	incf	__Umul8_16@product+1,f
  4659  15CB  0877               	movf	__Umul8_16@word_mpld+1,w
  4660  15CC  07F5               	addwf	__Umul8_16@product+1,f
  4661  15CD                     l813:
  4662  15CD  3001               	movlw	1
  4663  15CE                     u2325:
  4664  15CE  1003               	clrc
  4665  15CF  0DF6               	rlf	__Umul8_16@word_mpld,f
  4666  15D0  0DF7               	rlf	__Umul8_16@word_mpld+1,f
  4667  15D1  3EFF               	addlw	-1
  4668  15D2  1D03               	skipz
  4669  15D3  2DCE               	goto	u2325
  4670  15D4  1003               	clrc
  4671  15D5  0CF8               	rrf	__Umul8_16@multiplier,f
  4672  15D6                     l2207:
  4673  15D6  0878               	movf	__Umul8_16@multiplier,w
  4674  15D7  1D03               	btfss	3,2
  4675  15D8  2DDA               	goto	u2331
  4676  15D9  2DDB               	goto	u2330
  4677  15DA                     u2331:
  4678  15DA  2DC3               	goto	l2203
  4679  15DB                     u2330:
  4680  15DB                     l2209:
  4681  15DB  0875               	movf	__Umul8_16@product+1,w
  4682  15DC  00F1               	movwf	?__Umul8_16+1
  4683  15DD  0874               	movf	__Umul8_16@product,w
  4684  15DE  00F0               	movwf	?__Umul8_16
  4685  15DF                     l815:
  4686  15DF  0008               	return
  4687  15E0                     __end_of__Umul8_16:
  4688                           
  4689                           	psect	text10
  4690  0904                     __ptext10:	
  4691 ;; *************** function ___xxtofl *****************
  4692 ;; Defined at:
  4693 ;;		line 10 in file "C:\Program Files\Microchip\xc8\v2.36\pic\sources\c90\common\xxtofl.c"
  4694 ;; Parameters:    Size  Location     Type
  4695 ;;  sign            1    wreg     unsigned char 
  4696 ;;  val             4    0[COMMON] long 
  4697 ;; Auto vars:     Size  Location     Type
  4698 ;;  sign            1    8[COMMON] unsigned char 
  4699 ;;  arg             4   10[COMMON] unsigned long 
  4700 ;;  exp             1    9[COMMON] unsigned char 
  4701 ;; Return value:  Size  Location     Type
  4702 ;;                  4    0[COMMON] unsigned char 
  4703 ;; Registers used:
  4704 ;;		wreg, status,2, status,0
  4705 ;; Tracked objects:
  4706 ;;		On entry : 0/0
  4707 ;;		On exit  : 0/0
  4708 ;;		Unchanged: 0/0
  4709 ;; Data sizes:     COMMON   BANK0   BANK1   BANK3   BANK2
  4710 ;;      Params:         4       0       0       0       0
  4711 ;;      Locals:         6       0       0       0       0
  4712 ;;      Temps:          4       0       0       0       0
  4713 ;;      Totals:        14       0       0       0       0
  4714 ;;Total ram usage:       14 bytes
  4715 ;; Hardware stack levels used: 1
  4716 ;; This function calls:
  4717 ;;		Nothing
  4718 ;; This function is called by:
  4719 ;;		_main
  4720 ;;		_log
  4721 ;;		_capturaTemp
  4722 ;; This function uses a non-reentrant model
  4723 ;;
  4724                           
  4725  0904                     ___xxtofl:	
  4726                           ;psect for function ___xxtofl
  4727                           
  4728                           
  4729                           ;incstack = 0
  4730                           ; Regs used in ___xxtofl: [wreg+status,2+status,0]
  4731                           ;___xxtofl@sign stored from wreg
  4732  0904  00F8               	movwf	___xxtofl@sign
  4733  0905                     l2675:
  4734  0905  0878               	movf	___xxtofl@sign,w
  4735  0906  1903               	btfsc	3,2
  4736  0907  2909               	goto	u3431
  4737  0908  290A               	goto	u3430
  4738  0909                     u3431:
  4739  0909  291E               	goto	l2681
  4740  090A                     u3430:
  4741  090A                     l2677:
  4742  090A  1FF3               	btfss	___xxtofl@val+3,7
  4743  090B  290D               	goto	u3441
  4744  090C  290E               	goto	u3440
  4745  090D                     u3441:
  4746  090D  291E               	goto	l2681
  4747  090E                     u3440:
  4748  090E                     l2679:
  4749  090E  0970               	comf	___xxtofl@val,w
  4750  090F  00FA               	movwf	___xxtofl@arg
  4751  0910  0971               	comf	___xxtofl@val+1,w
  4752  0911  00FB               	movwf	___xxtofl@arg+1
  4753  0912  0972               	comf	___xxtofl@val+2,w
  4754  0913  00FC               	movwf	___xxtofl@arg+2
  4755  0914  0973               	comf	___xxtofl@val+3,w
  4756  0915  00FD               	movwf	___xxtofl@arg+3
  4757  0916  0AFA               	incf	___xxtofl@arg,f
  4758  0917  1903               	skipnz
  4759  0918  0AFB               	incf	___xxtofl@arg+1,f
  4760  0919  1903               	skipnz
  4761  091A  0AFC               	incf	___xxtofl@arg+2,f
  4762  091B  1903               	skipnz
  4763  091C  0AFD               	incf	___xxtofl@arg+3,f
  4764  091D  2926               	goto	l838
  4765  091E                     l2681:
  4766  091E  0873               	movf	___xxtofl@val+3,w
  4767  091F  00FD               	movwf	___xxtofl@arg+3
  4768  0920  0872               	movf	___xxtofl@val+2,w
  4769  0921  00FC               	movwf	___xxtofl@arg+2
  4770  0922  0871               	movf	___xxtofl@val+1,w
  4771  0923  00FB               	movwf	___xxtofl@arg+1
  4772  0924  0870               	movf	___xxtofl@val,w
  4773  0925  00FA               	movwf	___xxtofl@arg
  4774  0926                     l838:
  4775  0926  0873               	movf	___xxtofl@val+3,w
  4776  0927  0472               	iorwf	___xxtofl@val+2,w
  4777  0928  0471               	iorwf	___xxtofl@val+1,w
  4778  0929  0470               	iorwf	___xxtofl@val,w
  4779  092A  1D03               	skipz
  4780  092B  292D               	goto	u3451
  4781  092C  292E               	goto	u3450
  4782  092D                     u3451:
  4783  092D  2937               	goto	l2687
  4784  092E                     u3450:
  4785  092E                     l2683:
  4786  092E  3000               	movlw	0
  4787  092F  00F3               	movwf	?___xxtofl+3
  4788  0930  3000               	movlw	0
  4789  0931  00F2               	movwf	?___xxtofl+2
  4790  0932  3000               	movlw	0
  4791  0933  00F1               	movwf	?___xxtofl+1
  4792  0934  3000               	movlw	0
  4793  0935  00F0               	movwf	?___xxtofl
  4794  0936  29BD               	goto	l840
  4795  0937                     l2687:
  4796  0937  3096               	movlw	150
  4797  0938  00F4               	movwf	??___xxtofl
  4798  0939  0874               	movf	??___xxtofl,w
  4799  093A  00F9               	movwf	___xxtofl@exp
  4800  093B  2949               	goto	l2691
  4801  093C                     l2689:
  4802  093C  3001               	movlw	1
  4803  093D  00F4               	movwf	??___xxtofl
  4804  093E  0874               	movf	??___xxtofl,w
  4805  093F  07F9               	addwf	___xxtofl@exp,f
  4806  0940  3001               	movlw	1
  4807  0941                     u3465:
  4808  0941  1003               	clrc
  4809  0942  0CFD               	rrf	___xxtofl@arg+3,f
  4810  0943  0CFC               	rrf	___xxtofl@arg+2,f
  4811  0944  0CFB               	rrf	___xxtofl@arg+1,f
  4812  0945  0CFA               	rrf	___xxtofl@arg,f
  4813  0946  3EFF               	addlw	-1
  4814  0947  1D03               	skipz
  4815  0948  2941               	goto	u3465
  4816  0949                     l2691:
  4817  0949  30FE               	movlw	254
  4818  094A  057D               	andwf	___xxtofl@arg+3,w
  4819  094B  1D03               	btfss	3,2
  4820  094C  294E               	goto	u3471
  4821  094D  294F               	goto	u3470
  4822  094E                     u3471:
  4823  094E  293C               	goto	l2689
  4824  094F                     u3470:
  4825  094F  296B               	goto	l844
  4826  0950                     l2693:
  4827  0950  3001               	movlw	1
  4828  0951  00F4               	movwf	??___xxtofl
  4829  0952  0874               	movf	??___xxtofl,w
  4830  0953  07F9               	addwf	___xxtofl@exp,f
  4831  0954                     l2695:
  4832  0954  3001               	movlw	1
  4833  0955  07FA               	addwf	___xxtofl@arg,f
  4834  0956  3000               	movlw	0
  4835  0957  1803               	skipnc
  4836  0958  3001               	movlw	1
  4837  0959  07FB               	addwf	___xxtofl@arg+1,f
  4838  095A  3000               	movlw	0
  4839  095B  1803               	skipnc
  4840  095C  3001               	movlw	1
  4841  095D  07FC               	addwf	___xxtofl@arg+2,f
  4842  095E  3000               	movlw	0
  4843  095F  1803               	skipnc
  4844  0960  3001               	movlw	1
  4845  0961  07FD               	addwf	___xxtofl@arg+3,f
  4846  0962                     l2697:
  4847  0962  3001               	movlw	1
  4848  0963                     u3485:
  4849  0963  1003               	clrc
  4850  0964  0CFD               	rrf	___xxtofl@arg+3,f
  4851  0965  0CFC               	rrf	___xxtofl@arg+2,f
  4852  0966  0CFB               	rrf	___xxtofl@arg+1,f
  4853  0967  0CFA               	rrf	___xxtofl@arg,f
  4854  0968  3EFF               	addlw	-1
  4855  0969  1D03               	skipz
  4856  096A  2963               	goto	u3485
  4857  096B                     l844:
  4858  096B  30FF               	movlw	255
  4859  096C  057D               	andwf	___xxtofl@arg+3,w
  4860  096D  1D03               	btfss	3,2
  4861  096E  2970               	goto	u3491
  4862  096F  2971               	goto	u3490
  4863  0970                     u3491:
  4864  0970  2950               	goto	l2693
  4865  0971                     u3490:
  4866  0971  297D               	goto	l2701
  4867  0972                     l2699:
  4868  0972  3001               	movlw	1
  4869  0973  02F9               	subwf	___xxtofl@exp,f
  4870  0974  3001               	movlw	1
  4871  0975  00F4               	movwf	??___xxtofl
  4872  0976                     u3505:
  4873  0976  1003               	clrc
  4874  0977  0DFA               	rlf	___xxtofl@arg,f
  4875  0978  0DFB               	rlf	___xxtofl@arg+1,f
  4876  0979  0DFC               	rlf	___xxtofl@arg+2,f
  4877  097A  0DFD               	rlf	___xxtofl@arg+3,f
  4878  097B  0BF4               	decfsz	??___xxtofl,f
  4879  097C  2976               	goto	u3505
  4880  097D                     l2701:
  4881  097D  1BFC               	btfsc	___xxtofl@arg+2,7
  4882  097E  2980               	goto	u3511
  4883  097F  2981               	goto	u3510
  4884  0980                     u3511:
  4885  0980  2987               	goto	l851
  4886  0981                     u3510:
  4887  0981                     l2703:
  4888  0981  3002               	movlw	2
  4889  0982  0279               	subwf	___xxtofl@exp,w
  4890  0983  1803               	skipnc
  4891  0984  2986               	goto	u3521
  4892  0985  2987               	goto	u3520
  4893  0986                     u3521:
  4894  0986  2972               	goto	l2699
  4895  0987                     u3520:
  4896  0987                     l851:
  4897  0987  1879               	btfsc	___xxtofl@exp,0
  4898  0988  298A               	goto	u3531
  4899  0989  298B               	goto	u3530
  4900  098A                     u3531:
  4901  098A  2993               	goto	l852
  4902  098B                     u3530:
  4903  098B                     l2705:
  4904  098B  30FF               	movlw	255
  4905  098C  05FA               	andwf	___xxtofl@arg,f
  4906  098D  30FF               	movlw	255
  4907  098E  05FB               	andwf	___xxtofl@arg+1,f
  4908  098F  307F               	movlw	127
  4909  0990  05FC               	andwf	___xxtofl@arg+2,f
  4910  0991  30FF               	movlw	255
  4911  0992  05FD               	andwf	___xxtofl@arg+3,f
  4912  0993                     l852:
  4913  0993  1003               	clrc
  4914  0994  0CF9               	rrf	___xxtofl@exp,f
  4915  0995                     l2707:
  4916  0995  0879               	movf	___xxtofl@exp,w
  4917  0996  00F4               	movwf	??___xxtofl
  4918  0997  01F5               	clrf	??___xxtofl+1
  4919  0998  01F6               	clrf	??___xxtofl+2
  4920  0999  01F7               	clrf	??___xxtofl+3
  4921  099A  3018               	movlw	24
  4922  099B                     u3545:
  4923  099B  1003               	clrc
  4924  099C  0DF4               	rlf	??___xxtofl,f
  4925  099D  0DF5               	rlf	??___xxtofl+1,f
  4926  099E  0DF6               	rlf	??___xxtofl+2,f
  4927  099F  0DF7               	rlf	??___xxtofl+3,f
  4928  09A0                     u3540:
  4929  09A0  3EFF               	addlw	-1
  4930  09A1  1D03               	skipz
  4931  09A2  299B               	goto	u3545
  4932  09A3  0874               	movf	??___xxtofl,w
  4933  09A4  04FA               	iorwf	___xxtofl@arg,f
  4934  09A5  0875               	movf	??___xxtofl+1,w
  4935  09A6  04FB               	iorwf	___xxtofl@arg+1,f
  4936  09A7  0876               	movf	??___xxtofl+2,w
  4937  09A8  04FC               	iorwf	___xxtofl@arg+2,f
  4938  09A9  0877               	movf	??___xxtofl+3,w
  4939  09AA  04FD               	iorwf	___xxtofl@arg+3,f
  4940  09AB                     l2709:
  4941  09AB  0878               	movf	___xxtofl@sign,w
  4942  09AC  1903               	btfsc	3,2
  4943  09AD  29AF               	goto	u3551
  4944  09AE  29B0               	goto	u3550
  4945  09AF                     u3551:
  4946  09AF  29B5               	goto	l2715
  4947  09B0                     u3550:
  4948  09B0                     l2711:
  4949  09B0  1FF3               	btfss	___xxtofl@val+3,7
  4950  09B1  29B3               	goto	u3561
  4951  09B2  29B4               	goto	u3560
  4952  09B3                     u3561:
  4953  09B3  29B5               	goto	l2715
  4954  09B4                     u3560:
  4955  09B4                     l2713:
  4956  09B4  17FD               	bsf	___xxtofl@arg+3,7
  4957  09B5                     l2715:
  4958  09B5  087D               	movf	___xxtofl@arg+3,w
  4959  09B6  00F3               	movwf	?___xxtofl+3
  4960  09B7  087C               	movf	___xxtofl@arg+2,w
  4961  09B8  00F2               	movwf	?___xxtofl+2
  4962  09B9  087B               	movf	___xxtofl@arg+1,w
  4963  09BA  00F1               	movwf	?___xxtofl+1
  4964  09BB  087A               	movf	___xxtofl@arg,w
  4965  09BC  00F0               	movwf	?___xxtofl
  4966  09BD                     l840:
  4967  09BD  0008               	return
  4968  09BE                     __end_of___xxtofl:
  4969                           
  4970                           	psect	text11
  4971  0862                     __ptext11:	
  4972 ;; *************** function ___flge *****************
  4973 ;; Defined at:
  4974 ;;		line 4 in file "C:\Program Files\Microchip\xc8\v2.36\pic\sources\c90\common\flge.c"
  4975 ;; Parameters:    Size  Location     Type
  4976 ;;  ff1             4    0[COMMON] unsigned char 
  4977 ;;  ff2             4    4[COMMON] unsigned char 
  4978 ;; Auto vars:     Size  Location     Type
  4979 ;;		None
  4980 ;; Return value:  Size  Location     Type
  4981 ;;		None               void
  4982 ;; Registers used:
  4983 ;;		wreg, status,2, status,0
  4984 ;; Tracked objects:
  4985 ;;		On entry : 0/0
  4986 ;;		On exit  : 0/0
  4987 ;;		Unchanged: 0/0
  4988 ;; Data sizes:     COMMON   BANK0   BANK1   BANK3   BANK2
  4989 ;;      Params:         8       0       0       0       0
  4990 ;;      Locals:         0       0       0       0       0
  4991 ;;      Temps:          4       0       0       0       0
  4992 ;;      Totals:        12       0       0       0       0
  4993 ;;Total ram usage:       12 bytes
  4994 ;; Hardware stack levels used: 1
  4995 ;; This function calls:
  4996 ;;		Nothing
  4997 ;; This function is called by:
  4998 ;;		_main
  4999 ;;		_log
  5000 ;; This function uses a non-reentrant model
  5001 ;;
  5002                           
  5003  0862                     ___flge:	
  5004                           ;psect for function ___flge
  5005                           
  5006  0862                     l2607:	
  5007                           ;incstack = 0
  5008                           ; Regs used in ___flge: [wreg+status,2+status,0]
  5009                           
  5010  0862  3000               	movlw	0
  5011  0863  0570               	andwf	___flge@ff1,w
  5012  0864  00F8               	movwf	??___flge
  5013  0865  3000               	movlw	0
  5014  0866  0571               	andwf	___flge@ff1+1,w
  5015  0867  00F9               	movwf	??___flge+1
  5016  0868  3080               	movlw	128
  5017  0869  0572               	andwf	___flge@ff1+2,w
  5018  086A  00FA               	movwf	??___flge+2
  5019  086B  307F               	movlw	127
  5020  086C  0573               	andwf	___flge@ff1+3,w
  5021  086D  00FB               	movwf	??___flge+3
  5022  086E  087B               	movf	??___flge+3,w
  5023  086F  047A               	iorwf	??___flge+2,w
  5024  0870  0479               	iorwf	??___flge+1,w
  5025  0871  0478               	iorwf	??___flge,w
  5026  0872  1D03               	skipz
  5027  0873  2875               	goto	u3231
  5028  0874  2876               	goto	u3230
  5029  0875                     u3231:
  5030  0875  287E               	goto	l579
  5031  0876                     u3230:
  5032  0876                     l2609:
  5033  0876  3000               	movlw	0
  5034  0877  00F3               	movwf	___flge@ff1+3
  5035  0878  3000               	movlw	0
  5036  0879  00F2               	movwf	___flge@ff1+2
  5037  087A  3000               	movlw	0
  5038  087B  00F1               	movwf	___flge@ff1+1
  5039  087C  3000               	movlw	0
  5040  087D  00F0               	movwf	___flge@ff1
  5041  087E                     l579:
  5042  087E  3000               	movlw	0
  5043  087F  0574               	andwf	___flge@ff2,w
  5044  0880  00F8               	movwf	??___flge
  5045  0881  3000               	movlw	0
  5046  0882  0575               	andwf	___flge@ff2+1,w
  5047  0883  00F9               	movwf	??___flge+1
  5048  0884  3080               	movlw	128
  5049  0885  0576               	andwf	___flge@ff2+2,w
  5050  0886  00FA               	movwf	??___flge+2
  5051  0887  307F               	movlw	127
  5052  0888  0577               	andwf	___flge@ff2+3,w
  5053  0889  00FB               	movwf	??___flge+3
  5054  088A  087B               	movf	??___flge+3,w
  5055  088B  047A               	iorwf	??___flge+2,w
  5056  088C  0479               	iorwf	??___flge+1,w
  5057  088D  0478               	iorwf	??___flge,w
  5058  088E  1D03               	skipz
  5059  088F  2891               	goto	u3241
  5060  0890  2892               	goto	u3240
  5061  0891                     u3241:
  5062  0891  289A               	goto	l2613
  5063  0892                     u3240:
  5064  0892                     l2611:
  5065  0892  3000               	movlw	0
  5066  0893  00F7               	movwf	___flge@ff2+3
  5067  0894  3000               	movlw	0
  5068  0895  00F6               	movwf	___flge@ff2+2
  5069  0896  3000               	movlw	0
  5070  0897  00F5               	movwf	___flge@ff2+1
  5071  0898  3000               	movlw	0
  5072  0899  00F4               	movwf	___flge@ff2
  5073  089A                     l2613:
  5074  089A  1FF3               	btfss	___flge@ff1+3,7
  5075  089B  289D               	goto	u3251
  5076  089C  289E               	goto	u3250
  5077  089D                     u3251:
  5078  089D  28C2               	goto	l2617
  5079  089E                     u3250:
  5080  089E                     l2615:
  5081  089E  3000               	movlw	0
  5082  089F  00F8               	movwf	??___flge
  5083  08A0  3000               	movlw	0
  5084  08A1  00F9               	movwf	??___flge+1
  5085  08A2  3000               	movlw	0
  5086  08A3  00FA               	movwf	??___flge+2
  5087  08A4  3080               	movlw	128
  5088  08A5  00FB               	movwf	??___flge+3
  5089  08A6  0870               	movf	___flge@ff1,w
  5090  08A7  02F8               	subwf	??___flge,f
  5091  08A8  0871               	movf	___flge@ff1+1,w
  5092  08A9  1C03               	skipc
  5093  08AA  0F71               	incfsz	___flge@ff1+1,w
  5094  08AB  28AD               	goto	u3261
  5095  08AC  28AE               	goto	u3262
  5096  08AD                     u3261:
  5097  08AD  02F9               	subwf	??___flge+1,f
  5098  08AE                     u3262:
  5099  08AE  0872               	movf	___flge@ff1+2,w
  5100  08AF  1C03               	skipc
  5101  08B0  0F72               	incfsz	___flge@ff1+2,w
  5102  08B1  28B3               	goto	u3263
  5103  08B2  28B4               	goto	u3264
  5104  08B3                     u3263:
  5105  08B3  02FA               	subwf	??___flge+2,f
  5106  08B4                     u3264:
  5107  08B4  0873               	movf	___flge@ff1+3,w
  5108  08B5  1C03               	skipc
  5109  08B6  0F73               	incfsz	___flge@ff1+3,w
  5110  08B7  28B9               	goto	u3265
  5111  08B8  28BA               	goto	u3266
  5112  08B9                     u3265:
  5113  08B9  02FB               	subwf	??___flge+3,f
  5114  08BA                     u3266:
  5115  08BA  087B               	movf	??___flge+3,w
  5116  08BB  00F3               	movwf	___flge@ff1+3
  5117  08BC  087A               	movf	??___flge+2,w
  5118  08BD  00F2               	movwf	___flge@ff1+2
  5119  08BE  0879               	movf	??___flge+1,w
  5120  08BF  00F1               	movwf	___flge@ff1+1
  5121  08C0  0878               	movf	??___flge,w
  5122  08C1  00F0               	movwf	___flge@ff1
  5123  08C2                     l2617:
  5124  08C2  1FF7               	btfss	___flge@ff2+3,7
  5125  08C3  28C5               	goto	u3271
  5126  08C4  28C6               	goto	u3270
  5127  08C5                     u3271:
  5128  08C5  28EA               	goto	l582
  5129  08C6                     u3270:
  5130  08C6                     l2619:
  5131  08C6  3000               	movlw	0
  5132  08C7  00F8               	movwf	??___flge
  5133  08C8  3000               	movlw	0
  5134  08C9  00F9               	movwf	??___flge+1
  5135  08CA  3000               	movlw	0
  5136  08CB  00FA               	movwf	??___flge+2
  5137  08CC  3080               	movlw	128
  5138  08CD  00FB               	movwf	??___flge+3
  5139  08CE  0874               	movf	___flge@ff2,w
  5140  08CF  02F8               	subwf	??___flge,f
  5141  08D0  0875               	movf	___flge@ff2+1,w
  5142  08D1  1C03               	skipc
  5143  08D2  0F75               	incfsz	___flge@ff2+1,w
  5144  08D3  28D5               	goto	u3281
  5145  08D4  28D6               	goto	u3282
  5146  08D5                     u3281:
  5147  08D5  02F9               	subwf	??___flge+1,f
  5148  08D6                     u3282:
  5149  08D6  0876               	movf	___flge@ff2+2,w
  5150  08D7  1C03               	skipc
  5151  08D8  0F76               	incfsz	___flge@ff2+2,w
  5152  08D9  28DB               	goto	u3283
  5153  08DA  28DC               	goto	u3284
  5154  08DB                     u3283:
  5155  08DB  02FA               	subwf	??___flge+2,f
  5156  08DC                     u3284:
  5157  08DC  0877               	movf	___flge@ff2+3,w
  5158  08DD  1C03               	skipc
  5159  08DE  0F77               	incfsz	___flge@ff2+3,w
  5160  08DF  28E1               	goto	u3285
  5161  08E0  28E2               	goto	u3286
  5162  08E1                     u3285:
  5163  08E1  02FB               	subwf	??___flge+3,f
  5164  08E2                     u3286:
  5165  08E2  087B               	movf	??___flge+3,w
  5166  08E3  00F7               	movwf	___flge@ff2+3
  5167  08E4  087A               	movf	??___flge+2,w
  5168  08E5  00F6               	movwf	___flge@ff2+2
  5169  08E6  0879               	movf	??___flge+1,w
  5170  08E7  00F5               	movwf	___flge@ff2+1
  5171  08E8  0878               	movf	??___flge,w
  5172  08E9  00F4               	movwf	___flge@ff2
  5173  08EA                     l582:
  5174  08EA  3080               	movlw	128
  5175  08EB  06F3               	xorwf	___flge@ff1+3,f
  5176  08EC  3080               	movlw	128
  5177  08ED  06F7               	xorwf	___flge@ff2+3,f
  5178  08EE  0877               	movf	___flge@ff2+3,w
  5179  08EF  0273               	subwf	___flge@ff1+3,w
  5180  08F0  1D03               	skipz
  5181  08F1  28FC               	goto	u3295
  5182  08F2  0876               	movf	___flge@ff2+2,w
  5183  08F3  0272               	subwf	___flge@ff1+2,w
  5184  08F4  1D03               	skipz
  5185  08F5  28FC               	goto	u3295
  5186  08F6  0875               	movf	___flge@ff2+1,w
  5187  08F7  0271               	subwf	___flge@ff1+1,w
  5188  08F8  1D03               	skipz
  5189  08F9  28FC               	goto	u3295
  5190  08FA  0874               	movf	___flge@ff2,w
  5191  08FB  0270               	subwf	___flge@ff1,w
  5192  08FC                     u3295:
  5193  08FC  1803               	skipnc
  5194  08FD  28FF               	goto	u3291
  5195  08FE  2900               	goto	u3290
  5196  08FF                     u3291:
  5197  08FF  2902               	goto	l2623
  5198  0900                     u3290:
  5199  0900                     l2621:
  5200  0900  1003               	clrc
  5201  0901  2903               	goto	l583
  5202  0902                     l2623:
  5203  0902  1403               	setc
  5204  0903                     l583:
  5205  0903  0008               	return
  5206  0904                     __end_of___flge:
  5207                           
  5208                           	psect	text12
  5209  176E                     __ptext12:	
  5210 ;; *************** function ___fltol *****************
  5211 ;; Defined at:
  5212 ;;		line 43 in file "C:\Program Files\Microchip\xc8\v2.36\pic\sources\c90\common\fltol.c"
  5213 ;; Parameters:    Size  Location     Type
  5214 ;;  f1              4    8[BANK1 ] unsigned char 
  5215 ;; Auto vars:     Size  Location     Type
  5216 ;;  exp1            1   78[BANK0 ] unsigned char 
  5217 ;;  sign1           1   77[BANK0 ] unsigned char 
  5218 ;; Return value:  Size  Location     Type
  5219 ;;                  4    8[BANK1 ] long 
  5220 ;; Registers used:
  5221 ;;		wreg, status,2, status,0
  5222 ;; Tracked objects:
  5223 ;;		On entry : 0/0
  5224 ;;		On exit  : 0/0
  5225 ;;		Unchanged: 0/0
  5226 ;; Data sizes:     COMMON   BANK0   BANK1   BANK3   BANK2
  5227 ;;      Params:         0       0       4       0       0
  5228 ;;      Locals:         0       2       0       0       0
  5229 ;;      Temps:          0       0       5       0       0
  5230 ;;      Totals:         0       2       9       0       0
  5231 ;;Total ram usage:       11 bytes
  5232 ;; Hardware stack levels used: 1
  5233 ;; This function calls:
  5234 ;;		Nothing
  5235 ;; This function is called by:
  5236 ;;		_main
  5237 ;;		_capturaTemp
  5238 ;; This function uses a non-reentrant model
  5239 ;;
  5240                           
  5241  176E                     ___fltol:	
  5242                           ;psect for function ___fltol
  5243                           
  5244  176E                     l2867:	
  5245                           ;incstack = 0
  5246                           ; Regs used in ___fltol: [wreg+status,2+status,0]
  5247                           
  5248  176E  1003               	clrc
  5249  176F  1683               	bsf	3,5	;RP0=1, select bank1
  5250  1770  1303               	bcf	3,6	;RP1=0, select bank1
  5251  1771  0D2A               	rlf	(___fltol@f1+2)^(0+128),w
  5252  1772  0D2B               	rlf	(___fltol@f1+3)^(0+128),w
  5253  1773  00AC               	movwf	??___fltol^(0+128)
  5254  1774  082C               	movf	??___fltol^(0+128),w
  5255  1775  1283               	bcf	3,5	;RP0=0, select bank0
  5256  1776  1303               	bcf	3,6	;RP1=0, select bank0
  5257  1777  00EE               	movwf	___fltol@exp1
  5258  1778  086E               	movf	___fltol@exp1,w
  5259  1779  1D03               	btfss	3,2
  5260  177A  2F7C               	goto	u3711
  5261  177B  2F7D               	goto	u3710
  5262  177C                     u3711:
  5263  177C  2F88               	goto	l2873
  5264  177D                     u3710:
  5265  177D                     l2869:
  5266  177D  3000               	movlw	0
  5267  177E  1683               	bsf	3,5	;RP0=1, select bank1
  5268  177F  1303               	bcf	3,6	;RP1=0, select bank1
  5269  1780  00AB               	movwf	(?___fltol+3)^(0+128)
  5270  1781  3000               	movlw	0
  5271  1782  00AA               	movwf	(?___fltol+2)^(0+128)
  5272  1783  3000               	movlw	0
  5273  1784  00A9               	movwf	(?___fltol+1)^(0+128)
  5274  1785  3000               	movlw	0
  5275  1786  00A8               	movwf	?___fltol^(0+128)
  5276  1787  2FFF               	goto	l591
  5277  1788                     l2873:
  5278  1788  1683               	bsf	3,5	;RP0=1, select bank1
  5279  1789  1303               	bcf	3,6	;RP1=0, select bank1
  5280  178A  0828               	movf	___fltol@f1^(0+128),w
  5281  178B  00AC               	movwf	??___fltol^(0+128)
  5282  178C  0829               	movf	(___fltol@f1+1)^(0+128),w
  5283  178D  00AD               	movwf	(??___fltol^(0+128)+1)
  5284  178E  082A               	movf	(___fltol@f1+2)^(0+128),w
  5285  178F  00AE               	movwf	(??___fltol^(0+128)+2)
  5286  1790  082B               	movf	(___fltol@f1+3)^(0+128),w
  5287  1791  00AF               	movwf	(??___fltol^(0+128)+3)
  5288  1792  301F               	movlw	31
  5289  1793                     u3725:
  5290  1793  1003               	clrc
  5291  1794  0CAF               	rrf	(??___fltol^(0+128)+3),f
  5292  1795  0CAE               	rrf	(??___fltol^(0+128)+2),f
  5293  1796  0CAD               	rrf	(??___fltol^(0+128)+1),f
  5294  1797  0CAC               	rrf	??___fltol^(0+128),f
  5295  1798                     u3720:
  5296  1798  3EFF               	addlw	-1
  5297  1799  1D03               	skipz
  5298  179A  2F93               	goto	u3725
  5299  179B  082C               	movf	??___fltol^(0+128),w
  5300  179C  00B0               	movwf	(??___fltol+4)^(0+128)
  5301  179D  0830               	movf	(??___fltol+4)^(0+128),w
  5302  179E  1283               	bcf	3,5	;RP0=0, select bank0
  5303  179F  1303               	bcf	3,6	;RP1=0, select bank0
  5304  17A0  00ED               	movwf	___fltol@sign1
  5305  17A1                     l2875:
  5306  17A1  1683               	bsf	3,5	;RP0=1, select bank1
  5307  17A2  1303               	bcf	3,6	;RP1=0, select bank1
  5308  17A3  17AA               	bsf	(___fltol@f1^(0+128)+2),7
  5309  17A4                     l2877:
  5310  17A4  30FF               	movlw	255
  5311  17A5  05A8               	andwf	___fltol@f1^(0+128),f
  5312  17A6  30FF               	movlw	255
  5313  17A7  05A9               	andwf	(___fltol@f1+1)^(0+128),f
  5314  17A8  30FF               	movlw	255
  5315  17A9  05AA               	andwf	(___fltol@f1+2)^(0+128),f
  5316  17AA  3000               	movlw	0
  5317  17AB  05AB               	andwf	(___fltol@f1+3)^(0+128),f
  5318  17AC                     l2879:
  5319  17AC  3096               	movlw	150
  5320  17AD  1283               	bcf	3,5	;RP0=0, select bank0
  5321  17AE  1303               	bcf	3,6	;RP1=0, select bank0
  5322  17AF  02EE               	subwf	___fltol@exp1,f
  5323  17B0                     l2881:
  5324  17B0  1FEE               	btfss	___fltol@exp1,7
  5325  17B1  2FB3               	goto	u3731
  5326  17B2  2FB4               	goto	u3730
  5327  17B3                     u3731:
  5328  17B3  2FD2               	goto	l2891
  5329  17B4                     u3730:
  5330  17B4                     l2883:
  5331  17B4  086E               	movf	___fltol@exp1,w
  5332  17B5  3A80               	xorlw	128
  5333  17B6  3E97               	addlw	151
  5334  17B7  1803               	skipnc
  5335  17B8  2FBA               	goto	u3741
  5336  17B9  2FBB               	goto	u3740
  5337  17BA                     u3741:
  5338  17BA  2FBC               	goto	l2889
  5339  17BB                     u3740:
  5340  17BB  2F7D               	goto	l2869
  5341  17BC                     l2889:
  5342  17BC  3001               	movlw	1
  5343  17BD                     u3755:
  5344  17BD  1003               	clrc
  5345  17BE  1683               	bsf	3,5	;RP0=1, select bank1
  5346  17BF  1303               	bcf	3,6	;RP1=0, select bank1
  5347  17C0  0CAB               	rrf	(___fltol@f1+3)^(0+128),f
  5348  17C1  0CAA               	rrf	(___fltol@f1+2)^(0+128),f
  5349  17C2  0CA9               	rrf	(___fltol@f1+1)^(0+128),f
  5350  17C3  0CA8               	rrf	___fltol@f1^(0+128),f
  5351  17C4  3EFF               	addlw	-1
  5352  17C5  1D03               	skipz
  5353  17C6  2FBD               	goto	u3755
  5354  17C7  3001               	movlw	1
  5355  17C8  00AC               	movwf	??___fltol^(0+128)
  5356  17C9  082C               	movf	??___fltol^(0+128),w
  5357  17CA  1283               	bcf	3,5	;RP0=0, select bank0
  5358  17CB  1303               	bcf	3,6	;RP1=0, select bank0
  5359  17CC  07EE               	addwf	___fltol@exp1,f
  5360  17CD  1D03               	btfss	3,2
  5361  17CE  2FD0               	goto	u3761
  5362  17CF  2FD1               	goto	u3760
  5363  17D0                     u3761:
  5364  17D0  2FBC               	goto	l2889
  5365  17D1                     u3760:
  5366  17D1  2FED               	goto	l2899
  5367  17D2                     l2891:
  5368  17D2  3020               	movlw	32
  5369  17D3  026E               	subwf	___fltol@exp1,w
  5370  17D4  1C03               	skipc
  5371  17D5  2FD7               	goto	u3771
  5372  17D6  2FD8               	goto	u3770
  5373  17D7                     u3771:
  5374  17D7  2FE8               	goto	l598
  5375  17D8                     u3770:
  5376  17D8  2F7D               	goto	l2869
  5377  17D9                     l2897:
  5378  17D9  3001               	movlw	1
  5379  17DA  1683               	bsf	3,5	;RP0=1, select bank1
  5380  17DB  1303               	bcf	3,6	;RP1=0, select bank1
  5381  17DC  00AC               	movwf	??___fltol^(0+128)
  5382  17DD                     u3785:
  5383  17DD  1003               	clrc
  5384  17DE  0DA8               	rlf	___fltol@f1^(0+128),f
  5385  17DF  0DA9               	rlf	(___fltol@f1+1)^(0+128),f
  5386  17E0  0DAA               	rlf	(___fltol@f1+2)^(0+128),f
  5387  17E1  0DAB               	rlf	(___fltol@f1+3)^(0+128),f
  5388  17E2  0BAC               	decfsz	??___fltol^(0+128),f
  5389  17E3  2FDD               	goto	u3785
  5390  17E4  3001               	movlw	1
  5391  17E5  1283               	bcf	3,5	;RP0=0, select bank0
  5392  17E6  1303               	bcf	3,6	;RP1=0, select bank0
  5393  17E7  02EE               	subwf	___fltol@exp1,f
  5394  17E8                     l598:
  5395  17E8  086E               	movf	___fltol@exp1,w
  5396  17E9  1D03               	btfss	3,2
  5397  17EA  2FEC               	goto	u3791
  5398  17EB  2FED               	goto	u3790
  5399  17EC                     u3791:
  5400  17EC  2FD9               	goto	l2897
  5401  17ED                     u3790:
  5402  17ED                     l2899:
  5403  17ED  086D               	movf	___fltol@sign1,w
  5404  17EE  1903               	btfsc	3,2
  5405  17EF  2FF1               	goto	u3801
  5406  17F0  2FF2               	goto	u3800
  5407  17F1                     u3801:
  5408  17F1  2FFF               	goto	l601
  5409  17F2                     u3800:
  5410  17F2                     l2901:
  5411  17F2  1683               	bsf	3,5	;RP0=1, select bank1
  5412  17F3  1303               	bcf	3,6	;RP1=0, select bank1
  5413  17F4  09A8               	comf	___fltol@f1^(0+128),f
  5414  17F5  09A9               	comf	(___fltol@f1+1)^(0+128),f
  5415  17F6  09AA               	comf	(___fltol@f1+2)^(0+128),f
  5416  17F7  09AB               	comf	(___fltol@f1+3)^(0+128),f
  5417  17F8  0AA8               	incf	___fltol@f1^(0+128),f
  5418  17F9  1903               	skipnz
  5419  17FA  0AA9               	incf	(___fltol@f1+1)^(0+128),f
  5420  17FB  1903               	skipnz
  5421  17FC  0AAA               	incf	(___fltol@f1+2)^(0+128),f
  5422  17FD  1903               	skipnz
  5423  17FE  0AAB               	incf	(___fltol@f1+3)^(0+128),f
  5424  17FF                     l601:
  5425  17FF                     l591:
  5426  17FF  0008               	return
  5427  1800                     __end_of___fltol:
  5428                           
  5429                           	psect	text13
  5430  0812                     __ptext13:	
  5431 ;; *************** function ___flsub *****************
  5432 ;; Defined at:
  5433 ;;		line 242 in file "C:\Program Files\Microchip\xc8\v2.36\pic\sources\c90\common\sprcadd.c"
  5434 ;; Parameters:    Size  Location     Type
  5435 ;;  a               4    0[BANK1 ] long 
  5436 ;;  b               4    4[BANK1 ] long 
  5437 ;; Auto vars:     Size  Location     Type
  5438 ;;		None
  5439 ;; Return value:  Size  Location     Type
  5440 ;;                  4    0[BANK1 ] long 
  5441 ;; Registers used:
  5442 ;;		wreg, status,2, status,0, btemp+1, pclath, cstack
  5443 ;; Tracked objects:
  5444 ;;		On entry : 0/0
  5445 ;;		On exit  : 0/0
  5446 ;;		Unchanged: 0/0
  5447 ;; Data sizes:     COMMON   BANK0   BANK1   BANK3   BANK2
  5448 ;;      Params:         0       0       8       0       0
  5449 ;;      Locals:         0       0       0       0       0
  5450 ;;      Temps:          0       0       0       0       0
  5451 ;;      Totals:         0       0       8       0       0
  5452 ;;Total ram usage:        8 bytes
  5453 ;; Hardware stack levels used: 1
  5454 ;; Hardware stack levels required when called: 1
  5455 ;; This function calls:
  5456 ;;		___fladd
  5457 ;; This function is called by:
  5458 ;;		_main
  5459 ;; This function uses a non-reentrant model
  5460 ;;
  5461                           
  5462  0812                     ___flsub:	
  5463                           ;psect for function ___flsub
  5464                           
  5465  0812                     l2903:	
  5466                           ;incstack = 0
  5467                           ; Regs used in ___flsub: [wreg+status,2+status,0+btemp+1+pclath+cstack]
  5468                           
  5469  0812  3080               	movlw	128
  5470  0813  1683               	bsf	3,5	;RP0=1, select bank1
  5471  0814  1303               	bcf	3,6	;RP1=0, select bank1
  5472  0815  06A3               	xorwf	(___flsub@a+3)^(0+128),f
  5473  0816                     l2905:
  5474  0816  0827               	movf	(___flsub@b+3)^(0+128),w
  5475  0817  1283               	bcf	3,5	;RP0=0, select bank0
  5476  0818  1303               	bcf	3,6	;RP1=0, select bank0
  5477  0819  00DC               	movwf	___fladd@b+3
  5478  081A  1683               	bsf	3,5	;RP0=1, select bank1
  5479  081B  1303               	bcf	3,6	;RP1=0, select bank1
  5480  081C  0826               	movf	(___flsub@b+2)^(0+128),w
  5481  081D  1283               	bcf	3,5	;RP0=0, select bank0
  5482  081E  1303               	bcf	3,6	;RP1=0, select bank0
  5483  081F  00DB               	movwf	___fladd@b+2
  5484  0820  1683               	bsf	3,5	;RP0=1, select bank1
  5485  0821  1303               	bcf	3,6	;RP1=0, select bank1
  5486  0822  0825               	movf	(___flsub@b+1)^(0+128),w
  5487  0823  1283               	bcf	3,5	;RP0=0, select bank0
  5488  0824  1303               	bcf	3,6	;RP1=0, select bank0
  5489  0825  00DA               	movwf	___fladd@b+1
  5490  0826  1683               	bsf	3,5	;RP0=1, select bank1
  5491  0827  1303               	bcf	3,6	;RP1=0, select bank1
  5492  0828  0824               	movf	___flsub@b^(0+128),w
  5493  0829  1283               	bcf	3,5	;RP0=0, select bank0
  5494  082A  1303               	bcf	3,6	;RP1=0, select bank0
  5495  082B  00D9               	movwf	___fladd@b
  5496  082C  1683               	bsf	3,5	;RP0=1, select bank1
  5497  082D  1303               	bcf	3,6	;RP1=0, select bank1
  5498  082E  0823               	movf	(___flsub@a+3)^(0+128),w
  5499  082F  1283               	bcf	3,5	;RP0=0, select bank0
  5500  0830  1303               	bcf	3,6	;RP1=0, select bank0
  5501  0831  00E0               	movwf	___fladd@a+3
  5502  0832  1683               	bsf	3,5	;RP0=1, select bank1
  5503  0833  1303               	bcf	3,6	;RP1=0, select bank1
  5504  0834  0822               	movf	(___flsub@a+2)^(0+128),w
  5505  0835  1283               	bcf	3,5	;RP0=0, select bank0
  5506  0836  1303               	bcf	3,6	;RP1=0, select bank0
  5507  0837  00DF               	movwf	___fladd@a+2
  5508  0838  1683               	bsf	3,5	;RP0=1, select bank1
  5509  0839  1303               	bcf	3,6	;RP1=0, select bank1
  5510  083A  0821               	movf	(___flsub@a+1)^(0+128),w
  5511  083B  1283               	bcf	3,5	;RP0=0, select bank0
  5512  083C  1303               	bcf	3,6	;RP1=0, select bank0
  5513  083D  00DE               	movwf	___fladd@a+1
  5514  083E  1683               	bsf	3,5	;RP0=1, select bank1
  5515  083F  1303               	bcf	3,6	;RP1=0, select bank1
  5516  0840  0820               	movf	___flsub@a^(0+128),w
  5517  0841  1283               	bcf	3,5	;RP0=0, select bank0
  5518  0842  1303               	bcf	3,6	;RP1=0, select bank0
  5519  0843  00DD               	movwf	___fladd@a
  5520  0844  120A  158A  2578  120A  158A  	fcall	___fladd
  5521  0849  1283               	bcf	3,5	;RP0=0, select bank0
  5522  084A  1303               	bcf	3,6	;RP1=0, select bank0
  5523  084B  085C               	movf	?___fladd+3,w
  5524  084C  1683               	bsf	3,5	;RP0=1, select bank1
  5525  084D  1303               	bcf	3,6	;RP1=0, select bank1
  5526  084E  00A3               	movwf	(?___flsub+3)^(0+128)
  5527  084F  1283               	bcf	3,5	;RP0=0, select bank0
  5528  0850  1303               	bcf	3,6	;RP1=0, select bank0
  5529  0851  085B               	movf	?___fladd+2,w
  5530  0852  1683               	bsf	3,5	;RP0=1, select bank1
  5531  0853  1303               	bcf	3,6	;RP1=0, select bank1
  5532  0854  00A2               	movwf	(?___flsub+2)^(0+128)
  5533  0855  1283               	bcf	3,5	;RP0=0, select bank0
  5534  0856  1303               	bcf	3,6	;RP1=0, select bank0
  5535  0857  085A               	movf	?___fladd+1,w
  5536  0858  1683               	bsf	3,5	;RP0=1, select bank1
  5537  0859  1303               	bcf	3,6	;RP1=0, select bank1
  5538  085A  00A1               	movwf	(?___flsub+1)^(0+128)
  5539  085B  1283               	bcf	3,5	;RP0=0, select bank0
  5540  085C  1303               	bcf	3,6	;RP1=0, select bank0
  5541  085D  0859               	movf	?___fladd,w
  5542  085E  1683               	bsf	3,5	;RP0=1, select bank1
  5543  085F  1303               	bcf	3,6	;RP1=0, select bank1
  5544  0860  00A0               	movwf	?___flsub^(0+128)
  5545  0861                     l744:
  5546  0861  0008               	return
  5547  0862                     __end_of___flsub:
  5548                           
  5549                           	psect	text14
  5550  0D78                     __ptext14:	
  5551 ;; *************** function ___fladd *****************
  5552 ;; Defined at:
  5553 ;;		line 10 in file "C:\Program Files\Microchip\xc8\v2.36\pic\sources\c90\common\sprcadd.c"
  5554 ;; Parameters:    Size  Location     Type
  5555 ;;  b               4   57[BANK0 ] long 
  5556 ;;  a               4   61[BANK0 ] long 
  5557 ;; Auto vars:     Size  Location     Type
  5558 ;;  grs             1   76[BANK0 ] unsigned char 
  5559 ;;  bexp            1   75[BANK0 ] unsigned char 
  5560 ;;  aexp            1   74[BANK0 ] unsigned char 
  5561 ;;  signs           1   73[BANK0 ] unsigned char 
  5562 ;; Return value:  Size  Location     Type
  5563 ;;                  4   57[BANK0 ] unsigned char 
  5564 ;; Registers used:
  5565 ;;		wreg, status,2, status,0, btemp+1
  5566 ;; Tracked objects:
  5567 ;;		On entry : 0/0
  5568 ;;		On exit  : 0/0
  5569 ;;		Unchanged: 0/0
  5570 ;; Data sizes:     COMMON   BANK0   BANK1   BANK3   BANK2
  5571 ;;      Params:         0       8       0       0       0
  5572 ;;      Locals:         0       4       0       0       0
  5573 ;;      Temps:          0       8       0       0       0
  5574 ;;      Totals:         0      20       0       0       0
  5575 ;;Total ram usage:       20 bytes
  5576 ;; Hardware stack levels used: 1
  5577 ;; This function calls:
  5578 ;;		Nothing
  5579 ;; This function is called by:
  5580 ;;		_main
  5581 ;;		___flsub
  5582 ;;		_log
  5583 ;;		_eval_poly
  5584 ;; This function uses a non-reentrant model
  5585 ;;
  5586                           
  5587  0D78                     ___fladd:	
  5588                           ;psect for function ___fladd
  5589                           
  5590  0D78                     l2245:	
  5591                           ;incstack = 0
  5592                           ; Regs used in ___fladd: [wreg+status,2+status,0+btemp+1]
  5593                           
  5594  0D78  1283               	bcf	3,5	;RP0=0, select bank0
  5595  0D79  1303               	bcf	3,6	;RP1=0, select bank0
  5596  0D7A  085C               	movf	___fladd@b+3,w
  5597  0D7B  3980               	andlw	128
  5598  0D7C  00E1               	movwf	??___fladd
  5599  0D7D  0861               	movf	??___fladd,w
  5600  0D7E  00E9               	movwf	___fladd@signs
  5601  0D7F                     l2247:
  5602  0D7F  085C               	movf	___fladd@b+3,w
  5603  0D80  00E1               	movwf	??___fladd
  5604  0D81  0761               	addwf	??___fladd,w
  5605  0D82  00E2               	movwf	??___fladd+1
  5606  0D83  0862               	movf	??___fladd+1,w
  5607  0D84  00EB               	movwf	___fladd@bexp
  5608  0D85                     l2249:
  5609  0D85  1FDB               	btfss	___fladd@b+2,7
  5610  0D86  2D88               	goto	u2381
  5611  0D87  2D89               	goto	u2380
  5612  0D88                     u2381:
  5613  0D88  2D8A               	goto	l2253
  5614  0D89                     u2380:
  5615  0D89                     l2251:
  5616  0D89  146B               	bsf	___fladd@bexp,0
  5617  0D8A                     l2253:
  5618  0D8A  086B               	movf	___fladd@bexp,w
  5619  0D8B  1903               	btfsc	3,2
  5620  0D8C  2D8E               	goto	u2391
  5621  0D8D  2D8F               	goto	u2390
  5622  0D8E                     u2391:
  5623  0D8E  2D9F               	goto	l2263
  5624  0D8F                     u2390:
  5625  0D8F                     l2255:
  5626  0D8F  0A6B               	incf	___fladd@bexp,w
  5627  0D90  1D03               	btfss	3,2
  5628  0D91  2D93               	goto	u2401
  5629  0D92  2D94               	goto	u2400
  5630  0D93                     u2401:
  5631  0D93  2D9C               	goto	l2259
  5632  0D94                     u2400:
  5633  0D94                     l2257:
  5634  0D94  3000               	movlw	0
  5635  0D95  00DC               	movwf	___fladd@b+3
  5636  0D96  3000               	movlw	0
  5637  0D97  00DB               	movwf	___fladd@b+2
  5638  0D98  3000               	movlw	0
  5639  0D99  00DA               	movwf	___fladd@b+1
  5640  0D9A  3000               	movlw	0
  5641  0D9B  00D9               	movwf	___fladd@b
  5642  0D9C                     l2259:
  5643  0D9C  17DB               	bsf	___fladd@b+2,7
  5644  0D9D                     l2261:
  5645  0D9D  01DC               	clrf	___fladd@b+3
  5646  0D9E  2DA7               	goto	l2265
  5647  0D9F                     l2263:
  5648  0D9F  3000               	movlw	0
  5649  0DA0  00DC               	movwf	___fladd@b+3
  5650  0DA1  3000               	movlw	0
  5651  0DA2  00DB               	movwf	___fladd@b+2
  5652  0DA3  3000               	movlw	0
  5653  0DA4  00DA               	movwf	___fladd@b+1
  5654  0DA5  3000               	movlw	0
  5655  0DA6  00D9               	movwf	___fladd@b
  5656  0DA7                     l2265:
  5657  0DA7  0860               	movf	___fladd@a+3,w
  5658  0DA8  3980               	andlw	128
  5659  0DA9  00E1               	movwf	??___fladd
  5660  0DAA  0861               	movf	??___fladd,w
  5661  0DAB  00EA               	movwf	___fladd@aexp
  5662  0DAC                     l2267:
  5663  0DAC  086A               	movf	___fladd@aexp,w
  5664  0DAD  0669               	xorwf	___fladd@signs,w
  5665  0DAE  1903               	skipnz
  5666  0DAF  2DB1               	goto	u2411
  5667  0DB0  2DB2               	goto	u2410
  5668  0DB1                     u2411:
  5669  0DB1  2DB3               	goto	l2271
  5670  0DB2                     u2410:
  5671  0DB2                     l2269:
  5672  0DB2  1769               	bsf	___fladd@signs,6
  5673  0DB3                     l2271:
  5674  0DB3  0860               	movf	___fladd@a+3,w
  5675  0DB4  00E1               	movwf	??___fladd
  5676  0DB5  0761               	addwf	??___fladd,w
  5677  0DB6  00E2               	movwf	??___fladd+1
  5678  0DB7  0862               	movf	??___fladd+1,w
  5679  0DB8  00EA               	movwf	___fladd@aexp
  5680  0DB9                     l2273:
  5681  0DB9  1FDF               	btfss	___fladd@a+2,7
  5682  0DBA  2DBC               	goto	u2421
  5683  0DBB  2DBD               	goto	u2420
  5684  0DBC                     u2421:
  5685  0DBC  2DBE               	goto	l2277
  5686  0DBD                     u2420:
  5687  0DBD                     l2275:
  5688  0DBD  146A               	bsf	___fladd@aexp,0
  5689  0DBE                     l2277:
  5690  0DBE  086A               	movf	___fladd@aexp,w
  5691  0DBF  1903               	btfsc	3,2
  5692  0DC0  2DC2               	goto	u2431
  5693  0DC1  2DC3               	goto	u2430
  5694  0DC2                     u2431:
  5695  0DC2  2DD3               	goto	l2287
  5696  0DC3                     u2430:
  5697  0DC3                     l2279:
  5698  0DC3  0A6A               	incf	___fladd@aexp,w
  5699  0DC4  1D03               	btfss	3,2
  5700  0DC5  2DC7               	goto	u2441
  5701  0DC6  2DC8               	goto	u2440
  5702  0DC7                     u2441:
  5703  0DC7  2DD0               	goto	l2283
  5704  0DC8                     u2440:
  5705  0DC8                     l2281:
  5706  0DC8  3000               	movlw	0
  5707  0DC9  00E0               	movwf	___fladd@a+3
  5708  0DCA  3000               	movlw	0
  5709  0DCB  00DF               	movwf	___fladd@a+2
  5710  0DCC  3000               	movlw	0
  5711  0DCD  00DE               	movwf	___fladd@a+1
  5712  0DCE  3000               	movlw	0
  5713  0DCF  00DD               	movwf	___fladd@a
  5714  0DD0                     l2283:
  5715  0DD0  17DF               	bsf	___fladd@a+2,7
  5716  0DD1                     l2285:
  5717  0DD1  01E0               	clrf	___fladd@a+3
  5718  0DD2  2DDB               	goto	l698
  5719  0DD3                     l2287:
  5720  0DD3  3000               	movlw	0
  5721  0DD4  00E0               	movwf	___fladd@a+3
  5722  0DD5  3000               	movlw	0
  5723  0DD6  00DF               	movwf	___fladd@a+2
  5724  0DD7  3000               	movlw	0
  5725  0DD8  00DE               	movwf	___fladd@a+1
  5726  0DD9  3000               	movlw	0
  5727  0DDA  00DD               	movwf	___fladd@a
  5728  0DDB                     l698:
  5729  0DDB  086B               	movf	___fladd@bexp,w
  5730  0DDC  026A               	subwf	___fladd@aexp,w
  5731  0DDD  1803               	skipnc
  5732  0DDE  2DE0               	goto	u2451
  5733  0DDF  2DE1               	goto	u2450
  5734  0DE0                     u2451:
  5735  0DE0  2E25               	goto	l2323
  5736  0DE1                     u2450:
  5737  0DE1                     l2289:
  5738  0DE1  1F69               	btfss	___fladd@signs,6
  5739  0DE2  2DE4               	goto	u2461
  5740  0DE3  2DE5               	goto	u2460
  5741  0DE4                     u2461:
  5742  0DE4  2DE9               	goto	l2293
  5743  0DE5                     u2460:
  5744  0DE5                     l2291:
  5745  0DE5  3080               	movlw	128
  5746  0DE6  00E1               	movwf	??___fladd
  5747  0DE7  0861               	movf	??___fladd,w
  5748  0DE8  06E9               	xorwf	___fladd@signs,f
  5749  0DE9                     l2293:
  5750  0DE9  086B               	movf	___fladd@bexp,w
  5751  0DEA  00E1               	movwf	??___fladd
  5752  0DEB  0861               	movf	??___fladd,w
  5753  0DEC  00EC               	movwf	___fladd@grs
  5754  0DED                     l2295:
  5755  0DED  086A               	movf	___fladd@aexp,w
  5756  0DEE  00E1               	movwf	??___fladd
  5757  0DEF  0861               	movf	??___fladd,w
  5758  0DF0  00EB               	movwf	___fladd@bexp
  5759  0DF1                     l2297:
  5760  0DF1  086C               	movf	___fladd@grs,w
  5761  0DF2  00E1               	movwf	??___fladd
  5762  0DF3  0861               	movf	??___fladd,w
  5763  0DF4  00EA               	movwf	___fladd@aexp
  5764  0DF5                     l2299:
  5765  0DF5  0859               	movf	___fladd@b,w
  5766  0DF6  00E1               	movwf	??___fladd
  5767  0DF7  0861               	movf	??___fladd,w
  5768  0DF8  00EC               	movwf	___fladd@grs
  5769  0DF9                     l2301:
  5770  0DF9  085D               	movf	___fladd@a,w
  5771  0DFA  00E1               	movwf	??___fladd
  5772  0DFB  0861               	movf	??___fladd,w
  5773  0DFC  00D9               	movwf	___fladd@b
  5774  0DFD                     l2303:
  5775  0DFD  086C               	movf	___fladd@grs,w
  5776  0DFE  00E1               	movwf	??___fladd
  5777  0DFF  0861               	movf	??___fladd,w
  5778  0E00  00DD               	movwf	___fladd@a
  5779  0E01                     l2305:
  5780  0E01  085A               	movf	___fladd@b+1,w
  5781  0E02  00E1               	movwf	??___fladd
  5782  0E03  0861               	movf	??___fladd,w
  5783  0E04  00EC               	movwf	___fladd@grs
  5784  0E05                     l2307:
  5785  0E05  085E               	movf	___fladd@a+1,w
  5786  0E06  00E1               	movwf	??___fladd
  5787  0E07  0861               	movf	??___fladd,w
  5788  0E08  00DA               	movwf	___fladd@b+1
  5789  0E09                     l2309:
  5790  0E09  086C               	movf	___fladd@grs,w
  5791  0E0A  00E1               	movwf	??___fladd
  5792  0E0B  0861               	movf	??___fladd,w
  5793  0E0C  00DE               	movwf	___fladd@a+1
  5794  0E0D                     l2311:
  5795  0E0D  085B               	movf	___fladd@b+2,w
  5796  0E0E  00E1               	movwf	??___fladd
  5797  0E0F  0861               	movf	??___fladd,w
  5798  0E10  00EC               	movwf	___fladd@grs
  5799  0E11                     l2313:
  5800  0E11  085F               	movf	___fladd@a+2,w
  5801  0E12  00E1               	movwf	??___fladd
  5802  0E13  0861               	movf	??___fladd,w
  5803  0E14  00DB               	movwf	___fladd@b+2
  5804  0E15                     l2315:
  5805  0E15  086C               	movf	___fladd@grs,w
  5806  0E16  00E1               	movwf	??___fladd
  5807  0E17  0861               	movf	??___fladd,w
  5808  0E18  00DF               	movwf	___fladd@a+2
  5809  0E19                     l2317:
  5810  0E19  085C               	movf	___fladd@b+3,w
  5811  0E1A  00E1               	movwf	??___fladd
  5812  0E1B  0861               	movf	??___fladd,w
  5813  0E1C  00EC               	movwf	___fladd@grs
  5814  0E1D                     l2319:
  5815  0E1D  0860               	movf	___fladd@a+3,w
  5816  0E1E  00E1               	movwf	??___fladd
  5817  0E1F  0861               	movf	??___fladd,w
  5818  0E20  00DC               	movwf	___fladd@b+3
  5819  0E21                     l2321:
  5820  0E21  086C               	movf	___fladd@grs,w
  5821  0E22  00E1               	movwf	??___fladd
  5822  0E23  0861               	movf	??___fladd,w
  5823  0E24  00E0               	movwf	___fladd@a+3
  5824  0E25                     l2323:
  5825  0E25  01EC               	clrf	___fladd@grs
  5826  0E26                     l2325:
  5827  0E26  086A               	movf	___fladd@aexp,w
  5828  0E27  00E1               	movwf	??___fladd
  5829  0E28  01E2               	clrf	??___fladd+1
  5830  0E29  0862               	movf	??___fladd+1,w
  5831  0E2A  00E4               	movwf	??___fladd+3
  5832  0E2B  086B               	movf	___fladd@bexp,w
  5833  0E2C  0261               	subwf	??___fladd,w
  5834  0E2D  00E3               	movwf	??___fladd+2
  5835  0E2E  1C03               	skipc
  5836  0E2F  03E4               	decf	??___fladd+3,f
  5837  0E30  0864               	movf	??___fladd+3,w
  5838  0E31  3A80               	xorlw	128
  5839  0E32  00FF               	movwf	btemp+1
  5840  0E33  3080               	movlw	128
  5841  0E34  027F               	subwf	btemp+1,w
  5842  0E35  1D03               	skipz
  5843  0E36  2E39               	goto	u2475
  5844  0E37  301A               	movlw	26
  5845  0E38  0263               	subwf	??___fladd+2,w
  5846  0E39                     u2475:
  5847  0E39  1C03               	skipc
  5848  0E3A  2E3C               	goto	u2471
  5849  0E3B  2E3D               	goto	u2470
  5850  0E3C                     u2471:
  5851  0E3C  2E7A               	goto	l2341
  5852  0E3D                     u2470:
  5853  0E3D                     l2327:
  5854  0E3D  1283               	bcf	3,5	;RP0=0, select bank0
  5855  0E3E  1303               	bcf	3,6	;RP1=0, select bank0
  5856  0E3F  085C               	movf	___fladd@b+3,w
  5857  0E40  045B               	iorwf	___fladd@b+2,w
  5858  0E41  045A               	iorwf	___fladd@b+1,w
  5859  0E42  0459               	iorwf	___fladd@b,w
  5860  0E43  1D03               	skipz
  5861  0E44  2E46               	goto	u2481
  5862  0E45  2E48               	goto	u2480
  5863  0E46                     u2481:
  5864  0E46  3001               	movlw	1
  5865  0E47  2E49               	goto	u2490
  5866  0E48                     u2480:
  5867  0E48  3000               	movlw	0
  5868  0E49                     u2490:
  5869  0E49  00E1               	movwf	??___fladd
  5870  0E4A  0861               	movf	??___fladd,w
  5871  0E4B  00EC               	movwf	___fladd@grs
  5872  0E4C  3000               	movlw	0
  5873  0E4D  00DC               	movwf	___fladd@b+3
  5874  0E4E  3000               	movlw	0
  5875  0E4F  00DB               	movwf	___fladd@b+2
  5876  0E50  3000               	movlw	0
  5877  0E51  00DA               	movwf	___fladd@b+1
  5878  0E52  3000               	movlw	0
  5879  0E53  00D9               	movwf	___fladd@b
  5880  0E54  086A               	movf	___fladd@aexp,w
  5881  0E55  00E1               	movwf	??___fladd
  5882  0E56  0861               	movf	??___fladd,w
  5883  0E57  00EB               	movwf	___fladd@bexp
  5884  0E58  2E82               	goto	l702
  5885  0E59                     l704:
  5886  0E59  1C6C               	btfss	___fladd@grs,0
  5887  0E5A  2E5C               	goto	u2501
  5888  0E5B  2E5D               	goto	u2500
  5889  0E5C                     u2501:
  5890  0E5C  2E66               	goto	l2331
  5891  0E5D                     u2500:
  5892  0E5D                     l2329:
  5893  0E5D  086C               	movf	___fladd@grs,w
  5894  0E5E  00E1               	movwf	??___fladd
  5895  0E5F  1003               	clrc
  5896  0E60  0C61               	rrf	??___fladd,w
  5897  0E61  3801               	iorlw	1
  5898  0E62  00E2               	movwf	??___fladd+1
  5899  0E63  0862               	movf	??___fladd+1,w
  5900  0E64  00EC               	movwf	___fladd@grs
  5901  0E65  2E68               	goto	l2333
  5902  0E66                     l2331:
  5903  0E66  1003               	clrc
  5904  0E67  0CEC               	rrf	___fladd@grs,f
  5905  0E68                     l2333:
  5906  0E68  1C59               	btfss	___fladd@b,0
  5907  0E69  2E6B               	goto	u2511
  5908  0E6A  2E6C               	goto	u2510
  5909  0E6B                     u2511:
  5910  0E6B  2E6D               	goto	l2337
  5911  0E6C                     u2510:
  5912  0E6C                     l2335:
  5913  0E6C  17EC               	bsf	___fladd@grs,7
  5914  0E6D                     l2337:
  5915  0E6D  3001               	movlw	1
  5916  0E6E  00E1               	movwf	??___fladd
  5917  0E6F                     u2525:
  5918  0E6F  0D5C               	rlf	___fladd@b+3,w
  5919  0E70  0CDC               	rrf	___fladd@b+3,f
  5920  0E71  0CDB               	rrf	___fladd@b+2,f
  5921  0E72  0CDA               	rrf	___fladd@b+1,f
  5922  0E73  0CD9               	rrf	___fladd@b,f
  5923  0E74  0BE1               	decfsz	??___fladd& (0+127),f
  5924  0E75  2E6F               	goto	u2525
  5925  0E76                     l2339:
  5926  0E76  3001               	movlw	1
  5927  0E77  00E1               	movwf	??___fladd
  5928  0E78  0861               	movf	??___fladd,w
  5929  0E79  07EB               	addwf	___fladd@bexp,f
  5930  0E7A                     l2341:
  5931  0E7A  1283               	bcf	3,5	;RP0=0, select bank0
  5932  0E7B  1303               	bcf	3,6	;RP1=0, select bank0
  5933  0E7C  086A               	movf	___fladd@aexp,w
  5934  0E7D  026B               	subwf	___fladd@bexp,w
  5935  0E7E  1C03               	skipc
  5936  0E7F  2E81               	goto	u2531
  5937  0E80  2E82               	goto	u2530
  5938  0E81                     u2531:
  5939  0E81  2E59               	goto	l704
  5940  0E82                     u2530:
  5941  0E82                     l702:
  5942  0E82  1B69               	btfsc	___fladd@signs,6
  5943  0E83  2E85               	goto	u2541
  5944  0E84  2E86               	goto	u2540
  5945  0E85                     u2541:
  5946  0E85  2ED1               	goto	l2367
  5947  0E86                     u2540:
  5948  0E86                     l2343:
  5949  0E86  086B               	movf	___fladd@bexp,w
  5950  0E87  1D03               	btfss	3,2
  5951  0E88  2E8A               	goto	u2551
  5952  0E89  2E8B               	goto	u2550
  5953  0E8A                     u2551:
  5954  0E8A  2E94               	goto	l2349
  5955  0E8B                     u2550:
  5956  0E8B                     l2345:
  5957  0E8B  3000               	movlw	0
  5958  0E8C  00DC               	movwf	?___fladd+3
  5959  0E8D  3000               	movlw	0
  5960  0E8E  00DB               	movwf	?___fladd+2
  5961  0E8F  3000               	movlw	0
  5962  0E90  00DA               	movwf	?___fladd+1
  5963  0E91  3000               	movlw	0
  5964  0E92  00D9               	movwf	?___fladd
  5965  0E93  2FFF               	goto	l711
  5966  0E94                     l2349:
  5967  0E94  085D               	movf	___fladd@a,w
  5968  0E95  07D9               	addwf	___fladd@b,f
  5969  0E96  085E               	movf	___fladd@a+1,w
  5970  0E97  1103               	clrz
  5971  0E98  1803               	skipnc
  5972  0E99  3E01               	addlw	1
  5973  0E9A  1903               	skipnz
  5974  0E9B  2E9D               	goto	u2561
  5975  0E9C  07DA               	addwf	___fladd@b+1,f
  5976  0E9D                     u2561:
  5977  0E9D  085F               	movf	___fladd@a+2,w
  5978  0E9E  1103               	clrz
  5979  0E9F  1803               	skipnc
  5980  0EA0  3E01               	addlw	1
  5981  0EA1  1903               	skipnz
  5982  0EA2  2EA4               	goto	u2562
  5983  0EA3  07DB               	addwf	___fladd@b+2,f
  5984  0EA4                     u2562:
  5985  0EA4  0860               	movf	___fladd@a+3,w
  5986  0EA5  1103               	clrz
  5987  0EA6  1803               	skipnc
  5988  0EA7  3E01               	addlw	1
  5989  0EA8  1903               	skipnz
  5990  0EA9  2EAB               	goto	u2563
  5991  0EAA  07DC               	addwf	___fladd@b+3,f
  5992  0EAB                     u2563:
  5993  0EAB                     l2351:
  5994  0EAB  1C5C               	btfss	___fladd@b+3,0
  5995  0EAC  2EAE               	goto	u2571
  5996  0EAD  2EAF               	goto	u2570
  5997  0EAE                     u2571:
  5998  0EAE  2F85               	goto	l2401
  5999  0EAF                     u2570:
  6000  0EAF                     l2353:
  6001  0EAF  1C6C               	btfss	___fladd@grs,0
  6002  0EB0  2EB2               	goto	u2581
  6003  0EB1  2EB3               	goto	u2580
  6004  0EB2                     u2581:
  6005  0EB2  2EBC               	goto	l2357
  6006  0EB3                     u2580:
  6007  0EB3                     l2355:
  6008  0EB3  086C               	movf	___fladd@grs,w
  6009  0EB4  00E1               	movwf	??___fladd
  6010  0EB5  1003               	clrc
  6011  0EB6  0C61               	rrf	??___fladd,w
  6012  0EB7  3801               	iorlw	1
  6013  0EB8  00E2               	movwf	??___fladd+1
  6014  0EB9  0862               	movf	??___fladd+1,w
  6015  0EBA  00EC               	movwf	___fladd@grs
  6016  0EBB  2EBE               	goto	l2359
  6017  0EBC                     l2357:
  6018  0EBC  1003               	clrc
  6019  0EBD  0CEC               	rrf	___fladd@grs,f
  6020  0EBE                     l2359:
  6021  0EBE  1C59               	btfss	___fladd@b,0
  6022  0EBF  2EC1               	goto	u2591
  6023  0EC0  2EC2               	goto	u2590
  6024  0EC1                     u2591:
  6025  0EC1  2EC3               	goto	l2363
  6026  0EC2                     u2590:
  6027  0EC2                     l2361:
  6028  0EC2  17EC               	bsf	___fladd@grs,7
  6029  0EC3                     l2363:
  6030  0EC3  3001               	movlw	1
  6031  0EC4  00E1               	movwf	??___fladd
  6032  0EC5                     u2605:
  6033  0EC5  0D5C               	rlf	___fladd@b+3,w
  6034  0EC6  0CDC               	rrf	___fladd@b+3,f
  6035  0EC7  0CDB               	rrf	___fladd@b+2,f
  6036  0EC8  0CDA               	rrf	___fladd@b+1,f
  6037  0EC9  0CD9               	rrf	___fladd@b,f
  6038  0ECA  0BE1               	decfsz	??___fladd& (0+127),f
  6039  0ECB  2EC5               	goto	u2605
  6040  0ECC                     l2365:
  6041  0ECC  3001               	movlw	1
  6042  0ECD  00E1               	movwf	??___fladd
  6043  0ECE  0861               	movf	??___fladd,w
  6044  0ECF  07EB               	addwf	___fladd@bexp,f
  6045  0ED0  2F85               	goto	l2401
  6046  0ED1                     l2367:
  6047  0ED1  085C               	movf	___fladd@b+3,w
  6048  0ED2  3A80               	xorlw	128
  6049  0ED3  00FF               	movwf	btemp+1
  6050  0ED4  0860               	movf	___fladd@a+3,w
  6051  0ED5  3A80               	xorlw	128
  6052  0ED6  027F               	subwf	btemp+1,w
  6053  0ED7  1D03               	skipz
  6054  0ED8  2EE3               	goto	u2613
  6055  0ED9  085F               	movf	___fladd@a+2,w
  6056  0EDA  025B               	subwf	___fladd@b+2,w
  6057  0EDB  1D03               	skipz
  6058  0EDC  2EE3               	goto	u2613
  6059  0EDD  085E               	movf	___fladd@a+1,w
  6060  0EDE  025A               	subwf	___fladd@b+1,w
  6061  0EDF  1D03               	skipz
  6062  0EE0  2EE3               	goto	u2613
  6063  0EE1  085D               	movf	___fladd@a,w
  6064  0EE2  0259               	subwf	___fladd@b,w
  6065  0EE3                     u2613:
  6066  0EE3  1803               	skipnc
  6067  0EE4  2EE6               	goto	u2611
  6068  0EE5  2EE7               	goto	u2610
  6069  0EE6                     u2611:
  6070  0EE6  2F3F               	goto	l2377
  6071  0EE7                     u2610:
  6072  0EE7                     l2369:
  6073  0EE7  30FF               	movlw	255
  6074  0EE8  00E1               	movwf	??___fladd
  6075  0EE9  30FF               	movlw	255
  6076  0EEA  00E2               	movwf	??___fladd+1
  6077  0EEB  30FF               	movlw	255
  6078  0EEC  00E3               	movwf	??___fladd+2
  6079  0EED  30FF               	movlw	255
  6080  0EEE  00E4               	movwf	??___fladd+3
  6081  0EEF  085D               	movf	___fladd@a,w
  6082  0EF0  00E5               	movwf	??___fladd+4
  6083  0EF1  085E               	movf	___fladd@a+1,w
  6084  0EF2  00E6               	movwf	??___fladd+5
  6085  0EF3  085F               	movf	___fladd@a+2,w
  6086  0EF4  00E7               	movwf	??___fladd+6
  6087  0EF5  0860               	movf	___fladd@a+3,w
  6088  0EF6  00E8               	movwf	??___fladd+7
  6089  0EF7  0859               	movf	___fladd@b,w
  6090  0EF8  02E5               	subwf	??___fladd+4,f
  6091  0EF9  085A               	movf	___fladd@b+1,w
  6092  0EFA  1C03               	skipc
  6093  0EFB  0F5A               	incfsz	___fladd@b+1,w
  6094  0EFC  2EFE               	goto	u2621
  6095  0EFD  2EFF               	goto	u2622
  6096  0EFE                     u2621:
  6097  0EFE  02E6               	subwf	??___fladd+5,f
  6098  0EFF                     u2622:
  6099  0EFF  085B               	movf	___fladd@b+2,w
  6100  0F00  1C03               	skipc
  6101  0F01  0F5B               	incfsz	___fladd@b+2,w
  6102  0F02  2F04               	goto	u2623
  6103  0F03  2F05               	goto	u2624
  6104  0F04                     u2623:
  6105  0F04  02E7               	subwf	??___fladd+6,f
  6106  0F05                     u2624:
  6107  0F05  085C               	movf	___fladd@b+3,w
  6108  0F06  1C03               	skipc
  6109  0F07  0F5C               	incfsz	___fladd@b+3,w
  6110  0F08  2F0A               	goto	u2625
  6111  0F09  2F0B               	goto	u2626
  6112  0F0A                     u2625:
  6113  0F0A  02E8               	subwf	??___fladd+7,f
  6114  0F0B                     u2626:
  6115  0F0B  0865               	movf	??___fladd+4,w
  6116  0F0C  07E1               	addwf	??___fladd,f
  6117  0F0D  0866               	movf	??___fladd+5,w
  6118  0F0E  1803               	skipnc
  6119  0F0F  0F66               	incfsz	??___fladd+5,w
  6120  0F10  2F12               	goto	u2630
  6121  0F11  2F13               	goto	u2631
  6122  0F12                     u2630:
  6123  0F12  07E2               	addwf	??___fladd+1,f
  6124  0F13                     u2631:
  6125  0F13  0867               	movf	??___fladd+6,w
  6126  0F14  1803               	skipnc
  6127  0F15  0F67               	incfsz	??___fladd+6,w
  6128  0F16  2F18               	goto	u2632
  6129  0F17  2F19               	goto	u2633
  6130  0F18                     u2632:
  6131  0F18  07E3               	addwf	??___fladd+2,f
  6132  0F19                     u2633:
  6133  0F19  0868               	movf	??___fladd+7,w
  6134  0F1A  1803               	skipnc
  6135  0F1B  0A68               	incf	??___fladd+7,w
  6136  0F1C  07E4               	addwf	??___fladd+3,f
  6137  0F1D  0864               	movf	??___fladd+3,w
  6138  0F1E  00DC               	movwf	___fladd@b+3
  6139  0F1F  0863               	movf	??___fladd+2,w
  6140  0F20  00DB               	movwf	___fladd@b+2
  6141  0F21  0862               	movf	??___fladd+1,w
  6142  0F22  00DA               	movwf	___fladd@b+1
  6143  0F23  0861               	movf	??___fladd,w
  6144  0F24  00D9               	movwf	___fladd@b
  6145  0F25                     l2371:
  6146  0F25  3080               	movlw	128
  6147  0F26  00E1               	movwf	??___fladd
  6148  0F27  0861               	movf	??___fladd,w
  6149  0F28  06E9               	xorwf	___fladd@signs,f
  6150  0F29  09EC               	comf	___fladd@grs,f
  6151  0F2A  0AEC               	incf	___fladd@grs,f
  6152  0F2B                     l2373:
  6153  0F2B  086C               	movf	___fladd@grs,w
  6154  0F2C  1D03               	btfss	3,2
  6155  0F2D  2F2F               	goto	u2641
  6156  0F2E  2F30               	goto	u2640
  6157  0F2F                     u2641:
  6158  0F2F  2F4D               	goto	l719
  6159  0F30                     u2640:
  6160  0F30                     l2375:
  6161  0F30  3001               	movlw	1
  6162  0F31  07D9               	addwf	___fladd@b,f
  6163  0F32  3000               	movlw	0
  6164  0F33  1803               	skipnc
  6165  0F34  3001               	movlw	1
  6166  0F35  07DA               	addwf	___fladd@b+1,f
  6167  0F36  3000               	movlw	0
  6168  0F37  1803               	skipnc
  6169  0F38  3001               	movlw	1
  6170  0F39  07DB               	addwf	___fladd@b+2,f
  6171  0F3A  3000               	movlw	0
  6172  0F3B  1803               	skipnc
  6173  0F3C  3001               	movlw	1
  6174  0F3D  07DC               	addwf	___fladd@b+3,f
  6175  0F3E  2F4D               	goto	l719
  6176  0F3F                     l2377:
  6177  0F3F  085D               	movf	___fladd@a,w
  6178  0F40  02D9               	subwf	___fladd@b,f
  6179  0F41  085E               	movf	___fladd@a+1,w
  6180  0F42  1C03               	skipc
  6181  0F43  0F5E               	incfsz	___fladd@a+1,w
  6182  0F44  02DA               	subwf	___fladd@b+1,f
  6183  0F45  085F               	movf	___fladd@a+2,w
  6184  0F46  1C03               	skipc
  6185  0F47  0F5F               	incfsz	___fladd@a+2,w
  6186  0F48  02DB               	subwf	___fladd@b+2,f
  6187  0F49  0860               	movf	___fladd@a+3,w
  6188  0F4A  1C03               	skipc
  6189  0F4B  0F60               	incfsz	___fladd@a+3,w
  6190  0F4C  02DC               	subwf	___fladd@b+3,f
  6191  0F4D                     l719:
  6192  0F4D  085C               	movf	___fladd@b+3,w
  6193  0F4E  045B               	iorwf	___fladd@b+2,w
  6194  0F4F  045A               	iorwf	___fladd@b+1,w
  6195  0F50  0459               	iorwf	___fladd@b,w
  6196  0F51  1D03               	skipz
  6197  0F52  2F54               	goto	u2651
  6198  0F53  2F55               	goto	u2650
  6199  0F54                     u2651:
  6200  0F54  2F81               	goto	l2399
  6201  0F55                     u2650:
  6202  0F55                     l2379:
  6203  0F55  086C               	movf	___fladd@grs,w
  6204  0F56  1D03               	btfss	3,2
  6205  0F57  2F59               	goto	u2661
  6206  0F58  2F5A               	goto	u2660
  6207  0F59                     u2661:
  6208  0F59  2F81               	goto	l2399
  6209  0F5A                     u2660:
  6210  0F5A                     l2381:
  6211  0F5A  3000               	movlw	0
  6212  0F5B  00DC               	movwf	?___fladd+3
  6213  0F5C  3000               	movlw	0
  6214  0F5D  00DB               	movwf	?___fladd+2
  6215  0F5E  3000               	movlw	0
  6216  0F5F  00DA               	movwf	?___fladd+1
  6217  0F60  3000               	movlw	0
  6218  0F61  00D9               	movwf	?___fladd
  6219  0F62  2FFF               	goto	l711
  6220  0F63                     l2385:
  6221  0F63  3001               	movlw	1
  6222  0F64  00E1               	movwf	??___fladd
  6223  0F65                     u2675:
  6224  0F65  1003               	clrc
  6225  0F66  0DD9               	rlf	___fladd@b,f
  6226  0F67  0DDA               	rlf	___fladd@b+1,f
  6227  0F68  0DDB               	rlf	___fladd@b+2,f
  6228  0F69  0DDC               	rlf	___fladd@b+3,f
  6229  0F6A  0BE1               	decfsz	??___fladd,f
  6230  0F6B  2F65               	goto	u2675
  6231  0F6C                     l2387:
  6232  0F6C  1FEC               	btfss	___fladd@grs,7
  6233  0F6D  2F6F               	goto	u2681
  6234  0F6E  2F70               	goto	u2680
  6235  0F6F                     u2681:
  6236  0F6F  2F71               	goto	l723
  6237  0F70                     u2680:
  6238  0F70                     l2389:
  6239  0F70  1459               	bsf	___fladd@b,0
  6240  0F71                     l723:
  6241  0F71  1C6C               	btfss	___fladd@grs,0
  6242  0F72  2F74               	goto	u2691
  6243  0F73  2F75               	goto	u2690
  6244  0F74                     u2691:
  6245  0F74  2F78               	goto	l2393
  6246  0F75                     u2690:
  6247  0F75                     l2391:
  6248  0F75  1403               	setc
  6249  0F76  0DEC               	rlf	___fladd@grs,f
  6250  0F77  2F7A               	goto	l2395
  6251  0F78                     l2393:
  6252  0F78  1003               	clrc
  6253  0F79  0DEC               	rlf	___fladd@grs,f
  6254  0F7A                     l2395:
  6255  0F7A  086B               	movf	___fladd@bexp,w
  6256  0F7B  1903               	btfsc	3,2
  6257  0F7C  2F7E               	goto	u2701
  6258  0F7D  2F7F               	goto	u2700
  6259  0F7E                     u2701:
  6260  0F7E  2F81               	goto	l2399
  6261  0F7F                     u2700:
  6262  0F7F                     l2397:
  6263  0F7F  3001               	movlw	1
  6264  0F80  02EB               	subwf	___fladd@bexp,f
  6265  0F81                     l2399:
  6266  0F81  1FDB               	btfss	___fladd@b+2,7
  6267  0F82  2F84               	goto	u2711
  6268  0F83  2F85               	goto	u2710
  6269  0F84                     u2711:
  6270  0F84  2F63               	goto	l2385
  6271  0F85                     u2710:
  6272  0F85                     l2401:
  6273  0F85  01EA               	clrf	___fladd@aexp
  6274  0F86                     l2403:
  6275  0F86  1FEC               	btfss	___fladd@grs,7
  6276  0F87  2F89               	goto	u2721
  6277  0F88  2F8A               	goto	u2720
  6278  0F89                     u2721:
  6279  0F89  2F98               	goto	l2411
  6280  0F8A                     u2720:
  6281  0F8A                     l2405:
  6282  0F8A  086C               	movf	___fladd@grs,w
  6283  0F8B  397F               	andlw	127
  6284  0F8C  1903               	btfsc	3,2
  6285  0F8D  2F8F               	goto	u2731
  6286  0F8E  2F90               	goto	u2730
  6287  0F8F                     u2731:
  6288  0F8F  2F93               	goto	l729
  6289  0F90                     u2730:
  6290  0F90                     l2407:
  6291  0F90  01EA               	clrf	___fladd@aexp
  6292  0F91  0AEA               	incf	___fladd@aexp,f
  6293  0F92  2F98               	goto	l2411
  6294  0F93                     l729:
  6295  0F93  1C59               	btfss	___fladd@b,0
  6296  0F94  2F96               	goto	u2741
  6297  0F95  2F97               	goto	u2740
  6298  0F96                     u2741:
  6299  0F96  2F98               	goto	l2411
  6300  0F97                     u2740:
  6301  0F97  2F90               	goto	l2407
  6302  0F98                     l2411:
  6303  0F98  086A               	movf	___fladd@aexp,w
  6304  0F99  1903               	btfsc	3,2
  6305  0F9A  2F9C               	goto	u2751
  6306  0F9B  2F9D               	goto	u2750
  6307  0F9C                     u2751:
  6308  0F9C  2FD1               	goto	l732
  6309  0F9D                     u2750:
  6310  0F9D                     l2413:
  6311  0F9D  3001               	movlw	1
  6312  0F9E  07D9               	addwf	___fladd@b,f
  6313  0F9F  3000               	movlw	0
  6314  0FA0  1803               	skipnc
  6315  0FA1  3001               	movlw	1
  6316  0FA2  07DA               	addwf	___fladd@b+1,f
  6317  0FA3  3000               	movlw	0
  6318  0FA4  1803               	skipnc
  6319  0FA5  3001               	movlw	1
  6320  0FA6  07DB               	addwf	___fladd@b+2,f
  6321  0FA7  3000               	movlw	0
  6322  0FA8  1803               	skipnc
  6323  0FA9  3001               	movlw	1
  6324  0FAA  07DC               	addwf	___fladd@b+3,f
  6325  0FAB                     l2415:
  6326  0FAB  1C5C               	btfss	___fladd@b+3,0
  6327  0FAC  2FAE               	goto	u2761
  6328  0FAD  2FAF               	goto	u2760
  6329  0FAE                     u2761:
  6330  0FAE  2FD1               	goto	l732
  6331  0FAF                     u2760:
  6332  0FAF                     l2417:
  6333  0FAF  0859               	movf	___fladd@b,w
  6334  0FB0  00E1               	movwf	??___fladd
  6335  0FB1  085A               	movf	___fladd@b+1,w
  6336  0FB2  00E2               	movwf	??___fladd+1
  6337  0FB3  085B               	movf	___fladd@b+2,w
  6338  0FB4  00E3               	movwf	??___fladd+2
  6339  0FB5  085C               	movf	___fladd@b+3,w
  6340  0FB6  00E4               	movwf	??___fladd+3
  6341  0FB7  3001               	movlw	1
  6342  0FB8  00E5               	movwf	??___fladd+4
  6343  0FB9                     u2775:
  6344  0FB9  0D64               	rlf	??___fladd+3,w
  6345  0FBA  0CE4               	rrf	??___fladd+3,f
  6346  0FBB  0CE3               	rrf	??___fladd+2,f
  6347  0FBC  0CE2               	rrf	??___fladd+1,f
  6348  0FBD  0CE1               	rrf	??___fladd,f
  6349  0FBE                     u2770:
  6350  0FBE  0BE5               	decfsz	??___fladd+4,f
  6351  0FBF  2FB9               	goto	u2775
  6352  0FC0  0864               	movf	??___fladd+3,w
  6353  0FC1  00DC               	movwf	___fladd@b+3
  6354  0FC2  0863               	movf	??___fladd+2,w
  6355  0FC3  00DB               	movwf	___fladd@b+2
  6356  0FC4  0862               	movf	??___fladd+1,w
  6357  0FC5  00DA               	movwf	___fladd@b+1
  6358  0FC6  0861               	movf	??___fladd,w
  6359  0FC7  00D9               	movwf	___fladd@b
  6360  0FC8  0A6B               	incf	___fladd@bexp,w
  6361  0FC9  1903               	btfsc	3,2
  6362  0FCA  2FCC               	goto	u2781
  6363  0FCB  2FCD               	goto	u2780
  6364  0FCC                     u2781:
  6365  0FCC  2FD1               	goto	l732
  6366  0FCD                     u2780:
  6367  0FCD                     l2419:
  6368  0FCD  3001               	movlw	1
  6369  0FCE  00E1               	movwf	??___fladd
  6370  0FCF  0861               	movf	??___fladd,w
  6371  0FD0  07EB               	addwf	___fladd@bexp,f
  6372  0FD1                     l732:
  6373  0FD1  0A6B               	incf	___fladd@bexp,w
  6374  0FD2  1903               	btfsc	3,2
  6375  0FD3  2FD5               	goto	u2791
  6376  0FD4  2FD6               	goto	u2790
  6377  0FD5                     u2791:
  6378  0FD5  2FDB               	goto	l2423
  6379  0FD6                     u2790:
  6380  0FD6                     l2421:
  6381  0FD6  086B               	movf	___fladd@bexp,w
  6382  0FD7  1D03               	btfss	3,2
  6383  0FD8  2FDA               	goto	u2801
  6384  0FD9  2FDB               	goto	u2800
  6385  0FDA                     u2801:
  6386  0FDA  2FE9               	goto	l2429
  6387  0FDB                     u2800:
  6388  0FDB                     l2423:
  6389  0FDB  3000               	movlw	0
  6390  0FDC  00DC               	movwf	___fladd@b+3
  6391  0FDD  3000               	movlw	0
  6392  0FDE  00DB               	movwf	___fladd@b+2
  6393  0FDF  3000               	movlw	0
  6394  0FE0  00DA               	movwf	___fladd@b+1
  6395  0FE1  3000               	movlw	0
  6396  0FE2  00D9               	movwf	___fladd@b
  6397  0FE3                     l2425:
  6398  0FE3  086B               	movf	___fladd@bexp,w
  6399  0FE4  1D03               	btfss	3,2
  6400  0FE5  2FE7               	goto	u2811
  6401  0FE6  2FE8               	goto	u2810
  6402  0FE7                     u2811:
  6403  0FE7  2FE9               	goto	l2429
  6404  0FE8                     u2810:
  6405  0FE8                     l2427:
  6406  0FE8  01E9               	clrf	___fladd@signs
  6407  0FE9                     l2429:
  6408  0FE9  1C6B               	btfss	___fladd@bexp,0
  6409  0FEA  2FEC               	goto	u2821
  6410  0FEB  2FED               	goto	u2820
  6411  0FEC                     u2821:
  6412  0FEC  2FEF               	goto	l2433
  6413  0FED                     u2820:
  6414  0FED                     l2431:
  6415  0FED  17DB               	bsf	___fladd@b+2,7
  6416  0FEE  2FF3               	goto	l740
  6417  0FEF                     l2433:
  6418  0FEF  307F               	movlw	127
  6419  0FF0  00E1               	movwf	??___fladd
  6420  0FF1  0861               	movf	??___fladd,w
  6421  0FF2  05DB               	andwf	___fladd@b+2,f
  6422  0FF3                     l740:
  6423  0FF3  086B               	movf	___fladd@bexp,w
  6424  0FF4  00E1               	movwf	??___fladd
  6425  0FF5  1003               	clrc
  6426  0FF6  0C61               	rrf	??___fladd,w
  6427  0FF7  00E2               	movwf	??___fladd+1
  6428  0FF8  0862               	movf	??___fladd+1,w
  6429  0FF9  00DC               	movwf	___fladd@b+3
  6430  0FFA                     l2435:
  6431  0FFA  1FE9               	btfss	___fladd@signs,7
  6432  0FFB  2FFD               	goto	u2831
  6433  0FFC  2FFE               	goto	u2830
  6434  0FFD                     u2831:
  6435  0FFD  2FFF               	goto	l741
  6436  0FFE                     u2830:
  6437  0FFE                     l2437:
  6438  0FFE  17DC               	bsf	___fladd@b+3,7
  6439  0FFF                     l741:
  6440  0FFF                     l711:
  6441  0FFF  0008               	return
  6442  1000                     __end_of___fladd:
  6443                           
  6444                           	psect	text15
  6445  0B9B                     __ptext15:	
  6446 ;; *************** function ___fldiv *****************
  6447 ;; Defined at:
  6448 ;;		line 8 in file "C:\Program Files\Microchip\xc8\v2.36\pic\sources\c90\common\sprcdiv.c"
  6449 ;; Parameters:    Size  Location     Type
  6450 ;;  a               4   31[BANK0 ] unsigned char 
  6451 ;;  b               4   35[BANK0 ] unsigned char 
  6452 ;; Auto vars:     Size  Location     Type
  6453 ;;  grs             4   51[BANK0 ] unsigned long 
  6454 ;;  rem             4   44[BANK0 ] unsigned long 
  6455 ;;  new_exp         2   49[BANK0 ] int 
  6456 ;;  aexp            1   56[BANK0 ] unsigned char 
  6457 ;;  bexp            1   55[BANK0 ] unsigned char 
  6458 ;;  sign            1   48[BANK0 ] unsigned char 
  6459 ;; Return value:  Size  Location     Type
  6460 ;;                  4   31[BANK0 ] unsigned char 
  6461 ;; Registers used:
  6462 ;;		wreg, status,2, status,0, btemp+1
  6463 ;; Tracked objects:
  6464 ;;		On entry : 0/0
  6465 ;;		On exit  : 0/0
  6466 ;;		Unchanged: 0/0
  6467 ;; Data sizes:     COMMON   BANK0   BANK1   BANK3   BANK2
  6468 ;;      Params:         0       8       0       0       0
  6469 ;;      Locals:         0      13       0       0       0
  6470 ;;      Temps:          0       5       0       0       0
  6471 ;;      Totals:         0      26       0       0       0
  6472 ;;Total ram usage:       26 bytes
  6473 ;; Hardware stack levels used: 1
  6474 ;; This function calls:
  6475 ;;		Nothing
  6476 ;; This function is called by:
  6477 ;;		_main
  6478 ;; This function uses a non-reentrant model
  6479 ;;
  6480                           
  6481  0B9B                     ___fldiv:	
  6482                           ;psect for function ___fldiv
  6483                           
  6484  0B9B                     l2909:	
  6485                           ;incstack = 0
  6486                           ; Regs used in ___fldiv: [wreg+status,2+status,0+btemp+1]
  6487                           
  6488  0B9B  1283               	bcf	3,5	;RP0=0, select bank0
  6489  0B9C  1303               	bcf	3,6	;RP1=0, select bank0
  6490  0B9D  0846               	movf	___fldiv@b+3,w
  6491  0B9E  3980               	andlw	128
  6492  0B9F  00C7               	movwf	??___fldiv
  6493  0BA0  0847               	movf	??___fldiv,w
  6494  0BA1  00D0               	movwf	___fldiv@sign
  6495  0BA2                     l2911:
  6496  0BA2  0846               	movf	___fldiv@b+3,w
  6497  0BA3  00C7               	movwf	??___fldiv
  6498  0BA4  0747               	addwf	??___fldiv,w
  6499  0BA5  00C8               	movwf	??___fldiv+1
  6500  0BA6  0848               	movf	??___fldiv+1,w
  6501  0BA7  00D7               	movwf	___fldiv@bexp
  6502  0BA8                     l2913:
  6503  0BA8  1FC5               	btfss	___fldiv@b+2,7
  6504  0BA9  2BAB               	goto	u3811
  6505  0BAA  2BAC               	goto	u3810
  6506  0BAB                     u3811:
  6507  0BAB  2BAD               	goto	l2917
  6508  0BAC                     u3810:
  6509  0BAC                     l2915:
  6510  0BAC  1457               	bsf	___fldiv@bexp,0
  6511  0BAD                     l2917:
  6512  0BAD  0857               	movf	___fldiv@bexp,w
  6513  0BAE  1903               	btfsc	3,2
  6514  0BAF  2BB1               	goto	u3821
  6515  0BB0  2BB2               	goto	u3820
  6516  0BB1                     u3821:
  6517  0BB1  2BC2               	goto	l2927
  6518  0BB2                     u3820:
  6519  0BB2                     l2919:
  6520  0BB2  0A57               	incf	___fldiv@bexp,w
  6521  0BB3  1D03               	btfss	3,2
  6522  0BB4  2BB6               	goto	u3831
  6523  0BB5  2BB7               	goto	u3830
  6524  0BB6                     u3831:
  6525  0BB6  2BBF               	goto	l2923
  6526  0BB7                     u3830:
  6527  0BB7                     l2921:
  6528  0BB7  3000               	movlw	0
  6529  0BB8  00C6               	movwf	___fldiv@b+3
  6530  0BB9  3000               	movlw	0
  6531  0BBA  00C5               	movwf	___fldiv@b+2
  6532  0BBB  3000               	movlw	0
  6533  0BBC  00C4               	movwf	___fldiv@b+1
  6534  0BBD  3000               	movlw	0
  6535  0BBE  00C3               	movwf	___fldiv@b
  6536  0BBF                     l2923:
  6537  0BBF  17C5               	bsf	___fldiv@b+2,7
  6538  0BC0                     l2925:
  6539  0BC0  01C6               	clrf	___fldiv@b+3
  6540  0BC1  2BCA               	goto	l2929
  6541  0BC2                     l2927:
  6542  0BC2  3000               	movlw	0
  6543  0BC3  00C6               	movwf	___fldiv@b+3
  6544  0BC4  3000               	movlw	0
  6545  0BC5  00C5               	movwf	___fldiv@b+2
  6546  0BC6  3000               	movlw	0
  6547  0BC7  00C4               	movwf	___fldiv@b+1
  6548  0BC8  3000               	movlw	0
  6549  0BC9  00C3               	movwf	___fldiv@b
  6550  0BCA                     l2929:
  6551  0BCA  0842               	movf	___fldiv@a+3,w
  6552  0BCB  3980               	andlw	128
  6553  0BCC  00C7               	movwf	??___fldiv
  6554  0BCD  0847               	movf	??___fldiv,w
  6555  0BCE  06D0               	xorwf	___fldiv@sign,f
  6556  0BCF                     l2931:
  6557  0BCF  0842               	movf	___fldiv@a+3,w
  6558  0BD0  00C7               	movwf	??___fldiv
  6559  0BD1  0747               	addwf	??___fldiv,w
  6560  0BD2  00C8               	movwf	??___fldiv+1
  6561  0BD3  0848               	movf	??___fldiv+1,w
  6562  0BD4  00D8               	movwf	___fldiv@aexp
  6563  0BD5                     l2933:
  6564  0BD5  1FC1               	btfss	___fldiv@a+2,7
  6565  0BD6  2BD8               	goto	u3841
  6566  0BD7  2BD9               	goto	u3840
  6567  0BD8                     u3841:
  6568  0BD8  2BDA               	goto	l2937
  6569  0BD9                     u3840:
  6570  0BD9                     l2935:
  6571  0BD9  1458               	bsf	___fldiv@aexp,0
  6572  0BDA                     l2937:
  6573  0BDA  0858               	movf	___fldiv@aexp,w
  6574  0BDB  1903               	btfsc	3,2
  6575  0BDC  2BDE               	goto	u3851
  6576  0BDD  2BDF               	goto	u3850
  6577  0BDE                     u3851:
  6578  0BDE  2BEF               	goto	l2947
  6579  0BDF                     u3850:
  6580  0BDF                     l2939:
  6581  0BDF  0A58               	incf	___fldiv@aexp,w
  6582  0BE0  1D03               	btfss	3,2
  6583  0BE1  2BE3               	goto	u3861
  6584  0BE2  2BE4               	goto	u3860
  6585  0BE3                     u3861:
  6586  0BE3  2BEC               	goto	l2943
  6587  0BE4                     u3860:
  6588  0BE4                     l2941:
  6589  0BE4  3000               	movlw	0
  6590  0BE5  00C2               	movwf	___fldiv@a+3
  6591  0BE6  3000               	movlw	0
  6592  0BE7  00C1               	movwf	___fldiv@a+2
  6593  0BE8  3000               	movlw	0
  6594  0BE9  00C0               	movwf	___fldiv@a+1
  6595  0BEA  3000               	movlw	0
  6596  0BEB  00BF               	movwf	___fldiv@a
  6597  0BEC                     l2943:
  6598  0BEC  17C1               	bsf	___fldiv@a+2,7
  6599  0BED                     l2945:
  6600  0BED  01C2               	clrf	___fldiv@a+3
  6601  0BEE  2BF7               	goto	l754
  6602  0BEF                     l2947:
  6603  0BEF  3000               	movlw	0
  6604  0BF0  00C2               	movwf	___fldiv@a+3
  6605  0BF1  3000               	movlw	0
  6606  0BF2  00C1               	movwf	___fldiv@a+2
  6607  0BF3  3000               	movlw	0
  6608  0BF4  00C0               	movwf	___fldiv@a+1
  6609  0BF5  3000               	movlw	0
  6610  0BF6  00BF               	movwf	___fldiv@a
  6611  0BF7                     l754:
  6612  0BF7  0842               	movf	___fldiv@a+3,w
  6613  0BF8  0441               	iorwf	___fldiv@a+2,w
  6614  0BF9  0440               	iorwf	___fldiv@a+1,w
  6615  0BFA  043F               	iorwf	___fldiv@a,w
  6616  0BFB  1D03               	skipz
  6617  0BFC  2BFE               	goto	u3871
  6618  0BFD  2BFF               	goto	u3870
  6619  0BFE                     u3871:
  6620  0BFE  2C18               	goto	l2957
  6621  0BFF                     u3870:
  6622  0BFF                     l2949:
  6623  0BFF  3000               	movlw	0
  6624  0C00  00C6               	movwf	___fldiv@b+3
  6625  0C01  3000               	movlw	0
  6626  0C02  00C5               	movwf	___fldiv@b+2
  6627  0C03  3000               	movlw	0
  6628  0C04  00C4               	movwf	___fldiv@b+1
  6629  0C05  3000               	movlw	0
  6630  0C06  00C3               	movwf	___fldiv@b
  6631  0C07  3080               	movlw	128
  6632  0C08  04C5               	iorwf	___fldiv@b+2,f
  6633  0C09  307F               	movlw	127
  6634  0C0A  04C6               	iorwf	___fldiv@b+3,f
  6635  0C0B                     l2951:
  6636  0C0B  0850               	movf	___fldiv@sign,w
  6637  0C0C  00C7               	movwf	??___fldiv
  6638  0C0D  0847               	movf	??___fldiv,w
  6639  0C0E  04C6               	iorwf	___fldiv@b+3,f
  6640  0C0F                     l2953:
  6641  0C0F  0846               	movf	___fldiv@b+3,w
  6642  0C10  00C2               	movwf	?___fldiv+3
  6643  0C11  0845               	movf	___fldiv@b+2,w
  6644  0C12  00C1               	movwf	?___fldiv+2
  6645  0C13  0844               	movf	___fldiv@b+1,w
  6646  0C14  00C0               	movwf	?___fldiv+1
  6647  0C15  0843               	movf	___fldiv@b,w
  6648  0C16  00BF               	movwf	?___fldiv
  6649  0C17  2D77               	goto	l756
  6650  0C18                     l2957:
  6651  0C18  0857               	movf	___fldiv@bexp,w
  6652  0C19  1D03               	btfss	3,2
  6653  0C1A  2C1C               	goto	u3881
  6654  0C1B  2C1D               	goto	u3880
  6655  0C1C                     u3881:
  6656  0C1C  2C26               	goto	l2963
  6657  0C1D                     u3880:
  6658  0C1D                     l2959:
  6659  0C1D  3000               	movlw	0
  6660  0C1E  00C2               	movwf	?___fldiv+3
  6661  0C1F  3000               	movlw	0
  6662  0C20  00C1               	movwf	?___fldiv+2
  6663  0C21  3000               	movlw	0
  6664  0C22  00C0               	movwf	?___fldiv+1
  6665  0C23  3000               	movlw	0
  6666  0C24  00BF               	movwf	?___fldiv
  6667  0C25  2D77               	goto	l756
  6668  0C26                     l2963:
  6669  0C26  0857               	movf	___fldiv@bexp,w
  6670  0C27  00C7               	movwf	??___fldiv
  6671  0C28  01C8               	clrf	??___fldiv+1
  6672  0C29  0848               	movf	??___fldiv+1,w
  6673  0C2A  00CA               	movwf	??___fldiv+3
  6674  0C2B  0858               	movf	___fldiv@aexp,w
  6675  0C2C  0247               	subwf	??___fldiv,w
  6676  0C2D  00C9               	movwf	??___fldiv+2
  6677  0C2E  1C03               	skipc
  6678  0C2F  03CA               	decf	??___fldiv+3,f
  6679  0C30  0849               	movf	??___fldiv+2,w
  6680  0C31  3E7F               	addlw	127
  6681  0C32  00D1               	movwf	___fldiv@new_exp
  6682  0C33  084A               	movf	??___fldiv+3,w
  6683  0C34  1803               	skipnc
  6684  0C35  3E01               	addlw	1
  6685  0C36  3E00               	addlw	0
  6686  0C37  00D2               	movwf	___fldiv@new_exp+1
  6687  0C38                     l2965:
  6688  0C38  0846               	movf	___fldiv@b+3,w
  6689  0C39  00CF               	movwf	___fldiv@rem+3
  6690  0C3A  0845               	movf	___fldiv@b+2,w
  6691  0C3B  00CE               	movwf	___fldiv@rem+2
  6692  0C3C  0844               	movf	___fldiv@b+1,w
  6693  0C3D  00CD               	movwf	___fldiv@rem+1
  6694  0C3E  0843               	movf	___fldiv@b,w
  6695  0C3F  00CC               	movwf	___fldiv@rem
  6696  0C40                     l2967:
  6697  0C40  3000               	movlw	0
  6698  0C41  00C6               	movwf	___fldiv@b+3
  6699  0C42  3000               	movlw	0
  6700  0C43  00C5               	movwf	___fldiv@b+2
  6701  0C44  3000               	movlw	0
  6702  0C45  00C4               	movwf	___fldiv@b+1
  6703  0C46  3000               	movlw	0
  6704  0C47  00C3               	movwf	___fldiv@b
  6705  0C48                     l2969:
  6706  0C48  3000               	movlw	0
  6707  0C49  00D6               	movwf	___fldiv@grs+3
  6708  0C4A  3000               	movlw	0
  6709  0C4B  00D5               	movwf	___fldiv@grs+2
  6710  0C4C  3000               	movlw	0
  6711  0C4D  00D4               	movwf	___fldiv@grs+1
  6712  0C4E  3000               	movlw	0
  6713  0C4F  00D3               	movwf	___fldiv@grs
  6714  0C50                     l2971:
  6715  0C50  01D8               	clrf	___fldiv@aexp
  6716  0C51  2C9C               	goto	l2991
  6717  0C52                     l2973:
  6718  0C52  0858               	movf	___fldiv@aexp,w
  6719  0C53  1903               	btfsc	3,2
  6720  0C54  2C56               	goto	u3891
  6721  0C55  2C57               	goto	u3890
  6722  0C56                     u3891:
  6723  0C56  2C77               	goto	l2983
  6724  0C57                     u3890:
  6725  0C57                     l2975:
  6726  0C57  3001               	movlw	1
  6727  0C58  00C7               	movwf	??___fldiv
  6728  0C59                     u3905:
  6729  0C59  1003               	clrc
  6730  0C5A  0DCC               	rlf	___fldiv@rem,f
  6731  0C5B  0DCD               	rlf	___fldiv@rem+1,f
  6732  0C5C  0DCE               	rlf	___fldiv@rem+2,f
  6733  0C5D  0DCF               	rlf	___fldiv@rem+3,f
  6734  0C5E  0BC7               	decfsz	??___fldiv,f
  6735  0C5F  2C59               	goto	u3905
  6736  0C60  3001               	movlw	1
  6737  0C61  00C7               	movwf	??___fldiv
  6738  0C62                     u3915:
  6739  0C62  1003               	clrc
  6740  0C63  0DC3               	rlf	___fldiv@b,f
  6741  0C64  0DC4               	rlf	___fldiv@b+1,f
  6742  0C65  0DC5               	rlf	___fldiv@b+2,f
  6743  0C66  0DC6               	rlf	___fldiv@b+3,f
  6744  0C67  0BC7               	decfsz	??___fldiv,f
  6745  0C68  2C62               	goto	u3915
  6746  0C69                     l2977:
  6747  0C69  1FD6               	btfss	___fldiv@grs+3,7
  6748  0C6A  2C6C               	goto	u3921
  6749  0C6B  2C6D               	goto	u3920
  6750  0C6C                     u3921:
  6751  0C6C  2C6E               	goto	l2981
  6752  0C6D                     u3920:
  6753  0C6D                     l2979:
  6754  0C6D  1443               	bsf	___fldiv@b,0
  6755  0C6E                     l2981:
  6756  0C6E  3001               	movlw	1
  6757  0C6F  00C7               	movwf	??___fldiv
  6758  0C70                     u3935:
  6759  0C70  1003               	clrc
  6760  0C71  0DD3               	rlf	___fldiv@grs,f
  6761  0C72  0DD4               	rlf	___fldiv@grs+1,f
  6762  0C73  0DD5               	rlf	___fldiv@grs+2,f
  6763  0C74  0DD6               	rlf	___fldiv@grs+3,f
  6764  0C75  0BC7               	decfsz	??___fldiv,f
  6765  0C76  2C70               	goto	u3935
  6766  0C77                     l2983:
  6767  0C77  0842               	movf	___fldiv@a+3,w
  6768  0C78  024F               	subwf	___fldiv@rem+3,w
  6769  0C79  1D03               	skipz
  6770  0C7A  2C85               	goto	u3945
  6771  0C7B  0841               	movf	___fldiv@a+2,w
  6772  0C7C  024E               	subwf	___fldiv@rem+2,w
  6773  0C7D  1D03               	skipz
  6774  0C7E  2C85               	goto	u3945
  6775  0C7F  0840               	movf	___fldiv@a+1,w
  6776  0C80  024D               	subwf	___fldiv@rem+1,w
  6777  0C81  1D03               	skipz
  6778  0C82  2C85               	goto	u3945
  6779  0C83  083F               	movf	___fldiv@a,w
  6780  0C84  024C               	subwf	___fldiv@rem,w
  6781  0C85                     u3945:
  6782  0C85  1C03               	skipc
  6783  0C86  2C88               	goto	u3941
  6784  0C87  2C89               	goto	u3940
  6785  0C88                     u3941:
  6786  0C88  2C98               	goto	l2989
  6787  0C89                     u3940:
  6788  0C89                     l2985:
  6789  0C89  1756               	bsf	___fldiv@grs+3,6
  6790  0C8A                     l2987:
  6791  0C8A  083F               	movf	___fldiv@a,w
  6792  0C8B  02CC               	subwf	___fldiv@rem,f
  6793  0C8C  0840               	movf	___fldiv@a+1,w
  6794  0C8D  1C03               	skipc
  6795  0C8E  0F40               	incfsz	___fldiv@a+1,w
  6796  0C8F  02CD               	subwf	___fldiv@rem+1,f
  6797  0C90  0841               	movf	___fldiv@a+2,w
  6798  0C91  1C03               	skipc
  6799  0C92  0F41               	incfsz	___fldiv@a+2,w
  6800  0C93  02CE               	subwf	___fldiv@rem+2,f
  6801  0C94  0842               	movf	___fldiv@a+3,w
  6802  0C95  1C03               	skipc
  6803  0C96  0F42               	incfsz	___fldiv@a+3,w
  6804  0C97  02CF               	subwf	___fldiv@rem+3,f
  6805  0C98                     l2989:
  6806  0C98  3001               	movlw	1
  6807  0C99  00C7               	movwf	??___fldiv
  6808  0C9A  0847               	movf	??___fldiv,w
  6809  0C9B  07D8               	addwf	___fldiv@aexp,f
  6810  0C9C                     l2991:
  6811  0C9C  301A               	movlw	26
  6812  0C9D  0258               	subwf	___fldiv@aexp,w
  6813  0C9E  1C03               	skipc
  6814  0C9F  2CA1               	goto	u3951
  6815  0CA0  2CA2               	goto	u3950
  6816  0CA1                     u3951:
  6817  0CA1  2C52               	goto	l2973
  6818  0CA2                     u3950:
  6819  0CA2                     l2993:
  6820  0CA2  084F               	movf	___fldiv@rem+3,w
  6821  0CA3  044E               	iorwf	___fldiv@rem+2,w
  6822  0CA4  044D               	iorwf	___fldiv@rem+1,w
  6823  0CA5  044C               	iorwf	___fldiv@rem,w
  6824  0CA6  1903               	skipnz
  6825  0CA7  2CA9               	goto	u3961
  6826  0CA8  2CAA               	goto	u3960
  6827  0CA9                     u3961:
  6828  0CA9  2CC9               	goto	l3007
  6829  0CAA                     u3960:
  6830  0CAA                     l2995:
  6831  0CAA  1453               	bsf	___fldiv@grs,0
  6832  0CAB  2CC9               	goto	l3007
  6833  0CAC                     l2997:
  6834  0CAC  3001               	movlw	1
  6835  0CAD  00C7               	movwf	??___fldiv
  6836  0CAE                     u3975:
  6837  0CAE  1003               	clrc
  6838  0CAF  0DC3               	rlf	___fldiv@b,f
  6839  0CB0  0DC4               	rlf	___fldiv@b+1,f
  6840  0CB1  0DC5               	rlf	___fldiv@b+2,f
  6841  0CB2  0DC6               	rlf	___fldiv@b+3,f
  6842  0CB3  0BC7               	decfsz	??___fldiv,f
  6843  0CB4  2CAE               	goto	u3975
  6844  0CB5                     l2999:
  6845  0CB5  1FD6               	btfss	___fldiv@grs+3,7
  6846  0CB6  2CB8               	goto	u3981
  6847  0CB7  2CB9               	goto	u3980
  6848  0CB8                     u3981:
  6849  0CB8  2CBA               	goto	l3003
  6850  0CB9                     u3980:
  6851  0CB9                     l3001:
  6852  0CB9  1443               	bsf	___fldiv@b,0
  6853  0CBA                     l3003:
  6854  0CBA  3001               	movlw	1
  6855  0CBB  00C7               	movwf	??___fldiv
  6856  0CBC                     u3995:
  6857  0CBC  1003               	clrc
  6858  0CBD  0DD3               	rlf	___fldiv@grs,f
  6859  0CBE  0DD4               	rlf	___fldiv@grs+1,f
  6860  0CBF  0DD5               	rlf	___fldiv@grs+2,f
  6861  0CC0  0DD6               	rlf	___fldiv@grs+3,f
  6862  0CC1  0BC7               	decfsz	??___fldiv,f
  6863  0CC2  2CBC               	goto	u3995
  6864  0CC3                     l3005:
  6865  0CC3  30FF               	movlw	255
  6866  0CC4  07D1               	addwf	___fldiv@new_exp,f
  6867  0CC5  1803               	skipnc
  6868  0CC6  0AD2               	incf	___fldiv@new_exp+1,f
  6869  0CC7  30FF               	movlw	255
  6870  0CC8  07D2               	addwf	___fldiv@new_exp+1,f
  6871  0CC9                     l3007:
  6872  0CC9  1FC5               	btfss	___fldiv@b+2,7
  6873  0CCA  2CCC               	goto	u4001
  6874  0CCB  2CCD               	goto	u4000
  6875  0CCC                     u4001:
  6876  0CCC  2CAC               	goto	l2997
  6877  0CCD                     u4000:
  6878  0CCD                     l3009:
  6879  0CCD  01D8               	clrf	___fldiv@aexp
  6880  0CCE                     l3011:
  6881  0CCE  1FD6               	btfss	___fldiv@grs+3,7
  6882  0CCF  2CD1               	goto	u4011
  6883  0CD0  2CD2               	goto	u4010
  6884  0CD1                     u4011:
  6885  0CD1  2CEE               	goto	l3019
  6886  0CD2                     u4010:
  6887  0CD2                     l3013:
  6888  0CD2  30FF               	movlw	255
  6889  0CD3  0553               	andwf	___fldiv@grs,w
  6890  0CD4  00C7               	movwf	??___fldiv
  6891  0CD5  30FF               	movlw	255
  6892  0CD6  0554               	andwf	___fldiv@grs+1,w
  6893  0CD7  00C8               	movwf	??___fldiv+1
  6894  0CD8  30FF               	movlw	255
  6895  0CD9  0555               	andwf	___fldiv@grs+2,w
  6896  0CDA  00C9               	movwf	??___fldiv+2
  6897  0CDB  307F               	movlw	127
  6898  0CDC  0556               	andwf	___fldiv@grs+3,w
  6899  0CDD  00CA               	movwf	??___fldiv+3
  6900  0CDE  084A               	movf	??___fldiv+3,w
  6901  0CDF  0449               	iorwf	??___fldiv+2,w
  6902  0CE0  0448               	iorwf	??___fldiv+1,w
  6903  0CE1  0447               	iorwf	??___fldiv,w
  6904  0CE2  1903               	skipnz
  6905  0CE3  2CE5               	goto	u4021
  6906  0CE4  2CE6               	goto	u4020
  6907  0CE5                     u4021:
  6908  0CE5  2CE9               	goto	l770
  6909  0CE6                     u4020:
  6910  0CE6                     l3015:
  6911  0CE6  01D8               	clrf	___fldiv@aexp
  6912  0CE7  0AD8               	incf	___fldiv@aexp,f
  6913  0CE8  2CEE               	goto	l3019
  6914  0CE9                     l770:
  6915  0CE9  1C43               	btfss	___fldiv@b,0
  6916  0CEA  2CEC               	goto	u4031
  6917  0CEB  2CED               	goto	u4030
  6918  0CEC                     u4031:
  6919  0CEC  2CEE               	goto	l3019
  6920  0CED                     u4030:
  6921  0CED  2CE6               	goto	l3015
  6922  0CEE                     l3019:
  6923  0CEE  0858               	movf	___fldiv@aexp,w
  6924  0CEF  1903               	btfsc	3,2
  6925  0CF0  2CF2               	goto	u4041
  6926  0CF1  2CF3               	goto	u4040
  6927  0CF2                     u4041:
  6928  0CF2  2D24               	goto	l3029
  6929  0CF3                     u4040:
  6930  0CF3                     l3021:
  6931  0CF3  3001               	movlw	1
  6932  0CF4  07C3               	addwf	___fldiv@b,f
  6933  0CF5  3000               	movlw	0
  6934  0CF6  1803               	skipnc
  6935  0CF7  3001               	movlw	1
  6936  0CF8  07C4               	addwf	___fldiv@b+1,f
  6937  0CF9  3000               	movlw	0
  6938  0CFA  1803               	skipnc
  6939  0CFB  3001               	movlw	1
  6940  0CFC  07C5               	addwf	___fldiv@b+2,f
  6941  0CFD  3000               	movlw	0
  6942  0CFE  1803               	skipnc
  6943  0CFF  3001               	movlw	1
  6944  0D00  07C6               	addwf	___fldiv@b+3,f
  6945  0D01                     l3023:
  6946  0D01  1C46               	btfss	___fldiv@b+3,0
  6947  0D02  2D04               	goto	u4051
  6948  0D03  2D05               	goto	u4050
  6949  0D04                     u4051:
  6950  0D04  2D24               	goto	l3029
  6951  0D05                     u4050:
  6952  0D05                     l3025:
  6953  0D05  0843               	movf	___fldiv@b,w
  6954  0D06  00C7               	movwf	??___fldiv
  6955  0D07  0844               	movf	___fldiv@b+1,w
  6956  0D08  00C8               	movwf	??___fldiv+1
  6957  0D09  0845               	movf	___fldiv@b+2,w
  6958  0D0A  00C9               	movwf	??___fldiv+2
  6959  0D0B  0846               	movf	___fldiv@b+3,w
  6960  0D0C  00CA               	movwf	??___fldiv+3
  6961  0D0D  3001               	movlw	1
  6962  0D0E  00CB               	movwf	??___fldiv+4
  6963  0D0F                     u4065:
  6964  0D0F  0D4A               	rlf	??___fldiv+3,w
  6965  0D10  0CCA               	rrf	??___fldiv+3,f
  6966  0D11  0CC9               	rrf	??___fldiv+2,f
  6967  0D12  0CC8               	rrf	??___fldiv+1,f
  6968  0D13  0CC7               	rrf	??___fldiv,f
  6969  0D14                     u4060:
  6970  0D14  0BCB               	decfsz	??___fldiv+4,f
  6971  0D15  2D0F               	goto	u4065
  6972  0D16  084A               	movf	??___fldiv+3,w
  6973  0D17  00C6               	movwf	___fldiv@b+3
  6974  0D18  0849               	movf	??___fldiv+2,w
  6975  0D19  00C5               	movwf	___fldiv@b+2
  6976  0D1A  0848               	movf	??___fldiv+1,w
  6977  0D1B  00C4               	movwf	___fldiv@b+1
  6978  0D1C  0847               	movf	??___fldiv,w
  6979  0D1D  00C3               	movwf	___fldiv@b
  6980  0D1E                     l3027:
  6981  0D1E  3001               	movlw	1
  6982  0D1F  07D1               	addwf	___fldiv@new_exp,f
  6983  0D20  1803               	skipnc
  6984  0D21  0AD2               	incf	___fldiv@new_exp+1,f
  6985  0D22  3000               	movlw	0
  6986  0D23  07D2               	addwf	___fldiv@new_exp+1,f
  6987  0D24                     l3029:
  6988  0D24  0852               	movf	___fldiv@new_exp+1,w
  6989  0D25  3A80               	xorlw	128
  6990  0D26  00FF               	movwf	btemp+1
  6991  0D27  3080               	movlw	128
  6992  0D28  027F               	subwf	btemp+1,w
  6993  0D29  1D03               	skipz
  6994  0D2A  2D2D               	goto	u4075
  6995  0D2B  30FF               	movlw	255
  6996  0D2C  0251               	subwf	___fldiv@new_exp,w
  6997  0D2D                     u4075:
  6998  0D2D  1C03               	skipc
  6999  0D2E  2D30               	goto	u4071
  7000  0D2F  2D31               	goto	u4070
  7001  0D30                     u4071:
  7002  0D30  2D3F               	goto	l3033
  7003  0D31                     u4070:
  7004  0D31                     l3031:
  7005  0D31  30FF               	movlw	255
  7006  0D32  1283               	bcf	3,5	;RP0=0, select bank0
  7007  0D33  1303               	bcf	3,6	;RP1=0, select bank0
  7008  0D34  00D1               	movwf	___fldiv@new_exp
  7009  0D35  3000               	movlw	0
  7010  0D36  00D2               	movwf	___fldiv@new_exp+1
  7011  0D37  3000               	movlw	0
  7012  0D38  00C6               	movwf	___fldiv@b+3
  7013  0D39  3000               	movlw	0
  7014  0D3A  00C5               	movwf	___fldiv@b+2
  7015  0D3B  3000               	movlw	0
  7016  0D3C  00C4               	movwf	___fldiv@b+1
  7017  0D3D  3000               	movlw	0
  7018  0D3E  00C3               	movwf	___fldiv@b
  7019  0D3F                     l3033:
  7020  0D3F  1283               	bcf	3,5	;RP0=0, select bank0
  7021  0D40  1303               	bcf	3,6	;RP1=0, select bank0
  7022  0D41  0852               	movf	___fldiv@new_exp+1,w
  7023  0D42  3A80               	xorlw	128
  7024  0D43  00FF               	movwf	btemp+1
  7025  0D44  3080               	movlw	128
  7026  0D45  027F               	subwf	btemp+1,w
  7027  0D46  1D03               	skipz
  7028  0D47  2D4A               	goto	u4085
  7029  0D48  3001               	movlw	1
  7030  0D49  0251               	subwf	___fldiv@new_exp,w
  7031  0D4A                     u4085:
  7032  0D4A  1803               	skipnc
  7033  0D4B  2D4D               	goto	u4081
  7034  0D4C  2D4E               	goto	u4080
  7035  0D4D                     u4081:
  7036  0D4D  2D5B               	goto	l776
  7037  0D4E                     u4080:
  7038  0D4E                     l3035:
  7039  0D4E  1283               	bcf	3,5	;RP0=0, select bank0
  7040  0D4F  1303               	bcf	3,6	;RP1=0, select bank0
  7041  0D50  01D1               	clrf	___fldiv@new_exp
  7042  0D51  01D2               	clrf	___fldiv@new_exp+1
  7043  0D52                     l3037:
  7044  0D52  3000               	movlw	0
  7045  0D53  00C6               	movwf	___fldiv@b+3
  7046  0D54  3000               	movlw	0
  7047  0D55  00C5               	movwf	___fldiv@b+2
  7048  0D56  3000               	movlw	0
  7049  0D57  00C4               	movwf	___fldiv@b+1
  7050  0D58  3000               	movlw	0
  7051  0D59  00C3               	movwf	___fldiv@b
  7052  0D5A                     l3039:
  7053  0D5A  01D0               	clrf	___fldiv@sign
  7054  0D5B                     l776:
  7055  0D5B  1283               	bcf	3,5	;RP0=0, select bank0
  7056  0D5C  1303               	bcf	3,6	;RP1=0, select bank0
  7057  0D5D  0851               	movf	___fldiv@new_exp,w
  7058  0D5E  00C7               	movwf	??___fldiv
  7059  0D5F  0847               	movf	??___fldiv,w
  7060  0D60  00D7               	movwf	___fldiv@bexp
  7061  0D61                     l3041:
  7062  0D61  1C57               	btfss	___fldiv@bexp,0
  7063  0D62  2D64               	goto	u4091
  7064  0D63  2D65               	goto	u4090
  7065  0D64                     u4091:
  7066  0D64  2D67               	goto	l3045
  7067  0D65                     u4090:
  7068  0D65                     l3043:
  7069  0D65  17C5               	bsf	___fldiv@b+2,7
  7070  0D66  2D6B               	goto	l778
  7071  0D67                     l3045:
  7072  0D67  307F               	movlw	127
  7073  0D68  00C7               	movwf	??___fldiv
  7074  0D69  0847               	movf	??___fldiv,w
  7075  0D6A  05C5               	andwf	___fldiv@b+2,f
  7076  0D6B                     l778:
  7077  0D6B  0857               	movf	___fldiv@bexp,w
  7078  0D6C  00C7               	movwf	??___fldiv
  7079  0D6D  1003               	clrc
  7080  0D6E  0C47               	rrf	??___fldiv,w
  7081  0D6F  00C8               	movwf	??___fldiv+1
  7082  0D70  0848               	movf	??___fldiv+1,w
  7083  0D71  00C6               	movwf	___fldiv@b+3
  7084  0D72  0850               	movf	___fldiv@sign,w
  7085  0D73  00C7               	movwf	??___fldiv
  7086  0D74  0847               	movf	??___fldiv,w
  7087  0D75  04C6               	iorwf	___fldiv@b+3,f
  7088  0D76  2C0F               	goto	l2953
  7089  0D77                     l756:
  7090  0D77  0008               	return
  7091  0D78                     __end_of___fldiv:
  7092                           
  7093                           	psect	text16
  7094  160A                     __ptext16:	
  7095 ;; *************** function _LCD_String_xy *****************
  7096 ;; Defined at:
  7097 ;;		line 113 in file "LCD.c"
  7098 ;; Parameters:    Size  Location     Type
  7099 ;;  row             1    wreg     unsigned char 
  7100 ;;  pos             1    5[COMMON] unsigned char 
  7101 ;;  msg             1    6[COMMON] PTR const unsigned char 
  7102 ;;		 -> STR_6(14), STR_5(14), STR_4(15), STR_2(13), 
  7103 ;; Auto vars:     Size  Location     Type
  7104 ;;  row             1    8[COMMON] unsigned char 
  7105 ;;  location        1    9[COMMON] unsigned char 
  7106 ;; Return value:  Size  Location     Type
  7107 ;;                  1    wreg      void 
  7108 ;; Registers used:
  7109 ;;		wreg, fsr0l, fsr0h, status,2, status,0, btemp+1, pclath, cstack
  7110 ;; Tracked objects:
  7111 ;;		On entry : 0/0
  7112 ;;		On exit  : 0/0
  7113 ;;		Unchanged: 0/0
  7114 ;; Data sizes:     COMMON   BANK0   BANK1   BANK3   BANK2
  7115 ;;      Params:         2       0       0       0       0
  7116 ;;      Locals:         2       0       0       0       0
  7117 ;;      Temps:          1       0       0       0       0
  7118 ;;      Totals:         5       0       0       0       0
  7119 ;;Total ram usage:        5 bytes
  7120 ;; Hardware stack levels used: 1
  7121 ;; Hardware stack levels required when called: 2
  7122 ;; This function calls:
  7123 ;;		_LCD_Command
  7124 ;;		_LCD_String
  7125 ;; This function is called by:
  7126 ;;		_main
  7127 ;; This function uses a non-reentrant model
  7128 ;;
  7129                           
  7130  160A                     _LCD_String_xy:	
  7131                           ;psect for function _LCD_String_xy
  7132                           
  7133                           
  7134                           ;incstack = 0
  7135                           ; Regs used in _LCD_String_xy: [wreg-fsr0h+status,2+status,0+btemp+1+pclath+cstack]
  7136                           ;LCD_String_xy@row stored from wreg
  7137  160A  00F8               	movwf	LCD_String_xy@row
  7138  160B                     l2853:
  7139  160B                     l2855:
  7140                           
  7141                           ;LCD.c: 116:     if(row<=1)
  7142  160B  3002               	movlw	2
  7143  160C  0278               	subwf	LCD_String_xy@row,w
  7144  160D  1803               	skipnc
  7145  160E  2E10               	goto	u3701
  7146  160F  2E11               	goto	u3700
  7147  1610                     u3701:
  7148  1610  2E1E               	goto	l2861
  7149  1611                     u3700:
  7150  1611                     l2857:
  7151                           
  7152                           ;LCD.c: 117:     {;LCD.c: 118:         location=(0x80) | ((pos) & 0x0f);
  7153  1611  0875               	movf	LCD_String_xy@pos,w
  7154  1612  390F               	andlw	15
  7155  1613  3880               	iorlw	128
  7156  1614  00F7               	movwf	??_LCD_String_xy
  7157  1615  0877               	movf	??_LCD_String_xy,w
  7158  1616  00F9               	movwf	LCD_String_xy@location
  7159  1617                     l2859:
  7160                           
  7161                           ;LCD.c: 119:         LCD_Command(location);
  7162  1617  0879               	movf	LCD_String_xy@location,w
  7163  1618  160A  118A  2636  160A  118A  	fcall	_LCD_Command
  7164                           
  7165                           ;LCD.c: 120:     }
  7166  161D  2E2A               	goto	l2865
  7167  161E                     l2861:
  7168                           
  7169                           ;LCD.c: 122:     {;LCD.c: 123:         location=(0xC0) | ((pos) & 0x0f);
  7170  161E  0875               	movf	LCD_String_xy@pos,w
  7171  161F  390F               	andlw	15
  7172  1620  38C0               	iorlw	192
  7173  1621  00F7               	movwf	??_LCD_String_xy
  7174  1622  0877               	movf	??_LCD_String_xy,w
  7175  1623  00F9               	movwf	LCD_String_xy@location
  7176  1624                     l2863:
  7177                           
  7178                           ;LCD.c: 124:         LCD_Command(location);
  7179  1624  0879               	movf	LCD_String_xy@location,w
  7180  1625  160A  118A  2636  160A  118A  	fcall	_LCD_Command
  7181  162A                     l2865:
  7182                           
  7183                           ;LCD.c: 128:     LCD_String(msg);
  7184  162A  0876               	movf	LCD_String_xy@msg,w
  7185  162B  00F3               	movwf	LCD_String@msg
  7186  162C  3000               	movlw	0
  7187  162D  1D03               	btfss	3,2
  7188  162E  3080               	movlw	128
  7189  162F  00F4               	movwf	LCD_String@msg+1
  7190  1630  160A  118A  2593  160A  118A  	fcall	_LCD_String
  7191  1635                     l287:
  7192  1635  0008               	return
  7193  1636                     __end_of_LCD_String_xy:
  7194                           
  7195                           	psect	text17
  7196  1593                     __ptext17:	
  7197 ;; *************** function _LCD_String *****************
  7198 ;; Defined at:
  7199 ;;		line 103 in file "LCD.c"
  7200 ;; Parameters:    Size  Location     Type
  7201 ;;  msg             2    3[COMMON] PTR const unsigned char 
  7202 ;;		 -> STR_6(14), STR_5(14), STR_4(15), STR_3(3), 
  7203 ;;		 -> STR_2(13), main@Temperature(10), 
  7204 ;; Auto vars:     Size  Location     Type
  7205 ;;		None
  7206 ;; Return value:  Size  Location     Type
  7207 ;;                  1    wreg      void 
  7208 ;; Registers used:
  7209 ;;		wreg, fsr0l, fsr0h, status,2, status,0, btemp+1, pclath, cstack
  7210 ;; Tracked objects:
  7211 ;;		On entry : 0/0
  7212 ;;		On exit  : 0/0
  7213 ;;		Unchanged: 0/0
  7214 ;; Data sizes:     COMMON   BANK0   BANK1   BANK3   BANK2
  7215 ;;      Params:         2       0       0       0       0
  7216 ;;      Locals:         0       0       0       0       0
  7217 ;;      Temps:          0       0       0       0       0
  7218 ;;      Totals:         2       0       0       0       0
  7219 ;;Total ram usage:        2 bytes
  7220 ;; Hardware stack levels used: 1
  7221 ;; Hardware stack levels required when called: 1
  7222 ;; This function calls:
  7223 ;;		_LCD_Char
  7224 ;; This function is called by:
  7225 ;;		_main
  7226 ;;		_LCD_String_xy
  7227 ;; This function uses a non-reentrant model
  7228 ;;
  7229                           
  7230  1593                     _LCD_String:	
  7231                           ;psect for function _LCD_String
  7232                           
  7233  1593                     l2579:	
  7234                           ;incstack = 0
  7235                           ; Regs used in _LCD_String: [wreg-fsr0h+status,2+status,0+btemp+1+pclath+cstack]
  7236                           
  7237                           
  7238                           ;LCD.c: 103: void LCD_String(const char *msg);LCD.c: 104: {;LCD.c: 105:  while((*msg)!=0
      +                          )
  7239  1593  2DA8               	goto	l2585
  7240  1594                     l2581:
  7241                           
  7242                           ;LCD.c: 106:  {;LCD.c: 107:    LCD_Char(*msg);
  7243  1594  0874               	movf	LCD_String@msg+1,w
  7244  1595  00FF               	movwf	btemp+1
  7245  1596  0873               	movf	LCD_String@msg,w
  7246  1597  0084               	movwf	4
  7247  1598  160A  118A  2000  160A  118A  	fcall	stringtab
  7248  159D  160A  118A  266C  160A  118A  	fcall	_LCD_Char
  7249  15A2                     l2583:
  7250                           
  7251                           ;LCD.c: 108:    msg++;
  7252  15A2  3001               	movlw	1
  7253  15A3  07F3               	addwf	LCD_String@msg,f
  7254  15A4  1803               	skipnc
  7255  15A5  0AF4               	incf	LCD_String@msg+1,f
  7256  15A6  3000               	movlw	0
  7257  15A7  07F4               	addwf	LCD_String@msg+1,f
  7258  15A8                     l2585:
  7259                           
  7260                           ;LCD.c: 105:  while((*msg)!=0)
  7261  15A8  0874               	movf	LCD_String@msg+1,w
  7262  15A9  1283               	bcf	3,5	;RP0=0, select bank0
  7263  15AA  1303               	bcf	3,6	;RP1=0, select bank0
  7264  15AB  00FF               	movwf	btemp+1
  7265  15AC  0873               	movf	LCD_String@msg,w
  7266  15AD  0084               	movwf	4
  7267  15AE  160A  118A  2000  160A  118A  	fcall	stringtab
  7268  15B3  3A00               	xorlw	0
  7269  15B4  1D03               	skipz
  7270  15B5  2DB7               	goto	u3211
  7271  15B6  2DB8               	goto	u3210
  7272  15B7                     u3211:
  7273  15B7  2D94               	goto	l2581
  7274  15B8                     u3210:
  7275  15B8                     l282:
  7276  15B8  0008               	return
  7277  15B9                     __end_of_LCD_String:
  7278                           
  7279                           	psect	text18
  7280  166C                     __ptext18:	
  7281 ;; *************** function _LCD_Char *****************
  7282 ;; Defined at:
  7283 ;;		line 88 in file "LCD.c"
  7284 ;; Parameters:    Size  Location     Type
  7285 ;;  dat             1    wreg     unsigned char 
  7286 ;; Auto vars:     Size  Location     Type
  7287 ;;  dat             1    2[COMMON] unsigned char 
  7288 ;; Return value:  Size  Location     Type
  7289 ;;                  1    wreg      void 
  7290 ;; Registers used:
  7291 ;;		wreg, status,2, status,0
  7292 ;; Tracked objects:
  7293 ;;		On entry : 0/0
  7294 ;;		On exit  : 0/0
  7295 ;;		Unchanged: 0/0
  7296 ;; Data sizes:     COMMON   BANK0   BANK1   BANK3   BANK2
  7297 ;;      Params:         0       0       0       0       0
  7298 ;;      Locals:         1       0       0       0       0
  7299 ;;      Temps:          2       0       0       0       0
  7300 ;;      Totals:         3       0       0       0       0
  7301 ;;Total ram usage:        3 bytes
  7302 ;; Hardware stack levels used: 1
  7303 ;; This function calls:
  7304 ;;		Nothing
  7305 ;; This function is called by:
  7306 ;;		_LCD_String
  7307 ;; This function uses a non-reentrant model
  7308 ;;
  7309                           
  7310  166C                     _LCD_Char:	
  7311                           ;psect for function _LCD_Char
  7312                           
  7313                           
  7314                           ;incstack = 0
  7315                           ; Regs used in _LCD_Char: [wreg+status,2+status,0]
  7316                           ;LCD_Char@dat stored from wreg
  7317  166C  00F2               	movwf	LCD_Char@dat
  7318  166D                     l2213:
  7319                           
  7320                           ;LCD.c: 88: void LCD_Char(unsigned char dat);LCD.c: 89: {;LCD.c: 90:  PORTD = (PORTD & 0
      +                          x0f) | (0xF0 & dat);
  7321  166D  30F0               	movlw	240
  7322  166E  0572               	andwf	LCD_Char@dat,w
  7323  166F  00F0               	movwf	??_LCD_Char
  7324  1670  1283               	bcf	3,5	;RP0=0, select bank0
  7325  1671  1303               	bcf	3,6	;RP1=0, select bank0
  7326  1672  0808               	movf	8,w	;volatile
  7327  1673  390F               	andlw	15
  7328  1674  0470               	iorwf	??_LCD_Char,w
  7329  1675  0088               	movwf	8	;volatile
  7330  1676                     l2215:
  7331                           
  7332                           ;LCD.c: 91:  PORTDbits.RD0 = 1;
  7333  1676  1408               	bsf	8,0	;volatile
  7334  1677                     l2217:
  7335                           
  7336                           ;LCD.c: 92:  PORTDbits.RD1 = 1;
  7337  1677  1488               	bsf	8,1	;volatile
  7338  1678                     l2219:
  7339                           
  7340                           ;LCD.c: 93:  __nop();
  7341  1678  0000               	nop
  7342  1679                     l2221:
  7343                           
  7344                           ;LCD.c: 94:  PORTDbits.RD1 = 0;
  7345  1679  1283               	bcf	3,5	;RP0=0, select bank0
  7346  167A  1303               	bcf	3,6	;RP1=0, select bank0
  7347  167B  1088               	bcf	8,1	;volatile
  7348  167C                     l2223:
  7349                           
  7350                           ;LCD.c: 95:  _delay((unsigned long)((1)*(8000000/4000.0)));
  7351  167C  3003               	movlw	3
  7352  167D  00F1               	movwf	??_LCD_Char+1
  7353  167E  3097               	movlw	151
  7354  167F  00F0               	movwf	??_LCD_Char
  7355  1680                     u4627:
  7356  1680  0BF0               	decfsz	??_LCD_Char,f
  7357  1681  2E80               	goto	u4627
  7358  1682  0BF1               	decfsz	??_LCD_Char+1,f
  7359  1683  2E80               	goto	u4627
  7360  1684  2E85               	nop2
  7361  1685                     l2225:
  7362                           
  7363                           ;LCD.c: 96:     PORTD = (unsigned char)((PORTD & 0x0f) | (dat<<4));
  7364  1685  0872               	movf	LCD_Char@dat,w
  7365  1686  00F0               	movwf	??_LCD_Char
  7366  1687  3004               	movlw	4
  7367  1688                     u2345:
  7368  1688  1003               	clrc
  7369  1689  0DF0               	rlf	??_LCD_Char,f
  7370  168A  3EFF               	addlw	-1
  7371  168B  1D03               	skipz
  7372  168C  2E88               	goto	u2345
  7373  168D  1283               	bcf	3,5	;RP0=0, select bank0
  7374  168E  1303               	bcf	3,6	;RP1=0, select bank0
  7375  168F  0808               	movf	8,w	;volatile
  7376  1690  390F               	andlw	15
  7377  1691  0470               	iorwf	??_LCD_Char,w
  7378  1692  0088               	movwf	8	;volatile
  7379  1693                     l2227:
  7380                           
  7381                           ;LCD.c: 97:  PORTDbits.RD1 = 1;
  7382  1693  1488               	bsf	8,1	;volatile
  7383  1694                     l2229:
  7384                           
  7385                           ;LCD.c: 98:  __nop();
  7386  1694  0000               	nop
  7387  1695                     l2231:
  7388                           
  7389                           ;LCD.c: 99:  PORTDbits.RD1 = 0;
  7390  1695  1283               	bcf	3,5	;RP0=0, select bank0
  7391  1696  1303               	bcf	3,6	;RP1=0, select bank0
  7392  1697  1088               	bcf	8,1	;volatile
  7393                           
  7394                           ;LCD.c: 100:  _delay((unsigned long)((3)*(8000000/4000.0)));
  7395  1698  3008               	movlw	8
  7396  1699  00F1               	movwf	??_LCD_Char+1
  7397  169A  30C9               	movlw	201
  7398  169B  00F0               	movwf	??_LCD_Char
  7399  169C                     u4637:
  7400  169C  0BF0               	decfsz	??_LCD_Char,f
  7401  169D  2E9C               	goto	u4637
  7402  169E  0BF1               	decfsz	??_LCD_Char+1,f
  7403  169F  2E9C               	goto	u4637
  7404  16A0  2EA1               	nop2
  7405  16A1                     l276:
  7406  16A1  0008               	return
  7407  16A2                     __end_of_LCD_Char:
  7408                           
  7409                           	psect	text19
  7410  15E0                     __ptext19:	
  7411 ;; *************** function _LCD_Init *****************
  7412 ;; Defined at:
  7413 ;;		line 35 in file "LCD.c"
  7414 ;; Parameters:    Size  Location     Type
  7415 ;;		None
  7416 ;; Auto vars:     Size  Location     Type
  7417 ;;		None
  7418 ;; Return value:  Size  Location     Type
  7419 ;;                  1    wreg      void 
  7420 ;; Registers used:
  7421 ;;		wreg, status,2, status,0, pclath, cstack
  7422 ;; Tracked objects:
  7423 ;;		On entry : 0/0
  7424 ;;		On exit  : 0/0
  7425 ;;		Unchanged: 0/0
  7426 ;; Data sizes:     COMMON   BANK0   BANK1   BANK3   BANK2
  7427 ;;      Params:         0       0       0       0       0
  7428 ;;      Locals:         0       0       0       0       0
  7429 ;;      Temps:          2       0       0       0       0
  7430 ;;      Totals:         2       0       0       0       0
  7431 ;;Total ram usage:        2 bytes
  7432 ;; Hardware stack levels used: 1
  7433 ;; Hardware stack levels required when called: 1
  7434 ;; This function calls:
  7435 ;;		_LCD_Command
  7436 ;; This function is called by:
  7437 ;;		_main
  7438 ;; This function uses a non-reentrant model
  7439 ;;
  7440                           
  7441  15E0                     _LCD_Init:	
  7442                           ;psect for function _LCD_Init
  7443                           
  7444  15E0                     l2749:	
  7445                           ;incstack = 0
  7446                           ; Regs used in _LCD_Init: [wreg+status,2+status,0+pclath+cstack]
  7447                           
  7448                           
  7449                           ;LCD.c: 37:     TRISD = 0;
  7450  15E0  1683               	bsf	3,5	;RP0=1, select bank1
  7451  15E1  1303               	bcf	3,6	;RP1=0, select bank1
  7452  15E2  0188               	clrf	8	;volatile
  7453  15E3                     l2751:
  7454                           
  7455                           ;LCD.c: 38:     _delay((unsigned long)((15)*(8000000/4000.0)));
  7456  15E3  3027               	movlw	39
  7457  15E4  00F4               	movwf	??_LCD_Init+1
  7458  15E5  30F5               	movlw	245
  7459  15E6  00F3               	movwf	??_LCD_Init
  7460  15E7                     u4647:
  7461  15E7  0BF3               	decfsz	??_LCD_Init,f
  7462  15E8  2DE7               	goto	u4647
  7463  15E9  0BF4               	decfsz	??_LCD_Init+1,f
  7464  15EA  2DE7               	goto	u4647
  7465  15EB                     l2753:
  7466                           
  7467                           ;LCD.c: 39:     LCD_Command(0x02);
  7468  15EB  3002               	movlw	2
  7469  15EC  160A  118A  2636  160A  118A  	fcall	_LCD_Command
  7470  15F1                     l2755:
  7471                           
  7472                           ;LCD.c: 40:     LCD_Command(0x28);
  7473  15F1  3028               	movlw	40
  7474  15F2  160A  118A  2636  160A  118A  	fcall	_LCD_Command
  7475  15F7                     l2757:
  7476                           
  7477                           ;LCD.c: 41:     LCD_Command(0x01);
  7478  15F7  3001               	movlw	1
  7479  15F8  160A  118A  2636  160A  118A  	fcall	_LCD_Command
  7480  15FD                     l2759:
  7481                           
  7482                           ;LCD.c: 42:     LCD_Command(0x0c);
  7483  15FD  300C               	movlw	12
  7484  15FE  160A  118A  2636  160A  118A  	fcall	_LCD_Command
  7485  1603                     l2761:
  7486                           
  7487                           ;LCD.c: 43:     LCD_Command(0x06);
  7488  1603  3006               	movlw	6
  7489  1604  160A  118A  2636  160A  118A  	fcall	_LCD_Command
  7490  1609                     l270:
  7491  1609  0008               	return
  7492  160A                     __end_of_LCD_Init:
  7493                           
  7494                           	psect	text20
  7495  1636                     __ptext20:	
  7496 ;; *************** function _LCD_Command *****************
  7497 ;; Defined at:
  7498 ;;		line 59 in file "LCD.c"
  7499 ;; Parameters:    Size  Location     Type
  7500 ;;  cmd             1    wreg     unsigned char 
  7501 ;; Auto vars:     Size  Location     Type
  7502 ;;  cmd             1    2[COMMON] unsigned char 
  7503 ;; Return value:  Size  Location     Type
  7504 ;;                  1    wreg      void 
  7505 ;; Registers used:
  7506 ;;		wreg, status,2, status,0
  7507 ;; Tracked objects:
  7508 ;;		On entry : 0/0
  7509 ;;		On exit  : 0/0
  7510 ;;		Unchanged: 0/0
  7511 ;; Data sizes:     COMMON   BANK0   BANK1   BANK3   BANK2
  7512 ;;      Params:         0       0       0       0       0
  7513 ;;      Locals:         1       0       0       0       0
  7514 ;;      Temps:          2       0       0       0       0
  7515 ;;      Totals:         3       0       0       0       0
  7516 ;;Total ram usage:        3 bytes
  7517 ;; Hardware stack levels used: 1
  7518 ;; This function calls:
  7519 ;;		Nothing
  7520 ;; This function is called by:
  7521 ;;		_LCD_Init
  7522 ;;		_LCD_String_xy
  7523 ;;		_LCD_Clear
  7524 ;; This function uses a non-reentrant model
  7525 ;;
  7526                           
  7527  1636                     _LCD_Command:	
  7528                           ;psect for function _LCD_Command
  7529                           
  7530                           
  7531                           ;incstack = 0
  7532                           ; Regs used in _LCD_Command: [wreg+status,2+status,0]
  7533                           ;LCD_Command@cmd stored from wreg
  7534  1636  00F2               	movwf	LCD_Command@cmd
  7535  1637                     l2587:
  7536                           
  7537                           ;LCD.c: 59: void LCD_Command(unsigned char cmd );LCD.c: 60: {;LCD.c: 61:  PORTD = (PORTD
      +                           & 0x0f) |(0xF0 & cmd);
  7538  1637  30F0               	movlw	240
  7539  1638  0572               	andwf	LCD_Command@cmd,w
  7540  1639  00F0               	movwf	??_LCD_Command
  7541  163A  1283               	bcf	3,5	;RP0=0, select bank0
  7542  163B  1303               	bcf	3,6	;RP1=0, select bank0
  7543  163C  0808               	movf	8,w	;volatile
  7544  163D  390F               	andlw	15
  7545  163E  0470               	iorwf	??_LCD_Command,w
  7546  163F  0088               	movwf	8	;volatile
  7547  1640                     l2589:
  7548                           
  7549                           ;LCD.c: 62:  PORTDbits.RD0 = 0;
  7550  1640  1008               	bcf	8,0	;volatile
  7551  1641                     l2591:
  7552                           
  7553                           ;LCD.c: 63:  PORTDbits.RD1 = 1;
  7554  1641  1488               	bsf	8,1	;volatile
  7555  1642                     l2593:
  7556                           
  7557                           ;LCD.c: 64:  __nop();
  7558  1642  0000               	nop
  7559  1643                     l2595:
  7560                           
  7561                           ;LCD.c: 65:  PORTDbits.RD1 = 0;
  7562  1643  1283               	bcf	3,5	;RP0=0, select bank0
  7563  1644  1303               	bcf	3,6	;RP1=0, select bank0
  7564  1645  1088               	bcf	8,1	;volatile
  7565  1646                     l2597:
  7566                           
  7567                           ;LCD.c: 66:  _delay((unsigned long)((1)*(8000000/4000.0)));
  7568  1646  3003               	movlw	3
  7569  1647  00F1               	movwf	??_LCD_Command+1
  7570  1648  3097               	movlw	151
  7571  1649  00F0               	movwf	??_LCD_Command
  7572  164A                     u4657:
  7573  164A  0BF0               	decfsz	??_LCD_Command,f
  7574  164B  2E4A               	goto	u4657
  7575  164C  0BF1               	decfsz	??_LCD_Command+1,f
  7576  164D  2E4A               	goto	u4657
  7577  164E  2E4F               	nop2
  7578  164F                     l2599:
  7579                           
  7580                           ;LCD.c: 67:     PORTD = (unsigned char)((PORTD & 0x0f) | (cmd<<4));
  7581  164F  0872               	movf	LCD_Command@cmd,w
  7582  1650  00F0               	movwf	??_LCD_Command
  7583  1651  3004               	movlw	4
  7584  1652                     u3225:
  7585  1652  1003               	clrc
  7586  1653  0DF0               	rlf	??_LCD_Command,f
  7587  1654  3EFF               	addlw	-1
  7588  1655  1D03               	skipz
  7589  1656  2E52               	goto	u3225
  7590  1657  1283               	bcf	3,5	;RP0=0, select bank0
  7591  1658  1303               	bcf	3,6	;RP1=0, select bank0
  7592  1659  0808               	movf	8,w	;volatile
  7593  165A  390F               	andlw	15
  7594  165B  0470               	iorwf	??_LCD_Command,w
  7595  165C  0088               	movwf	8	;volatile
  7596  165D                     l2601:
  7597                           
  7598                           ;LCD.c: 68:  PORTDbits.RD1 = 1;
  7599  165D  1488               	bsf	8,1	;volatile
  7600  165E                     l2603:
  7601                           
  7602                           ;LCD.c: 69:  __nop();
  7603  165E  0000               	nop
  7604  165F                     l2605:
  7605                           
  7606                           ;LCD.c: 70:  PORTDbits.RD1 = 0;
  7607  165F  1283               	bcf	3,5	;RP0=0, select bank0
  7608  1660  1303               	bcf	3,6	;RP1=0, select bank0
  7609  1661  1088               	bcf	8,1	;volatile
  7610                           
  7611                           ;LCD.c: 71:  _delay((unsigned long)((3)*(8000000/4000.0)));
  7612  1662  3008               	movlw	8
  7613  1663  00F1               	movwf	??_LCD_Command+1
  7614  1664  30C9               	movlw	201
  7615  1665  00F0               	movwf	??_LCD_Command
  7616  1666                     u4667:
  7617  1666  0BF0               	decfsz	??_LCD_Command,f
  7618  1667  2E66               	goto	u4667
  7619  1668  0BF1               	decfsz	??_LCD_Command+1,f
  7620  1669  2E66               	goto	u4667
  7621  166A  2E6B               	nop2
  7622  166B                     l273:
  7623  166B  0008               	return
  7624  166C                     __end_of_LCD_Command:
  7625  007E                     btemp	set	126	;btemp
  7626  007E                     wtemp0	set	126
  7627                           
  7628                           	psect	idloc
  7629                           
  7630                           ;Config register IDLOC0 @ 0x2000
  7631                           ;	unspecified, using default values
  7632  2000                     	org	8192
  7633  2000  3FFF               	dw	16383
  7634                           
  7635                           ;Config register IDLOC1 @ 0x2001
  7636                           ;	unspecified, using default values
  7637  2001                     	org	8193
  7638  2001  3FFF               	dw	16383
  7639                           
  7640                           ;Config register IDLOC2 @ 0x2002
  7641                           ;	unspecified, using default values
  7642  2002                     	org	8194
  7643  2002  3FFF               	dw	16383
  7644                           
  7645                           ;Config register IDLOC3 @ 0x2003
  7646                           ;	unspecified, using default values
  7647  2003                     	org	8195
  7648  2003  3FFF               	dw	16383
  7649                           
  7650                           	psect	config
  7651                           
  7652                           ;Config register CONFIG1 @ 0x2007
  7653                           ;	Oscillator Selection bits
  7654                           ;	FOSC = INTRC_CLKOUT, INTOSC oscillator: CLKOUT function on RA6/OSC2/CLKOUT pin, I/O fu
      +                          nction on RA7/OSC1/CLKIN
  7655                           ;	Watchdog Timer Enable bit
  7656                           ;	WDTE = OFF, WDT disabled and can be enabled by SWDTEN bit of the WDTCON register
  7657                           ;	Power-up Timer Enable bit
  7658                           ;	PWRTE = OFF, PWRT disabled
  7659                           ;	RE3/MCLR pin function select bit
  7660                           ;	MCLRE = OFF, RE3/MCLR pin function is digital input, MCLR internally tied to VDD
  7661                           ;	Code Protection bit
  7662                           ;	CP = OFF, Program memory code protection is disabled
  7663                           ;	Data Code Protection bit
  7664                           ;	CPD = OFF, Data memory code protection is disabled
  7665                           ;	Brown Out Reset Selection bits
  7666                           ;	BOREN = OFF, BOR disabled
  7667                           ;	Internal External Switchover bit
  7668                           ;	IESO = OFF, Internal/External Switchover mode is disabled
  7669                           ;	Fail-Safe Clock Monitor Enabled bit
  7670                           ;	FCMEN = OFF, Fail-Safe Clock Monitor is disabled
  7671                           ;	Low Voltage Programming Enable bit
  7672                           ;	LVP = OFF, RB3 pin has digital I/O, HV on MCLR must be used for programming
  7673                           ;	In-Circuit Debugger Mode bit
  7674                           ;	DEBUG = 0x1, unprogrammed default
  7675  2007                     	org	8199
  7676  2007  20D5               	dw	8405
  7677                           
  7678                           ;Config register CONFIG2 @ 0x2008
  7679                           ;	Brown-out Reset Selection bit
  7680                           ;	BOR4V = BOR40V, Brown-out Reset set to 4.0V
  7681                           ;	Flash Program Memory Self Write Enable bits
  7682                           ;	WRT = OFF, Write protection off
  7683  2008                     	org	8200
  7684  2008  3FFF               	dw	16383

Data Sizes:
    Strings     65
    Constant    46
    Data        32
    BSS         14
    Persistent  0
    Stack       0

Auto Spaces:
    Space          Size  Autos    Used
    COMMON           14     14      14
    BANK0            80     79      80
    BANK1            80     66      79
    BANK3            96      0      32
    BANK2            96      0       0

Pointer List with Targets:

    frexp@eptr	PTR int  size(1) Largest target is 2
		 -> log@exponent(BANK1[2]), 

    eval_poly@d	PTR const  size(1) Largest target is 36
		 -> log@coeff(CODE[36]), 

    sprintf@f	PTR const unsigned char  size(1) Largest target is 6
		 -> STR_1(CODE[6]), 

    sprintf@sp	PTR unsigned char  size(1) Largest target is 10
		 -> main@Temperature(BANK1[10]), 

    sprintf@ap	PTR void [1] size(1) Largest target is 2
		 -> ?_sprintf(BANK1[2]), 

    LCD_String_xy@msg	PTR const unsigned char  size(1) Largest target is 15
		 -> STR_6(CODE[14]), STR_5(CODE[14]), STR_4(CODE[15]), STR_2(CODE[13]), 

    LCD_String@msg	PTR const unsigned char  size(2) Largest target is 15
		 -> STR_6(CODE[14]), STR_5(CODE[14]), STR_4(CODE[15]), STR_3(CODE[3]), 
		 -> STR_2(CODE[13]), main@Temperature(BANK1[10]), 


Critical Paths under _main in COMMON

    _main->___xxtofl
    _sprintf->___lwmod
    ___lwmod->___lwdiv
    _log->___xxtofl
    _log->_frexp
    _frexp->___fleq
    ___flmul->___xxtofl
    ___flmul->_frexp
    ___fladd->___xxtofl
    ___fladd->_frexp
    ___fldiv->___xxtofl
    ___fldiv->_frexp
    _LCD_String_xy->_LCD_String
    _LCD_String->_LCD_Char
    _LCD_Init->_LCD_Command

Critical Paths under _main in BANK0

    _main->___fltol
    _sprintf->___fltol
    _log->___fladd
    _eval_poly->___fladd
    ___flmul->_frexp
    ___flsub->___fladd
    ___fladd->___fldiv
    ___fldiv->___flmul

Critical Paths under _main in BANK1

    _main->_sprintf
    _sprintf->___fltol
    _log->_eval_poly
    ___fltol->___flsub

Critical Paths under _main in BANK3

    None.

Critical Paths under _main in BANK2

    None.

Call Graph Tables:

 ---------------------------------------------------------------------------------
 (Depth) Function   	        Calls       Base Space   Used Autos Params    Refs
 ---------------------------------------------------------------------------------
 (0) _main                                                34    34      0   27983
                                             32 BANK1     34    34      0
                           _LCD_Init
                         _LCD_String
                      _LCD_String_xy
                            ___fladd
                            ___fldiv
                             ___flge
                            ___flsub
                            ___fltol
                           ___xxtofl
                                _log
                            _sprintf
 ---------------------------------------------------------------------------------
 (1) _sprintf                                             23    18      5    1280
                                             17 BANK1     15    10      5
                            ___fltol (ARG)
                            ___lwdiv
                            ___lwmod
 ---------------------------------------------------------------------------------
 (2) ___lwmod                                              6     2      4     311
                                              8 COMMON     6     2      4
                            ___lwdiv (ARG)
 ---------------------------------------------------------------------------------
 (2) ___lwdiv                                              8     4      4     314
                                              0 COMMON     8     4      4
 ---------------------------------------------------------------------------------
 (1) _log                                                  7     3      4   15306
                                             77 BANK0      1     1      0
                                             16 BANK1      6     2      4
                            ___fladd
                            ___fldiv (ARG)
                             ___fleq
                             ___flge
                            ___flmul
                           ___xxtofl
                          _eval_poly
                              _frexp
 ---------------------------------------------------------------------------------
 (2) _frexp                                                7     2      5     896
                                             12 COMMON     2     2      0
                                              0 BANK0      5     0      5
                             ___fleq
 ---------------------------------------------------------------------------------
 (3) ___fleq                                              12     4      8     520
                                              0 COMMON    12     4      8
 ---------------------------------------------------------------------------------
 (2) _eval_poly                                           16     9      7    6301
                                              0 BANK1     16     9      7
                            ___fladd
                            ___fldiv (ARG)
                            ___flmul
 ---------------------------------------------------------------------------------
 (3) ___flmul                                             26    18      8    2847
                                              5 BANK0     26    18      8
                          __Umul8_16
                           ___xxtofl (ARG)
                              _frexp (ARG)
 ---------------------------------------------------------------------------------
 (4) __Umul8_16                                            9     7      2     799
                                              0 COMMON     9     7      2
 ---------------------------------------------------------------------------------
 (2) ___xxtofl                                            14    10      4     626
                                              0 COMMON    14    10      4
 ---------------------------------------------------------------------------------
 (2) ___flge                                              12     4      8     764
                                              0 COMMON    12     4      8
 ---------------------------------------------------------------------------------
 (1) ___fltol                                             11     7      4     457
                                             77 BANK0      2     2      0
                                              8 BANK1      9     5      4
                            ___flsub (ARG)
 ---------------------------------------------------------------------------------
 (1) ___flsub                                              8     0      8    3245
                                              0 BANK1      8     0      8
                            ___fladd
 ---------------------------------------------------------------------------------
 (3) ___fladd                                             20    12      8    3048
                                             57 BANK0     20    12      8
                            ___fldiv (ARG)
                            ___flmul (ARG)
                           ___xxtofl (ARG)
                              _frexp (ARG)
 ---------------------------------------------------------------------------------
 (1) ___fldiv                                             26    18      8    1577
                                             31 BANK0     26    18      8
                          __Umul8_16 (ARG)
                             ___fleq (ARG)
                             ___flge (ARG)
                            ___flmul (ARG)
                           ___xxtofl (ARG)
                              _frexp (ARG)
 ---------------------------------------------------------------------------------
 (1) _LCD_String_xy                                        5     3      2    1104
                                              5 COMMON     5     3      2
                        _LCD_Command
                         _LCD_String
 ---------------------------------------------------------------------------------
 (2) _LCD_String                                           2     0      2     317
                                              3 COMMON     2     0      2
                           _LCD_Char
 ---------------------------------------------------------------------------------
 (3) _LCD_Char                                             3     3      0      44
                                              0 COMMON     3     3      0
 ---------------------------------------------------------------------------------
 (1) _LCD_Init                                             2     2      0      44
                                              3 COMMON     2     2      0
                        _LCD_Command
 ---------------------------------------------------------------------------------
 (2) _LCD_Command                                          3     3      0      44
                                              0 COMMON     3     3      0
 ---------------------------------------------------------------------------------
 Estimated maximum stack depth 4
 ---------------------------------------------------------------------------------

 Call Graph Graphs:

 _main (ROOT)
   _LCD_Init
     _LCD_Command
   _LCD_String
     _LCD_Char
   _LCD_String_xy
     _LCD_Command
     _LCD_String
   ___fladd
     ___fldiv (ARG)
       __Umul8_16 (ARG)
       ___fleq (ARG)
       ___flge (ARG)
       ___flmul (ARG)
         __Umul8_16
         ___xxtofl (ARG)
         _frexp (ARG)
           ___fleq
       ___xxtofl (ARG)
       _frexp (ARG)
     ___flmul (ARG)
     ___xxtofl (ARG)
     _frexp (ARG)
   ___fldiv
   ___flge
   ___flsub
     ___fladd
   ___fltol
     ___flsub (ARG)
   ___xxtofl
   _log
     ___fladd
     ___fldiv (ARG)
     ___fleq (ARG)
     ___flge (ARG)
     ___flmul (ARG)
     ___xxtofl (ARG)
     _eval_poly (ARG)
       ___fladd
       ___fldiv (ARG)
       ___flmul (ARG)
     _frexp (ARG)
   _sprintf
     ___fltol (ARG)
     ___lwdiv (ARG)
     ___lwmod (ARG)
       ___lwdiv (ARG)

 Address spaces:
Name               Size   Autos  Total    Cost      Usage
BANK3               60      0      20       9       33.3%
BITBANK3            60      0       0       8        0.0%
SFR3                 0      0       0       4        0.0%
BITSFR3              0      0       0       4        0.0%
BANK2               60      0       0      11        0.0%
BITBANK2            60      0       0      10        0.0%
SFR2                 0      0       0       5        0.0%
BITSFR2              0      0       0       5        0.0%
BANK1               50     42      4F       7       98.8%
BITBANK1            50      0       0       6        0.0%
SFR1                 0      0       0       2        0.0%
BITSFR1              0      0       0       2        0.0%
BANK0               50     4F      50       5      100.0%
BITBANK0            50      0       0       4        0.0%
SFR0                 0      0       0       1        0.0%
BITSFR0              0      0       0       1        0.0%
COMMON               E      E       E       1      100.0%
BITCOMMON            E      0       0       0        0.0%
CODE                 0      0       0       0        0.0%
DATA                 0      0      CD      12        0.0%
ABS                  0      0      CD       3        0.0%
NULL                 0      0       0       0        0.0%
STACK                0      0       0       2        0.0%
EEDATA             100      0       0       0        0.0%


Microchip Technology PIC Macro Assembler V2.36 build 20220127204148 
Symbol Table                                                                                   Wed Aug 10 12:32:34 2022

           ___fldiv@aexp 0058             ___fldiv@bexp 0057                        pc 0002  
           ___fldiv@sign 0050             ?_LCD_Command 0070                       l80 0228  
                     l74 0217                       l75 0227                       l76 021D  
                     l78 0224                       fsr 0004              ?_LCD_String 0073  
    __Umul8_16@word_mpld 0076                      l401 0B9A                      l270 1609  
                    l273 166B                      l601 17FF                      l282 15B8  
                    l276 16A1                      l702 0E82                      l287 1635  
                    l711 0FFF                      l704 0E59                      l800 0747  
                    l723 0F71                      l740 0FF3                      l732 0FD1  
                    l741 0FFF                      l813 15CD                      l582 08EA  
                    l806 07CF                      l574 173C                      l719 0F4D  
                    l591 17FF                      l583 0903                      l815 15DF  
                    l575 1758                      l744 0861                      l840 09BD  
                    l576 176D                      l729 0F93                      l770 0CE9  
                    l754 0BF7                      l579 087E                      l851 0987  
                    l756 0D77                      l852 0993                      l844 096B  
                    l677 171F                      l598 17E8                      l838 0926  
                    l687 16DB                      l776 0D5B                      l865 01CA  
                    l778 0D6B                      l698 0DDB                      l794 07DB  
                    l883 007E                      l877 0A97                      _log 007F  
                    fsr0 0004                      indf 0000             ___flmul@aexp 0037  
           ___flmul@bexp 0038             ___flmul@sign 0032             ___flmul@temp 003D  
           ___flmul@prod 0039              LCD_Char@dat 0072             ___fltol@exp1 006E  
                   l3001 0CB9                     l2201 15BC                     l3011 0CCE  
                   l3003 0CBA                     l2203 15C3                     l2221 1679  
                   l2213 166D                     l3021 0CF3                     l3013 0CD2  
                   l3005 0CC3                     l2301 0DF9                     l2205 15C7  
                   l3101 0201                     l2231 1695                     l2223 167C  
                   l2215 1676                     l3031 0D31                     l3023 0D01  
                   l3015 0CE6                     l3007 0CC9                     l2311 0E0D  
                   l2303 0DFD                     l2207 15D6                     l3111 020E  
                   l3103 0204                     l2225 1685                     l2217 1677  
                   l3041 0D61                     l3033 0D3F                     l3025 0D05  
                   l3009 0CCD                     l2401 0F85                     l2321 0E21  
                   l2313 0E11                     l2305 0E01                     l2209 15DB  
                   l2241 176C                     l2233 1720                     l3121 0235  
                   l3113 0214                     l3105 0205                     l2227 1693  
                   l2219 1678                     l3043 0D65                     l3035 0D4E  
                   l3027 0D1E                     l3019 0CEE                     l2411 0F98  
                   l2403 0F86                     l2331 0E66                     l2315 0E15  
                   l2307 0E05                     l2323 0E25                     l2251 0D89  
                   l2235 1734                     l3131 0335                     l3123 0248  
                   l3115 021B                     l3107 0208                     l3051 01CB  
                   l2229 1694                     l3045 0D67                     l3037 0D52  
                   l3029 0D24                     l2421 0FD6                     l2413 0F9D  
                   l2405 0F8A                     l2333 0E68                     l2341 0E7A  
                   l2325 0E26                     l2317 0E19                     l2309 0E09  
                   l2261 0D9D                     l2253 0D8A                     l2245 0D78  
                   l2501 05BB                     l2237 1750                     l3141 0401  
                   l3133 038B                     l3125 0261                     l3117 0221  
                   l3109 0209                     l3061 01DD                     l3053 01CF  
                   l3039 0D5A                     l2431 0FED                     l2423 0FDB  
                   l2415 0FAB                     l2407 0F90                     l2351 0EAB  
                   l2343 0E86                     l2335 0E6C                     l2327 0E3D  
                   l2319 0E1D                     l2271 0DB3                     l2255 0D8F  
                   l2263 0D9F                     l2247 0D7F                     l2511 063B  
                   l2503 05D8                     l2239 176A                     l3151 045C  
                   l3143 040A                     l3135 03CA                     l3127 028F  
                   l3119 022C                     l3071 01E4                     l3063 01E0  
                   l3055 01D2                     l2601 165D                     l2433 0FEF  
                   l2425 0FE3                     l2417 0FAF                     l2361 0EC2  
                   l2353 0EAF                     l2345 0E8B                     l2337 0E6D  
                   l2329 0E5D                     l2281 0DC8                     l2273 0DB9  
                   l2265 0DA7                     l2257 0D94                     l2249 0D85  
                   l2521 06F3                     l2513 0668                     l2505 05E8  
                   l2441 0482                     l3153 0469                     l3145 0425  
                   l3137 03EB                     l3129 02E7                     l3081 01EF  
                   l3073 01E5                     l3065 01E1                     l3057 01D5  
                   l2603 165E                     l2435 0FFA                     l2427 0FE8  
                   l2419 0FCD                     l2371 0F25                     l2363 0EC3  
                   l2355 0EB3                     l2339 0E76                     l2291 0DE5  
                   l2283 0DD0                     l2275 0DBD                     l2267 0DAC  
                   l2259 0D9C                     l2611 0892                     l2531 0718  
                   l2523 06FC                     l2515 0678                     l2507 0605  
                   l2451 0497                     l2443 0488                     l3147 0433  
                   l3139 03F8                     l3091 01F8                     l3083 01F2  
                   l3075 01E6                     l3067 01E2                     l3059 01D6  
                   l2605 165F                     l2437 0FFE                     l2429 0FE9  
                   l2381 0F5A                     l2373 0F2B                     l2365 0ECC  
                   l2357 0EBC                     l2349 0E94                     l2293 0DE9  
                   l2285 0DD1                     l2277 0DBE                     l2269 0DB2  
                   l2621 0900                     l2613 089A                     l2701 097D  
                   l2541 0730                     l2533 0721                     l2525 070A  
                   l2517 06A5                     l2509 061E                     l2461 04B4  
                   l2453 049F                     l2445 048C                     l3149 044E  
                   l3093 01F9                     l3085 01F3                     l3077 01EA  
                   l3069 01E3                     l2391 0F75                     l2375 0F30  
                   l2359 0EBE                     l2367 0ED1                     l2295 0DED  
                   l2279 0DC3                     l2287 0DD3                     l2623 0902  
                   l2615 089E                     l2607 0862                     l2711 09B0  
                   l2703 0981                     l2199 15BA                     l2551 075F  
                   l2543 0744                     l2527 0713                     l2535 0727  
                   l2519 06CB                     l2471 04CB                     l2463 04B8  
                   l2455 04A1                     l2447 048D                     l2439 047B  
                   l2631 16E4                     l3095 01FC                     l3087 01F4  
                   l3079 01EE                     l2393 0F78                     l2385 0F63  
                   l2369 0EE7                     l2377 0F3F                     l2297 0DF1  
                   l2289 0DE1                     l2617 08C2                     l2609 0876  
                   l2713 09B4                     l2705 098B                     l2561 079A  
                   l2553 0763                     l2537 072B                     l2529 0717  
                   l2473 04CD                     l2465 04B9                     l2457 04A9  
                   l2449 0492                     l2721 003E                     l2641 1707  
                   l2633 16E7                     l3097 01FD                     l3089 01F7  
                   l2395 0F7A                     l2387 0F6C                     l2379 0F55  
                   l2299 0DF5                     l2619 08C6                     l2715 09B5  
                   l2707 0995                     l2571 07C7                     l2563 07A9  
                   l2555 077C                     l2547 074C                     l2539 072C  
                   l2491 053E                     l2483 04E8                     l2475 04D5  
                   l2467 04BE                     l2459 04AE                     l2731 0079  
                   l2723 0046                     l2643 170D                     l2635 16EE  
                   l2627 16DC                     l2811 0AFB                     l2803 0ACB  
                   l3099 0200                     l2581 1594                     l2397 0F7F  
                   l2389 0F70                     l2901 17F2                     l2709 09AB  
                   l2573 07C8                     l2565 07B3                     l2549 0751  
                   l2557 0782                     l2493 056A                     l2485 04F8  
                   l2477 04DA                     l2469 04C3                     l2741 09ED  
                   l2733 007D                     l2645 170E                     l2637 16F2  
                   l2629 16DE                     l2661 16B6                     l2653 16A2  
                   l2821 0B06                     l2813 0AFF                     l2805 0AEB  
                   l2591 1641                     l2751 15E3                     l2583 15A2  
                   l2911 0BA2                     l2399 0F81                     l2903 0812  
                   l2575 07D3                     l2567 07B5                     l2559 078F  
                   l2495 0586                     l2487 0505                     l2479 04DF  
                   l2743 0A89                     l2735 007E                     l2727 004F  
                   l2719 0023                     l2647 1715                     l2639 16F6  
                   l2663 16BA                     l2655 16A8                     l2671 16D7  
                   l2831 0B39                     l2815 0B04                     l2807 0AF3  
                   l3383 0ADD                     l2593 1642                     l2761 1603  
                   l2753 15EB                     l2585 15A8                     l2921 0BB7  
                   l2913 0BA8                     l2905 0816                     l2681 091E  
                   l2569 07C3                     l2497 05A2                     l2489 0522  
                   l2745 0A8F                     l2729 006C                     l2649 171B  
                   l2665 16C4                     l2657 16AB                     l2841 0B7B  
                   l2833 0B3D                     l2825 0B22                     l2809 0AF7  
                   l2595 1643                     l2587 1637                     l2755 15F1  
                   l2579 1593                     l2931 0BCF                     l2923 0BBF  
                   l2915 0BAC                     l2691 0949                     l2683 092E  
                   l2675 0905                     l2499 05AB                     l2739 09BE  
                   l2771 00C4                     l2763 007F                     l2667 16CA  
                   l2659 16B2                     l2835 0B42                     l2827 0B2C  
                   l2843 0B84                     l2597 1646                     l2589 1640  
                   l2757 15F7                     l2749 15E0                     l2861 161E  
                   l2853 160B                     l2941 0BE4                     l2933 0BD5  
                   l2925 0BC0                     l2917 0BAD                     l2909 0B9B  
                   l2693 0950                     l2677 090A                     l2781 0165  
                   l2765 009A                     l2669 16D1                     l2837 0B70  
                   l2829 0B32                     l2845 0B96                     l2599 164F  
                   l2759 15FD                     l2863 1624                     l2855 160B  
                   l2951 0C0B                     l2943 0BEC                     l2935 0BD9  
                   l2919 0BB2                     l2927 0BC2                     l2695 0954  
                   l2687 0937                     l2679 090E                     l2775 00D3  
                   l2839 0B77                     l2791 0AAD                     l2865 162A  
                   l2857 1611                     l2953 0C0F                     l2945 0BED  
                   l2937 0BDA                     l2929 0BCA                     l2881 17B0  
                   l2873 1788                     l2697 0962                     l2689 093C  
                   l2777 013C                     l2769 00A9                     l2793 0AB2  
                   l2785 0A9B                     l2859 1617                     l2971 0C50  
                   l2963 0C26                     l2939 0BDF                     l2947 0BEF  
                   l2883 17B4                     l2891 17D2                     l2875 17A1  
                   l2867 176E                     l2699 0972                     l2779 0142  
                   l2795 0AB4                     l2787 0AA0                     l2981 0C6E  
                   l2973 0C52                     l2965 0C38                     l2949 0BFF  
                   l2957 0C18                     l2877 17A4                     l2869 177D  
                   l2797 0ABB                     l2789 0AA6                     l2975 0C57  
                   l2983 0C77                     l2991 0C9C                     l2967 0C40  
                   l2959 0C1D                     l2879 17AC                     l2799 0ABF  
                   l2993 0CA2                     l2985 0C89                     l2977 0C69  
                   l2969 0C48                     l2897 17D9                     l2889 17BC  
                   l2995 0CAA                     l2987 0C8A                     l2979 0C6D  
                   l2899 17ED                     l2997 0CAC                     l2989 0C98  
                   ?_log 00B0                     l2999 0CB5                     STR_1 1076  
                   STR_2 1069                     STR_3 107C                     STR_4 103E  
                   STR_5 105B                     STR_6 104D                     u3001 062D  
                   u3002 0634                     u3011 065A                     u3003 063B  
                   u3012 0661                     u3021 0687                     u3013 0668  
                   u2310 15C7                     u3110 072B                     u3030 06B1  
                   u3022 068E                     u2311 15C6                     u3111 072A  
                   u3023 0695                     u4000 0CCD                     u2400 0D94  
                   u3200 07C7                     u3120 0730                     u4001 0CCC  
                   u2401 0D93                     u3201 07C6                     u3121 072F  
                   u3105 071A                     u3041 06BD                     u3210 15B8  
                   u4010 0CD2                     u2410 0DB2                     u2330 15DB  
                   u3130 0744                     u3050 06D9                     u3042 06C4  
                   u3211 15B7                     u4011 0CD1                     u2411 0DB1  
                   u2331 15DA                     u3131 0743                     u3043 06CB  
                   u3035 06AC                     u4020 0CE6                     u2500 0E5D  
                   u2420 0DBD                     u3140 074B                     u3300 16E4  
                   u4100 0214                     u4021 0CE5                     u2501 0E5C  
                   u2421 0DBC                     u2325 15CE                     u3141 074A  
                   u3061 06E5                     u3301 16E3                     u4101 0213  
                   u4030 0CED                     u2510 0E6C                     u2430 0DC3  
                   u3230 0876                     u3150 0751                     u3062 06EC  
                   u2350 1734                     u4110 021B                     u4031 0CEC  
                   u2511 0E6B                     u2431 0DC2                     u3231 0875  
                   u3151 0750                     u3063 06F3                     u3055 06D4  
                   u2351 1733                     u4111 021A                     u4040 0CF3  
                   u2440 0DC8                     u3240 0892                     u3160 0763  
                   u2360 1750                     u3320 16F6                     u3400 16C4  
                   u4120 0221                     u3225 1652                     u2345 1688  
                   u4041 0CF2                     u2441 0DC7                     u3241 0891  
                   u3161 0762                     u2361 174F                     u3321 16F5  
                   u3401 16C3                     u4121 0220                     u4050 0D05  
                   u2610 0EE7                     u2530 0E82                     u2450 0DE1  
                   u3250 089E                     u3170 0772                     u3090 0717  
                   u2370 176A                     u4130 022C                     u4051 0D04  
                   u2611 0EE6                     u2531 0E81                     u2451 0DE0  
                   u3251 089D                     u3091 0716                     u3075 06F5  
                   u2371 1769                     u3315 16E8                     u4131 022B  
                   u4060 0D14                     u2700 0F7F                     u2540 0E86  
                   u2460 0DE5                     u2380 0D89                     u3180 078F  
                   u3340 1707                     u3420 16D7                     u4140 0425  
                   u2701 0F7E                     u2621 0EFE                     u2613 0EE3  
                   u2605 0EC5                     u2541 0E85                     u2525 0E6F  
                   u2461 0DE4                     u2381 0D88                     u3261 08AD  
                   u3181 078E                     u3085 070C                     u3341 1706  
                   u3421 16D6                     u3405 16C0                     u4141 0424  
                   u4070 0D31                     u2710 0F85                     u2630 0F12  
                   u2622 0EFF                     u2550 0E8B                     u2470 0E3D  
                   u2390 0D8F                     u3270 08C6                     u3262 08AE  
                   u3510 0981                     u3430 090A                     u3190 07A9  
                   u4150 044E                     u4071 0D30                     u2711 0F84  
                   u2631 0F13                     u2623 0F04                     u2551 0E8A  
                   u2471 0E3C                     u2391 0D8E                     u3271 08C5  
                   u3263 08B3                     u3511 0980                     u3431 0909  
                   u3191 07A8                     u3175 076D                     u2375 1766  
                   u3335 16F7                     u3415 16CB                     u4151 044D  
                   u4080 0D4E                     u2800 0FDB                     u2720 0F8A  
                   u2640 0F30                     u2632 0F18                     u2624 0F05  
                   u2480 0E48                     u3264 08B4                     u3520 0987  
                   u3440 090E                     u3600 0A8F                     u3360 171B  
                   u4081 0D4D                     u4065 0D0F                     u2801 0FDA  
                   u2721 0F89                     u2641 0F2F                     u2633 0F19  
                   u2625 0F0A                     u2561 0E9D                     u2481 0E46  
                   u3281 08D5                     u3265 08B9                     u3521 0986  
                   u3505 0976                     u3441 090D                     u3185 078B  
                   u3601 0A8E                     u3361 171A                     u3345 1703  
                   u4090 0D65                     u2810 0FE8                     u2730 0F90  
                   u2650 0F55                     u2626 0F0B                     u2570 0EAF  
                   u2562 0EA4                     u2490 0E49                     u3290 0900  
                   u3282 08D6                     u3266 08BA                     u3530 098B  
                   u3450 092E                     u3610 009A                     u3370 16A8  
                   u4091 0D64                     u4075 0D2D                     u2811 0FE7  
                   u2731 0F8F                     u2651 0F54                     u2571 0EAE  
                   u2563 0EAB                     u2475 0E39                     u3291 08FF  
                   u3283 08DB                     u3531 098A                     u3451 092D  
                   u3195 07A5                     u3611 0099                     u3355 170F  
                   u3371 16A7                     u3700 1611                     u2820 0FED  
                   u2740 0F97                     u2660 0F5A                     u2580 0EB3  
                   u3284 08DC                     u3540 09A0                     u2900 04DA  
                   u3620 00C4                     u3701 1610                     u4085 0D4A  
                   u2821 0FEC                     u2741 0F96                     u2661 0F59  
                   u2581 0EB2                     u3285 08E1                     u2901 04D9  
                   u3621 00C3                     u2830 0FFE                     u2750 0F9D  
                   u2590 0EC2                     u3710 177D                     u3286 08E2  
                   u3550 09B0                     u3470 094F                     u2910 04DF  
                   u3390 16BA                     u3630 0AA6                     u2831 0FFD  
                   u2751 0F9C                     u2591 0EC1                     u3711 177C  
                   u3295 08FC                     u3551 09AF                     u3471 094E  
                   u2911 04DE                     u3391 16B9                     u3631 0AA5  
                   u2760 0FAF                     u2680 0F70                     u3800 17F2  
                   u3720 1798                     u3560 09B4                     u2840 048C  
                   u3640 0AFB                     u2761 0FAE                     u2681 0F6F  
                   u3801 17F1                     u3561 09B3                     u3545 099B  
                   u3465 0941                     u2921 0530                     u2841 048B  
                   u3385 16AC                     u3641 0AFA                     u3810 0BAC  
                   u2770 0FBE                     u2690 0F75                     u3730 17B4  
                   u3490 0971                     u2922 0537                     u2850 0492  
                   u3570 003E                     u3650 0B21                     u3811 0BAB  
                   u2691 0F74                     u2675 0F65                     u3731 17B3  
                   u3491 0970                     u2931 054C                     u2923 053E  
                   u2851 0491                     u3571 003D                     u3651 0B20  
                   u3820 0BB2                     u2780 0FCD                     u3740 17BB  
                   u2932 0553                     u2860 0497                     u3660 0B2C  
                   u3821 0BB1                     u2781 0FCC                     u3741 17BA  
                   u3725 1793                     u3485 0963                     u2941 0578  
                   u2933 055A                     u2861 0496                     u3661 0B2B  
                   u3830 0BB7                     u2790 0FD6                     u2942 057F  
                   u2870 04B8                     u3670 0B32                     u3831 0BB6  
                   u2791 0FD5                     u2775 0FB9                     u2951 0594  
                   u2943 0586                     u2871 04B7                     u3671 0B31  
                   u3655 0B1D                     u3920 0C6D                     u3840 0BD9  
                   u3760 17D1                     u2952 059B                     u2880 04BE  
                   u3680 0B84                     u3921 0C6C                     u3905 0C59  
                   u3841 0BD8                     u3761 17D0                     u2953 05A2  
                   u2881 04BD                     u3585 09C3                     u3681 0B83  
                   u4617 0471                     u3850 0BDF                     u3770 17D8  
                   u2890 04C3                     u3690 0B96                     u4627 1680  
                   u3915 0C62                     u3851 0BDE                     u3771 17D7  
                   u3755 17BD                     u2971 05CA                     u2891 04C2  
                   u3595 09F6                     u3691 0B95                     u3940 0C89  
                   u3860 0BE4                     u2972 05D1                     u4637 169C  
                   u3941 0C88                     u3861 0BE3                     u2981 05F7  
                   u2973 05D8                     u2965 05A4                     u3950 0CA2  
                   u3870 0BFF                     u3790 17ED                     u2982 05FE  
                   u4647 15E7                     u3951 0CA1                     u3935 0C70  
                   u3871 0BFE                     u3791 17EC                     u2983 0605  
                   u3960 0CAA                     u3880 0C1D                     u4657 164A  
                   u3961 0CA9                     u3945 0C85                     u3881 0C1C  
                   u3785 17DD                     u3890 0C57                     u4667 1666  
                   u3891 0C56                     u2995 0607                     u3980 0CB9  
                   u3981 0CB8                     u3975 0CAE                     u3995 0CBC  
                   _lm35 00EE                     _flag 00E8                     _main 01CB  
                   _temp 00E2                     btemp 007E                     log@x 00B0  
                   start 0000          ___fldiv@new_exp 0051            _LCD_String_xy 160A  
                  ??_log 006D         __end_of_LCD_Char 16A2         __end_of_LCD_Init 160A  
          ___fltol@sign1 006D          __end_of___fladd 1000                    ?_main 0070  
        __end_of___fldiv 0D78          __end_of___flmul 07DC          __end_of___flsub 0862  
        __end_of___fltol 1800                    _ANSEL 0188          __end_of___lwdiv 1720  
        __end_of___lwmod 16DC                    _PORTA 0005                    _PORTB 0006  
                  _PORTD 0008                    _TRISA 0085                    _TRISB 0086  
                  _TRISC 0087                    _TRISD 0088          __end_of_dpowers 101A  
                  _frexp 0023                    _errno 00E6      keypad_getkey2@F1320 0190  
                  main@a 00CE                    pclath 000A                    status 0003  
                  wtemp0 007E          __end_of_sprintf 0B9B           ?_LCD_String_xy 0075  
        __initialization 07DC              log@exponent 00B4             __end_of_main 047B  
                 ??_main 00C0                   ?_frexp 0020                   _ADRESH 001E  
                 _ADRESL 009E                   _ANSELH 0189         LCD_String_xy@msg 0076  
       LCD_String_xy@pos 0075         LCD_String_xy@row 0078                   _OSCCON 008F  
                 _TRISA0 0428                   _TRISA1 0429                   _TRISA2 042A  
                 _TRISA3 042B                   _TRISC0 0438                   _TRISC1 0439  
                 _TRISC2 043A                   _TRISC3 043B                   _TRISC4 043C  
                 _TRISC5 043D                   _TRISC6 043E         __end_of___xxtofl 09BE  
                 ___flge 0862                   ___fleq 1720                ??___fladd 0061  
              ??___fldiv 0047                ??___flmul 002D                ??___flsub 007E  
              ??___fltol 00AC                ??___lwdiv 0074                ??___lwmod 007C  
              ??_sprintf 00B6               ___flge@ff1 0070               ___flge@ff2 0074  
           ___xxtofl@arg 007A             ___xxtofl@exp 0079             ___xxtofl@val 0070  
             ___fleq@ff1 0070               ___fleq@ff2 0074         __end_oflog@coeff 103E  
              ?_LCD_Char 0070  __end_of__initialization 07FC                ?_LCD_Init 0070  
        ??_LCD_String_xy 0077             eval_poly@res 00AC               ___fltol@f1 00A8  
         __pcstackCOMMON 0070             __pidataBANK3 0003            __end_of_frexp 007F  
           ??_LCD_String 0075           _OPTION_REGbits 0081                  ??_frexp 007C  
             __pbssBANK0 006F               __pbssBANK1 00E2               ??_LCD_Char 0070  
             ??_LCD_Init 0073       __end_of_LCD_String 15B9        __end_of__Umul8_16 15E0  
             __pmaintext 01CB           _counter_digito 006F                  ?___flge 0070  
                ?___fleq 0070          main@Temperature 00C4                ?___xxtofl 0070  
             __stringtab 1000            LCD_String@msg 0073                  ___fladd 0D78  
                ___fldiv 0B9B                  ___flmul 047B                  ___flsub 0812  
                ___fltol 176E                  ___lwdiv 16DC                  ___lwmod 16A2  
      __end_of_eval_poly 0A98                  __ptext1 0A98                  __ptext2 16A2  
                __ptext3 16DC                  __ptext4 007F                  __ptext5 0023  
                __ptext6 1720                  __ptext7 09BE                  __ptext8 047B  
                __ptext9 15B9                  _dpowers 1010               ??___xxtofl 0074  
                _sprintf 0A98     end_of_initialization 07FC           LCD_Command@cmd 0072  
              _PORTCbits 0007                _PORTDbits 0008              ___fladd@grs 006C  
          ___xxtofl@sign 0078              ___fldiv@grs 0053              ___fldiv@rem 004C  
            ___flmul@grs 0033            ??_LCD_Command 0070           __end_of___flge 0904  
         __end_of___fleq 176E       keypad_getkey@F1297 01A0      start_initialization 07DC  
             eval_poly@d 00A4               eval_poly@n 00A5               eval_poly@x 00A0  
            __end_of_log 01CB               frexp@value 0020    __end_of_LCD_String_xy 1636  
               ??___flge 0078                 ??___fleq 0078               init_fetch0 1580  
              __Umul8_16 15B9              __pdataBANK3 0190                ___fladd@a 005D  
              ___fladd@b 0059                ___fldiv@a 003F                ___fldiv@b 0043  
    __end_of_LCD_Command 166C                ___flmul@a 0029                ___flmul@b 0025  
              ___flsub@a 00A0                ___flsub@b 00A4                ___latbits 0002  
          __pcstackBANK0 0020            __pcstackBANK1 00A0              sprintf@flag 00B9  
            sprintf@prec 00BA                _main$1055 00D2                _main$1056 00D6  
              _main$1057 00DA         ___lwdiv@dividend 0072                 ?___fladd 0059  
               ?___fldiv 003F                 ?___flmul 0025                 ?___flsub 00A0  
               ?___fltol 00A8               ?__Umul8_16 0070                 ?___lwdiv 0070  
               ?___lwmod 0078                __pstrings 1000                _eval_poly 09BE  
       ___lwdiv@quotient 0075    LCD_String_xy@location 0079                 ?_sprintf 00B1  
               _LCD_Char 166C                 _LCD_Init 15E0                _value_adc 00EC  
            _LCD_Command 1636                _stateHome 00EA               _ADCON0bits 001F  
            __stringbase 100F               _ADCON1bits 009F               ?_eval_poly 00A0  
              main@tempC 00DE                frexp@eptr 0024              ??__Umul8_16 0072  
     __end_of__stringtab 1010               sprintf@val 00BC                 ___xxtofl 0904  
        ___lwdiv@divisor 0070          ___lwdiv@counter 0077                 __ptext10 0904  
               __ptext11 0862                 __ptext20 1636                 __ptext12 176E  
               __ptext13 0812                 __ptext14 0D78                 __ptext15 0B9B  
               __ptext16 160A                 __ptext17 1593                 __ptext18 166C  
               __ptext19 15E0               _LCD_String 1593                 log@coeff 101A  
            ??_eval_poly 00A7                 init_ram0 1584                sprintf@ap 00BB  
              sprintf@sp 00BE         ___lwmod@dividend 007A                stringcode 100A  
 __Umul8_16@multiplicand 0070                 sprintf@c 00BF                 sprintf@f 00B1  
        ___lwmod@divisor 0078          ___lwmod@counter 007D                 stringdir 100A  
               stringtab 1000            ___fladd@signs 0069             ___fladd@aexp 006A  
           ___fladd@bexp 006B     __Umul8_16@multiplier 0078        __Umul8_16@product 0074  
