

Microchip MPLAB XC8 Assembler V2.36 build 20220127204148 
                                                                                               Wed Aug 10 12:06:53 2022

Microchip MPLAB XC8 C Compiler v2.36 (Free license) build 20220127204148 Og1 
     1                           	processor	16F887
     2                           	pagewidth 120
     3                           	opt	flic
     4                           	psect	idataBANK1,global,class=CODE,delta=2,noexec
     5                           	psect	idataBANK3,global,class=CODE,delta=2,noexec
     6                           	psect	strings,global,class=STRING,delta=2,noexec
     7                           	psect	cinit,global,class=CODE,merge=1,delta=2
     8                           	psect	bssBANK0,global,class=BANK0,space=1,delta=1,noexec
     9                           	psect	bssBANK1,global,class=BANK1,space=1,delta=1,noexec
    10                           	psect	dataBANK1,global,class=BANK1,space=1,delta=1,noexec
    11                           	psect	dataBANK3,global,class=BANK3,space=1,delta=1,noexec
    12                           	psect	inittext,global,class=CODE,delta=2
    13                           	psect	clrtext,global,class=CODE,delta=2
    14                           	psect	cstackBANK1,global,class=BANK1,space=1,delta=1,noexec
    15                           	psect	cstackCOMMON,global,class=COMMON,space=1,delta=1,noexec
    16                           	psect	cstackBANK0,global,class=BANK0,space=1,delta=1,noexec
    17                           	psect	maintext,global,class=CODE,split=1,delta=2
    18                           	psect	text1,local,class=CODE,merge=1,delta=2,group=1
    19                           	psect	text2,local,class=CODE,merge=1,delta=2,group=2
    20                           	psect	text3,local,class=CODE,merge=1,delta=2,group=2
    21                           	psect	text4,local,class=CODE,merge=1,delta=2
    22                           	psect	text5,local,class=CODE,merge=1,delta=2
    23                           	psect	text6,local,class=CODE,merge=1,delta=2
    24                           	psect	text7,local,class=CODE,merge=1,delta=2,group=3
    25                           	psect	text8,local,class=CODE,merge=1,delta=2,group=3
    26                           	psect	text9,local,class=CODE,merge=1,delta=2,group=2
    27                           	psect	text10,local,class=CODE,merge=1,delta=2,group=3
    28                           	psect	text11,local,class=CODE,merge=1,delta=2,group=2
    29                           	psect	text12,local,class=CODE,merge=1,delta=2,group=2
    30                           	psect	text13,local,class=CODE,merge=1,delta=2,group=2
    31                           	psect	text14,local,class=CODE,merge=1,delta=2,group=2
    32                           	psect	text15,local,class=CODE,merge=1,delta=2,group=2
    33                           	psect	text16,local,class=CODE,merge=1,delta=2
    34                           	psect	text17,local,class=CODE,merge=1,delta=2
    35                           	psect	text18,local,class=CODE,merge=1,delta=2
    36                           	psect	text19,local,class=CODE,merge=1,delta=2
    37                           	psect	text20,local,class=CODE,merge=1,delta=2
    38                           	psect	text21,local,class=CODE,merge=1,delta=2
    39                           	psect	text22,local,class=CODE,merge=1,delta=2
    40                           	psect	text23,local,class=CODE,merge=1,delta=2,group=2
    41                           	psect	text24,local,class=CODE,merge=1,delta=2,group=2
    42                           	psect	text25,local,class=CODE,merge=1,delta=2
    43                           	psect	text26,local,class=CODE,merge=1,delta=2
    44                           	psect	text27,local,class=CODE,merge=1,delta=2
    45                           	psect	text28,local,class=CODE,merge=1,delta=2
    46                           	psect	text29,local,class=CODE,merge=1,delta=2
    47                           	psect	text30,local,class=CODE,merge=1,delta=2
    48                           	psect	text31,local,class=CODE,merge=1,delta=2
    49                           	psect	text32,local,class=CODE,merge=1,delta=2
    50                           	psect	text33,local,class=CODE,merge=1,delta=2
    51                           	psect	text34,local,class=CODE,merge=1,delta=2
    52                           	psect	idloc,global,abs,ovrld,class=IDLOC,space=5,delta=2,noexec
    53                           	psect	config,global,abs,ovrld,class=CONFIG,space=4,delta=2,noexec
    54                           	dabs	1,0x7E,2
    55  0000                     
    56                           ; Version 2.40
    57                           ; Generated 17/11/2021 GMT
    58                           ; 
    59                           ; Copyright © 2021, Microchip Technology Inc. and its subsidiaries ("Microchip")
    60                           ; All rights reserved.
    61                           ; 
    62                           ; This software is developed by Microchip Technology Inc. and its subsidiaries ("Microch
      +                          ip").
    63                           ; 
    64                           ; Redistribution and use in source and binary forms, with or without modification, are
    65                           ; permitted provided that the following conditions are met:
    66                           ; 
    67                           ;     1. Redistributions of source code must retain the above copyright notice, this lis
      +                          t of
    68                           ;        conditions and the following disclaimer.
    69                           ; 
    70                           ;     2. Redistributions in binary form must reproduce the above copyright notice, this 
      +                          list
    71                           ;        of conditions and the following disclaimer in the documentation and/or other
    72                           ;        materials provided with the distribution. Publication is not required when
    73                           ;        this file is used in an embedded application.
    74                           ; 
    75                           ;     3. Microchip's name may not be used to endorse or promote products derived from th
      +                          is
    76                           ;        software without specific prior written permission.
    77                           ; 
    78                           ; THIS SOFTWARE IS PROVIDED BY MICROCHIP "AS IS" AND ANY EXPRESS OR IMPLIED WARRANTIES,
    79                           ; INCLUDING, BUT NOT LIMITED TO, THE IMPLIED WARRANTIES OF MERCHANTABILITY AND FITNESS F
      +                          OR
    80                           ; PURPOSE ARE DISCLAIMED.  IN NO EVENT SHALL MICROCHIP BE LIABLE FOR ANY DIRECT, INDIREC
      +                          T,
    81                           ; INCIDENTAL, SPECIAL, EXEMPLARY, OR CONSEQUENTIAL DAMAGES (INCLUDING BUT NOT LIMITED TO
    82                           ; PROCUREMENT OF SUBSTITUTE GOODS OR SERVICES; LOSS OF USE, DATA OR PROFITS; OR BUSINESS
    83                           ; INTERRUPTION) HOWSOEVER CAUSED AND ON ANY THEORY OF LIABILITY, WHETHER IN CONTRACT, ST
      +                          RICT
    84                           ; LIABILITY, OR TORT (INCLUDING NEGLIGENCE OR OTHERWISE) ARISING IN ANY WAY OUT OF THE U
      +                          SE OF
    85                           ; THIS SOFTWARE, EVEN IF ADVISED OF THE POSSIBILITY OF SUCH DAMAGE.
    86                           ; 
    87                           ; 
    88                           ; Code-generator required, PIC16F887 Definitions
    89                           ; 
    90                           ; SFR Addresses
    91  0000                     	;# 
    92  0001                     	;# 
    93  0002                     	;# 
    94  0003                     	;# 
    95  0004                     	;# 
    96  0005                     	;# 
    97  0006                     	;# 
    98  0007                     	;# 
    99  0008                     	;# 
   100  0009                     	;# 
   101  000A                     	;# 
   102  000B                     	;# 
   103  000C                     	;# 
   104  000D                     	;# 
   105  000E                     	;# 
   106  000E                     	;# 
   107  000F                     	;# 
   108  0010                     	;# 
   109  0011                     	;# 
   110  0012                     	;# 
   111  0013                     	;# 
   112  0014                     	;# 
   113  0015                     	;# 
   114  0015                     	;# 
   115  0016                     	;# 
   116  0017                     	;# 
   117  0018                     	;# 
   118  0019                     	;# 
   119  001A                     	;# 
   120  001B                     	;# 
   121  001B                     	;# 
   122  001C                     	;# 
   123  001D                     	;# 
   124  001E                     	;# 
   125  001F                     	;# 
   126  0081                     	;# 
   127  0085                     	;# 
   128  0086                     	;# 
   129  0087                     	;# 
   130  0088                     	;# 
   131  0089                     	;# 
   132  008C                     	;# 
   133  008D                     	;# 
   134  008E                     	;# 
   135  008F                     	;# 
   136  0090                     	;# 
   137  0091                     	;# 
   138  0092                     	;# 
   139  0093                     	;# 
   140  0093                     	;# 
   141  0093                     	;# 
   142  0094                     	;# 
   143  0095                     	;# 
   144  0096                     	;# 
   145  0097                     	;# 
   146  0098                     	;# 
   147  0099                     	;# 
   148  009A                     	;# 
   149  009B                     	;# 
   150  009C                     	;# 
   151  009D                     	;# 
   152  009E                     	;# 
   153  009F                     	;# 
   154  0105                     	;# 
   155  0107                     	;# 
   156  0108                     	;# 
   157  0109                     	;# 
   158  010C                     	;# 
   159  010C                     	;# 
   160  010D                     	;# 
   161  010E                     	;# 
   162  010F                     	;# 
   163  0185                     	;# 
   164  0187                     	;# 
   165  0188                     	;# 
   166  0189                     	;# 
   167  018C                     	;# 
   168  018D                     	;# 
   169  0000                     	;# 
   170  0001                     	;# 
   171  0002                     	;# 
   172  0003                     	;# 
   173  0004                     	;# 
   174  0005                     	;# 
   175  0006                     	;# 
   176  0007                     	;# 
   177  0008                     	;# 
   178  0009                     	;# 
   179  000A                     	;# 
   180  000B                     	;# 
   181  000C                     	;# 
   182  000D                     	;# 
   183  000E                     	;# 
   184  000E                     	;# 
   185  000F                     	;# 
   186  0010                     	;# 
   187  0011                     	;# 
   188  0012                     	;# 
   189  0013                     	;# 
   190  0014                     	;# 
   191  0015                     	;# 
   192  0015                     	;# 
   193  0016                     	;# 
   194  0017                     	;# 
   195  0018                     	;# 
   196  0019                     	;# 
   197  001A                     	;# 
   198  001B                     	;# 
   199  001B                     	;# 
   200  001C                     	;# 
   201  001D                     	;# 
   202  001E                     	;# 
   203  001F                     	;# 
   204  0081                     	;# 
   205  0085                     	;# 
   206  0086                     	;# 
   207  0087                     	;# 
   208  0088                     	;# 
   209  0089                     	;# 
   210  008C                     	;# 
   211  008D                     	;# 
   212  008E                     	;# 
   213  008F                     	;# 
   214  0090                     	;# 
   215  0091                     	;# 
   216  0092                     	;# 
   217  0093                     	;# 
   218  0093                     	;# 
   219  0093                     	;# 
   220  0094                     	;# 
   221  0095                     	;# 
   222  0096                     	;# 
   223  0097                     	;# 
   224  0098                     	;# 
   225  0099                     	;# 
   226  009A                     	;# 
   227  009B                     	;# 
   228  009C                     	;# 
   229  009D                     	;# 
   230  009E                     	;# 
   231  009F                     	;# 
   232  0105                     	;# 
   233  0107                     	;# 
   234  0108                     	;# 
   235  0109                     	;# 
   236  010C                     	;# 
   237  010C                     	;# 
   238  010D                     	;# 
   239  010E                     	;# 
   240  010F                     	;# 
   241  0185                     	;# 
   242  0187                     	;# 
   243  0188                     	;# 
   244  0189                     	;# 
   245  018C                     	;# 
   246  018D                     	;# 
   247  0000                     	;# 
   248  0001                     	;# 
   249  0002                     	;# 
   250  0003                     	;# 
   251  0004                     	;# 
   252  0005                     	;# 
   253  0006                     	;# 
   254  0007                     	;# 
   255  0008                     	;# 
   256  0009                     	;# 
   257  000A                     	;# 
   258  000B                     	;# 
   259  000C                     	;# 
   260  000D                     	;# 
   261  000E                     	;# 
   262  000E                     	;# 
   263  000F                     	;# 
   264  0010                     	;# 
   265  0011                     	;# 
   266  0012                     	;# 
   267  0013                     	;# 
   268  0014                     	;# 
   269  0015                     	;# 
   270  0015                     	;# 
   271  0016                     	;# 
   272  0017                     	;# 
   273  0018                     	;# 
   274  0019                     	;# 
   275  001A                     	;# 
   276  001B                     	;# 
   277  001B                     	;# 
   278  001C                     	;# 
   279  001D                     	;# 
   280  001E                     	;# 
   281  001F                     	;# 
   282  0081                     	;# 
   283  0085                     	;# 
   284  0086                     	;# 
   285  0087                     	;# 
   286  0088                     	;# 
   287  0089                     	;# 
   288  008C                     	;# 
   289  008D                     	;# 
   290  008E                     	;# 
   291  008F                     	;# 
   292  0090                     	;# 
   293  0091                     	;# 
   294  0092                     	;# 
   295  0093                     	;# 
   296  0093                     	;# 
   297  0093                     	;# 
   298  0094                     	;# 
   299  0095                     	;# 
   300  0096                     	;# 
   301  0097                     	;# 
   302  0098                     	;# 
   303  0099                     	;# 
   304  009A                     	;# 
   305  009B                     	;# 
   306  009C                     	;# 
   307  009D                     	;# 
   308  009E                     	;# 
   309  009F                     	;# 
   310  0105                     	;# 
   311  0107                     	;# 
   312  0108                     	;# 
   313  0109                     	;# 
   314  010C                     	;# 
   315  010C                     	;# 
   316  010D                     	;# 
   317  010E                     	;# 
   318  010F                     	;# 
   319  0185                     	;# 
   320  0187                     	;# 
   321  0188                     	;# 
   322  0189                     	;# 
   323  018C                     	;# 
   324  018D                     	;# 
   325  0000                     	;# 
   326  0001                     	;# 
   327  0002                     	;# 
   328  0003                     	;# 
   329  0004                     	;# 
   330  0005                     	;# 
   331  0006                     	;# 
   332  0007                     	;# 
   333  0008                     	;# 
   334  0009                     	;# 
   335  000A                     	;# 
   336  000B                     	;# 
   337  000C                     	;# 
   338  000D                     	;# 
   339  000E                     	;# 
   340  000E                     	;# 
   341  000F                     	;# 
   342  0010                     	;# 
   343  0011                     	;# 
   344  0012                     	;# 
   345  0013                     	;# 
   346  0014                     	;# 
   347  0015                     	;# 
   348  0015                     	;# 
   349  0016                     	;# 
   350  0017                     	;# 
   351  0018                     	;# 
   352  0019                     	;# 
   353  001A                     	;# 
   354  001B                     	;# 
   355  001B                     	;# 
   356  001C                     	;# 
   357  001D                     	;# 
   358  001E                     	;# 
   359  001F                     	;# 
   360  0081                     	;# 
   361  0085                     	;# 
   362  0086                     	;# 
   363  0087                     	;# 
   364  0088                     	;# 
   365  0089                     	;# 
   366  008C                     	;# 
   367  008D                     	;# 
   368  008E                     	;# 
   369  008F                     	;# 
   370  0090                     	;# 
   371  0091                     	;# 
   372  0092                     	;# 
   373  0093                     	;# 
   374  0093                     	;# 
   375  0093                     	;# 
   376  0094                     	;# 
   377  0095                     	;# 
   378  0096                     	;# 
   379  0097                     	;# 
   380  0098                     	;# 
   381  0099                     	;# 
   382  009A                     	;# 
   383  009B                     	;# 
   384  009C                     	;# 
   385  009D                     	;# 
   386  009E                     	;# 
   387  009F                     	;# 
   388  0105                     	;# 
   389  0107                     	;# 
   390  0108                     	;# 
   391  0109                     	;# 
   392  010C                     	;# 
   393  010C                     	;# 
   394  010D                     	;# 
   395  010E                     	;# 
   396  010F                     	;# 
   397  0185                     	;# 
   398  0187                     	;# 
   399  0188                     	;# 
   400  0189                     	;# 
   401  018C                     	;# 
   402  018D                     	;# 
   403  0000                     	;# 
   404  0001                     	;# 
   405  0002                     	;# 
   406  0003                     	;# 
   407  0004                     	;# 
   408  0005                     	;# 
   409  0006                     	;# 
   410  0007                     	;# 
   411  0008                     	;# 
   412  0009                     	;# 
   413  000A                     	;# 
   414  000B                     	;# 
   415  000C                     	;# 
   416  000D                     	;# 
   417  000E                     	;# 
   418  000E                     	;# 
   419  000F                     	;# 
   420  0010                     	;# 
   421  0011                     	;# 
   422  0012                     	;# 
   423  0013                     	;# 
   424  0014                     	;# 
   425  0015                     	;# 
   426  0015                     	;# 
   427  0016                     	;# 
   428  0017                     	;# 
   429  0018                     	;# 
   430  0019                     	;# 
   431  001A                     	;# 
   432  001B                     	;# 
   433  001B                     	;# 
   434  001C                     	;# 
   435  001D                     	;# 
   436  001E                     	;# 
   437  001F                     	;# 
   438  0081                     	;# 
   439  0085                     	;# 
   440  0086                     	;# 
   441  0087                     	;# 
   442  0088                     	;# 
   443  0089                     	;# 
   444  008C                     	;# 
   445  008D                     	;# 
   446  008E                     	;# 
   447  008F                     	;# 
   448  0090                     	;# 
   449  0091                     	;# 
   450  0092                     	;# 
   451  0093                     	;# 
   452  0093                     	;# 
   453  0093                     	;# 
   454  0094                     	;# 
   455  0095                     	;# 
   456  0096                     	;# 
   457  0097                     	;# 
   458  0098                     	;# 
   459  0099                     	;# 
   460  009A                     	;# 
   461  009B                     	;# 
   462  009C                     	;# 
   463  009D                     	;# 
   464  009E                     	;# 
   465  009F                     	;# 
   466  0105                     	;# 
   467  0107                     	;# 
   468  0108                     	;# 
   469  0109                     	;# 
   470  010C                     	;# 
   471  010C                     	;# 
   472  010D                     	;# 
   473  010E                     	;# 
   474  010F                     	;# 
   475  0185                     	;# 
   476  0187                     	;# 
   477  0188                     	;# 
   478  0189                     	;# 
   479  018C                     	;# 
   480  018D                     	;# 
   481  0000                     	;# 
   482  0001                     	;# 
   483  0002                     	;# 
   484  0003                     	;# 
   485  0004                     	;# 
   486  0005                     	;# 
   487  0006                     	;# 
   488  0007                     	;# 
   489  0008                     	;# 
   490  0009                     	;# 
   491  000A                     	;# 
   492  000B                     	;# 
   493  000C                     	;# 
   494  000D                     	;# 
   495  000E                     	;# 
   496  000E                     	;# 
   497  000F                     	;# 
   498  0010                     	;# 
   499  0011                     	;# 
   500  0012                     	;# 
   501  0013                     	;# 
   502  0014                     	;# 
   503  0015                     	;# 
   504  0015                     	;# 
   505  0016                     	;# 
   506  0017                     	;# 
   507  0018                     	;# 
   508  0019                     	;# 
   509  001A                     	;# 
   510  001B                     	;# 
   511  001B                     	;# 
   512  001C                     	;# 
   513  001D                     	;# 
   514  001E                     	;# 
   515  001F                     	;# 
   516  0081                     	;# 
   517  0085                     	;# 
   518  0086                     	;# 
   519  0087                     	;# 
   520  0088                     	;# 
   521  0089                     	;# 
   522  008C                     	;# 
   523  008D                     	;# 
   524  008E                     	;# 
   525  008F                     	;# 
   526  0090                     	;# 
   527  0091                     	;# 
   528  0092                     	;# 
   529  0093                     	;# 
   530  0093                     	;# 
   531  0093                     	;# 
   532  0094                     	;# 
   533  0095                     	;# 
   534  0096                     	;# 
   535  0097                     	;# 
   536  0098                     	;# 
   537  0099                     	;# 
   538  009A                     	;# 
   539  009B                     	;# 
   540  009C                     	;# 
   541  009D                     	;# 
   542  009E                     	;# 
   543  009F                     	;# 
   544  0105                     	;# 
   545  0107                     	;# 
   546  0108                     	;# 
   547  0109                     	;# 
   548  010C                     	;# 
   549  010C                     	;# 
   550  010D                     	;# 
   551  010E                     	;# 
   552  010F                     	;# 
   553  0185                     	;# 
   554  0187                     	;# 
   555  0188                     	;# 
   556  0189                     	;# 
   557  018C                     	;# 
   558  018D                     	;# 
   559  0000                     	;# 
   560  0001                     	;# 
   561  0002                     	;# 
   562  0003                     	;# 
   563  0004                     	;# 
   564  0005                     	;# 
   565  0006                     	;# 
   566  0007                     	;# 
   567  0008                     	;# 
   568  0009                     	;# 
   569  000A                     	;# 
   570  000B                     	;# 
   571  000C                     	;# 
   572  000D                     	;# 
   573  000E                     	;# 
   574  000E                     	;# 
   575  000F                     	;# 
   576  0010                     	;# 
   577  0011                     	;# 
   578  0012                     	;# 
   579  0013                     	;# 
   580  0014                     	;# 
   581  0015                     	;# 
   582  0015                     	;# 
   583  0016                     	;# 
   584  0017                     	;# 
   585  0018                     	;# 
   586  0019                     	;# 
   587  001A                     	;# 
   588  001B                     	;# 
   589  001B                     	;# 
   590  001C                     	;# 
   591  001D                     	;# 
   592  001E                     	;# 
   593  001F                     	;# 
   594  0081                     	;# 
   595  0085                     	;# 
   596  0086                     	;# 
   597  0087                     	;# 
   598  0088                     	;# 
   599  0089                     	;# 
   600  008C                     	;# 
   601  008D                     	;# 
   602  008E                     	;# 
   603  008F                     	;# 
   604  0090                     	;# 
   605  0091                     	;# 
   606  0092                     	;# 
   607  0093                     	;# 
   608  0093                     	;# 
   609  0093                     	;# 
   610  0094                     	;# 
   611  0095                     	;# 
   612  0096                     	;# 
   613  0097                     	;# 
   614  0098                     	;# 
   615  0099                     	;# 
   616  009A                     	;# 
   617  009B                     	;# 
   618  009C                     	;# 
   619  009D                     	;# 
   620  009E                     	;# 
   621  009F                     	;# 
   622  0105                     	;# 
   623  0107                     	;# 
   624  0108                     	;# 
   625  0109                     	;# 
   626  010C                     	;# 
   627  010C                     	;# 
   628  010D                     	;# 
   629  010E                     	;# 
   630  010F                     	;# 
   631  0185                     	;# 
   632  0187                     	;# 
   633  0188                     	;# 
   634  0189                     	;# 
   635  018C                     	;# 
   636  018D                     	;# 
   637  0000                     	;# 
   638  0001                     	;# 
   639  0002                     	;# 
   640  0003                     	;# 
   641  0004                     	;# 
   642  0005                     	;# 
   643  0006                     	;# 
   644  0007                     	;# 
   645  0008                     	;# 
   646  0009                     	;# 
   647  000A                     	;# 
   648  000B                     	;# 
   649  000C                     	;# 
   650  000D                     	;# 
   651  000E                     	;# 
   652  000E                     	;# 
   653  000F                     	;# 
   654  0010                     	;# 
   655  0011                     	;# 
   656  0012                     	;# 
   657  0013                     	;# 
   658  0014                     	;# 
   659  0015                     	;# 
   660  0015                     	;# 
   661  0016                     	;# 
   662  0017                     	;# 
   663  0018                     	;# 
   664  0019                     	;# 
   665  001A                     	;# 
   666  001B                     	;# 
   667  001B                     	;# 
   668  001C                     	;# 
   669  001D                     	;# 
   670  001E                     	;# 
   671  001F                     	;# 
   672  0081                     	;# 
   673  0085                     	;# 
   674  0086                     	;# 
   675  0087                     	;# 
   676  0088                     	;# 
   677  0089                     	;# 
   678  008C                     	;# 
   679  008D                     	;# 
   680  008E                     	;# 
   681  008F                     	;# 
   682  0090                     	;# 
   683  0091                     	;# 
   684  0092                     	;# 
   685  0093                     	;# 
   686  0093                     	;# 
   687  0093                     	;# 
   688  0094                     	;# 
   689  0095                     	;# 
   690  0096                     	;# 
   691  0097                     	;# 
   692  0098                     	;# 
   693  0099                     	;# 
   694  009A                     	;# 
   695  009B                     	;# 
   696  009C                     	;# 
   697  009D                     	;# 
   698  009E                     	;# 
   699  009F                     	;# 
   700  0105                     	;# 
   701  0107                     	;# 
   702  0108                     	;# 
   703  0109                     	;# 
   704  010C                     	;# 
   705  010C                     	;# 
   706  010D                     	;# 
   707  010E                     	;# 
   708  010F                     	;# 
   709  0185                     	;# 
   710  0187                     	;# 
   711  0188                     	;# 
   712  0189                     	;# 
   713  018C                     	;# 
   714  018D                     	;# 
   715  0000                     	;# 
   716  0001                     	;# 
   717  0002                     	;# 
   718  0003                     	;# 
   719  0004                     	;# 
   720  0005                     	;# 
   721  0006                     	;# 
   722  0007                     	;# 
   723  0008                     	;# 
   724  0009                     	;# 
   725  000A                     	;# 
   726  000B                     	;# 
   727  000C                     	;# 
   728  000D                     	;# 
   729  000E                     	;# 
   730  000E                     	;# 
   731  000F                     	;# 
   732  0010                     	;# 
   733  0011                     	;# 
   734  0012                     	;# 
   735  0013                     	;# 
   736  0014                     	;# 
   737  0015                     	;# 
   738  0015                     	;# 
   739  0016                     	;# 
   740  0017                     	;# 
   741  0018                     	;# 
   742  0019                     	;# 
   743  001A                     	;# 
   744  001B                     	;# 
   745  001B                     	;# 
   746  001C                     	;# 
   747  001D                     	;# 
   748  001E                     	;# 
   749  001F                     	;# 
   750  0081                     	;# 
   751  0085                     	;# 
   752  0086                     	;# 
   753  0087                     	;# 
   754  0088                     	;# 
   755  0089                     	;# 
   756  008C                     	;# 
   757  008D                     	;# 
   758  008E                     	;# 
   759  008F                     	;# 
   760  0090                     	;# 
   761  0091                     	;# 
   762  0092                     	;# 
   763  0093                     	;# 
   764  0093                     	;# 
   765  0093                     	;# 
   766  0094                     	;# 
   767  0095                     	;# 
   768  0096                     	;# 
   769  0097                     	;# 
   770  0098                     	;# 
   771  0099                     	;# 
   772  009A                     	;# 
   773  009B                     	;# 
   774  009C                     	;# 
   775  009D                     	;# 
   776  009E                     	;# 
   777  009F                     	;# 
   778  0105                     	;# 
   779  0107                     	;# 
   780  0108                     	;# 
   781  0109                     	;# 
   782  010C                     	;# 
   783  010C                     	;# 
   784  010D                     	;# 
   785  010E                     	;# 
   786  010F                     	;# 
   787  0185                     	;# 
   788  0187                     	;# 
   789  0188                     	;# 
   790  0189                     	;# 
   791  018C                     	;# 
   792  018D                     	;# 
   793                           
   794                           	psect	idataBANK1
   795  0004                     __pidataBANK1:
   796                           
   797                           ;initializer for _key1
   798  0004  3430               	retlw	48
   799                           
   800                           ;initializer for _key
   801  0005  3430               	retlw	48
   802                           
   803                           	psect	idataBANK3
   804  15AC                     __pidataBANK3:
   805                           
   806                           ;initializer for keypad_getkey@F1296
   807  15AC  3431               	retlw	49
   808  15AD  3432               	retlw	50
   809  15AE  3433               	retlw	51
   810  15AF  3441               	retlw	65
   811  15B0  3434               	retlw	52
   812  15B1  3435               	retlw	53
   813  15B2  3436               	retlw	54
   814  15B3  3442               	retlw	66
   815  15B4  3437               	retlw	55
   816  15B5  3438               	retlw	56
   817  15B6  3439               	retlw	57
   818  15B7  3443               	retlw	67
   819  15B8  342A               	retlw	42
   820  15B9  3430               	retlw	48
   821  15BA  3423               	retlw	35
   822  15BB  3444               	retlw	68
   823                           
   824                           	psect	strings
   825  0800                     __pstrings:
   826  0800                     stringtab:
   827  0800                     __stringtab:
   828                           
   829                           ;	String table - string pointers are 1 byte each
   830  0800  1BFF               	btfsc	btemp+1,7
   831  0801  280A               	ljmp	stringcode
   832  0802  1383               	bcf	3,7
   833  0803  187F               	btfsc	btemp+1,0
   834  0804  1783               	bsf	3,7
   835  0805  0800               	movf	0,w
   836  0806  0A84               	incf	4,f
   837  0807  1903               	skipnz
   838  0808  0AFF               	incf	btemp+1,f
   839  0809  0008               	return
   840  080A                     stringcode:
   841  080A                     stringdir:
   842  080A  3008               	movlw	high stringdir
   843  080B  008A               	movwf	10
   844  080C  0804               	movf	4,w
   845  080D  0A84               	incf	4,f
   846  080E  0782               	addwf	2,f
   847  080F                     __stringbase:
   848  080F  3400               	retlw	0
   849  0810                     __end_of__stringtab:
   850  0810                     _dpowers:
   851  0810  3401               	retlw	1
   852  0811  3400               	retlw	0
   853  0812  340A               	retlw	10
   854  0813  3400               	retlw	0
   855  0814  3464               	retlw	100
   856  0815  3400               	retlw	0
   857  0816  34E8               	retlw	232
   858  0817  3403               	retlw	3
   859  0818  3410               	retlw	16
   860  0819  3427               	retlw	39
   861  081A                     __end_of_dpowers:
   862  081A                     _inputPassword:
   863  081A  3432               	retlw	50
   864  081B  3430               	retlw	48
   865  081C  3432               	retlw	50
   866  081D  3431               	retlw	49
   867  081E  3400               	retlw	0
   868  081F                     __end_of_inputPassword:
   869  081F                     _exitPassword:
   870  081F  342A               	retlw	42
   871  0820  3400               	retlw	0
   872  0821                     __end_of_exitPassword:
   873  0821                     log@coeff:
   874  0821  3400               	retlw	0
   875  0822  3400               	retlw	0
   876  0823  3400               	retlw	0
   877  0824  3400               	retlw	0
   878  0825  34C4               	retlw	196
   879  0826  34FF               	retlw	255
   880  0827  347F               	retlw	127
   881  0828  343F               	retlw	63
   882  0829  3480               	retlw	128
   883  082A  34EF               	retlw	239
   884  082B  34FF               	retlw	255
   885  082C  34BE               	retlw	190
   886  082D  3490               	retlw	144
   887  082E  34E1               	retlw	225
   888  082F  34A9               	retlw	169
   889  0830  343E               	retlw	62
   890  0831  34EC               	retlw	236
   891  0832  3482               	retlw	130
   892  0833  3476               	retlw	118
   893  0834  34BE               	retlw	190
   894  0835  3482               	retlw	130
   895  0836  34AD               	retlw	173
   896  0837  342B               	retlw	43
   897  0838  343E               	retlw	62
   898  0839  340E               	retlw	14
   899  083A  343C               	retlw	60
   900  083B  34C3               	retlw	195
   901  083C  34BD               	retlw	189
   902  083D  3487               	retlw	135
   903  083E  34D1               	retlw	209
   904  083F  3413               	retlw	19
   905  0840  343D               	retlw	61
   906  0841  3441               	retlw	65
   907  0842  3478               	retlw	120
   908  0843  34D3               	retlw	211
   909  0844  34BB               	retlw	187
   910  0845                     __end_oflog@coeff:
   911  001E                     _ADRESH	set	30
   912  001F                     _ADCON0bits	set	31
   913  0005                     _PORTA	set	5
   914  0006                     _PORTB	set	6
   915  0008                     _PORTDbits	set	8
   916  0008                     _PORTD	set	8
   917  0007                     _PORTCbits	set	7
   918  009E                     _ADRESL	set	158
   919  009F                     _ADCON1bits	set	159
   920  008F                     _OSCCON	set	143
   921  0081                     _OPTION_REGbits	set	129
   922  0086                     _TRISB	set	134
   923  0088                     _TRISD	set	136
   924  043C                     _TRISC4	set	1084
   925  043D                     _TRISC5	set	1085
   926  043B                     _TRISC3	set	1083
   927  042B                     _TRISA3	set	1067
   928  042A                     _TRISA2	set	1066
   929  0429                     _TRISA1	set	1065
   930  0428                     _TRISA0	set	1064
   931  043E                     _TRISC6	set	1086
   932  0439                     _TRISC1	set	1081
   933  043A                     _TRISC2	set	1082
   934  0438                     _TRISC0	set	1080
   935  0188                     _ANSEL	set	392
   936  0189                     _ANSELH	set	393
   937  0845                     STR_2:
   938  0845  3454               	retlw	84	;'T'
   939  0846  3445               	retlw	69	;'E'
   940  0847  344D               	retlw	77	;'M'
   941  0848  3450               	retlw	80	;'P'
   942  0849  343A               	retlw	58	;':'
   943  084A  3400               	retlw	0
   944  084B                     STR_1:
   945  084B  3425               	retlw	37	;'%'
   946  084C  3464               	retlw	100	;'d'
   947  084D  3425               	retlw	37	;'%'
   948  084E  3463               	retlw	99	;'c'
   949  084F  3443               	retlw	67	;'C'
   950  0850  3400               	retlw	0
   951  0851                     STR_3:
   952  0851  3420               	retlw	32	;' '
   953  0852  3420               	retlw	32	;' '
   954  0853  3400               	retlw	0
   955                           
   956                           	psect	cinit
   957  07D4                     start_initialization:	
   958                           ; #config settings
   959                           
   960  07D4                     __initialization:
   961                           
   962                           ; Initialize objects allocated to BANK3
   963  07D4  1783               	bsf	3,7	;select IRP bank2
   964  07D5  30A0               	movlw	low (__pdataBANK3+16)
   965  07D6  00FD               	movwf	btemp+-1
   966  07D7  3015               	movlw	high __pidataBANK3
   967  07D8  00FE               	movwf	btemp
   968  07D9  30AC               	movlw	low __pidataBANK3
   969  07DA  00FF               	movwf	btemp+1
   970  07DB  3090               	movlw	low __pdataBANK3
   971  07DC  0084               	movwf	4
   972  07DD  160A  118A  25D2  120A  118A  	fcall	init_ram0
   973                           
   974                           ; Initialize objects allocated to BANK1
   975  07E2  1683               	bsf	3,5	;RP0=1, select bank1
   976  07E3  1303               	bcf	3,6	;RP1=0, select bank1
   977  07E4  120A  118A  2004  120A  118A  	fcall	__pidataBANK1	;fetch initializer
   978  07E9  00ED               	movwf	__pdataBANK1& (0+127)
   979  07EA  120A  118A  2005  120A  118A  	fcall	__pidataBANK1+1	;fetch initializer
   980  07EF  00EE               	movwf	(__pdataBANK1+1)& (0+127)
   981                           
   982                           ; Clear objects allocated to BANK1
   983  07F0  1383               	bcf	3,7	;select IRP bank0
   984  07F1  30D6               	movlw	low __pbssBANK1
   985  07F2  0084               	movwf	4
   986  07F3  30ED               	movlw	low (__pbssBANK1+23)
   987  07F4  120A  118A  2006  120A  118A  	fcall	clear_ram0
   988                           
   989                           ; Clear objects allocated to BANK0
   990  07F9  1283               	bcf	3,5	;RP0=0, select bank0
   991  07FA  1303               	bcf	3,6	;RP1=0, select bank0
   992  07FB  01EE               	clrf	__pbssBANK0& (0+127)
   993  07FC                     end_of_initialization:	
   994                           ;End of C runtime variable initialization code
   995                           
   996  07FC                     __end_of__initialization:
   997  07FC  0183               	clrf	3
   998  07FD  120A  158A  2DF2   	ljmp	_main	;jump to C main() function
   999                           
  1000                           	psect	bssBANK0
  1001  006E                     __pbssBANK0:
  1002  006E                     _idx:
  1003  006E                     	ds	1
  1004                           
  1005                           	psect	bssBANK1
  1006  00D6                     __pbssBANK1:
  1007  00D6                     _pass_user:
  1008  00D6                     	ds	5
  1009  00DB                     _errno:
  1010  00DB                     	ds	2
  1011  00DD                     _temp:
  1012  00DD                     	ds	2
  1013  00DF                     _value_adc:
  1014  00DF                     	ds	2
  1015  00E1                     _counter_try:
  1016  00E1                     	ds	2
  1017  00E3                     _pass_user2:
  1018  00E3                     	ds	2
  1019  00E5                     _r:
  1020  00E5                     	ds	2
  1021  00E7                     _f:
  1022  00E7                     	ds	2
  1023  00E9                     _lm35:
  1024  00E9                     	ds	1
  1025  00EA                     _counter_digito:
  1026  00EA                     	ds	1
  1027  00EB                     _casaOcupada:
  1028  00EB                     	ds	1
  1029  00EC                     _idx2:
  1030  00EC                     	ds	1
  1031                           
  1032                           	psect	dataBANK1
  1033  00ED                     __pdataBANK1:
  1034  00ED                     _key1:
  1035  00ED                     	ds	1
  1036  00EE                     _key:
  1037  00EE                     	ds	1
  1038                           
  1039                           	psect	dataBANK3
  1040  0190                     __pdataBANK3:
  1041  0190                     keypad_getkey@F1296:
  1042  0190                     	ds	16
  1043                           
  1044                           	psect	inittext
  1045  15CE                     init_fetch0:	
  1046                           ;	Called with low address in FSR and high address in W
  1047                           
  1048  15CE  087E               	movf	btemp,w
  1049  15CF  008A               	movwf	10
  1050  15D0  087F               	movf	btemp+1,w
  1051  15D1  0082               	movwf	2
  1052  15D2                     init_ram0:	
  1053                           ;Called with:
  1054                           ;	high address of idata address in btemp 
  1055                           ;	low address of idata address in btemp+1 
  1056                           ;	low address of data in FSR
  1057                           ;	high address + 1 of data in btemp-1
  1058                           
  1059  15D2  160A  118A  25CE  160A  118A  	fcall	init_fetch0
  1060  15D7  0080               	movwf	0
  1061  15D8  0A84               	incf	4,f
  1062  15D9  0804               	movf	4,w
  1063  15DA  067D               	xorwf	btemp+-1,w
  1064  15DB  1903               	btfsc	3,2
  1065  15DC  3400               	retlw	0
  1066  15DD  0AFF               	incf	btemp+1,f
  1067  15DE  1903               	btfsc	3,2
  1068  15DF  0AFE               	incf	btemp,f
  1069  15E0  2DD2               	goto	init_ram0
  1070                           
  1071                           	psect	clrtext
  1072  0006                     clear_ram0:	
  1073                           ;	Called with FSR containing the base address, and
  1074                           ;	W with the last address+1
  1075                           
  1076  0006  0064               	clrwdt	;clear the watchdog before getting into this loop
  1077  0007                     clrloop0:
  1078  0007  0180               	clrf	0	;clear RAM location pointed to by FSR
  1079  0008  0A84               	incf	4,f	;increment pointer
  1080  0009  0604               	xorwf	4,w	;XOR with final address
  1081  000A  1903               	btfsc	3,2	;have we reached the end yet?
  1082  000B  3400               	retlw	0	;all done for this memory range, return
  1083  000C  0604               	xorwf	4,w	;XOR again to restore value
  1084  000D  2807               	goto	clrloop0	;do the next byte
  1085                           
  1086                           	psect	cstackBANK1
  1087  00A0                     __pcstackBANK1:
  1088  00A0                     ?_eval_poly:
  1089  00A0                     eval_poly@x:	
  1090                           ; 4 bytes @ 0x0
  1091                           
  1092                           
  1093                           ; 4 bytes @ 0x0
  1094  00A0                     	ds	4
  1095  00A4                     eval_poly@d:
  1096                           
  1097                           ; 1 bytes @ 0x4
  1098  00A4                     	ds	1
  1099  00A5                     eval_poly@n:
  1100                           
  1101                           ; 2 bytes @ 0x5
  1102  00A5                     	ds	2
  1103  00A7                     ??_eval_poly:
  1104                           
  1105                           ; 1 bytes @ 0x7
  1106  00A7                     	ds	5
  1107  00AC                     eval_poly@res:
  1108                           
  1109                           ; 4 bytes @ 0xC
  1110  00AC                     	ds	4
  1111  00B0                     ?_log:
  1112  00B0                     log@x:	
  1113                           ; 4 bytes @ 0x10
  1114                           
  1115                           
  1116                           ; 4 bytes @ 0x10
  1117  00B0                     	ds	4
  1118  00B4                     log@exponent:
  1119                           
  1120                           ; 2 bytes @ 0x14
  1121  00B4                     	ds	2
  1122  00B6                     ??_main:
  1123                           
  1124                           ; 1 bytes @ 0x16
  1125  00B6                     	ds	2
  1126  00B8                     main@Temperature:
  1127                           
  1128                           ; 10 bytes @ 0x18
  1129  00B8                     	ds	10
  1130  00C2                     main@a:
  1131                           
  1132                           ; 4 bytes @ 0x22
  1133  00C2                     	ds	4
  1134  00C6                     main@tempC:
  1135                           
  1136                           ; 4 bytes @ 0x26
  1137  00C6                     	ds	4
  1138  00CA                     _main$1109:
  1139                           
  1140                           ; 4 bytes @ 0x2A
  1141  00CA                     	ds	4
  1142  00CE                     _main$1110:
  1143                           
  1144                           ; 4 bytes @ 0x2E
  1145  00CE                     	ds	4
  1146  00D2                     _main$1111:
  1147                           
  1148                           ; 4 bytes @ 0x32
  1149  00D2                     	ds	4
  1150                           
  1151                           	psect	cstackCOMMON
  1152  0070                     __pcstackCOMMON:
  1153  0070                     ?___fleq:
  1154  0070                     ?___flge:	
  1155                           ; 1 bit 
  1156                           
  1157  0070                     ?_LCD_Command:	
  1158                           ; 1 bit 
  1159                           
  1160  0070                     ??_LCD_Command:	
  1161                           ; 1 bytes @ 0x0
  1162                           
  1163  0070                     ?_ADC_init:	
  1164                           ; 1 bytes @ 0x0
  1165                           
  1166  0070                     ??_ADC_init:	
  1167                           ; 1 bytes @ 0x0
  1168                           
  1169  0070                     ?_alarma_init:	
  1170                           ; 1 bytes @ 0x0
  1171                           
  1172  0070                     ??_alarma_init:	
  1173                           ; 1 bytes @ 0x0
  1174                           
  1175  0070                     ?_alarmaFlama:	
  1176                           ; 1 bytes @ 0x0
  1177                           
  1178  0070                     ??_alarmaFlama:	
  1179                           ; 1 bytes @ 0x0
  1180                           
  1181  0070                     ?_apagarAlarma1:	
  1182                           ; 1 bytes @ 0x0
  1183                           
  1184  0070                     ??_apagarAlarma1:	
  1185                           ; 1 bytes @ 0x0
  1186                           
  1187  0070                     ?_alarmaSeguridad:	
  1188                           ; 1 bytes @ 0x0
  1189                           
  1190  0070                     ??_alarmaSeguridad:	
  1191                           ; 1 bytes @ 0x0
  1192                           
  1193  0070                     ?_apagarAlarma2:	
  1194                           ; 1 bytes @ 0x0
  1195                           
  1196  0070                     ??_apagarAlarma2:	
  1197                           ; 1 bytes @ 0x0
  1198                           
  1199  0070                     ?_sensorFlame_init:	
  1200                           ; 1 bytes @ 0x0
  1201                           
  1202  0070                     ??_sensorFlame_init:	
  1203                           ; 1 bytes @ 0x0
  1204                           
  1205  0070                     ?_microphone_init:	
  1206                           ; 1 bytes @ 0x0
  1207                           
  1208  0070                     ??_microphone_init:	
  1209                           ; 1 bytes @ 0x0
  1210                           
  1211  0070                     ?_sensorProximidad_init:	
  1212                           ; 1 bytes @ 0x0
  1213                           
  1214  0070                     ??_sensorProximidad_init:	
  1215                           ; 1 bytes @ 0x0
  1216                           
  1217  0070                     ?_LCD_Init:	
  1218                           ; 1 bytes @ 0x0
  1219                           
  1220  0070                     ?_LCD_Char:	
  1221                           ; 1 bytes @ 0x0
  1222                           
  1223  0070                     ??_LCD_Char:	
  1224                           ; 1 bytes @ 0x0
  1225                           
  1226  0070                     ?_LCD_Clear:	
  1227                           ; 1 bytes @ 0x0
  1228                           
  1229  0070                     ?_keypad_init:	
  1230                           ; 1 bytes @ 0x0
  1231                           
  1232  0070                     ??_keypad_init:	
  1233                           ; 1 bytes @ 0x0
  1234                           
  1235  0070                     ?_main:	
  1236                           ; 1 bytes @ 0x0
  1237                           
  1238  0070                     ?_capturaTemp:	
  1239                           ; 1 bytes @ 0x0
  1240                           
  1241  0070                     ?__Umul8_16:	
  1242                           ; 2 bytes @ 0x0
  1243                           
  1244  0070                     ?_LeerSensorFlame:	
  1245                           ; 2 bytes @ 0x0
  1246                           
  1247  0070                     ?_LeerMicrofono:	
  1248                           ; 2 bytes @ 0x0
  1249                           
  1250  0070                     ?_LeerSensorProximidad:	
  1251                           ; 2 bytes @ 0x0
  1252                           
  1253  0070                     ?___lwdiv:	
  1254                           ; 2 bytes @ 0x0
  1255                           
  1256  0070                     ?___fltol:	
  1257                           ; 2 bytes @ 0x0
  1258                           
  1259  0070                     ?___xxtofl:	
  1260                           ; 4 bytes @ 0x0
  1261                           
  1262  0070                     __Umul8_16@multiplicand:	
  1263                           ; 4 bytes @ 0x0
  1264                           
  1265  0070                     ___lwdiv@divisor:	
  1266                           ; 1 bytes @ 0x0
  1267                           
  1268  0070                     ___fleq@ff1:	
  1269                           ; 2 bytes @ 0x0
  1270                           
  1271  0070                     ___flge@ff1:	
  1272                           ; 4 bytes @ 0x0
  1273                           
  1274  0070                     ___fltol@f1:	
  1275                           ; 4 bytes @ 0x0
  1276                           
  1277  0070                     ___xxtofl@val:	
  1278                           ; 4 bytes @ 0x0
  1279                           
  1280                           
  1281                           ; 4 bytes @ 0x0
  1282  0070                     	ds	2
  1283  0072                     ??_capturaTemp:
  1284  0072                     ??__Umul8_16:	
  1285                           ; 1 bytes @ 0x2
  1286                           
  1287  0072                     ??_LeerSensorFlame:	
  1288                           ; 1 bytes @ 0x2
  1289                           
  1290  0072                     ??_LeerMicrofono:	
  1291                           ; 1 bytes @ 0x2
  1292                           
  1293  0072                     ??_LeerSensorProximidad:	
  1294                           ; 1 bytes @ 0x2
  1295                           
  1296  0072                     LCD_Command@cmd:	
  1297                           ; 1 bytes @ 0x2
  1298                           
  1299  0072                     LCD_Char@dat:	
  1300                           ; 1 bytes @ 0x2
  1301                           
  1302  0072                     LeerMicrofono@a:	
  1303                           ; 1 bytes @ 0x2
  1304                           
  1305  0072                     ___lwdiv@dividend:	
  1306                           ; 2 bytes @ 0x2
  1307                           
  1308                           
  1309                           ; 2 bytes @ 0x2
  1310  0072                     	ds	1
  1311  0073                     ??_LCD_Init:
  1312  0073                     ?_LCD_String:	
  1313                           ; 1 bytes @ 0x3
  1314                           
  1315  0073                     ??_LCD_Clear:	
  1316                           ; 1 bytes @ 0x3
  1317                           
  1318  0073                     LCD_String@msg:	
  1319                           ; 1 bytes @ 0x3
  1320                           
  1321                           
  1322                           ; 2 bytes @ 0x3
  1323  0073                     	ds	1
  1324  0074                     ??___fltol:
  1325  0074                     ??___lwdiv:	
  1326                           ; 1 bytes @ 0x4
  1327                           
  1328  0074                     ??___xxtofl:	
  1329                           ; 1 bytes @ 0x4
  1330                           
  1331  0074                     __Umul8_16@product:	
  1332                           ; 1 bytes @ 0x4
  1333                           
  1334  0074                     ___fleq@ff2:	
  1335                           ; 2 bytes @ 0x4
  1336                           
  1337  0074                     ___flge@ff2:	
  1338                           ; 4 bytes @ 0x4
  1339                           
  1340                           
  1341                           ; 4 bytes @ 0x4
  1342  0074                     	ds	1
  1343  0075                     ??_LCD_String:
  1344  0075                     ?_LCD_String_xy:	
  1345                           ; 1 bytes @ 0x5
  1346                           
  1347  0075                     LCD_String_xy@pos:	
  1348                           ; 1 bytes @ 0x5
  1349                           
  1350  0075                     ___lwdiv@quotient:	
  1351                           ; 1 bytes @ 0x5
  1352                           
  1353                           
  1354                           ; 2 bytes @ 0x5
  1355  0075                     	ds	1
  1356  0076                     LCD_String_xy@msg:
  1357  0076                     __Umul8_16@word_mpld:	
  1358                           ; 1 bytes @ 0x6
  1359                           
  1360                           
  1361                           ; 2 bytes @ 0x6
  1362  0076                     	ds	1
  1363  0077                     ??_LCD_String_xy:
  1364  0077                     ___lwdiv@counter:	
  1365                           ; 1 bytes @ 0x7
  1366                           
  1367                           
  1368                           ; 1 bytes @ 0x7
  1369  0077                     	ds	1
  1370  0078                     ??___fleq:
  1371  0078                     ??___flge:	
  1372                           ; 1 bytes @ 0x8
  1373                           
  1374  0078                     ?___lwmod:	
  1375                           ; 1 bytes @ 0x8
  1376                           
  1377  0078                     LCD_String_xy@row:	
  1378                           ; 2 bytes @ 0x8
  1379                           
  1380  0078                     __Umul8_16@multiplier:	
  1381                           ; 1 bytes @ 0x8
  1382                           
  1383  0078                     ___xxtofl@sign:	
  1384                           ; 1 bytes @ 0x8
  1385                           
  1386  0078                     ___lwmod@divisor:	
  1387                           ; 1 bytes @ 0x8
  1388                           
  1389                           
  1390                           ; 2 bytes @ 0x8
  1391  0078                     	ds	1
  1392  0079                     LCD_String_xy@location:
  1393  0079                     ___fltol@sign1:	
  1394                           ; 1 bytes @ 0x9
  1395                           
  1396  0079                     ___xxtofl@exp:	
  1397                           ; 1 bytes @ 0x9
  1398                           
  1399                           
  1400                           ; 1 bytes @ 0x9
  1401  0079                     	ds	1
  1402  007A                     ___fltol@exp1:
  1403  007A                     ___lwmod@dividend:	
  1404                           ; 1 bytes @ 0xA
  1405                           
  1406  007A                     ___xxtofl@arg:	
  1407                           ; 2 bytes @ 0xA
  1408                           
  1409                           
  1410                           ; 4 bytes @ 0xA
  1411  007A                     	ds	2
  1412  007C                     ??_frexp:
  1413  007C                     ??___lwmod:	
  1414                           ; 1 bytes @ 0xC
  1415                           
  1416                           
  1417                           ; 1 bytes @ 0xC
  1418  007C                     	ds	1
  1419  007D                     ___lwmod@counter:
  1420                           
  1421                           ; 1 bytes @ 0xD
  1422  007D                     	ds	1
  1423                           
  1424                           	psect	cstackBANK0
  1425  0020                     __pcstackBANK0:
  1426  0020                     ?_sprintf:
  1427  0020                     ?_frexp:	
  1428                           ; 2 bytes @ 0x0
  1429                           
  1430  0020                     sprintf@f:	
  1431                           ; 4 bytes @ 0x0
  1432                           
  1433  0020                     frexp@value:	
  1434                           ; 1 bytes @ 0x0
  1435                           
  1436                           
  1437                           ; 4 bytes @ 0x0
  1438  0020                     	ds	4
  1439  0024                     frexp@eptr:
  1440                           
  1441                           ; 1 bytes @ 0x4
  1442  0024                     	ds	1
  1443  0025                     ??_sprintf:
  1444  0025                     ?___flmul:	
  1445                           ; 1 bytes @ 0x5
  1446                           
  1447  0025                     ___flmul@b:	
  1448                           ; 4 bytes @ 0x5
  1449                           
  1450                           
  1451                           ; 4 bytes @ 0x5
  1452  0025                     	ds	3
  1453  0028                     sprintf@flag:
  1454                           
  1455                           ; 1 bytes @ 0x8
  1456  0028                     	ds	1
  1457  0029                     sprintf@prec:
  1458  0029                     ___flmul@a:	
  1459                           ; 1 bytes @ 0x9
  1460                           
  1461                           
  1462                           ; 4 bytes @ 0x9
  1463  0029                     	ds	1
  1464  002A                     sprintf@ap:
  1465                           
  1466                           ; 1 bytes @ 0xA
  1467  002A                     	ds	1
  1468  002B                     sprintf@val:
  1469                           
  1470                           ; 2 bytes @ 0xB
  1471  002B                     	ds	2
  1472  002D                     ??___flmul:
  1473  002D                     sprintf@sp:	
  1474                           ; 1 bytes @ 0xD
  1475                           
  1476                           
  1477                           ; 1 bytes @ 0xD
  1478  002D                     	ds	1
  1479  002E                     sprintf@c:
  1480                           
  1481                           ; 1 bytes @ 0xE
  1482  002E                     	ds	4
  1483  0032                     ___flmul@sign:
  1484                           
  1485                           ; 1 bytes @ 0x12
  1486  0032                     	ds	1
  1487  0033                     ___flmul@grs:
  1488                           
  1489                           ; 4 bytes @ 0x13
  1490  0033                     	ds	4
  1491  0037                     ___flmul@aexp:
  1492                           
  1493                           ; 1 bytes @ 0x17
  1494  0037                     	ds	1
  1495  0038                     ___flmul@bexp:
  1496                           
  1497                           ; 1 bytes @ 0x18
  1498  0038                     	ds	1
  1499  0039                     ___flmul@prod:
  1500                           
  1501                           ; 4 bytes @ 0x19
  1502  0039                     	ds	4
  1503  003D                     ___flmul@temp:
  1504                           
  1505                           ; 2 bytes @ 0x1D
  1506  003D                     	ds	2
  1507  003F                     ?___fldiv:
  1508  003F                     ___fldiv@a:	
  1509                           ; 4 bytes @ 0x1F
  1510                           
  1511                           
  1512                           ; 4 bytes @ 0x1F
  1513  003F                     	ds	4
  1514  0043                     ___fldiv@b:
  1515                           
  1516                           ; 4 bytes @ 0x23
  1517  0043                     	ds	4
  1518  0047                     ??___fldiv:
  1519                           
  1520                           ; 1 bytes @ 0x27
  1521  0047                     	ds	5
  1522  004C                     ___fldiv@rem:
  1523                           
  1524                           ; 4 bytes @ 0x2C
  1525  004C                     	ds	4
  1526  0050                     ___fldiv@sign:
  1527                           
  1528                           ; 1 bytes @ 0x30
  1529  0050                     	ds	1
  1530  0051                     ___fldiv@new_exp:
  1531                           
  1532                           ; 2 bytes @ 0x31
  1533  0051                     	ds	2
  1534  0053                     ___fldiv@grs:
  1535                           
  1536                           ; 4 bytes @ 0x33
  1537  0053                     	ds	4
  1538  0057                     ___fldiv@bexp:
  1539                           
  1540                           ; 1 bytes @ 0x37
  1541  0057                     	ds	1
  1542  0058                     ___fldiv@aexp:
  1543                           
  1544                           ; 1 bytes @ 0x38
  1545  0058                     	ds	1
  1546  0059                     ?___fladd:
  1547  0059                     ___fladd@b:	
  1548                           ; 4 bytes @ 0x39
  1549                           
  1550                           
  1551                           ; 4 bytes @ 0x39
  1552  0059                     	ds	4
  1553  005D                     ___fladd@a:
  1554                           
  1555                           ; 4 bytes @ 0x3D
  1556  005D                     	ds	4
  1557  0061                     ??___fladd:
  1558                           
  1559                           ; 1 bytes @ 0x41
  1560  0061                     	ds	8
  1561  0069                     ___fladd@signs:
  1562                           
  1563                           ; 1 bytes @ 0x49
  1564  0069                     	ds	1
  1565  006A                     ___fladd@aexp:
  1566                           
  1567                           ; 1 bytes @ 0x4A
  1568  006A                     	ds	1
  1569  006B                     ___fladd@bexp:
  1570                           
  1571                           ; 1 bytes @ 0x4B
  1572  006B                     	ds	1
  1573  006C                     ___fladd@grs:
  1574                           
  1575                           ; 1 bytes @ 0x4C
  1576  006C                     	ds	1
  1577  006D                     ??_log:
  1578                           
  1579                           ; 1 bytes @ 0x4D
  1580  006D                     	ds	1
  1581                           
  1582                           	psect	maintext
  1583  0DF2                     __pmaintext:	
  1584 ;;
  1585 ;;Main: autosize = 0, tempsize = 2, incstack = 0, save=0
  1586 ;;
  1587 ;; *************** function _main *****************
  1588 ;; Defined at:
  1589 ;;		line 32 in file "main.c"
  1590 ;; Parameters:    Size  Location     Type
  1591 ;;		None
  1592 ;; Auto vars:     Size  Location     Type
  1593 ;;  Temperature    10   24[BANK1 ] unsigned char [10]
  1594 ;;  tempC           4   38[BANK1 ] float 
  1595 ;;  a               4   34[BANK1 ] long 
  1596 ;; Return value:  Size  Location     Type
  1597 ;;                  1    wreg      void 
  1598 ;; Registers used:
  1599 ;;		wreg, fsr0l, fsr0h, status,2, status,0, btemp+1, pclath, cstack
  1600 ;; Tracked objects:
  1601 ;;		On entry : B00/0
  1602 ;;		On exit  : 0/0
  1603 ;;		Unchanged: 0/0
  1604 ;; Data sizes:     COMMON   BANK0   BANK1   BANK3   BANK2
  1605 ;;      Params:         0       0       0       0       0
  1606 ;;      Locals:         0       0      30       0       0
  1607 ;;      Temps:          0       0       2       0       0
  1608 ;;      Totals:         0       0      32       0       0
  1609 ;;Total ram usage:       32 bytes
  1610 ;; Hardware stack levels required when called: 4
  1611 ;; This function calls:
  1612 ;;		_ADC_init
  1613 ;;		_LCD_Clear
  1614 ;;		_LCD_Init
  1615 ;;		_LCD_String
  1616 ;;		_LCD_String_xy
  1617 ;;		_LeerMicrofono
  1618 ;;		_LeerSensorFlame
  1619 ;;		_LeerSensorProximidad
  1620 ;;		___fladd
  1621 ;;		___fldiv
  1622 ;;		___fltol
  1623 ;;		___xxtofl
  1624 ;;		_alarmaFlama
  1625 ;;		_alarmaSeguridad
  1626 ;;		_alarma_init
  1627 ;;		_apagarAlarma1
  1628 ;;		_apagarAlarma2
  1629 ;;		_capturaTemp
  1630 ;;		_keypad_init
  1631 ;;		_log
  1632 ;;		_microphone_init
  1633 ;;		_sensorFlame_init
  1634 ;;		_sensorProximidad_init
  1635 ;;		_sprintf
  1636 ;; This function is called by:
  1637 ;;		Startup code after reset
  1638 ;; This function uses a non-reentrant model
  1639 ;;
  1640                           
  1641  0DF2                     _main:	
  1642                           ;psect for function _main
  1643                           
  1644  0DF2                     l3140:	
  1645                           ;incstack = 0
  1646                           ; Regs used in _main: [wreg-fsr0h+status,2+status,0+btemp+1+pclath+cstack]
  1647                           
  1648                           
  1649                           ;main.c: 33:     OSCCON = 0x71;
  1650  0DF2  3071               	movlw	113
  1651  0DF3  1683               	bsf	3,5	;RP0=1, select bank1
  1652  0DF4  1303               	bcf	3,6	;RP1=0, select bank1
  1653  0DF5  008F               	movwf	15	;volatile
  1654  0DF6                     l3142:
  1655                           
  1656                           ;main.c: 34:     ANSELH = 0x00;
  1657  0DF6  1683               	bsf	3,5	;RP0=1, select bank3
  1658  0DF7  1703               	bsf	3,6	;RP1=1, select bank3
  1659  0DF8  0189               	clrf	9	;volatile
  1660  0DF9                     l3144:
  1661                           
  1662                           ;main.c: 35:     TRISC0 = 0;
  1663  0DF9  1683               	bsf	3,5	;RP0=1, select bank1
  1664  0DFA  1303               	bcf	3,6	;RP1=0, select bank1
  1665  0DFB  1007               	bcf	7,0	;volatile
  1666  0DFC                     l3146:
  1667                           
  1668                           ;main.c: 36:     TRISC1 = 0;
  1669  0DFC  1087               	bcf	7,1	;volatile
  1670  0DFD                     l3148:
  1671                           
  1672                           ;main.c: 37:     TRISC2 = 0;
  1673  0DFD  1107               	bcf	7,2	;volatile
  1674  0DFE                     l3150:
  1675                           
  1676                           ;main.c: 38:     TRISC6 = 0;
  1677  0DFE  1307               	bcf	7,6	;volatile
  1678  0DFF                     l3152:
  1679                           
  1680                           ;main.c: 39:     keypad_init();
  1681  0DFF  160A  118A  2583  120A  158A  	fcall	_keypad_init
  1682  0E04                     l3154:
  1683                           
  1684                           ;main.c: 40:     LCD_Init();
  1685  0E04  160A  118A  2680  120A  158A  	fcall	_LCD_Init
  1686  0E09                     l3156:
  1687                           
  1688                           ;main.c: 41:     sensorFlame_init();
  1689  0E09  160A  118A  2570  120A  158A  	fcall	_sensorFlame_init
  1690  0E0E                     l3158:
  1691                           
  1692                           ;main.c: 42:     microphone_init();
  1693  0E0E  160A  118A  256C  120A  158A  	fcall	_microphone_init
  1694  0E13                     l3160:
  1695                           
  1696                           ;main.c: 43:     sensorProximidad_init();
  1697  0E13  120A  158A  2054  120A  158A  	fcall	_sensorProximidad_init
  1698  0E18                     l3162:
  1699                           
  1700                           ;main.c: 44:     ADC_init();
  1701  0E18  160A  118A  25E1  120A  158A  	fcall	_ADC_init
  1702  0E1D                     l3164:
  1703                           
  1704                           ;main.c: 45:     alarma_init();
  1705  0E1D  160A  118A  258F  120A  158A  	fcall	_alarma_init
  1706  0E22                     l3166:
  1707                           
  1708                           ;main.c: 48:     {;main.c: 50:         if (LeerSensorFlame() == 1)
  1709  0E22  160A  118A  25FB  120A  158A  	fcall	_LeerSensorFlame
  1710  0E27  0370               	decf	?_LeerSensorFlame,w
  1711  0E28  0471               	iorwf	?_LeerSensorFlame+1,w
  1712  0E29  1D03               	btfss	3,2
  1713  0E2A  2E2C               	goto	u4181
  1714  0E2B  2E2D               	goto	u4180
  1715  0E2C                     u4181:
  1716  0E2C  2E33               	goto	l3170
  1717  0E2D                     u4180:
  1718  0E2D                     l3168:
  1719                           
  1720                           ;main.c: 51:         {;main.c: 52:             alarmaFlama();
  1721  0E2D  160A  118A  2574  120A  158A  	fcall	_alarmaFlama
  1722                           
  1723                           ;main.c: 53:         }
  1724  0E32  2E38               	goto	l3172
  1725  0E33                     l3170:
  1726                           
  1727                           ;main.c: 55:         {;main.c: 56:             apagarAlarma1();
  1728  0E33  160A  118A  257E  120A  158A  	fcall	_apagarAlarma1
  1729  0E38                     l3172:
  1730                           
  1731                           ;main.c: 60:         long a = (long)(1023 - capturaTemp());
  1732  0E38  160A  118A  26D6  120A  158A  	fcall	_capturaTemp
  1733  0E3D  30FF               	movlw	255
  1734  0E3E  1683               	bsf	3,5	;RP0=1, select bank1
  1735  0E3F  1303               	bcf	3,6	;RP1=0, select bank1
  1736  0E40  00B6               	movwf	??_main^(0+128)
  1737  0E41  3003               	movlw	3
  1738  0E42  00B7               	movwf	(??_main^(0+128)+1)
  1739  0E43  0870               	movf	?_capturaTemp,w
  1740  0E44  0236               	subwf	??_main^(0+128),w
  1741  0E45  00C2               	movwf	main@a^(0+128)
  1742  0E46  0871               	movf	?_capturaTemp+1,w
  1743  0E47  1C03               	skipc
  1744  0E48  0A71               	incf	?_capturaTemp+1,w
  1745  0E49  0237               	subwf	(??_main+1)^(0+128),w
  1746  0E4A  00C3               	movwf	(main@a+1)^(0+128)
  1747  0E4B  01C4               	clrf	(main@a^(0+128)+2)
  1748  0E4C  1BC3               	btfsc	(main@a^(0+128)+1),7
  1749  0E4D  03C4               	decf	(main@a+2)^(0+128),f
  1750  0E4E  0844               	movf	(main@a^(0+128)+2),w
  1751  0E4F  00C5               	movwf	(main@a+3)^(0+128)
  1752  0E50                     l3174:
  1753                           
  1754                           ;main.c: 61:         float tempC = (float)(4090 /(log((1025.0 * 10/ a - 10) / 10) + 4090
      +                           / 298.0) - 273.0);
  1755  0E50  30C1               	movlw	193
  1756  0E51  1283               	bcf	3,5	;RP0=0, select bank0
  1757  0E52  1303               	bcf	3,6	;RP1=0, select bank0
  1758  0E53  00DC               	movwf	___fladd@b+3
  1759  0E54  3020               	movlw	32
  1760  0E55  00DB               	movwf	___fladd@b+2
  1761  0E56  3000               	movlw	0
  1762  0E57  00DA               	movwf	___fladd@b+1
  1763  0E58  3000               	movlw	0
  1764  0E59  00D9               	movwf	___fladd@b
  1765  0E5A  1683               	bsf	3,5	;RP0=1, select bank1
  1766  0E5B  1303               	bcf	3,6	;RP1=0, select bank1
  1767  0E5C  0845               	movf	(main@a+3)^(0+128),w
  1768  0E5D  00F3               	movwf	___xxtofl@val+3
  1769  0E5E  0844               	movf	(main@a+2)^(0+128),w
  1770  0E5F  00F2               	movwf	___xxtofl@val+2
  1771  0E60  0843               	movf	(main@a+1)^(0+128),w
  1772  0E61  00F1               	movwf	___xxtofl@val+1
  1773  0E62  0842               	movf	main@a^(0+128),w
  1774  0E63  00F0               	movwf	___xxtofl@val
  1775  0E64  3001               	movlw	1
  1776  0E65  120A  158A  220F  120A  158A  	fcall	___xxtofl
  1777  0E6A  0873               	movf	?___xxtofl+3,w
  1778  0E6B  1283               	bcf	3,5	;RP0=0, select bank0
  1779  0E6C  1303               	bcf	3,6	;RP1=0, select bank0
  1780  0E6D  00C2               	movwf	___fldiv@a+3
  1781  0E6E  0872               	movf	?___xxtofl+2,w
  1782  0E6F  00C1               	movwf	___fldiv@a+2
  1783  0E70  0871               	movf	?___xxtofl+1,w
  1784  0E71  00C0               	movwf	___fldiv@a+1
  1785  0E72  0870               	movf	?___xxtofl,w
  1786  0E73  00BF               	movwf	___fldiv@a
  1787  0E74  3046               	movlw	70
  1788  0E75  00C6               	movwf	___fldiv@b+3
  1789  0E76  3020               	movlw	32
  1790  0E77  00C5               	movwf	___fldiv@b+2
  1791  0E78  3028               	movlw	40
  1792  0E79  00C4               	movwf	___fldiv@b+1
  1793  0E7A  3000               	movlw	0
  1794  0E7B  00C3               	movwf	___fldiv@b
  1795  0E7C  120A  118A  200E  120A  158A  	fcall	___fldiv
  1796  0E81  1283               	bcf	3,5	;RP0=0, select bank0
  1797  0E82  1303               	bcf	3,6	;RP1=0, select bank0
  1798  0E83  0842               	movf	?___fldiv+3,w
  1799  0E84  00E0               	movwf	___fladd@a+3
  1800  0E85  0841               	movf	?___fldiv+2,w
  1801  0E86  00DF               	movwf	___fladd@a+2
  1802  0E87  0840               	movf	?___fldiv+1,w
  1803  0E88  00DE               	movwf	___fladd@a+1
  1804  0E89  083F               	movf	?___fldiv,w
  1805  0E8A  00DD               	movwf	___fladd@a
  1806  0E8B  120A  118A  21EB  120A  158A  	fcall	___fladd
  1807  0E90  1283               	bcf	3,5	;RP0=0, select bank0
  1808  0E91  1303               	bcf	3,6	;RP1=0, select bank0
  1809  0E92  085C               	movf	?___fladd+3,w
  1810  0E93  1683               	bsf	3,5	;RP0=1, select bank1
  1811  0E94  1303               	bcf	3,6	;RP1=0, select bank1
  1812  0E95  00CD               	movwf	(_main$1109+3)^(0+128)
  1813  0E96  1283               	bcf	3,5	;RP0=0, select bank0
  1814  0E97  1303               	bcf	3,6	;RP1=0, select bank0
  1815  0E98  085B               	movf	?___fladd+2,w
  1816  0E99  1683               	bsf	3,5	;RP0=1, select bank1
  1817  0E9A  1303               	bcf	3,6	;RP1=0, select bank1
  1818  0E9B  00CC               	movwf	(_main$1109+2)^(0+128)
  1819  0E9C  1283               	bcf	3,5	;RP0=0, select bank0
  1820  0E9D  1303               	bcf	3,6	;RP1=0, select bank0
  1821  0E9E  085A               	movf	?___fladd+1,w
  1822  0E9F  1683               	bsf	3,5	;RP0=1, select bank1
  1823  0EA0  1303               	bcf	3,6	;RP1=0, select bank1
  1824  0EA1  00CB               	movwf	(_main$1109+1)^(0+128)
  1825  0EA2  1283               	bcf	3,5	;RP0=0, select bank0
  1826  0EA3  1303               	bcf	3,6	;RP1=0, select bank0
  1827  0EA4  0859               	movf	?___fladd,w
  1828  0EA5  1683               	bsf	3,5	;RP0=1, select bank1
  1829  0EA6  1303               	bcf	3,6	;RP1=0, select bank1
  1830  0EA7  00CA               	movwf	_main$1109^(0+128)
  1831  0EA8                     l3176:
  1832                           
  1833                           ;main.c: 61:         float tempC = (float)(4090 /(log((1025.0 * 10/ a - 10) / 10) + 4090
      +                           / 298.0) - 273.0);
  1834  0EA8  3041               	movlw	65
  1835  0EA9  1283               	bcf	3,5	;RP0=0, select bank0
  1836  0EAA  1303               	bcf	3,6	;RP1=0, select bank0
  1837  0EAB  00C2               	movwf	___fldiv@a+3
  1838  0EAC  3020               	movlw	32
  1839  0EAD  00C1               	movwf	___fldiv@a+2
  1840  0EAE  3000               	movlw	0
  1841  0EAF  00C0               	movwf	___fldiv@a+1
  1842  0EB0  3000               	movlw	0
  1843  0EB1  00BF               	movwf	___fldiv@a
  1844  0EB2  1683               	bsf	3,5	;RP0=1, select bank1
  1845  0EB3  1303               	bcf	3,6	;RP1=0, select bank1
  1846  0EB4  084D               	movf	(_main$1109+3)^(0+128),w
  1847  0EB5  1283               	bcf	3,5	;RP0=0, select bank0
  1848  0EB6  1303               	bcf	3,6	;RP1=0, select bank0
  1849  0EB7  00C6               	movwf	___fldiv@b+3
  1850  0EB8  1683               	bsf	3,5	;RP0=1, select bank1
  1851  0EB9  1303               	bcf	3,6	;RP1=0, select bank1
  1852  0EBA  084C               	movf	(_main$1109+2)^(0+128),w
  1853  0EBB  1283               	bcf	3,5	;RP0=0, select bank0
  1854  0EBC  1303               	bcf	3,6	;RP1=0, select bank0
  1855  0EBD  00C5               	movwf	___fldiv@b+2
  1856  0EBE  1683               	bsf	3,5	;RP0=1, select bank1
  1857  0EBF  1303               	bcf	3,6	;RP1=0, select bank1
  1858  0EC0  084B               	movf	(_main$1109+1)^(0+128),w
  1859  0EC1  1283               	bcf	3,5	;RP0=0, select bank0
  1860  0EC2  1303               	bcf	3,6	;RP1=0, select bank0
  1861  0EC3  00C4               	movwf	___fldiv@b+1
  1862  0EC4  1683               	bsf	3,5	;RP0=1, select bank1
  1863  0EC5  1303               	bcf	3,6	;RP1=0, select bank1
  1864  0EC6  084A               	movf	_main$1109^(0+128),w
  1865  0EC7  1283               	bcf	3,5	;RP0=0, select bank0
  1866  0EC8  1303               	bcf	3,6	;RP1=0, select bank0
  1867  0EC9  00C3               	movwf	___fldiv@b
  1868  0ECA  120A  118A  200E  120A  158A  	fcall	___fldiv
  1869  0ECF  1283               	bcf	3,5	;RP0=0, select bank0
  1870  0ED0  1303               	bcf	3,6	;RP1=0, select bank0
  1871  0ED1  0842               	movf	?___fldiv+3,w
  1872  0ED2  1683               	bsf	3,5	;RP0=1, select bank1
  1873  0ED3  1303               	bcf	3,6	;RP1=0, select bank1
  1874  0ED4  00B3               	movwf	(log@x+3)^(0+128)
  1875  0ED5  1283               	bcf	3,5	;RP0=0, select bank0
  1876  0ED6  1303               	bcf	3,6	;RP1=0, select bank0
  1877  0ED7  0841               	movf	?___fldiv+2,w
  1878  0ED8  1683               	bsf	3,5	;RP0=1, select bank1
  1879  0ED9  1303               	bcf	3,6	;RP1=0, select bank1
  1880  0EDA  00B2               	movwf	(log@x+2)^(0+128)
  1881  0EDB  1283               	bcf	3,5	;RP0=0, select bank0
  1882  0EDC  1303               	bcf	3,6	;RP1=0, select bank0
  1883  0EDD  0840               	movf	?___fldiv+1,w
  1884  0EDE  1683               	bsf	3,5	;RP0=1, select bank1
  1885  0EDF  1303               	bcf	3,6	;RP1=0, select bank1
  1886  0EE0  00B1               	movwf	(log@x+1)^(0+128)
  1887  0EE1  1283               	bcf	3,5	;RP0=0, select bank0
  1888  0EE2  1303               	bcf	3,6	;RP1=0, select bank0
  1889  0EE3  083F               	movf	?___fldiv,w
  1890  0EE4  1683               	bsf	3,5	;RP0=1, select bank1
  1891  0EE5  1303               	bcf	3,6	;RP1=0, select bank1
  1892  0EE6  00B0               	movwf	log@x^(0+128)
  1893  0EE7  120A  158A  24A6  120A  158A  	fcall	_log
  1894  0EEC  1683               	bsf	3,5	;RP0=1, select bank1
  1895  0EED  1303               	bcf	3,6	;RP1=0, select bank1
  1896  0EEE  0833               	movf	(?_log+3)^(0+128),w
  1897  0EEF  00D1               	movwf	(_main$1110+3)^(0+128)
  1898  0EF0  0832               	movf	(?_log+2)^(0+128),w
  1899  0EF1  00D0               	movwf	(_main$1110+2)^(0+128)
  1900  0EF2  0831               	movf	(?_log+1)^(0+128),w
  1901  0EF3  00CF               	movwf	(_main$1110+1)^(0+128)
  1902  0EF4  0830               	movf	?_log^(0+128),w
  1903  0EF5  00CE               	movwf	_main$1110^(0+128)
  1904  0EF6                     l3178:
  1905                           
  1906                           ;main.c: 61:         float tempC = (float)(4090 /(log((1025.0 * 10/ a - 10) / 10) + 4090
      +                           / 298.0) - 273.0);
  1907  0EF6  3041               	movlw	65
  1908  0EF7  1283               	bcf	3,5	;RP0=0, select bank0
  1909  0EF8  1303               	bcf	3,6	;RP1=0, select bank0
  1910  0EF9  00DC               	movwf	___fladd@b+3
  1911  0EFA  305B               	movlw	91
  1912  0EFB  00DB               	movwf	___fladd@b+2
  1913  0EFC  3098               	movlw	152
  1914  0EFD  00DA               	movwf	___fladd@b+1
  1915  0EFE  30EA               	movlw	234
  1916  0EFF  00D9               	movwf	___fladd@b
  1917  0F00  1683               	bsf	3,5	;RP0=1, select bank1
  1918  0F01  1303               	bcf	3,6	;RP1=0, select bank1
  1919  0F02  0851               	movf	(_main$1110+3)^(0+128),w
  1920  0F03  1283               	bcf	3,5	;RP0=0, select bank0
  1921  0F04  1303               	bcf	3,6	;RP1=0, select bank0
  1922  0F05  00E0               	movwf	___fladd@a+3
  1923  0F06  1683               	bsf	3,5	;RP0=1, select bank1
  1924  0F07  1303               	bcf	3,6	;RP1=0, select bank1
  1925  0F08  0850               	movf	(_main$1110+2)^(0+128),w
  1926  0F09  1283               	bcf	3,5	;RP0=0, select bank0
  1927  0F0A  1303               	bcf	3,6	;RP1=0, select bank0
  1928  0F0B  00DF               	movwf	___fladd@a+2
  1929  0F0C  1683               	bsf	3,5	;RP0=1, select bank1
  1930  0F0D  1303               	bcf	3,6	;RP1=0, select bank1
  1931  0F0E  084F               	movf	(_main$1110+1)^(0+128),w
  1932  0F0F  1283               	bcf	3,5	;RP0=0, select bank0
  1933  0F10  1303               	bcf	3,6	;RP1=0, select bank0
  1934  0F11  00DE               	movwf	___fladd@a+1
  1935  0F12  1683               	bsf	3,5	;RP0=1, select bank1
  1936  0F13  1303               	bcf	3,6	;RP1=0, select bank1
  1937  0F14  084E               	movf	_main$1110^(0+128),w
  1938  0F15  1283               	bcf	3,5	;RP0=0, select bank0
  1939  0F16  1303               	bcf	3,6	;RP1=0, select bank0
  1940  0F17  00DD               	movwf	___fladd@a
  1941  0F18  120A  118A  21EB  120A  158A  	fcall	___fladd
  1942  0F1D  1283               	bcf	3,5	;RP0=0, select bank0
  1943  0F1E  1303               	bcf	3,6	;RP1=0, select bank0
  1944  0F1F  085C               	movf	?___fladd+3,w
  1945  0F20  00C2               	movwf	___fldiv@a+3
  1946  0F21  085B               	movf	?___fladd+2,w
  1947  0F22  00C1               	movwf	___fldiv@a+2
  1948  0F23  085A               	movf	?___fladd+1,w
  1949  0F24  00C0               	movwf	___fldiv@a+1
  1950  0F25  0859               	movf	?___fladd,w
  1951  0F26  00BF               	movwf	___fldiv@a
  1952  0F27  3045               	movlw	69
  1953  0F28  00C6               	movwf	___fldiv@b+3
  1954  0F29  307F               	movlw	127
  1955  0F2A  00C5               	movwf	___fldiv@b+2
  1956  0F2B  30A0               	movlw	160
  1957  0F2C  00C4               	movwf	___fldiv@b+1
  1958  0F2D  3000               	movlw	0
  1959  0F2E  00C3               	movwf	___fldiv@b
  1960  0F2F  120A  118A  200E  120A  158A  	fcall	___fldiv
  1961  0F34  1283               	bcf	3,5	;RP0=0, select bank0
  1962  0F35  1303               	bcf	3,6	;RP1=0, select bank0
  1963  0F36  0842               	movf	?___fldiv+3,w
  1964  0F37  1683               	bsf	3,5	;RP0=1, select bank1
  1965  0F38  1303               	bcf	3,6	;RP1=0, select bank1
  1966  0F39  00D5               	movwf	(_main$1111+3)^(0+128)
  1967  0F3A  1283               	bcf	3,5	;RP0=0, select bank0
  1968  0F3B  1303               	bcf	3,6	;RP1=0, select bank0
  1969  0F3C  0841               	movf	?___fldiv+2,w
  1970  0F3D  1683               	bsf	3,5	;RP0=1, select bank1
  1971  0F3E  1303               	bcf	3,6	;RP1=0, select bank1
  1972  0F3F  00D4               	movwf	(_main$1111+2)^(0+128)
  1973  0F40  1283               	bcf	3,5	;RP0=0, select bank0
  1974  0F41  1303               	bcf	3,6	;RP1=0, select bank0
  1975  0F42  0840               	movf	?___fldiv+1,w
  1976  0F43  1683               	bsf	3,5	;RP0=1, select bank1
  1977  0F44  1303               	bcf	3,6	;RP1=0, select bank1
  1978  0F45  00D3               	movwf	(_main$1111+1)^(0+128)
  1979  0F46  1283               	bcf	3,5	;RP0=0, select bank0
  1980  0F47  1303               	bcf	3,6	;RP1=0, select bank0
  1981  0F48  083F               	movf	?___fldiv,w
  1982  0F49  1683               	bsf	3,5	;RP0=1, select bank1
  1983  0F4A  1303               	bcf	3,6	;RP1=0, select bank1
  1984  0F4B  00D2               	movwf	_main$1111^(0+128)
  1985  0F4C                     l3180:
  1986                           
  1987                           ;main.c: 61:         float tempC = (float)(4090 /(log((1025.0 * 10/ a - 10) / 10) + 4090
      +                           / 298.0) - 273.0);
  1988  0F4C  30C3               	movlw	195
  1989  0F4D  1283               	bcf	3,5	;RP0=0, select bank0
  1990  0F4E  1303               	bcf	3,6	;RP1=0, select bank0
  1991  0F4F  00DC               	movwf	___fladd@b+3
  1992  0F50  3088               	movlw	136
  1993  0F51  00DB               	movwf	___fladd@b+2
  1994  0F52  3080               	movlw	128
  1995  0F53  00DA               	movwf	___fladd@b+1
  1996  0F54  3000               	movlw	0
  1997  0F55  00D9               	movwf	___fladd@b
  1998  0F56  1683               	bsf	3,5	;RP0=1, select bank1
  1999  0F57  1303               	bcf	3,6	;RP1=0, select bank1
  2000  0F58  0855               	movf	(_main$1111+3)^(0+128),w
  2001  0F59  1283               	bcf	3,5	;RP0=0, select bank0
  2002  0F5A  1303               	bcf	3,6	;RP1=0, select bank0
  2003  0F5B  00E0               	movwf	___fladd@a+3
  2004  0F5C  1683               	bsf	3,5	;RP0=1, select bank1
  2005  0F5D  1303               	bcf	3,6	;RP1=0, select bank1
  2006  0F5E  0854               	movf	(_main$1111+2)^(0+128),w
  2007  0F5F  1283               	bcf	3,5	;RP0=0, select bank0
  2008  0F60  1303               	bcf	3,6	;RP1=0, select bank0
  2009  0F61  00DF               	movwf	___fladd@a+2
  2010  0F62  1683               	bsf	3,5	;RP0=1, select bank1
  2011  0F63  1303               	bcf	3,6	;RP1=0, select bank1
  2012  0F64  0853               	movf	(_main$1111+1)^(0+128),w
  2013  0F65  1283               	bcf	3,5	;RP0=0, select bank0
  2014  0F66  1303               	bcf	3,6	;RP1=0, select bank0
  2015  0F67  00DE               	movwf	___fladd@a+1
  2016  0F68  1683               	bsf	3,5	;RP0=1, select bank1
  2017  0F69  1303               	bcf	3,6	;RP1=0, select bank1
  2018  0F6A  0852               	movf	_main$1111^(0+128),w
  2019  0F6B  1283               	bcf	3,5	;RP0=0, select bank0
  2020  0F6C  1303               	bcf	3,6	;RP1=0, select bank0
  2021  0F6D  00DD               	movwf	___fladd@a
  2022  0F6E  120A  118A  21EB  120A  158A  	fcall	___fladd
  2023  0F73  1283               	bcf	3,5	;RP0=0, select bank0
  2024  0F74  1303               	bcf	3,6	;RP1=0, select bank0
  2025  0F75  085C               	movf	?___fladd+3,w
  2026  0F76  1683               	bsf	3,5	;RP0=1, select bank1
  2027  0F77  1303               	bcf	3,6	;RP1=0, select bank1
  2028  0F78  00C9               	movwf	(main@tempC+3)^(0+128)
  2029  0F79  1283               	bcf	3,5	;RP0=0, select bank0
  2030  0F7A  1303               	bcf	3,6	;RP1=0, select bank0
  2031  0F7B  085B               	movf	?___fladd+2,w
  2032  0F7C  1683               	bsf	3,5	;RP0=1, select bank1
  2033  0F7D  1303               	bcf	3,6	;RP1=0, select bank1
  2034  0F7E  00C8               	movwf	(main@tempC+2)^(0+128)
  2035  0F7F  1283               	bcf	3,5	;RP0=0, select bank0
  2036  0F80  1303               	bcf	3,6	;RP1=0, select bank0
  2037  0F81  085A               	movf	?___fladd+1,w
  2038  0F82  1683               	bsf	3,5	;RP0=1, select bank1
  2039  0F83  1303               	bcf	3,6	;RP1=0, select bank1
  2040  0F84  00C7               	movwf	(main@tempC+1)^(0+128)
  2041  0F85  1283               	bcf	3,5	;RP0=0, select bank0
  2042  0F86  1303               	bcf	3,6	;RP1=0, select bank0
  2043  0F87  0859               	movf	?___fladd,w
  2044  0F88  1683               	bsf	3,5	;RP0=1, select bank1
  2045  0F89  1303               	bcf	3,6	;RP1=0, select bank1
  2046  0F8A  00C6               	movwf	main@tempC^(0+128)
  2047  0F8B                     l3182:
  2048                           
  2049                           ;main.c: 63:         char Temperature [10];;main.c: 64:         sprintf(Temperature, "%d
      +                          %cC", (int)tempC,0xdf );
  2050  0F8B  303C               	movlw	(low ((STR_1-__stringbase)| (0+32768)))& (0+255)
  2051  0F8C  00B6               	movwf	??_main^(0+128)
  2052  0F8D  0836               	movf	??_main^(0+128),w
  2053  0F8E  1283               	bcf	3,5	;RP0=0, select bank0
  2054  0F8F  1303               	bcf	3,6	;RP1=0, select bank0
  2055  0F90  00A0               	movwf	sprintf@f
  2056  0F91  1683               	bsf	3,5	;RP0=1, select bank1
  2057  0F92  1303               	bcf	3,6	;RP1=0, select bank1
  2058  0F93  0849               	movf	(main@tempC+3)^(0+128),w
  2059  0F94  00F3               	movwf	___fltol@f1+3
  2060  0F95  0848               	movf	(main@tempC+2)^(0+128),w
  2061  0F96  00F2               	movwf	___fltol@f1+2
  2062  0F97  0847               	movf	(main@tempC+1)^(0+128),w
  2063  0F98  00F1               	movwf	___fltol@f1+1
  2064  0F99  0846               	movf	main@tempC^(0+128),w
  2065  0F9A  00F0               	movwf	___fltol@f1
  2066  0F9B  120A  158A  20F3  120A  158A  	fcall	___fltol
  2067  0FA0  0871               	movf	?___fltol+1,w
  2068  0FA1  1283               	bcf	3,5	;RP0=0, select bank0
  2069  0FA2  1303               	bcf	3,6	;RP1=0, select bank0
  2070  0FA3  00A2               	movwf	?_sprintf+2
  2071  0FA4  0870               	movf	?___fltol,w
  2072  0FA5  00A1               	movwf	?_sprintf+1
  2073  0FA6  30DF               	movlw	223
  2074  0FA7  00A3               	movwf	?_sprintf+3
  2075  0FA8  3000               	movlw	0
  2076  0FA9  00A4               	movwf	?_sprintf+4
  2077  0FAA  30B8               	movlw	(low (main@Temperature| 0))& (0+255)
  2078  0FAB  120A  158A  23A3  120A  158A  	fcall	_sprintf
  2079  0FB0                     l3184:
  2080                           
  2081                           ;main.c: 65:         LCD_Clear();
  2082  0FB0  160A  118A  259C  120A  158A  	fcall	_LCD_Clear
  2083  0FB5                     l3186:
  2084                           
  2085                           ;main.c: 66:         LCD_String_xy(2,0,"TEMP:");
  2086  0FB5  01F5               	clrf	LCD_String_xy@pos
  2087  0FB6  3036               	movlw	(low ((STR_2-__stringbase)| (0+32768)))& (0+255)
  2088  0FB7  1683               	bsf	3,5	;RP0=1, select bank1
  2089  0FB8  1303               	bcf	3,6	;RP1=0, select bank1
  2090  0FB9  00B6               	movwf	??_main^(0+128)
  2091  0FBA  0836               	movf	??_main^(0+128),w
  2092  0FBB  00F6               	movwf	LCD_String_xy@msg
  2093  0FBC  3002               	movlw	2
  2094  0FBD  160A  118A  26AA  120A  158A  	fcall	_LCD_String_xy
  2095  0FC2                     l3188:
  2096                           
  2097                           ;main.c: 67:         LCD_String(Temperature);
  2098  0FC2  30B8               	movlw	(low (main@Temperature| 0))& (0+255)
  2099  0FC3  00F3               	movwf	LCD_String@msg
  2100  0FC4  3000               	movlw	0
  2101  0FC5  00F4               	movwf	LCD_String@msg+1
  2102  0FC6  160A  118A  2633  120A  158A  	fcall	_LCD_String
  2103  0FCB                     l3190:
  2104                           
  2105                           ;main.c: 68:         LCD_String("  ");
  2106  0FCB  3042               	movlw	(low ((STR_3-__stringbase)| (0+32768)))& (0+255)
  2107  0FCC  00F3               	movwf	LCD_String@msg
  2108  0FCD  3080               	movlw	128
  2109  0FCE  00F4               	movwf	LCD_String@msg+1
  2110  0FCF  160A  118A  2633  120A  158A  	fcall	_LCD_String
  2111  0FD4                     l3192:
  2112                           
  2113                           ;main.c: 70:        if (LeerSensorProximidad() == 1){
  2114  0FD4  160A  118A  2617  120A  158A  	fcall	_LeerSensorProximidad
  2115  0FD9  0370               	decf	?_LeerSensorProximidad,w
  2116  0FDA  0471               	iorwf	?_LeerSensorProximidad+1,w
  2117  0FDB  1D03               	btfss	3,2
  2118  0FDC  2FDE               	goto	u4191
  2119  0FDD  2FDF               	goto	u4190
  2120  0FDE                     u4191:
  2121  0FDE  2FE5               	goto	l3196
  2122  0FDF                     u4190:
  2123  0FDF                     l3194:
  2124                           
  2125                           ;main.c: 71:             alarmaSeguridad();
  2126  0FDF  160A  118A  2579  120A  158A  	fcall	_alarmaSeguridad
  2127                           
  2128                           ;main.c: 72:         }
  2129  0FE4  2FEA               	goto	l3198
  2130  0FE5                     l3196:
  2131                           
  2132                           ;main.c: 74:             apagarAlarma2();
  2133  0FE5  120A  158A  2058  120A  158A  	fcall	_apagarAlarma2
  2134  0FEA                     l3198:
  2135                           
  2136                           ;main.c: 76:         if (LeerMicrofono() == 1){
  2137  0FEA  160A  118A  25BC  120A  158A  	fcall	_LeerMicrofono
  2138  0FEF  0370               	decf	?_LeerMicrofono,w
  2139  0FF0  0471               	iorwf	?_LeerMicrofono+1,w
  2140  0FF1  1D03               	btfss	3,2
  2141  0FF2  2FF4               	goto	u4201
  2142  0FF3  2FF5               	goto	u4200
  2143  0FF4                     u4201:
  2144  0FF4  2FF9               	goto	l231
  2145  0FF5                     u4200:
  2146  0FF5                     l3200:
  2147                           
  2148                           ;main.c: 77:             PORTCbits.RC6 = 1;
  2149  0FF5  1283               	bcf	3,5	;RP0=0, select bank0
  2150  0FF6  1303               	bcf	3,6	;RP1=0, select bank0
  2151  0FF7  1707               	bsf	7,6	;volatile
  2152                           
  2153                           ;main.c: 78:         }
  2154  0FF8  2E22               	goto	l3166
  2155  0FF9                     l231:	
  2156                           ;main.c: 79:         else {
  2157                           
  2158                           
  2159                           ;main.c: 80:             PORTCbits.RC6=0;
  2160  0FF9  1283               	bcf	3,5	;RP0=0, select bank0
  2161  0FFA  1303               	bcf	3,6	;RP1=0, select bank0
  2162  0FFB  1307               	bcf	7,6	;volatile
  2163  0FFC  2E22               	goto	l3166
  2164  0FFD  120A  118A  2800   	ljmp	start
  2165  1000                     __end_of_main:
  2166                           
  2167                           	psect	text1
  2168  0BA3                     __ptext1:	
  2169 ;; *************** function _sprintf *****************
  2170 ;; Defined at:
  2171 ;;		line 505 in file "C:\Program Files\Microchip\xc8\v2.36\pic\sources\c90\common\doprnt.c"
  2172 ;; Parameters:    Size  Location     Type
  2173 ;;  sp              1    wreg     PTR unsigned char 
  2174 ;;		 -> main@Temperature(10), 
  2175 ;;  f               1    0[BANK0 ] PTR const unsigned char 
  2176 ;;		 -> STR_1(6), 
  2177 ;; Auto vars:     Size  Location     Type
  2178 ;;  sp              1   13[BANK0 ] PTR unsigned char 
  2179 ;;		 -> main@Temperature(10), 
  2180 ;;  tmpval          4    0        struct .
  2181 ;;  val             2   11[BANK0 ] unsigned int 
  2182 ;;  cp              2    0        PTR const unsigned char 
  2183 ;;  len             2    0        unsigned int 
  2184 ;;  c               1   14[BANK0 ] unsigned char 
  2185 ;;  ap              1   10[BANK0 ] PTR void [1]
  2186 ;;		 -> ?_sprintf(2), 
  2187 ;;  prec            1    9[BANK0 ] char 
  2188 ;;  flag            1    8[BANK0 ] unsigned char 
  2189 ;; Return value:  Size  Location     Type
  2190 ;;                  2    0[BANK0 ] int 
  2191 ;; Registers used:
  2192 ;;		wreg, fsr0l, fsr0h, status,2, status,0, btemp+1, pclath, cstack
  2193 ;; Tracked objects:
  2194 ;;		On entry : 0/0
  2195 ;;		On exit  : 0/0
  2196 ;;		Unchanged: 0/0
  2197 ;; Data sizes:     COMMON   BANK0   BANK1   BANK3   BANK2
  2198 ;;      Params:         0       5       0       0       0
  2199 ;;      Locals:         0       7       0       0       0
  2200 ;;      Temps:          0       3       0       0       0
  2201 ;;      Totals:         0      15       0       0       0
  2202 ;;Total ram usage:       15 bytes
  2203 ;; Hardware stack levels used: 1
  2204 ;; Hardware stack levels required when called: 1
  2205 ;; This function calls:
  2206 ;;		___lwdiv
  2207 ;;		___lwmod
  2208 ;; This function is called by:
  2209 ;;		_main
  2210 ;; This function uses a non-reentrant model
  2211 ;;
  2212                           
  2213  0BA3                     _sprintf:	
  2214                           ;psect for function _sprintf
  2215                           
  2216                           
  2217                           ;incstack = 0
  2218                           ; Regs used in _sprintf: [wreg-fsr0h+status,2+status,0+btemp+1+pclath+cstack]
  2219                           ;sprintf@sp stored from wreg
  2220  0BA3  1283               	bcf	3,5	;RP0=0, select bank0
  2221  0BA4  1303               	bcf	3,6	;RP1=0, select bank0
  2222  0BA5  00AD               	movwf	sprintf@sp
  2223  0BA6                     l2794:
  2224                           
  2225                           ;C:\Program Files\Microchip\xc8\v2.36\pic\sources\c90\common\doprnt.c: 505: sprintf(char
      +                           * sp, const char * f, ...);C:\Program Files\Microchip\xc8\v2.36\pic\sources\c90\common\
      +                          doprnt.c: 506: {;C:\Program Files\Microchip\xc8\v2.36\pic\sources\c90\common\doprnt.c: 5
      +                          07:  va_list ap;;C:\Program Files\Microchip\xc8\v2.36\pic\sources\c90\common\doprnt.c: 5
      +                          12:  char c;;C:\Program Files\Microchip\xc8\v2.36\pic\sources\c90\common\doprnt.c: 521: 
      +                           signed char prec;;C:\Program Files\Microchip\xc8\v2.36\pic\sources\c90\common\doprnt.c:
      +                           525:  unsigned char flag;
  2226  0BA6  3021               	movlw	(low ((?_sprintf| 0+1)))& (0+255)
  2227  0BA7  00A5               	movwf	??_sprintf
  2228  0BA8  0825               	movf	??_sprintf,w
  2229  0BA9  00AA               	movwf	sprintf@ap
  2230                           
  2231                           ;C:\Program Files\Microchip\xc8\v2.36\pic\sources\c90\common\doprnt.c: 553:  while((c = 
      +                          *f++)) {
  2232  0BAA  2C8F               	goto	l2852
  2233  0BAB                     l2796:
  2234                           
  2235                           ;C:\Program Files\Microchip\xc8\v2.36\pic\sources\c90\common\doprnt.c: 555:   if(c != '%
      +                          ')
  2236  0BAB  3025               	movlw	37
  2237  0BAC  062E               	xorwf	sprintf@c,w
  2238  0BAD  1903               	btfsc	3,2
  2239  0BAE  2BB0               	goto	u3501
  2240  0BAF  2BB1               	goto	u3500
  2241  0BB0                     u3501:
  2242  0BB0  2BBD               	goto	l2802
  2243  0BB1                     u3500:
  2244  0BB1                     l2798:
  2245                           
  2246                           ;C:\Program Files\Microchip\xc8\v2.36\pic\sources\c90\common\doprnt.c: 557:   {;C:\Progr
      +                          am Files\Microchip\xc8\v2.36\pic\sources\c90\common\doprnt.c: 558:    ((*sp++ = (c)));
  2247  0BB1  082E               	movf	sprintf@c,w
  2248  0BB2  00A5               	movwf	??_sprintf
  2249  0BB3  082D               	movf	sprintf@sp,w
  2250  0BB4  0084               	movwf	4
  2251  0BB5  0825               	movf	??_sprintf,w
  2252  0BB6  1383               	bcf	3,7	;select IRP bank0
  2253  0BB7  0080               	movwf	0
  2254  0BB8                     l2800:
  2255  0BB8  3001               	movlw	1
  2256  0BB9  00A5               	movwf	??_sprintf
  2257  0BBA  0825               	movf	??_sprintf,w
  2258  0BBB  07AD               	addwf	sprintf@sp,f
  2259                           
  2260                           ;C:\Program Files\Microchip\xc8\v2.36\pic\sources\c90\common\doprnt.c: 559:    continue;
  2261  0BBC  2C8F               	goto	l2852
  2262  0BBD                     l2802:
  2263                           
  2264                           ;C:\Program Files\Microchip\xc8\v2.36\pic\sources\c90\common\doprnt.c: 565:   flag = 0;
  2265  0BBD  01A8               	clrf	sprintf@flag
  2266                           
  2267                           ;C:\Program Files\Microchip\xc8\v2.36\pic\sources\c90\common\doprnt.c: 661:   switch(c =
      +                           *f++) {
  2268  0BBE  2BD6               	goto	l2812
  2269  0BBF                     l2804:
  2270                           
  2271                           ;C:\Program Files\Microchip\xc8\v2.36\pic\sources\c90\common\doprnt.c: 825:    c = (char
      +                          )(*(int *)__va_arg((*(int **)ap), (int)0));
  2272  0BBF  082A               	movf	sprintf@ap,w
  2273  0BC0  0084               	movwf	4
  2274  0BC1  1383               	bcf	3,7	;select IRP bank0
  2275  0BC2  0800               	movf	0,w
  2276  0BC3  00A5               	movwf	??_sprintf
  2277  0BC4  0825               	movf	??_sprintf,w
  2278  0BC5  00AE               	movwf	sprintf@c
  2279  0BC6                     l2806:
  2280  0BC6  3002               	movlw	2
  2281  0BC7  00A5               	movwf	??_sprintf
  2282  0BC8  0825               	movf	??_sprintf,w
  2283  0BC9  07AA               	addwf	sprintf@ap,f
  2284  0BCA                     l2808:
  2285                           
  2286                           ;C:\Program Files\Microchip\xc8\v2.36\pic\sources\c90\common\doprnt.c: 835:    ((*sp++ =
      +                           (c)));
  2287  0BCA  082E               	movf	sprintf@c,w
  2288  0BCB  00A5               	movwf	??_sprintf
  2289  0BCC  082D               	movf	sprintf@sp,w
  2290  0BCD  0084               	movwf	4
  2291  0BCE  0825               	movf	??_sprintf,w
  2292  0BCF  1383               	bcf	3,7	;select IRP bank0
  2293  0BD0  0080               	movwf	0
  2294  0BD1  3001               	movlw	1
  2295  0BD2  00A5               	movwf	??_sprintf
  2296  0BD3  0825               	movf	??_sprintf,w
  2297  0BD4  07AD               	addwf	sprintf@sp,f
  2298                           
  2299                           ;C:\Program Files\Microchip\xc8\v2.36\pic\sources\c90\common\doprnt.c: 836:    continue;
  2300  0BD5  2C8F               	goto	l2852
  2301  0BD6                     l2812:
  2302  0BD6  3001               	movlw	1
  2303  0BD7  07A0               	addwf	sprintf@f,f
  2304  0BD8  30FF               	movlw	-1
  2305  0BD9  0720               	addwf	sprintf@f,w
  2306  0BDA  0084               	movwf	4
  2307  0BDB  120A  158A  200A  120A  158A  	fcall	stringdir
  2308  0BE0  00AE               	movwf	sprintf@c
  2309  0BE1  00A5               	movwf	??_sprintf
  2310  0BE2  01A6               	clrf	??_sprintf+1
  2311                           
  2312                           ; Switch on 2 bytes has been partitioned into a top level switch of size 1, and 1 sub-sw
      +                          itches
  2313                           ; Switch size 1, requested type "simple"
  2314                           ; Number of cases is 1, Range of values is 0 to 0
  2315                           ; switch strategies available:
  2316                           ; Name         Instructions Cycles
  2317                           ; simple_byte            4     3 (average)
  2318                           ; direct_byte           11     8 (fixed)
  2319                           ; jumptable            260     6 (fixed)
  2320                           ;	Chosen strategy is simple_byte
  2321  0BE3  0826               	movf	??_sprintf+1,w
  2322  0BE4  3A00               	xorlw	0	; case 0
  2323  0BE5  1903               	skipnz
  2324  0BE6  2BE8               	goto	l3222
  2325  0BE7  2BCA               	goto	l2808
  2326  0BE8                     l3222:
  2327                           
  2328                           ; Switch size 1, requested type "simple"
  2329                           ; Number of cases is 4, Range of values is 0 to 105
  2330                           ; switch strategies available:
  2331                           ; Name         Instructions Cycles
  2332                           ; simple_byte           13     7 (average)
  2333                           ; jumptable            260     6 (fixed)
  2334                           ;	Chosen strategy is simple_byte
  2335  0BE8  0825               	movf	??_sprintf,w
  2336  0BE9  3A00               	xorlw	0	; case 0
  2337  0BEA  1903               	skipnz
  2338  0BEB  2CA1               	goto	l2854
  2339  0BEC  3A63               	xorlw	99	; case 99
  2340  0BED  1903               	skipnz
  2341  0BEE  2BBF               	goto	l2804
  2342  0BEF  3A07               	xorlw	7	; case 100
  2343  0BF0  1903               	skipnz
  2344  0BF1  2BF6               	goto	l2814
  2345  0BF2  3A0D               	xorlw	13	; case 105
  2346  0BF3  1903               	skipnz
  2347  0BF4  2BF6               	goto	l2814
  2348  0BF5  2BCA               	goto	l2808
  2349  0BF6                     l2814:
  2350                           
  2351                           ;C:\Program Files\Microchip\xc8\v2.36\pic\sources\c90\common\doprnt.c: 1279:   {;C:\Prog
      +                          ram Files\Microchip\xc8\v2.36\pic\sources\c90\common\doprnt.c: 1285:     val = (unsigned
      +                           int)(*(int *)__va_arg((*(int **)ap), (int)0));
  2352  0BF6  082A               	movf	sprintf@ap,w
  2353  0BF7  0084               	movwf	4
  2354  0BF8  1383               	bcf	3,7	;select IRP bank0
  2355  0BF9  0800               	movf	0,w
  2356  0BFA  00AB               	movwf	sprintf@val
  2357  0BFB  0A84               	incf	4,f
  2358  0BFC  0800               	movf	0,w
  2359  0BFD  00AC               	movwf	sprintf@val+1
  2360  0BFE                     l2816:
  2361  0BFE  3002               	movlw	2
  2362  0BFF  00A5               	movwf	??_sprintf
  2363  0C00  0825               	movf	??_sprintf,w
  2364  0C01  07AA               	addwf	sprintf@ap,f
  2365  0C02                     l2818:
  2366                           
  2367                           ;C:\Program Files\Microchip\xc8\v2.36\pic\sources\c90\common\doprnt.c: 1287:    if((int)
      +                          val < 0) {
  2368  0C02  1FAC               	btfss	sprintf@val+1,7
  2369  0C03  2C05               	goto	u3511
  2370  0C04  2C06               	goto	u3510
  2371  0C05                     u3511:
  2372  0C05  2C0F               	goto	l2824
  2373  0C06                     u3510:
  2374  0C06                     l2820:
  2375                           
  2376                           ;C:\Program Files\Microchip\xc8\v2.36\pic\sources\c90\common\doprnt.c: 1288:     flag |=
      +                           0x03;
  2377  0C06  3003               	movlw	3
  2378  0C07  00A5               	movwf	??_sprintf
  2379  0C08  0825               	movf	??_sprintf,w
  2380  0C09  04A8               	iorwf	sprintf@flag,f
  2381  0C0A                     l2822:
  2382                           
  2383                           ;C:\Program Files\Microchip\xc8\v2.36\pic\sources\c90\common\doprnt.c: 1289:     val = -
      +                          val;
  2384  0C0A  09AB               	comf	sprintf@val,f
  2385  0C0B  09AC               	comf	sprintf@val+1,f
  2386  0C0C  0AAB               	incf	sprintf@val,f
  2387  0C0D  1903               	skipnz
  2388  0C0E  0AAC               	incf	sprintf@val+1,f
  2389  0C0F                     l2824:
  2390                           
  2391                           ;C:\Program Files\Microchip\xc8\v2.36\pic\sources\c90\common\doprnt.c: 1292:   };C:\Prog
      +                          ram Files\Microchip\xc8\v2.36\pic\sources\c90\common\doprnt.c: 1331:    for(c = 1 ; c !=
      +                           sizeof dpowers/sizeof dpowers[0] ; c++)
  2392  0C0F  01AE               	clrf	sprintf@c
  2393  0C10  0AAE               	incf	sprintf@c,f
  2394  0C11                     l2830:
  2395                           
  2396                           ;C:\Program Files\Microchip\xc8\v2.36\pic\sources\c90\common\doprnt.c: 1332:     if(val 
      +                          < dpowers[c])
  2397  0C11  082E               	movf	sprintf@c,w
  2398  0C12  00A5               	movwf	??_sprintf
  2399  0C13  0725               	addwf	??_sprintf,w
  2400  0C14  3E01               	addlw	low ((_dpowers-__stringbase)| (0+32768))
  2401  0C15  0084               	movwf	4
  2402  0C16  120A  158A  200A  120A  158A  	fcall	stringdir
  2403  0C1B  00A6               	movwf	??_sprintf+1
  2404  0C1C  120A  158A  200A  120A  158A  	fcall	stringdir
  2405  0C21  00A7               	movwf	??_sprintf+2
  2406  0C22  0827               	movf	??_sprintf+2,w
  2407  0C23  022C               	subwf	sprintf@val+1,w
  2408  0C24  1D03               	skipz
  2409  0C25  2C28               	goto	u3525
  2410  0C26  0826               	movf	??_sprintf+1,w
  2411  0C27  022B               	subwf	sprintf@val,w
  2412  0C28                     u3525:
  2413  0C28  1803               	skipnc
  2414  0C29  2C2B               	goto	u3521
  2415  0C2A  2C2C               	goto	u3520
  2416  0C2B                     u3521:
  2417  0C2B  2C2D               	goto	l2834
  2418  0C2C                     u3520:
  2419  0C2C  2C37               	goto	l2836
  2420  0C2D                     l2834:
  2421  0C2D  3001               	movlw	1
  2422  0C2E  00A5               	movwf	??_sprintf
  2423  0C2F  0825               	movf	??_sprintf,w
  2424  0C30  07AE               	addwf	sprintf@c,f
  2425  0C31  3005               	movlw	5
  2426  0C32  062E               	xorwf	sprintf@c,w
  2427  0C33  1D03               	btfss	3,2
  2428  0C34  2C36               	goto	u3531
  2429  0C35  2C37               	goto	u3530
  2430  0C36                     u3531:
  2431  0C36  2C11               	goto	l2830
  2432  0C37                     u3530:
  2433  0C37                     l2836:
  2434                           
  2435                           ;C:\Program Files\Microchip\xc8\v2.36\pic\sources\c90\common\doprnt.c: 1448:   {;C:\Prog
      +                          ram Files\Microchip\xc8\v2.36\pic\sources\c90\common\doprnt.c: 1464:    if(flag & 0x03)
  2436  0C37  0828               	movf	sprintf@flag,w
  2437  0C38  3903               	andlw	3
  2438  0C39  1903               	btfsc	3,2
  2439  0C3A  2C3C               	goto	u3541
  2440  0C3B  2C3D               	goto	u3540
  2441  0C3C                     u3541:
  2442  0C3C  2C48               	goto	l2842
  2443  0C3D                     u3540:
  2444  0C3D                     l2838:
  2445                           
  2446                           ;C:\Program Files\Microchip\xc8\v2.36\pic\sources\c90\common\doprnt.c: 1465:     ((*sp++
      +                           = ('-')));
  2447  0C3D  302D               	movlw	45
  2448  0C3E  00A5               	movwf	??_sprintf
  2449  0C3F  082D               	movf	sprintf@sp,w
  2450  0C40  0084               	movwf	4
  2451  0C41  0825               	movf	??_sprintf,w
  2452  0C42  1383               	bcf	3,7	;select IRP bank0
  2453  0C43  0080               	movwf	0
  2454  0C44                     l2840:
  2455  0C44  3001               	movlw	1
  2456  0C45  00A5               	movwf	??_sprintf
  2457  0C46  0825               	movf	??_sprintf,w
  2458  0C47  07AD               	addwf	sprintf@sp,f
  2459  0C48                     l2842:
  2460                           
  2461                           ;C:\Program Files\Microchip\xc8\v2.36\pic\sources\c90\common\doprnt.c: 1495:   };C:\Prog
      +                          ram Files\Microchip\xc8\v2.36\pic\sources\c90\common\doprnt.c: 1498:   prec = c;
  2462  0C48  082E               	movf	sprintf@c,w
  2463  0C49  00A5               	movwf	??_sprintf
  2464  0C4A  0825               	movf	??_sprintf,w
  2465  0C4B  00A9               	movwf	sprintf@prec
  2466                           
  2467                           ;C:\Program Files\Microchip\xc8\v2.36\pic\sources\c90\common\doprnt.c: 1500:   while(pre
      +                          c--) {
  2468  0C4C  2C86               	goto	l2850
  2469  0C4D                     l2844:
  2470                           
  2471                           ;C:\Program Files\Microchip\xc8\v2.36\pic\sources\c90\common\doprnt.c: 1504:    {;C:\Pro
      +                          gram Files\Microchip\xc8\v2.36\pic\sources\c90\common\doprnt.c: 1515:     c = (val / dpo
      +                          wers[(unsigned char)prec]) % 10 + '0';
  2472  0C4D  300A               	movlw	10
  2473  0C4E  00F8               	movwf	___lwmod@divisor
  2474  0C4F  3000               	movlw	0
  2475  0C50  00F9               	movwf	___lwmod@divisor+1
  2476  0C51  0829               	movf	sprintf@prec,w
  2477  0C52  00A5               	movwf	??_sprintf
  2478  0C53  0725               	addwf	??_sprintf,w
  2479  0C54  3E01               	addlw	low ((_dpowers-__stringbase)| (0+32768))
  2480  0C55  0084               	movwf	4
  2481  0C56  120A  158A  200A  120A  158A  	fcall	stringdir
  2482  0C5B  00F0               	movwf	___lwdiv@divisor
  2483  0C5C  120A  158A  200A  120A  158A  	fcall	stringdir
  2484  0C61  00F1               	movwf	___lwdiv@divisor+1
  2485  0C62  082C               	movf	sprintf@val+1,w
  2486  0C63  00F3               	movwf	___lwdiv@dividend+1
  2487  0C64  082B               	movf	sprintf@val,w
  2488  0C65  00F2               	movwf	___lwdiv@dividend
  2489  0C66  160A  118A  276E  120A  158A  	fcall	___lwdiv
  2490  0C6B  0871               	movf	?___lwdiv+1,w
  2491  0C6C  00FB               	movwf	___lwmod@dividend+1
  2492  0C6D  0870               	movf	?___lwdiv,w
  2493  0C6E  00FA               	movwf	___lwmod@dividend
  2494  0C6F  120A  158A  205D  120A  158A  	fcall	___lwmod
  2495  0C74  0878               	movf	?___lwmod,w
  2496  0C75  3E30               	addlw	48
  2497  0C76  1283               	bcf	3,5	;RP0=0, select bank0
  2498  0C77  1303               	bcf	3,6	;RP1=0, select bank0
  2499  0C78  00A6               	movwf	??_sprintf+1
  2500  0C79  0826               	movf	??_sprintf+1,w
  2501  0C7A  00AE               	movwf	sprintf@c
  2502  0C7B                     l2846:
  2503                           
  2504                           ;C:\Program Files\Microchip\xc8\v2.36\pic\sources\c90\common\doprnt.c: 1549:    };C:\Pro
      +                          gram Files\Microchip\xc8\v2.36\pic\sources\c90\common\doprnt.c: 1550:    ((*sp++ = (c)))
      +                          ;
  2505  0C7B  082E               	movf	sprintf@c,w
  2506  0C7C  00A5               	movwf	??_sprintf
  2507  0C7D  082D               	movf	sprintf@sp,w
  2508  0C7E  0084               	movwf	4
  2509  0C7F  0825               	movf	??_sprintf,w
  2510  0C80  1383               	bcf	3,7	;select IRP bank0
  2511  0C81  0080               	movwf	0
  2512  0C82                     l2848:
  2513  0C82  3001               	movlw	1
  2514  0C83  00A5               	movwf	??_sprintf
  2515  0C84  0825               	movf	??_sprintf,w
  2516  0C85  07AD               	addwf	sprintf@sp,f
  2517  0C86                     l2850:
  2518                           
  2519                           ;C:\Program Files\Microchip\xc8\v2.36\pic\sources\c90\common\doprnt.c: 1500:   while(pre
      +                          c--) {
  2520  0C86  30FF               	movlw	255
  2521  0C87  00A5               	movwf	??_sprintf
  2522  0C88  0825               	movf	??_sprintf,w
  2523  0C89  07A9               	addwf	sprintf@prec,f
  2524  0C8A  0A29               	incf	sprintf@prec,w
  2525  0C8B  1D03               	btfss	3,2
  2526  0C8C  2C8E               	goto	u3551
  2527  0C8D  2C8F               	goto	u3550
  2528  0C8E                     u3551:
  2529  0C8E  2C4D               	goto	l2844
  2530  0C8F                     u3550:
  2531  0C8F                     l2852:
  2532                           
  2533                           ;C:\Program Files\Microchip\xc8\v2.36\pic\sources\c90\common\doprnt.c: 553:  while((c = 
      +                          *f++)) {
  2534  0C8F  3001               	movlw	1
  2535  0C90  07A0               	addwf	sprintf@f,f
  2536  0C91  30FF               	movlw	-1
  2537  0C92  0720               	addwf	sprintf@f,w
  2538  0C93  0084               	movwf	4
  2539  0C94  120A  158A  200A  120A  158A  	fcall	stringdir
  2540  0C99  00A5               	movwf	??_sprintf
  2541  0C9A  0825               	movf	??_sprintf,w
  2542  0C9B  00AE               	movwf	sprintf@c
  2543  0C9C  082E               	movf	sprintf@c,w
  2544  0C9D  1D03               	btfss	3,2
  2545  0C9E  2CA0               	goto	u3561
  2546  0C9F  2CA1               	goto	u3560
  2547  0CA0                     u3561:
  2548  0CA0  2BAB               	goto	l2796
  2549  0CA1                     u3560:
  2550  0CA1                     l2854:
  2551                           
  2552                           ;C:\Program Files\Microchip\xc8\v2.36\pic\sources\c90\common\doprnt.c: 1564:  *sp = 0;
  2553  0CA1  082D               	movf	sprintf@sp,w
  2554  0CA2  0084               	movwf	4
  2555  0CA3  1383               	bcf	3,7	;select IRP bank0
  2556  0CA4  0180               	clrf	0
  2557  0CA5                     l408:
  2558  0CA5  0008               	return
  2559  0CA6                     __end_of_sprintf:
  2560                           
  2561                           	psect	text2
  2562  085D                     __ptext2:	
  2563 ;; *************** function ___lwmod *****************
  2564 ;; Defined at:
  2565 ;;		line 5 in file "C:\Program Files\Microchip\xc8\v2.36\pic\sources\c90\common\lwmod.c"
  2566 ;; Parameters:    Size  Location     Type
  2567 ;;  divisor         2    8[COMMON] unsigned int 
  2568 ;;  dividend        2   10[COMMON] unsigned int 
  2569 ;; Auto vars:     Size  Location     Type
  2570 ;;  counter         1   13[COMMON] unsigned char 
  2571 ;; Return value:  Size  Location     Type
  2572 ;;                  2    8[COMMON] unsigned int 
  2573 ;; Registers used:
  2574 ;;		wreg, status,2, status,0
  2575 ;; Tracked objects:
  2576 ;;		On entry : 0/0
  2577 ;;		On exit  : 0/0
  2578 ;;		Unchanged: 0/0
  2579 ;; Data sizes:     COMMON   BANK0   BANK1   BANK3   BANK2
  2580 ;;      Params:         4       0       0       0       0
  2581 ;;      Locals:         1       0       0       0       0
  2582 ;;      Temps:          1       0       0       0       0
  2583 ;;      Totals:         6       0       0       0       0
  2584 ;;Total ram usage:        6 bytes
  2585 ;; Hardware stack levels used: 1
  2586 ;; This function calls:
  2587 ;;		Nothing
  2588 ;; This function is called by:
  2589 ;;		_sprintf
  2590 ;; This function uses a non-reentrant model
  2591 ;;
  2592                           
  2593  085D                     ___lwmod:	
  2594                           ;psect for function ___lwmod
  2595                           
  2596  085D                     l2562:	
  2597                           ;incstack = 0
  2598                           ; Regs used in ___lwmod: [wreg+status,2+status,0]
  2599                           
  2600  085D  0878               	movf	___lwmod@divisor,w
  2601  085E  0479               	iorwf	___lwmod@divisor+1,w
  2602  085F  1903               	btfsc	3,2
  2603  0860  2862               	goto	u3171
  2604  0861  2863               	goto	u3170
  2605  0862                     u3171:
  2606  0862  2892               	goto	l2580
  2607  0863                     u3170:
  2608  0863                     l2564:
  2609  0863  01FD               	clrf	___lwmod@counter
  2610  0864  0AFD               	incf	___lwmod@counter,f
  2611  0865  2871               	goto	l2570
  2612  0866                     l2566:
  2613  0866  3001               	movlw	1
  2614  0867                     u3185:
  2615  0867  1003               	clrc
  2616  0868  0DF8               	rlf	___lwmod@divisor,f
  2617  0869  0DF9               	rlf	___lwmod@divisor+1,f
  2618  086A  3EFF               	addlw	-1
  2619  086B  1D03               	skipz
  2620  086C  2867               	goto	u3185
  2621  086D                     l2568:
  2622  086D  3001               	movlw	1
  2623  086E  00FC               	movwf	??___lwmod
  2624  086F  087C               	movf	??___lwmod,w
  2625  0870  07FD               	addwf	___lwmod@counter,f
  2626  0871                     l2570:
  2627  0871  1FF9               	btfss	___lwmod@divisor+1,7
  2628  0872  2874               	goto	u3191
  2629  0873  2875               	goto	u3190
  2630  0874                     u3191:
  2631  0874  2866               	goto	l2566
  2632  0875                     u3190:
  2633  0875                     l2572:
  2634  0875  0879               	movf	___lwmod@divisor+1,w
  2635  0876  027B               	subwf	___lwmod@dividend+1,w
  2636  0877  1D03               	skipz
  2637  0878  287B               	goto	u3205
  2638  0879  0878               	movf	___lwmod@divisor,w
  2639  087A  027A               	subwf	___lwmod@dividend,w
  2640  087B                     u3205:
  2641  087B  1C03               	skipc
  2642  087C  287E               	goto	u3201
  2643  087D  287F               	goto	u3200
  2644  087E                     u3201:
  2645  087E  2885               	goto	l2576
  2646  087F                     u3200:
  2647  087F                     l2574:
  2648  087F  0878               	movf	___lwmod@divisor,w
  2649  0880  02FA               	subwf	___lwmod@dividend,f
  2650  0881  0879               	movf	___lwmod@divisor+1,w
  2651  0882  1C03               	skipc
  2652  0883  03FB               	decf	___lwmod@dividend+1,f
  2653  0884  02FB               	subwf	___lwmod@dividend+1,f
  2654  0885                     l2576:
  2655  0885  3001               	movlw	1
  2656  0886                     u3215:
  2657  0886  1003               	clrc
  2658  0887  0CF9               	rrf	___lwmod@divisor+1,f
  2659  0888  0CF8               	rrf	___lwmod@divisor,f
  2660  0889  3EFF               	addlw	-1
  2661  088A  1D03               	skipz
  2662  088B  2886               	goto	u3215
  2663  088C                     l2578:
  2664  088C  3001               	movlw	1
  2665  088D  02FD               	subwf	___lwmod@counter,f
  2666  088E  1D03               	btfss	3,2
  2667  088F  2891               	goto	u3221
  2668  0890  2892               	goto	u3220
  2669  0891                     u3221:
  2670  0891  2875               	goto	l2572
  2671  0892                     u3220:
  2672  0892                     l2580:
  2673  0892  087B               	movf	___lwmod@dividend+1,w
  2674  0893  00F9               	movwf	?___lwmod+1
  2675  0894  087A               	movf	___lwmod@dividend,w
  2676  0895  00F8               	movwf	?___lwmod
  2677  0896                     l694:
  2678  0896  0008               	return
  2679  0897                     __end_of___lwmod:
  2680                           
  2681                           	psect	text3
  2682  176E                     __ptext3:	
  2683 ;; *************** function ___lwdiv *****************
  2684 ;; Defined at:
  2685 ;;		line 5 in file "C:\Program Files\Microchip\xc8\v2.36\pic\sources\c90\common\lwdiv.c"
  2686 ;; Parameters:    Size  Location     Type
  2687 ;;  divisor         2    0[COMMON] unsigned int 
  2688 ;;  dividend        2    2[COMMON] unsigned int 
  2689 ;; Auto vars:     Size  Location     Type
  2690 ;;  quotient        2    5[COMMON] unsigned int 
  2691 ;;  counter         1    7[COMMON] unsigned char 
  2692 ;; Return value:  Size  Location     Type
  2693 ;;                  2    0[COMMON] unsigned int 
  2694 ;; Registers used:
  2695 ;;		wreg, status,2, status,0
  2696 ;; Tracked objects:
  2697 ;;		On entry : 0/0
  2698 ;;		On exit  : 0/0
  2699 ;;		Unchanged: 0/0
  2700 ;; Data sizes:     COMMON   BANK0   BANK1   BANK3   BANK2
  2701 ;;      Params:         4       0       0       0       0
  2702 ;;      Locals:         3       0       0       0       0
  2703 ;;      Temps:          1       0       0       0       0
  2704 ;;      Totals:         8       0       0       0       0
  2705 ;;Total ram usage:        8 bytes
  2706 ;; Hardware stack levels used: 1
  2707 ;; This function calls:
  2708 ;;		Nothing
  2709 ;; This function is called by:
  2710 ;;		_sprintf
  2711 ;; This function uses a non-reentrant model
  2712 ;;
  2713                           
  2714  176E                     ___lwdiv:	
  2715                           ;psect for function ___lwdiv
  2716                           
  2717  176E                     l2536:	
  2718                           ;incstack = 0
  2719                           ; Regs used in ___lwdiv: [wreg+status,2+status,0]
  2720                           
  2721  176E  01F5               	clrf	___lwdiv@quotient
  2722  176F  01F6               	clrf	___lwdiv@quotient+1
  2723  1770                     l2538:
  2724  1770  0870               	movf	___lwdiv@divisor,w
  2725  1771  0471               	iorwf	___lwdiv@divisor+1,w
  2726  1772  1903               	btfsc	3,2
  2727  1773  2F75               	goto	u3101
  2728  1774  2F76               	goto	u3100
  2729  1775                     u3101:
  2730  1775  2FAD               	goto	l2558
  2731  1776                     u3100:
  2732  1776                     l2540:
  2733  1776  01F7               	clrf	___lwdiv@counter
  2734  1777  0AF7               	incf	___lwdiv@counter,f
  2735  1778  2F84               	goto	l2546
  2736  1779                     l2542:
  2737  1779  3001               	movlw	1
  2738  177A                     u3115:
  2739  177A  1003               	clrc
  2740  177B  0DF0               	rlf	___lwdiv@divisor,f
  2741  177C  0DF1               	rlf	___lwdiv@divisor+1,f
  2742  177D  3EFF               	addlw	-1
  2743  177E  1D03               	skipz
  2744  177F  2F7A               	goto	u3115
  2745  1780                     l2544:
  2746  1780  3001               	movlw	1
  2747  1781  00F4               	movwf	??___lwdiv
  2748  1782  0874               	movf	??___lwdiv,w
  2749  1783  07F7               	addwf	___lwdiv@counter,f
  2750  1784                     l2546:
  2751  1784  1FF1               	btfss	___lwdiv@divisor+1,7
  2752  1785  2F87               	goto	u3121
  2753  1786  2F88               	goto	u3120
  2754  1787                     u3121:
  2755  1787  2F79               	goto	l2542
  2756  1788                     u3120:
  2757  1788                     l2548:
  2758  1788  3001               	movlw	1
  2759  1789                     u3135:
  2760  1789  1003               	clrc
  2761  178A  0DF5               	rlf	___lwdiv@quotient,f
  2762  178B  0DF6               	rlf	___lwdiv@quotient+1,f
  2763  178C  3EFF               	addlw	-1
  2764  178D  1D03               	skipz
  2765  178E  2F89               	goto	u3135
  2766  178F  0871               	movf	___lwdiv@divisor+1,w
  2767  1790  0273               	subwf	___lwdiv@dividend+1,w
  2768  1791  1D03               	skipz
  2769  1792  2F95               	goto	u3145
  2770  1793  0870               	movf	___lwdiv@divisor,w
  2771  1794  0272               	subwf	___lwdiv@dividend,w
  2772  1795                     u3145:
  2773  1795  1C03               	skipc
  2774  1796  2F98               	goto	u3141
  2775  1797  2F99               	goto	u3140
  2776  1798                     u3141:
  2777  1798  2FA0               	goto	l2554
  2778  1799                     u3140:
  2779  1799                     l2550:
  2780  1799  0870               	movf	___lwdiv@divisor,w
  2781  179A  02F2               	subwf	___lwdiv@dividend,f
  2782  179B  0871               	movf	___lwdiv@divisor+1,w
  2783  179C  1C03               	skipc
  2784  179D  03F3               	decf	___lwdiv@dividend+1,f
  2785  179E  02F3               	subwf	___lwdiv@dividend+1,f
  2786  179F                     l2552:
  2787  179F  1475               	bsf	___lwdiv@quotient,0
  2788  17A0                     l2554:
  2789  17A0  3001               	movlw	1
  2790  17A1                     u3155:
  2791  17A1  1003               	clrc
  2792  17A2  0CF1               	rrf	___lwdiv@divisor+1,f
  2793  17A3  0CF0               	rrf	___lwdiv@divisor,f
  2794  17A4  3EFF               	addlw	-1
  2795  17A5  1D03               	skipz
  2796  17A6  2FA1               	goto	u3155
  2797  17A7                     l2556:
  2798  17A7  3001               	movlw	1
  2799  17A8  02F7               	subwf	___lwdiv@counter,f
  2800  17A9  1D03               	btfss	3,2
  2801  17AA  2FAC               	goto	u3161
  2802  17AB  2FAD               	goto	u3160
  2803  17AC                     u3161:
  2804  17AC  2F88               	goto	l2548
  2805  17AD                     u3160:
  2806  17AD                     l2558:
  2807  17AD  0876               	movf	___lwdiv@quotient+1,w
  2808  17AE  00F1               	movwf	?___lwdiv+1
  2809  17AF  0875               	movf	___lwdiv@quotient,w
  2810  17B0  00F0               	movwf	?___lwdiv
  2811  17B1                     l684:
  2812  17B1  0008               	return
  2813  17B2                     __end_of___lwdiv:
  2814                           
  2815                           	psect	text4
  2816  0854                     __ptext4:	
  2817 ;; *************** function _sensorProximidad_init *****************
  2818 ;; Defined at:
  2819 ;;		line 16 in file "obstacleAvoidanceSensor.c"
  2820 ;; Parameters:    Size  Location     Type
  2821 ;;		None
  2822 ;; Auto vars:     Size  Location     Type
  2823 ;;		None
  2824 ;; Return value:  Size  Location     Type
  2825 ;;                  1    wreg      void 
  2826 ;; Registers used:
  2827 ;;		None
  2828 ;; Tracked objects:
  2829 ;;		On entry : 0/0
  2830 ;;		On exit  : 0/0
  2831 ;;		Unchanged: 0/0
  2832 ;; Data sizes:     COMMON   BANK0   BANK1   BANK3   BANK2
  2833 ;;      Params:         0       0       0       0       0
  2834 ;;      Locals:         0       0       0       0       0
  2835 ;;      Temps:          0       0       0       0       0
  2836 ;;      Totals:         0       0       0       0       0
  2837 ;;Total ram usage:        0 bytes
  2838 ;; Hardware stack levels used: 1
  2839 ;; This function calls:
  2840 ;;		Nothing
  2841 ;; This function is called by:
  2842 ;;		_main
  2843 ;; This function uses a non-reentrant model
  2844 ;;
  2845                           
  2846  0854                     _sensorProximidad_init:	
  2847                           ;psect for function _sensorProximidad_init
  2848                           
  2849  0854                     l2682:	
  2850                           ;incstack = 0
  2851                           ; Regs used in _sensorProximidad_init: []
  2852                           
  2853                           
  2854                           ;obstacleAvoidanceSensor.c: 17:     TRISC1 = 1;
  2855  0854  1683               	bsf	3,5	;RP0=1, select bank1
  2856  0855  1303               	bcf	3,6	;RP1=0, select bank1
  2857  0856  1487               	bsf	7,1	;volatile
  2858  0857                     l36:
  2859  0857  0008               	return
  2860  0858                     __end_of_sensorProximidad_init:
  2861                           
  2862                           	psect	text5
  2863  1570                     __ptext5:	
  2864 ;; *************** function _sensorFlame_init *****************
  2865 ;; Defined at:
  2866 ;;		line 14 in file "flame_sensor.c"
  2867 ;; Parameters:    Size  Location     Type
  2868 ;;		None
  2869 ;; Auto vars:     Size  Location     Type
  2870 ;;		None
  2871 ;; Return value:  Size  Location     Type
  2872 ;;                  1    wreg      void 
  2873 ;; Registers used:
  2874 ;;		None
  2875 ;; Tracked objects:
  2876 ;;		On entry : 0/0
  2877 ;;		On exit  : 0/0
  2878 ;;		Unchanged: 0/0
  2879 ;; Data sizes:     COMMON   BANK0   BANK1   BANK3   BANK2
  2880 ;;      Params:         0       0       0       0       0
  2881 ;;      Locals:         0       0       0       0       0
  2882 ;;      Temps:          0       0       0       0       0
  2883 ;;      Totals:         0       0       0       0       0
  2884 ;;Total ram usage:        0 bytes
  2885 ;; Hardware stack levels used: 1
  2886 ;; This function calls:
  2887 ;;		Nothing
  2888 ;; This function is called by:
  2889 ;;		_main
  2890 ;; This function uses a non-reentrant model
  2891 ;;
  2892                           
  2893  1570                     _sensorFlame_init:	
  2894                           ;psect for function _sensorFlame_init
  2895                           
  2896  1570                     l2658:	
  2897                           ;incstack = 0
  2898                           ; Regs used in _sensorFlame_init: []
  2899                           
  2900                           
  2901                           ;flame_sensor.c: 15:     TRISC0 = 1;
  2902  1570  1683               	bsf	3,5	;RP0=1, select bank1
  2903  1571  1303               	bcf	3,6	;RP1=0, select bank1
  2904  1572  1407               	bsf	7,0	;volatile
  2905  1573                     l9:
  2906  1573  0008               	return
  2907  1574                     __end_of_sensorFlame_init:
  2908                           
  2909                           	psect	text6
  2910  156C                     __ptext6:	
  2911 ;; *************** function _microphone_init *****************
  2912 ;; Defined at:
  2913 ;;		line 13 in file "Microphone.c"
  2914 ;; Parameters:    Size  Location     Type
  2915 ;;		None
  2916 ;; Auto vars:     Size  Location     Type
  2917 ;;		None
  2918 ;; Return value:  Size  Location     Type
  2919 ;;                  1    wreg      void 
  2920 ;; Registers used:
  2921 ;;		None
  2922 ;; Tracked objects:
  2923 ;;		On entry : 0/0
  2924 ;;		On exit  : 0/0
  2925 ;;		Unchanged: 0/0
  2926 ;; Data sizes:     COMMON   BANK0   BANK1   BANK3   BANK2
  2927 ;;      Params:         0       0       0       0       0
  2928 ;;      Locals:         0       0       0       0       0
  2929 ;;      Temps:          0       0       0       0       0
  2930 ;;      Totals:         0       0       0       0       0
  2931 ;;Total ram usage:        0 bytes
  2932 ;; Hardware stack levels used: 1
  2933 ;; This function calls:
  2934 ;;		Nothing
  2935 ;; This function is called by:
  2936 ;;		_main
  2937 ;; This function uses a non-reentrant model
  2938 ;;
  2939                           
  2940  156C                     _microphone_init:	
  2941                           ;psect for function _microphone_init
  2942                           
  2943  156C                     l2670:	
  2944                           ;incstack = 0
  2945                           ; Regs used in _microphone_init: []
  2946                           
  2947                           
  2948                           ;Microphone.c: 14:     TRISC2 = 1;
  2949  156C  1683               	bsf	3,5	;RP0=1, select bank1
  2950  156D  1303               	bcf	3,6	;RP1=0, select bank1
  2951  156E  1507               	bsf	7,2	;volatile
  2952  156F                     l22:
  2953  156F  0008               	return
  2954  1570                     __end_of_microphone_init:
  2955                           
  2956                           	psect	text7
  2957  0CA6                     __ptext7:	
  2958 ;; *************** function _log *****************
  2959 ;; Defined at:
  2960 ;;		line 5 in file "C:\Program Files\Microchip\xc8\v2.36\pic\sources\c90\common\log.c"
  2961 ;; Parameters:    Size  Location     Type
  2962 ;;  x               4   16[BANK1 ] void 
  2963 ;; Auto vars:     Size  Location     Type
  2964 ;;  exponent        2   20[BANK1 ] int 
  2965 ;; Return value:  Size  Location     Type
  2966 ;;                  4   16[BANK1 ] int 
  2967 ;; Registers used:
  2968 ;;		wreg, fsr0l, fsr0h, status,2, status,0, btemp+1, pclath, cstack
  2969 ;; Tracked objects:
  2970 ;;		On entry : 0/0
  2971 ;;		On exit  : 0/0
  2972 ;;		Unchanged: 0/0
  2973 ;; Data sizes:     COMMON   BANK0   BANK1   BANK3   BANK2
  2974 ;;      Params:         0       0       4       0       0
  2975 ;;      Locals:         0       0       2       0       0
  2976 ;;      Temps:          0       1       0       0       0
  2977 ;;      Totals:         0       1       6       0       0
  2978 ;;Total ram usage:        7 bytes
  2979 ;; Hardware stack levels used: 1
  2980 ;; Hardware stack levels required when called: 3
  2981 ;; This function calls:
  2982 ;;		___fladd
  2983 ;;		___fleq
  2984 ;;		___flge
  2985 ;;		___flmul
  2986 ;;		___xxtofl
  2987 ;;		_eval_poly
  2988 ;;		_frexp
  2989 ;; This function is called by:
  2990 ;;		_main
  2991 ;; This function uses a non-reentrant model
  2992 ;;
  2993                           
  2994  0CA6                     _log:	
  2995                           ;psect for function _log
  2996                           
  2997  0CA6                     l2772:	
  2998                           ;incstack = 0
  2999                           ; Regs used in _log: [wreg-fsr0h+status,2+status,0+btemp+1+pclath+cstack]
  3000                           
  3001  0CA6  1683               	bsf	3,5	;RP0=1, select bank1
  3002  0CA7  1303               	bcf	3,6	;RP1=0, select bank1
  3003  0CA8  0833               	movf	(log@x+3)^(0+128),w
  3004  0CA9  00F3               	movwf	___flge@ff1+3
  3005  0CAA  0832               	movf	(log@x+2)^(0+128),w
  3006  0CAB  00F2               	movwf	___flge@ff1+2
  3007  0CAC  0831               	movf	(log@x+1)^(0+128),w
  3008  0CAD  00F1               	movwf	___flge@ff1+1
  3009  0CAE  0830               	movf	log@x^(0+128),w
  3010  0CAF  00F0               	movwf	___flge@ff1
  3011  0CB0  3000               	movlw	0
  3012  0CB1  00F7               	movwf	___flge@ff2+3
  3013  0CB2  3000               	movlw	0
  3014  0CB3  00F6               	movwf	___flge@ff2+2
  3015  0CB4  3000               	movlw	0
  3016  0CB5  00F5               	movwf	___flge@ff2+1
  3017  0CB6  3000               	movlw	0
  3018  0CB7  00F4               	movwf	___flge@ff2
  3019  0CB8  120A  158A  216D  120A  158A  	fcall	___flge
  3020  0CBD  1803               	btfsc	3,0
  3021  0CBE  2CC0               	goto	u3481
  3022  0CBF  2CC1               	goto	u3480
  3023  0CC0                     u3481:
  3024  0CC0  2CD0               	goto	l2778
  3025  0CC1                     u3480:
  3026  0CC1                     l2774:
  3027  0CC1  3021               	movlw	33
  3028  0CC2  1683               	bsf	3,5	;RP0=1, select bank1
  3029  0CC3  1303               	bcf	3,6	;RP1=0, select bank1
  3030  0CC4  00DB               	movwf	_errno^(0+128)
  3031  0CC5  3000               	movlw	0
  3032  0CC6  00DC               	movwf	(_errno^(0+128)+1)
  3033  0CC7  3000               	movlw	0
  3034  0CC8  00B3               	movwf	(?_log+3)^(0+128)
  3035  0CC9  3000               	movlw	0
  3036  0CCA  00B2               	movwf	(?_log+2)^(0+128)
  3037  0CCB  3000               	movlw	0
  3038  0CCC  00B1               	movwf	(?_log+1)^(0+128)
  3039  0CCD  3000               	movlw	0
  3040  0CCE  00B0               	movwf	?_log^(0+128)
  3041  0CCF  2DF1               	goto	l872
  3042  0CD0                     l2778:
  3043  0CD0  1683               	bsf	3,5	;RP0=1, select bank1
  3044  0CD1  1303               	bcf	3,6	;RP1=0, select bank1
  3045  0CD2  0833               	movf	(log@x+3)^(0+128),w
  3046  0CD3  00F3               	movwf	___fleq@ff1+3
  3047  0CD4  0832               	movf	(log@x+2)^(0+128),w
  3048  0CD5  00F2               	movwf	___fleq@ff1+2
  3049  0CD6  0831               	movf	(log@x+1)^(0+128),w
  3050  0CD7  00F1               	movwf	___fleq@ff1+1
  3051  0CD8  0830               	movf	log@x^(0+128),w
  3052  0CD9  00F0               	movwf	___fleq@ff1
  3053  0CDA  3000               	movlw	0
  3054  0CDB  00F7               	movwf	___fleq@ff2+3
  3055  0CDC  3000               	movlw	0
  3056  0CDD  00F6               	movwf	___fleq@ff2+2
  3057  0CDE  3000               	movlw	0
  3058  0CDF  00F5               	movwf	___fleq@ff2+1
  3059  0CE0  3000               	movlw	0
  3060  0CE1  00F4               	movwf	___fleq@ff2
  3061  0CE2  160A  118A  27B2  120A  158A  	fcall	___fleq
  3062  0CE7  1C03               	btfss	3,0
  3063  0CE8  2CEA               	goto	u3491
  3064  0CE9  2CEB               	goto	u3490
  3065  0CEA                     u3491:
  3066  0CEA  2CFA               	goto	l2784
  3067  0CEB                     u3490:
  3068  0CEB                     l2780:
  3069  0CEB  3022               	movlw	34
  3070  0CEC  1683               	bsf	3,5	;RP0=1, select bank1
  3071  0CED  1303               	bcf	3,6	;RP1=0, select bank1
  3072  0CEE  00DB               	movwf	_errno^(0+128)
  3073  0CEF  3000               	movlw	0
  3074  0CF0  00DC               	movwf	(_errno^(0+128)+1)
  3075  0CF1  3000               	movlw	0
  3076  0CF2  00B3               	movwf	(?_log+3)^(0+128)
  3077  0CF3  3000               	movlw	0
  3078  0CF4  00B2               	movwf	(?_log+2)^(0+128)
  3079  0CF5  3000               	movlw	0
  3080  0CF6  00B1               	movwf	(?_log+1)^(0+128)
  3081  0CF7  3000               	movlw	0
  3082  0CF8  00B0               	movwf	?_log^(0+128)
  3083  0CF9  2DF1               	goto	l872
  3084  0CFA                     l2784:
  3085  0CFA  30BF               	movlw	191
  3086  0CFB  1283               	bcf	3,5	;RP0=0, select bank0
  3087  0CFC  1303               	bcf	3,6	;RP1=0, select bank0
  3088  0CFD  00DC               	movwf	___fladd@b+3
  3089  0CFE  3080               	movlw	128
  3090  0CFF  00DB               	movwf	___fladd@b+2
  3091  0D00  3000               	movlw	0
  3092  0D01  00DA               	movwf	___fladd@b+1
  3093  0D02  3000               	movlw	0
  3094  0D03  00D9               	movwf	___fladd@b
  3095  0D04  3040               	movlw	64
  3096  0D05  00A8               	movwf	___flmul@b+3
  3097  0D06  3000               	movlw	0
  3098  0D07  00A7               	movwf	___flmul@b+2
  3099  0D08  3000               	movlw	0
  3100  0D09  00A6               	movwf	___flmul@b+1
  3101  0D0A  3000               	movlw	0
  3102  0D0B  00A5               	movwf	___flmul@b
  3103  0D0C  30B4               	movlw	(low (log@exponent| 0))& (0+255)
  3104  0D0D  00ED               	movwf	??_log
  3105  0D0E  086D               	movf	??_log,w
  3106  0D0F  00A4               	movwf	frexp@eptr
  3107  0D10  1683               	bsf	3,5	;RP0=1, select bank1
  3108  0D11  1303               	bcf	3,6	;RP1=0, select bank1
  3109  0D12  0833               	movf	(log@x+3)^(0+128),w
  3110  0D13  1283               	bcf	3,5	;RP0=0, select bank0
  3111  0D14  1303               	bcf	3,6	;RP1=0, select bank0
  3112  0D15  00A3               	movwf	frexp@value+3
  3113  0D16  1683               	bsf	3,5	;RP0=1, select bank1
  3114  0D17  1303               	bcf	3,6	;RP1=0, select bank1
  3115  0D18  0832               	movf	(log@x+2)^(0+128),w
  3116  0D19  1283               	bcf	3,5	;RP0=0, select bank0
  3117  0D1A  1303               	bcf	3,6	;RP1=0, select bank0
  3118  0D1B  00A2               	movwf	frexp@value+2
  3119  0D1C  1683               	bsf	3,5	;RP0=1, select bank1
  3120  0D1D  1303               	bcf	3,6	;RP1=0, select bank1
  3121  0D1E  0831               	movf	(log@x+1)^(0+128),w
  3122  0D1F  1283               	bcf	3,5	;RP0=0, select bank0
  3123  0D20  1303               	bcf	3,6	;RP1=0, select bank0
  3124  0D21  00A1               	movwf	frexp@value+1
  3125  0D22  1683               	bsf	3,5	;RP0=1, select bank1
  3126  0D23  1303               	bcf	3,6	;RP1=0, select bank1
  3127  0D24  0830               	movf	log@x^(0+128),w
  3128  0D25  1283               	bcf	3,5	;RP0=0, select bank0
  3129  0D26  1303               	bcf	3,6	;RP1=0, select bank0
  3130  0D27  00A0               	movwf	frexp@value
  3131  0D28  120A  158A  2097  120A  158A  	fcall	_frexp
  3132  0D2D  1283               	bcf	3,5	;RP0=0, select bank0
  3133  0D2E  1303               	bcf	3,6	;RP1=0, select bank0
  3134  0D2F  0823               	movf	?_frexp+3,w
  3135  0D30  00AC               	movwf	___flmul@a+3
  3136  0D31  0822               	movf	?_frexp+2,w
  3137  0D32  00AB               	movwf	___flmul@a+2
  3138  0D33  0821               	movf	?_frexp+1,w
  3139  0D34  00AA               	movwf	___flmul@a+1
  3140  0D35  0820               	movf	?_frexp,w
  3141  0D36  00A9               	movwf	___flmul@a
  3142  0D37  120A  118A  2473  120A  158A  	fcall	___flmul
  3143  0D3C  1283               	bcf	3,5	;RP0=0, select bank0
  3144  0D3D  1303               	bcf	3,6	;RP1=0, select bank0
  3145  0D3E  0828               	movf	?___flmul+3,w
  3146  0D3F  00E0               	movwf	___fladd@a+3
  3147  0D40  0827               	movf	?___flmul+2,w
  3148  0D41  00DF               	movwf	___fladd@a+2
  3149  0D42  0826               	movf	?___flmul+1,w
  3150  0D43  00DE               	movwf	___fladd@a+1
  3151  0D44  0825               	movf	?___flmul,w
  3152  0D45  00DD               	movwf	___fladd@a
  3153  0D46  120A  118A  21EB  120A  158A  	fcall	___fladd
  3154  0D4B  1283               	bcf	3,5	;RP0=0, select bank0
  3155  0D4C  1303               	bcf	3,6	;RP1=0, select bank0
  3156  0D4D  085C               	movf	?___fladd+3,w
  3157  0D4E  1683               	bsf	3,5	;RP0=1, select bank1
  3158  0D4F  1303               	bcf	3,6	;RP1=0, select bank1
  3159  0D50  00B3               	movwf	(log@x+3)^(0+128)
  3160  0D51  1283               	bcf	3,5	;RP0=0, select bank0
  3161  0D52  1303               	bcf	3,6	;RP1=0, select bank0
  3162  0D53  085B               	movf	?___fladd+2,w
  3163  0D54  1683               	bsf	3,5	;RP0=1, select bank1
  3164  0D55  1303               	bcf	3,6	;RP1=0, select bank1
  3165  0D56  00B2               	movwf	(log@x+2)^(0+128)
  3166  0D57  1283               	bcf	3,5	;RP0=0, select bank0
  3167  0D58  1303               	bcf	3,6	;RP1=0, select bank0
  3168  0D59  085A               	movf	?___fladd+1,w
  3169  0D5A  1683               	bsf	3,5	;RP0=1, select bank1
  3170  0D5B  1303               	bcf	3,6	;RP1=0, select bank1
  3171  0D5C  00B1               	movwf	(log@x+1)^(0+128)
  3172  0D5D  1283               	bcf	3,5	;RP0=0, select bank0
  3173  0D5E  1303               	bcf	3,6	;RP1=0, select bank0
  3174  0D5F  0859               	movf	?___fladd,w
  3175  0D60  1683               	bsf	3,5	;RP0=1, select bank1
  3176  0D61  1303               	bcf	3,6	;RP1=0, select bank1
  3177  0D62  00B0               	movwf	log@x^(0+128)
  3178  0D63                     l2786:
  3179  0D63  30FF               	movlw	255
  3180  0D64  07B4               	addwf	log@exponent^(0+128),f
  3181  0D65  1803               	skipnc
  3182  0D66  0AB5               	incf	(log@exponent+1)^(0+128),f
  3183  0D67  30FF               	movlw	255
  3184  0D68  07B5               	addwf	(log@exponent+1)^(0+128),f
  3185  0D69                     l2788:
  3186  0D69  0833               	movf	(log@x+3)^(0+128),w
  3187  0D6A  00A3               	movwf	(eval_poly@x+3)^(0+128)
  3188  0D6B  0832               	movf	(log@x+2)^(0+128),w
  3189  0D6C  00A2               	movwf	(eval_poly@x+2)^(0+128)
  3190  0D6D  0831               	movf	(log@x+1)^(0+128),w
  3191  0D6E  00A1               	movwf	(eval_poly@x+1)^(0+128)
  3192  0D6F  0830               	movf	log@x^(0+128),w
  3193  0D70  00A0               	movwf	eval_poly@x^(0+128)
  3194  0D71  3012               	movlw	(low ((log@coeff-__stringbase)| (0+32768)))& (0+255)
  3195  0D72  1283               	bcf	3,5	;RP0=0, select bank0
  3196  0D73  1303               	bcf	3,6	;RP1=0, select bank0
  3197  0D74  00ED               	movwf	??_log
  3198  0D75  086D               	movf	??_log,w
  3199  0D76  1683               	bsf	3,5	;RP0=1, select bank1
  3200  0D77  1303               	bcf	3,6	;RP1=0, select bank1
  3201  0D78  00A4               	movwf	eval_poly@d^(0+128)
  3202  0D79  3008               	movlw	8
  3203  0D7A  00A5               	movwf	eval_poly@n^(0+128)
  3204  0D7B  3000               	movlw	0
  3205  0D7C  00A6               	movwf	(eval_poly@n^(0+128)+1)
  3206  0D7D  120A  158A  22C9  120A  158A  	fcall	_eval_poly
  3207  0D82  1683               	bsf	3,5	;RP0=1, select bank1
  3208  0D83  1303               	bcf	3,6	;RP1=0, select bank1
  3209  0D84  0823               	movf	(?_eval_poly+3)^(0+128),w
  3210  0D85  00B3               	movwf	(log@x+3)^(0+128)
  3211  0D86  0822               	movf	(?_eval_poly+2)^(0+128),w
  3212  0D87  00B2               	movwf	(log@x+2)^(0+128)
  3213  0D88  0821               	movf	(?_eval_poly+1)^(0+128),w
  3214  0D89  00B1               	movwf	(log@x+1)^(0+128)
  3215  0D8A  0820               	movf	?_eval_poly^(0+128),w
  3216  0D8B  00B0               	movwf	log@x^(0+128)
  3217  0D8C                     l2790:
  3218  0D8C  0833               	movf	(log@x+3)^(0+128),w
  3219  0D8D  1283               	bcf	3,5	;RP0=0, select bank0
  3220  0D8E  1303               	bcf	3,6	;RP1=0, select bank0
  3221  0D8F  00DC               	movwf	___fladd@b+3
  3222  0D90  1683               	bsf	3,5	;RP0=1, select bank1
  3223  0D91  1303               	bcf	3,6	;RP1=0, select bank1
  3224  0D92  0832               	movf	(log@x+2)^(0+128),w
  3225  0D93  1283               	bcf	3,5	;RP0=0, select bank0
  3226  0D94  1303               	bcf	3,6	;RP1=0, select bank0
  3227  0D95  00DB               	movwf	___fladd@b+2
  3228  0D96  1683               	bsf	3,5	;RP0=1, select bank1
  3229  0D97  1303               	bcf	3,6	;RP1=0, select bank1
  3230  0D98  0831               	movf	(log@x+1)^(0+128),w
  3231  0D99  1283               	bcf	3,5	;RP0=0, select bank0
  3232  0D9A  1303               	bcf	3,6	;RP1=0, select bank0
  3233  0D9B  00DA               	movwf	___fladd@b+1
  3234  0D9C  1683               	bsf	3,5	;RP0=1, select bank1
  3235  0D9D  1303               	bcf	3,6	;RP1=0, select bank1
  3236  0D9E  0830               	movf	log@x^(0+128),w
  3237  0D9F  1283               	bcf	3,5	;RP0=0, select bank0
  3238  0DA0  1303               	bcf	3,6	;RP1=0, select bank0
  3239  0DA1  00D9               	movwf	___fladd@b
  3240  0DA2  303F               	movlw	63
  3241  0DA3  00A8               	movwf	___flmul@b+3
  3242  0DA4  3031               	movlw	49
  3243  0DA5  00A7               	movwf	___flmul@b+2
  3244  0DA6  3072               	movlw	114
  3245  0DA7  00A6               	movwf	___flmul@b+1
  3246  0DA8  3018               	movlw	24
  3247  0DA9  00A5               	movwf	___flmul@b
  3248  0DAA  1683               	bsf	3,5	;RP0=1, select bank1
  3249  0DAB  1303               	bcf	3,6	;RP1=0, select bank1
  3250  0DAC  0834               	movf	log@exponent^(0+128),w
  3251  0DAD  00F0               	movwf	___xxtofl@val
  3252  0DAE  0835               	movf	(log@exponent+1)^(0+128),w
  3253  0DAF  00F1               	movwf	___xxtofl@val+1
  3254  0DB0  3000               	movlw	0
  3255  0DB1  1BF1               	btfsc	___xxtofl@val+1,7
  3256  0DB2  30FF               	movlw	255
  3257  0DB3  00F2               	movwf	___xxtofl@val+2
  3258  0DB4  00F3               	movwf	___xxtofl@val+3
  3259  0DB5  3001               	movlw	1
  3260  0DB6  120A  158A  220F  120A  158A  	fcall	___xxtofl
  3261  0DBB  0873               	movf	?___xxtofl+3,w
  3262  0DBC  1283               	bcf	3,5	;RP0=0, select bank0
  3263  0DBD  1303               	bcf	3,6	;RP1=0, select bank0
  3264  0DBE  00AC               	movwf	___flmul@a+3
  3265  0DBF  0872               	movf	?___xxtofl+2,w
  3266  0DC0  00AB               	movwf	___flmul@a+2
  3267  0DC1  0871               	movf	?___xxtofl+1,w
  3268  0DC2  00AA               	movwf	___flmul@a+1
  3269  0DC3  0870               	movf	?___xxtofl,w
  3270  0DC4  00A9               	movwf	___flmul@a
  3271  0DC5  120A  118A  2473  120A  158A  	fcall	___flmul
  3272  0DCA  1283               	bcf	3,5	;RP0=0, select bank0
  3273  0DCB  1303               	bcf	3,6	;RP1=0, select bank0
  3274  0DCC  0828               	movf	?___flmul+3,w
  3275  0DCD  00E0               	movwf	___fladd@a+3
  3276  0DCE  0827               	movf	?___flmul+2,w
  3277  0DCF  00DF               	movwf	___fladd@a+2
  3278  0DD0  0826               	movf	?___flmul+1,w
  3279  0DD1  00DE               	movwf	___fladd@a+1
  3280  0DD2  0825               	movf	?___flmul,w
  3281  0DD3  00DD               	movwf	___fladd@a
  3282  0DD4  120A  118A  21EB  120A  158A  	fcall	___fladd
  3283  0DD9  1283               	bcf	3,5	;RP0=0, select bank0
  3284  0DDA  1303               	bcf	3,6	;RP1=0, select bank0
  3285  0DDB  085C               	movf	?___fladd+3,w
  3286  0DDC  1683               	bsf	3,5	;RP0=1, select bank1
  3287  0DDD  1303               	bcf	3,6	;RP1=0, select bank1
  3288  0DDE  00B3               	movwf	(?_log+3)^(0+128)
  3289  0DDF  1283               	bcf	3,5	;RP0=0, select bank0
  3290  0DE0  1303               	bcf	3,6	;RP1=0, select bank0
  3291  0DE1  085B               	movf	?___fladd+2,w
  3292  0DE2  1683               	bsf	3,5	;RP0=1, select bank1
  3293  0DE3  1303               	bcf	3,6	;RP1=0, select bank1
  3294  0DE4  00B2               	movwf	(?_log+2)^(0+128)
  3295  0DE5  1283               	bcf	3,5	;RP0=0, select bank0
  3296  0DE6  1303               	bcf	3,6	;RP1=0, select bank0
  3297  0DE7  085A               	movf	?___fladd+1,w
  3298  0DE8  1683               	bsf	3,5	;RP0=1, select bank1
  3299  0DE9  1303               	bcf	3,6	;RP1=0, select bank1
  3300  0DEA  00B1               	movwf	(?_log+1)^(0+128)
  3301  0DEB  1283               	bcf	3,5	;RP0=0, select bank0
  3302  0DEC  1303               	bcf	3,6	;RP1=0, select bank0
  3303  0DED  0859               	movf	?___fladd,w
  3304  0DEE  1683               	bsf	3,5	;RP0=1, select bank1
  3305  0DEF  1303               	bcf	3,6	;RP1=0, select bank1
  3306  0DF0  00B0               	movwf	?_log^(0+128)
  3307  0DF1                     l872:
  3308  0DF1  0008               	return
  3309  0DF2                     __end_of_log:
  3310                           
  3311                           	psect	text8
  3312  0897                     __ptext8:	
  3313 ;; *************** function _frexp *****************
  3314 ;; Defined at:
  3315 ;;		line 254 in file "C:\Program Files\Microchip\xc8\v2.36\pic\sources\c90\common\frexp.c"
  3316 ;; Parameters:    Size  Location     Type
  3317 ;;  value           4    0[BANK0 ] int 
  3318 ;;  eptr            1    4[BANK0 ] PTR int 
  3319 ;;		 -> log@exponent(2), 
  3320 ;; Auto vars:     Size  Location     Type
  3321 ;;		None
  3322 ;; Return value:  Size  Location     Type
  3323 ;;                  4    0[BANK0 ] PTR int 
  3324 ;; Registers used:
  3325 ;;		wreg, fsr0l, fsr0h, status,2, status,0, btemp+1, pclath, cstack
  3326 ;; Tracked objects:
  3327 ;;		On entry : 0/0
  3328 ;;		On exit  : 0/0
  3329 ;;		Unchanged: 0/0
  3330 ;; Data sizes:     COMMON   BANK0   BANK1   BANK3   BANK2
  3331 ;;      Params:         0       5       0       0       0
  3332 ;;      Locals:         0       0       0       0       0
  3333 ;;      Temps:          2       0       0       0       0
  3334 ;;      Totals:         2       5       0       0       0
  3335 ;;Total ram usage:        7 bytes
  3336 ;; Hardware stack levels used: 1
  3337 ;; Hardware stack levels required when called: 1
  3338 ;; This function calls:
  3339 ;;		___fleq
  3340 ;; This function is called by:
  3341 ;;		_log
  3342 ;; This function uses a non-reentrant model
  3343 ;;
  3344                           
  3345  0897                     _frexp:	
  3346                           ;psect for function _frexp
  3347                           
  3348  0897                     l2628:	
  3349                           ;incstack = 0
  3350                           ; Regs used in _frexp: [wreg-fsr0h+status,2+status,0+btemp+1+pclath+cstack]
  3351                           
  3352  0897  1283               	bcf	3,5	;RP0=0, select bank0
  3353  0898  1303               	bcf	3,6	;RP1=0, select bank0
  3354  0899  0823               	movf	frexp@value+3,w
  3355  089A  00F3               	movwf	___fleq@ff1+3
  3356  089B  0822               	movf	frexp@value+2,w
  3357  089C  00F2               	movwf	___fleq@ff1+2
  3358  089D  0821               	movf	frexp@value+1,w
  3359  089E  00F1               	movwf	___fleq@ff1+1
  3360  089F  0820               	movf	frexp@value,w
  3361  08A0  00F0               	movwf	___fleq@ff1
  3362  08A1  3000               	movlw	0
  3363  08A2  00F7               	movwf	___fleq@ff2+3
  3364  08A3  3000               	movlw	0
  3365  08A4  00F6               	movwf	___fleq@ff2+2
  3366  08A5  3000               	movlw	0
  3367  08A6  00F5               	movwf	___fleq@ff2+1
  3368  08A7  3000               	movlw	0
  3369  08A8  00F4               	movwf	___fleq@ff2
  3370  08A9  160A  118A  27B2  120A  158A  	fcall	___fleq
  3371  08AE  1C03               	btfss	3,0
  3372  08AF  28B1               	goto	u3371
  3373  08B0  28B2               	goto	u3370
  3374  08B1                     u3371:
  3375  08B1  28C3               	goto	l2636
  3376  08B2                     u3370:
  3377  08B2                     l2630:
  3378  08B2  1283               	bcf	3,5	;RP0=0, select bank0
  3379  08B3  1303               	bcf	3,6	;RP1=0, select bank0
  3380  08B4  0824               	movf	frexp@eptr,w
  3381  08B5  0084               	movwf	4
  3382  08B6  1383               	bcf	3,7	;select IRP bank0
  3383  08B7  0180               	clrf	0
  3384  08B8  0A84               	incf	4,f
  3385  08B9  0180               	clrf	0
  3386  08BA                     l2632:
  3387  08BA  3000               	movlw	0
  3388  08BB  00A3               	movwf	?_frexp+3
  3389  08BC  3000               	movlw	0
  3390  08BD  00A2               	movwf	?_frexp+2
  3391  08BE  3000               	movlw	0
  3392  08BF  00A1               	movwf	?_frexp+1
  3393  08C0  3000               	movlw	0
  3394  08C1  00A0               	movwf	?_frexp
  3395  08C2  28F2               	goto	l890
  3396  08C3                     l2636:
  3397  08C3  1283               	bcf	3,5	;RP0=0, select bank0
  3398  08C4  1303               	bcf	3,6	;RP1=0, select bank0
  3399  08C5  0823               	movf	frexp@value+3,w
  3400  08C6  397F               	andlw	127
  3401  08C7  00FC               	movwf	??_frexp
  3402  08C8  01FD               	clrf	??_frexp+1
  3403  08C9  1003               	clrc
  3404  08CA  0DFC               	rlf	??_frexp,f
  3405  08CB  0DFD               	rlf	??_frexp+1,f
  3406  08CC  0824               	movf	frexp@eptr,w
  3407  08CD  0084               	movwf	4
  3408  08CE  087C               	movf	??_frexp,w
  3409  08CF  1383               	bcf	3,7	;select IRP bank0
  3410  08D0  0080               	movwf	0
  3411  08D1  0A84               	incf	4,f
  3412  08D2  087D               	movf	??_frexp+1,w
  3413  08D3  0080               	movwf	0
  3414  08D4  0D22               	rlf	frexp@value+2,w
  3415  08D5  0D22               	rlf	frexp@value+2,w
  3416  08D6  3901               	andlw	1
  3417  08D7  00FC               	movwf	??_frexp
  3418  08D8  01FD               	clrf	??_frexp+1
  3419  08D9  0824               	movf	frexp@eptr,w
  3420  08DA  0084               	movwf	4
  3421  08DB  087C               	movf	??_frexp,w
  3422  08DC  0480               	iorwf	0,f
  3423  08DD  0A84               	incf	4,f
  3424  08DE  087D               	movf	??_frexp+1,w
  3425  08DF  0480               	iorwf	0,f
  3426  08E0                     l2638:
  3427  08E0  0824               	movf	frexp@eptr,w
  3428  08E1  0084               	movwf	4
  3429  08E2  3082               	movlw	130
  3430  08E3  0780               	addwf	0,f
  3431  08E4  0F84               	incfsz	4,f
  3432  08E5  0800               	movf	0,w
  3433  08E6  1803               	skipnc
  3434  08E7  0A00               	incf	0,w
  3435  08E8  00FF               	movwf	btemp+1
  3436  08E9  30FF               	movlw	255
  3437  08EA  077F               	addwf	btemp+1,w
  3438  08EB  0080               	movwf	0
  3439  08EC  0384               	decf	4,f
  3440  08ED                     l2640:
  3441  08ED  0823               	movf	frexp@value+3,w
  3442  08EE  3980               	andlw	-128
  3443  08EF  383F               	iorlw	63
  3444  08F0  00A3               	movwf	frexp@value+3
  3445  08F1                     l2642:
  3446  08F1  13A2               	bcf	frexp@value+2,7
  3447  08F2                     l2644:
  3448  08F2                     l890:
  3449  08F2  0008               	return
  3450  08F3                     __end_of_frexp:
  3451                           
  3452                           	psect	text9
  3453  17B2                     __ptext9:	
  3454 ;; *************** function ___fleq *****************
  3455 ;; Defined at:
  3456 ;;		line 4 in file "C:\Program Files\Microchip\xc8\v2.36\pic\sources\c90\common\fleq.c"
  3457 ;; Parameters:    Size  Location     Type
  3458 ;;  ff1             4    0[COMMON] PTR int 
  3459 ;;  ff2             4    4[COMMON] PTR int 
  3460 ;; Auto vars:     Size  Location     Type
  3461 ;;		None
  3462 ;; Return value:  Size  Location     Type
  3463 ;;		None               void
  3464 ;; Registers used:
  3465 ;;		wreg, status,2, status,0
  3466 ;; Tracked objects:
  3467 ;;		On entry : 0/0
  3468 ;;		On exit  : 0/0
  3469 ;;		Unchanged: 0/0
  3470 ;; Data sizes:     COMMON   BANK0   BANK1   BANK3   BANK2
  3471 ;;      Params:         8       0       0       0       0
  3472 ;;      Locals:         0       0       0       0       0
  3473 ;;      Temps:          4       0       0       0       0
  3474 ;;      Totals:        12       0       0       0       0
  3475 ;;Total ram usage:       12 bytes
  3476 ;; Hardware stack levels used: 1
  3477 ;; This function calls:
  3478 ;;		Nothing
  3479 ;; This function is called by:
  3480 ;;		_log
  3481 ;;		_frexp
  3482 ;; This function uses a non-reentrant model
  3483 ;;
  3484                           
  3485  17B2                     ___fleq:	
  3486                           ;psect for function ___fleq
  3487                           
  3488  17B2                     l2142:	
  3489                           ;incstack = 0
  3490                           ; Regs used in ___fleq: [wreg+status,2+status,0]
  3491                           
  3492  17B2  3000               	movlw	0
  3493  17B3  0570               	andwf	___fleq@ff1,w
  3494  17B4  00F8               	movwf	??___fleq
  3495  17B5  3000               	movlw	0
  3496  17B6  0571               	andwf	___fleq@ff1+1,w
  3497  17B7  00F9               	movwf	??___fleq+1
  3498  17B8  3080               	movlw	128
  3499  17B9  0572               	andwf	___fleq@ff1+2,w
  3500  17BA  00FA               	movwf	??___fleq+2
  3501  17BB  307F               	movlw	127
  3502  17BC  0573               	andwf	___fleq@ff1+3,w
  3503  17BD  00FB               	movwf	??___fleq+3
  3504  17BE  087B               	movf	??___fleq+3,w
  3505  17BF  047A               	iorwf	??___fleq+2,w
  3506  17C0  0479               	iorwf	??___fleq+1,w
  3507  17C1  0478               	iorwf	??___fleq,w
  3508  17C2  1D03               	skipz
  3509  17C3  2FC5               	goto	u2151
  3510  17C4  2FC6               	goto	u2150
  3511  17C5                     u2151:
  3512  17C5  2FCE               	goto	l581
  3513  17C6                     u2150:
  3514  17C6                     l2144:
  3515  17C6  3000               	movlw	0
  3516  17C7  00F3               	movwf	___fleq@ff1+3
  3517  17C8  3000               	movlw	0
  3518  17C9  00F2               	movwf	___fleq@ff1+2
  3519  17CA  3000               	movlw	0
  3520  17CB  00F1               	movwf	___fleq@ff1+1
  3521  17CC  3000               	movlw	0
  3522  17CD  00F0               	movwf	___fleq@ff1
  3523  17CE                     l581:
  3524  17CE  3000               	movlw	0
  3525  17CF  0574               	andwf	___fleq@ff2,w
  3526  17D0  00F8               	movwf	??___fleq
  3527  17D1  3000               	movlw	0
  3528  17D2  0575               	andwf	___fleq@ff2+1,w
  3529  17D3  00F9               	movwf	??___fleq+1
  3530  17D4  3080               	movlw	128
  3531  17D5  0576               	andwf	___fleq@ff2+2,w
  3532  17D6  00FA               	movwf	??___fleq+2
  3533  17D7  307F               	movlw	127
  3534  17D8  0577               	andwf	___fleq@ff2+3,w
  3535  17D9  00FB               	movwf	??___fleq+3
  3536  17DA  087B               	movf	??___fleq+3,w
  3537  17DB  047A               	iorwf	??___fleq+2,w
  3538  17DC  0479               	iorwf	??___fleq+1,w
  3539  17DD  0478               	iorwf	??___fleq,w
  3540  17DE  1D03               	skipz
  3541  17DF  2FE1               	goto	u2161
  3542  17E0  2FE2               	goto	u2160
  3543  17E1                     u2161:
  3544  17E1  2FEA               	goto	l582
  3545  17E2                     u2160:
  3546  17E2                     l2146:
  3547  17E2  3000               	movlw	0
  3548  17E3  00F7               	movwf	___fleq@ff2+3
  3549  17E4  3000               	movlw	0
  3550  17E5  00F6               	movwf	___fleq@ff2+2
  3551  17E6  3000               	movlw	0
  3552  17E7  00F5               	movwf	___fleq@ff2+1
  3553  17E8  3000               	movlw	0
  3554  17E9  00F4               	movwf	___fleq@ff2
  3555  17EA                     l582:
  3556  17EA  0877               	movf	___fleq@ff2+3,w
  3557  17EB  0673               	xorwf	___fleq@ff1+3,w
  3558  17EC  1D03               	skipz
  3559  17ED  2FF8               	goto	u2175
  3560  17EE  0876               	movf	___fleq@ff2+2,w
  3561  17EF  0672               	xorwf	___fleq@ff1+2,w
  3562  17F0  1D03               	skipz
  3563  17F1  2FF8               	goto	u2175
  3564  17F2  0875               	movf	___fleq@ff2+1,w
  3565  17F3  0671               	xorwf	___fleq@ff1+1,w
  3566  17F4  1D03               	skipz
  3567  17F5  2FF8               	goto	u2175
  3568  17F6  0874               	movf	___fleq@ff2,w
  3569  17F7  0670               	xorwf	___fleq@ff1,w
  3570  17F8                     u2175:
  3571  17F8  1903               	skipnz
  3572  17F9  2FFB               	goto	u2171
  3573  17FA  2FFC               	goto	u2170
  3574  17FB                     u2171:
  3575  17FB  2FFE               	goto	l2150
  3576  17FC                     u2170:
  3577  17FC                     l2148:
  3578  17FC  1003               	clrc
  3579  17FD  2FFF               	goto	l583
  3580  17FE                     l2150:
  3581  17FE  1403               	setc
  3582  17FF                     l583:
  3583  17FF  0008               	return
  3584  1800                     __end_of___fleq:
  3585                           
  3586                           	psect	text10
  3587  0AC9                     __ptext10:	
  3588 ;; *************** function _eval_poly *****************
  3589 ;; Defined at:
  3590 ;;		line 4 in file "C:\Program Files\Microchip\xc8\v2.36\pic\sources\c90\common\evalpoly.c"
  3591 ;; Parameters:    Size  Location     Type
  3592 ;;  x               4    0[BANK1 ] PTR int 
  3593 ;;  d               1    4[BANK1 ] PTR const 
  3594 ;;		 -> log@coeff(36), 
  3595 ;;  n               2    5[BANK1 ] int 
  3596 ;; Auto vars:     Size  Location     Type
  3597 ;;  res             4   12[BANK1 ] int 
  3598 ;; Return value:  Size  Location     Type
  3599 ;;                  4    0[BANK1 ] int 
  3600 ;; Registers used:
  3601 ;;		wreg, fsr0l, fsr0h, status,2, status,0, btemp+1, pclath, cstack
  3602 ;; Tracked objects:
  3603 ;;		On entry : 0/0
  3604 ;;		On exit  : 0/0
  3605 ;;		Unchanged: 0/0
  3606 ;; Data sizes:     COMMON   BANK0   BANK1   BANK3   BANK2
  3607 ;;      Params:         0       0       7       0       0
  3608 ;;      Locals:         0       0       4       0       0
  3609 ;;      Temps:          0       0       5       0       0
  3610 ;;      Totals:         0       0      16       0       0
  3611 ;;Total ram usage:       16 bytes
  3612 ;; Hardware stack levels used: 1
  3613 ;; Hardware stack levels required when called: 2
  3614 ;; This function calls:
  3615 ;;		___fladd
  3616 ;;		___flmul
  3617 ;; This function is called by:
  3618 ;;		_log
  3619 ;; This function uses a non-reentrant model
  3620 ;;
  3621                           
  3622  0AC9                     _eval_poly:	
  3623                           ;psect for function _eval_poly
  3624                           
  3625  0AC9                     l2648:	
  3626                           ;incstack = 0
  3627                           ; Regs used in _eval_poly: [wreg-fsr0h+status,2+status,0+btemp+1+pclath+cstack]
  3628                           
  3629  0AC9  1683               	bsf	3,5	;RP0=1, select bank1
  3630  0ACA  1303               	bcf	3,6	;RP1=0, select bank1
  3631  0ACB  0825               	movf	eval_poly@n^(0+128),w
  3632  0ACC  00A7               	movwf	??_eval_poly^(0+128)
  3633  0ACD  3001               	movlw	1
  3634  0ACE                     u3385:
  3635  0ACE  1003               	clrc
  3636  0ACF  0DA7               	rlf	??_eval_poly^(0+128),f
  3637  0AD0  3EFF               	addlw	-1
  3638  0AD1  1D03               	skipz
  3639  0AD2  2ACE               	goto	u3385
  3640  0AD3  1003               	clrc
  3641  0AD4  0D27               	rlf	??_eval_poly^(0+128),w
  3642  0AD5  0724               	addwf	eval_poly@d^(0+128),w
  3643  0AD6  0084               	movwf	4
  3644  0AD7  120A  158A  200A  120A  158A  	fcall	stringdir
  3645  0ADC  00A8               	movwf	(??_eval_poly+1)^(0+128)
  3646  0ADD  120A  158A  200A  120A  158A  	fcall	stringdir
  3647  0AE2  00A9               	movwf	((??_eval_poly+1)^(0+128)+1)
  3648  0AE3  120A  158A  200A  120A  158A  	fcall	stringdir
  3649  0AE8  00AA               	movwf	((??_eval_poly+1)^(0+128)+2)
  3650  0AE9  120A  158A  200A  120A  158A  	fcall	stringdir
  3651  0AEE  00AB               	movwf	((??_eval_poly+1)^(0+128)+3)
  3652  0AEF  082B               	movf	(??_eval_poly+4)^(0+128),w
  3653  0AF0  00AF               	movwf	(eval_poly@res+3)^(0+128)
  3654  0AF1  082A               	movf	(??_eval_poly+3)^(0+128),w
  3655  0AF2  00AE               	movwf	(eval_poly@res+2)^(0+128)
  3656  0AF3  0829               	movf	(??_eval_poly+2)^(0+128),w
  3657  0AF4  00AD               	movwf	(eval_poly@res+1)^(0+128)
  3658  0AF5  0828               	movf	(??_eval_poly+1)^(0+128),w
  3659  0AF6  00AC               	movwf	eval_poly@res^(0+128)
  3660  0AF7  2B94               	goto	l2652
  3661  0AF8                     l2650:
  3662  0AF8  30FF               	movlw	255
  3663  0AF9  07A5               	addwf	eval_poly@n^(0+128),f
  3664  0AFA  1803               	skipnc
  3665  0AFB  0AA6               	incf	(eval_poly@n+1)^(0+128),f
  3666  0AFC  30FF               	movlw	255
  3667  0AFD  07A6               	addwf	(eval_poly@n+1)^(0+128),f
  3668  0AFE  0825               	movf	eval_poly@n^(0+128),w
  3669  0AFF  00A7               	movwf	??_eval_poly^(0+128)
  3670  0B00  3001               	movlw	1
  3671  0B01                     u3395:
  3672  0B01  1003               	clrc
  3673  0B02  0DA7               	rlf	??_eval_poly^(0+128),f
  3674  0B03  3EFF               	addlw	-1
  3675  0B04  1D03               	skipz
  3676  0B05  2B01               	goto	u3395
  3677  0B06  1003               	clrc
  3678  0B07  0D27               	rlf	??_eval_poly^(0+128),w
  3679  0B08  0724               	addwf	eval_poly@d^(0+128),w
  3680  0B09  0084               	movwf	4
  3681  0B0A  120A  158A  200A  120A  158A  	fcall	stringdir
  3682  0B0F  00A8               	movwf	(??_eval_poly+1)^(0+128)
  3683  0B10  120A  158A  200A  120A  158A  	fcall	stringdir
  3684  0B15  00A9               	movwf	((??_eval_poly+1)^(0+128)+1)
  3685  0B16  120A  158A  200A  120A  158A  	fcall	stringdir
  3686  0B1B  00AA               	movwf	((??_eval_poly+1)^(0+128)+2)
  3687  0B1C  120A  158A  200A  120A  158A  	fcall	stringdir
  3688  0B21  00AB               	movwf	((??_eval_poly+1)^(0+128)+3)
  3689  0B22  082B               	movf	(??_eval_poly+4)^(0+128),w
  3690  0B23  1283               	bcf	3,5	;RP0=0, select bank0
  3691  0B24  1303               	bcf	3,6	;RP1=0, select bank0
  3692  0B25  00DC               	movwf	___fladd@b+3
  3693  0B26  1683               	bsf	3,5	;RP0=1, select bank1
  3694  0B27  1303               	bcf	3,6	;RP1=0, select bank1
  3695  0B28  082A               	movf	(??_eval_poly+3)^(0+128),w
  3696  0B29  1283               	bcf	3,5	;RP0=0, select bank0
  3697  0B2A  1303               	bcf	3,6	;RP1=0, select bank0
  3698  0B2B  00DB               	movwf	___fladd@b+2
  3699  0B2C  1683               	bsf	3,5	;RP0=1, select bank1
  3700  0B2D  1303               	bcf	3,6	;RP1=0, select bank1
  3701  0B2E  0829               	movf	(??_eval_poly+2)^(0+128),w
  3702  0B2F  1283               	bcf	3,5	;RP0=0, select bank0
  3703  0B30  1303               	bcf	3,6	;RP1=0, select bank0
  3704  0B31  00DA               	movwf	___fladd@b+1
  3705  0B32  1683               	bsf	3,5	;RP0=1, select bank1
  3706  0B33  1303               	bcf	3,6	;RP1=0, select bank1
  3707  0B34  0828               	movf	(??_eval_poly+1)^(0+128),w
  3708  0B35  1283               	bcf	3,5	;RP0=0, select bank0
  3709  0B36  1303               	bcf	3,6	;RP1=0, select bank0
  3710  0B37  00D9               	movwf	___fladd@b
  3711  0B38  1683               	bsf	3,5	;RP0=1, select bank1
  3712  0B39  1303               	bcf	3,6	;RP1=0, select bank1
  3713  0B3A  082F               	movf	(eval_poly@res+3)^(0+128),w
  3714  0B3B  1283               	bcf	3,5	;RP0=0, select bank0
  3715  0B3C  1303               	bcf	3,6	;RP1=0, select bank0
  3716  0B3D  00A8               	movwf	___flmul@b+3
  3717  0B3E  1683               	bsf	3,5	;RP0=1, select bank1
  3718  0B3F  1303               	bcf	3,6	;RP1=0, select bank1
  3719  0B40  082E               	movf	(eval_poly@res+2)^(0+128),w
  3720  0B41  1283               	bcf	3,5	;RP0=0, select bank0
  3721  0B42  1303               	bcf	3,6	;RP1=0, select bank0
  3722  0B43  00A7               	movwf	___flmul@b+2
  3723  0B44  1683               	bsf	3,5	;RP0=1, select bank1
  3724  0B45  1303               	bcf	3,6	;RP1=0, select bank1
  3725  0B46  082D               	movf	(eval_poly@res+1)^(0+128),w
  3726  0B47  1283               	bcf	3,5	;RP0=0, select bank0
  3727  0B48  1303               	bcf	3,6	;RP1=0, select bank0
  3728  0B49  00A6               	movwf	___flmul@b+1
  3729  0B4A  1683               	bsf	3,5	;RP0=1, select bank1
  3730  0B4B  1303               	bcf	3,6	;RP1=0, select bank1
  3731  0B4C  082C               	movf	eval_poly@res^(0+128),w
  3732  0B4D  1283               	bcf	3,5	;RP0=0, select bank0
  3733  0B4E  1303               	bcf	3,6	;RP1=0, select bank0
  3734  0B4F  00A5               	movwf	___flmul@b
  3735  0B50  1683               	bsf	3,5	;RP0=1, select bank1
  3736  0B51  1303               	bcf	3,6	;RP1=0, select bank1
  3737  0B52  0823               	movf	(eval_poly@x+3)^(0+128),w
  3738  0B53  1283               	bcf	3,5	;RP0=0, select bank0
  3739  0B54  1303               	bcf	3,6	;RP1=0, select bank0
  3740  0B55  00AC               	movwf	___flmul@a+3
  3741  0B56  1683               	bsf	3,5	;RP0=1, select bank1
  3742  0B57  1303               	bcf	3,6	;RP1=0, select bank1
  3743  0B58  0822               	movf	(eval_poly@x+2)^(0+128),w
  3744  0B59  1283               	bcf	3,5	;RP0=0, select bank0
  3745  0B5A  1303               	bcf	3,6	;RP1=0, select bank0
  3746  0B5B  00AB               	movwf	___flmul@a+2
  3747  0B5C  1683               	bsf	3,5	;RP0=1, select bank1
  3748  0B5D  1303               	bcf	3,6	;RP1=0, select bank1
  3749  0B5E  0821               	movf	(eval_poly@x+1)^(0+128),w
  3750  0B5F  1283               	bcf	3,5	;RP0=0, select bank0
  3751  0B60  1303               	bcf	3,6	;RP1=0, select bank0
  3752  0B61  00AA               	movwf	___flmul@a+1
  3753  0B62  1683               	bsf	3,5	;RP0=1, select bank1
  3754  0B63  1303               	bcf	3,6	;RP1=0, select bank1
  3755  0B64  0820               	movf	eval_poly@x^(0+128),w
  3756  0B65  1283               	bcf	3,5	;RP0=0, select bank0
  3757  0B66  1303               	bcf	3,6	;RP1=0, select bank0
  3758  0B67  00A9               	movwf	___flmul@a
  3759  0B68  120A  118A  2473  120A  158A  	fcall	___flmul
  3760  0B6D  1283               	bcf	3,5	;RP0=0, select bank0
  3761  0B6E  1303               	bcf	3,6	;RP1=0, select bank0
  3762  0B6F  0828               	movf	?___flmul+3,w
  3763  0B70  00E0               	movwf	___fladd@a+3
  3764  0B71  0827               	movf	?___flmul+2,w
  3765  0B72  00DF               	movwf	___fladd@a+2
  3766  0B73  0826               	movf	?___flmul+1,w
  3767  0B74  00DE               	movwf	___fladd@a+1
  3768  0B75  0825               	movf	?___flmul,w
  3769  0B76  00DD               	movwf	___fladd@a
  3770  0B77  120A  118A  21EB  120A  158A  	fcall	___fladd
  3771  0B7C  1283               	bcf	3,5	;RP0=0, select bank0
  3772  0B7D  1303               	bcf	3,6	;RP1=0, select bank0
  3773  0B7E  085C               	movf	?___fladd+3,w
  3774  0B7F  1683               	bsf	3,5	;RP0=1, select bank1
  3775  0B80  1303               	bcf	3,6	;RP1=0, select bank1
  3776  0B81  00AF               	movwf	(eval_poly@res+3)^(0+128)
  3777  0B82  1283               	bcf	3,5	;RP0=0, select bank0
  3778  0B83  1303               	bcf	3,6	;RP1=0, select bank0
  3779  0B84  085B               	movf	?___fladd+2,w
  3780  0B85  1683               	bsf	3,5	;RP0=1, select bank1
  3781  0B86  1303               	bcf	3,6	;RP1=0, select bank1
  3782  0B87  00AE               	movwf	(eval_poly@res+2)^(0+128)
  3783  0B88  1283               	bcf	3,5	;RP0=0, select bank0
  3784  0B89  1303               	bcf	3,6	;RP1=0, select bank0
  3785  0B8A  085A               	movf	?___fladd+1,w
  3786  0B8B  1683               	bsf	3,5	;RP0=1, select bank1
  3787  0B8C  1303               	bcf	3,6	;RP1=0, select bank1
  3788  0B8D  00AD               	movwf	(eval_poly@res+1)^(0+128)
  3789  0B8E  1283               	bcf	3,5	;RP0=0, select bank0
  3790  0B8F  1303               	bcf	3,6	;RP1=0, select bank0
  3791  0B90  0859               	movf	?___fladd,w
  3792  0B91  1683               	bsf	3,5	;RP0=1, select bank1
  3793  0B92  1303               	bcf	3,6	;RP1=0, select bank1
  3794  0B93  00AC               	movwf	eval_poly@res^(0+128)
  3795  0B94                     l2652:
  3796  0B94  0825               	movf	eval_poly@n^(0+128),w
  3797  0B95  0426               	iorwf	(eval_poly@n+1)^(0+128),w
  3798  0B96  1D03               	btfss	3,2
  3799  0B97  2B99               	goto	u3401
  3800  0B98  2B9A               	goto	u3400
  3801  0B99                     u3401:
  3802  0B99  2AF8               	goto	l2650
  3803  0B9A                     u3400:
  3804  0B9A                     l2654:
  3805  0B9A  082F               	movf	(eval_poly@res+3)^(0+128),w
  3806  0B9B  00A3               	movwf	(?_eval_poly+3)^(0+128)
  3807  0B9C  082E               	movf	(eval_poly@res+2)^(0+128),w
  3808  0B9D  00A2               	movwf	(?_eval_poly+2)^(0+128)
  3809  0B9E  082D               	movf	(eval_poly@res+1)^(0+128),w
  3810  0B9F  00A1               	movwf	(?_eval_poly+1)^(0+128)
  3811  0BA0  082C               	movf	eval_poly@res^(0+128),w
  3812  0BA1  00A0               	movwf	?_eval_poly^(0+128)
  3813  0BA2                     l884:
  3814  0BA2  0008               	return
  3815  0BA3                     __end_of_eval_poly:
  3816                           
  3817                           	psect	text11
  3818  0473                     __ptext11:	
  3819 ;; *************** function ___flmul *****************
  3820 ;; Defined at:
  3821 ;;		line 8 in file "C:\Program Files\Microchip\xc8\v2.36\pic\sources\c90\common\sprcmul.c"
  3822 ;; Parameters:    Size  Location     Type
  3823 ;;  b               4    5[BANK0 ] int 
  3824 ;;  a               4    9[BANK0 ] int 
  3825 ;; Auto vars:     Size  Location     Type
  3826 ;;  prod            4   25[BANK0 ] struct .
  3827 ;;  grs             4   19[BANK0 ] unsigned long 
  3828 ;;  temp            2   29[BANK0 ] struct .
  3829 ;;  bexp            1   24[BANK0 ] unsigned char 
  3830 ;;  aexp            1   23[BANK0 ] unsigned char 
  3831 ;;  sign            1   18[BANK0 ] unsigned char 
  3832 ;; Return value:  Size  Location     Type
  3833 ;;                  4    5[BANK0 ] unsigned char 
  3834 ;; Registers used:
  3835 ;;		wreg, status,2, status,0, btemp+1, pclath, cstack
  3836 ;; Tracked objects:
  3837 ;;		On entry : 0/0
  3838 ;;		On exit  : 0/0
  3839 ;;		Unchanged: 0/0
  3840 ;; Data sizes:     COMMON   BANK0   BANK1   BANK3   BANK2
  3841 ;;      Params:         0       8       0       0       0
  3842 ;;      Locals:         0      13       0       0       0
  3843 ;;      Temps:          0       5       0       0       0
  3844 ;;      Totals:         0      26       0       0       0
  3845 ;;Total ram usage:       26 bytes
  3846 ;; Hardware stack levels used: 1
  3847 ;; Hardware stack levels required when called: 1
  3848 ;; This function calls:
  3849 ;;		__Umul8_16
  3850 ;; This function is called by:
  3851 ;;		_log
  3852 ;;		_eval_poly
  3853 ;; This function uses a non-reentrant model
  3854 ;;
  3855                           
  3856  0473                     ___flmul:	
  3857                           ;psect for function ___flmul
  3858                           
  3859  0473                     l2348:	
  3860                           ;incstack = 0
  3861                           ; Regs used in ___flmul: [wreg+status,2+status,0+btemp+1+pclath+cstack]
  3862                           
  3863  0473  1283               	bcf	3,5	;RP0=0, select bank0
  3864  0474  1303               	bcf	3,6	;RP1=0, select bank0
  3865  0475  0828               	movf	___flmul@b+3,w
  3866  0476  3980               	andlw	128
  3867  0477  00AD               	movwf	??___flmul
  3868  0478  082D               	movf	??___flmul,w
  3869  0479  00B2               	movwf	___flmul@sign
  3870  047A                     l2350:
  3871  047A  0828               	movf	___flmul@b+3,w
  3872  047B  00AD               	movwf	??___flmul
  3873  047C  072D               	addwf	??___flmul,w
  3874  047D  00AE               	movwf	??___flmul+1
  3875  047E  082E               	movf	??___flmul+1,w
  3876  047F  00B8               	movwf	___flmul@bexp
  3877  0480                     l2352:
  3878  0480  1FA7               	btfss	___flmul@b+2,7
  3879  0481  2C83               	goto	u2641
  3880  0482  2C84               	goto	u2640
  3881  0483                     u2641:
  3882  0483  2C85               	goto	l2356
  3883  0484                     u2640:
  3884  0484                     l2354:
  3885  0484  1438               	bsf	___flmul@bexp,0
  3886  0485                     l2356:
  3887  0485  0838               	movf	___flmul@bexp,w
  3888  0486  1903               	btfsc	3,2
  3889  0487  2C89               	goto	u2651
  3890  0488  2C8A               	goto	u2650
  3891  0489                     u2651:
  3892  0489  2C99               	goto	l2364
  3893  048A                     u2650:
  3894  048A                     l2358:
  3895  048A  0A38               	incf	___flmul@bexp,w
  3896  048B  1D03               	btfss	3,2
  3897  048C  2C8E               	goto	u2661
  3898  048D  2C8F               	goto	u2660
  3899  048E                     u2661:
  3900  048E  2C97               	goto	l2362
  3901  048F                     u2660:
  3902  048F                     l2360:
  3903  048F  3000               	movlw	0
  3904  0490  00A8               	movwf	___flmul@b+3
  3905  0491  3000               	movlw	0
  3906  0492  00A7               	movwf	___flmul@b+2
  3907  0493  3000               	movlw	0
  3908  0494  00A6               	movwf	___flmul@b+1
  3909  0495  3000               	movlw	0
  3910  0496  00A5               	movwf	___flmul@b
  3911  0497                     l2362:
  3912  0497  17A7               	bsf	___flmul@b+2,7
  3913  0498  2CA1               	goto	l2366
  3914  0499                     l2364:
  3915  0499  3000               	movlw	0
  3916  049A  00A8               	movwf	___flmul@b+3
  3917  049B  3000               	movlw	0
  3918  049C  00A7               	movwf	___flmul@b+2
  3919  049D  3000               	movlw	0
  3920  049E  00A6               	movwf	___flmul@b+1
  3921  049F  3000               	movlw	0
  3922  04A0  00A5               	movwf	___flmul@b
  3923  04A1                     l2366:
  3924  04A1  082C               	movf	___flmul@a+3,w
  3925  04A2  3980               	andlw	128
  3926  04A3  00AD               	movwf	??___flmul
  3927  04A4  082D               	movf	??___flmul,w
  3928  04A5  06B2               	xorwf	___flmul@sign,f
  3929  04A6                     l2368:
  3930  04A6  082C               	movf	___flmul@a+3,w
  3931  04A7  00AD               	movwf	??___flmul
  3932  04A8  072D               	addwf	??___flmul,w
  3933  04A9  00AE               	movwf	??___flmul+1
  3934  04AA  082E               	movf	??___flmul+1,w
  3935  04AB  00B7               	movwf	___flmul@aexp
  3936  04AC                     l2370:
  3937  04AC  1FAB               	btfss	___flmul@a+2,7
  3938  04AD  2CAF               	goto	u2671
  3939  04AE  2CB0               	goto	u2670
  3940  04AF                     u2671:
  3941  04AF  2CB1               	goto	l2374
  3942  04B0                     u2670:
  3943  04B0                     l2372:
  3944  04B0  1437               	bsf	___flmul@aexp,0
  3945  04B1                     l2374:
  3946  04B1  0837               	movf	___flmul@aexp,w
  3947  04B2  1903               	btfsc	3,2
  3948  04B3  2CB5               	goto	u2681
  3949  04B4  2CB6               	goto	u2680
  3950  04B5                     u2681:
  3951  04B5  2CC5               	goto	l2382
  3952  04B6                     u2680:
  3953  04B6                     l2376:
  3954  04B6  0A37               	incf	___flmul@aexp,w
  3955  04B7  1D03               	btfss	3,2
  3956  04B8  2CBA               	goto	u2691
  3957  04B9  2CBB               	goto	u2690
  3958  04BA                     u2691:
  3959  04BA  2CC3               	goto	l2380
  3960  04BB                     u2690:
  3961  04BB                     l2378:
  3962  04BB  3000               	movlw	0
  3963  04BC  00AC               	movwf	___flmul@a+3
  3964  04BD  3000               	movlw	0
  3965  04BE  00AB               	movwf	___flmul@a+2
  3966  04BF  3000               	movlw	0
  3967  04C0  00AA               	movwf	___flmul@a+1
  3968  04C1  3000               	movlw	0
  3969  04C2  00A9               	movwf	___flmul@a
  3970  04C3                     l2380:
  3971  04C3  17AB               	bsf	___flmul@a+2,7
  3972  04C4  2CCD               	goto	l2384
  3973  04C5                     l2382:
  3974  04C5  3000               	movlw	0
  3975  04C6  00AC               	movwf	___flmul@a+3
  3976  04C7  3000               	movlw	0
  3977  04C8  00AB               	movwf	___flmul@a+2
  3978  04C9  3000               	movlw	0
  3979  04CA  00AA               	movwf	___flmul@a+1
  3980  04CB  3000               	movlw	0
  3981  04CC  00A9               	movwf	___flmul@a
  3982  04CD                     l2384:
  3983  04CD  0837               	movf	___flmul@aexp,w
  3984  04CE  1903               	btfsc	3,2
  3985  04CF  2CD1               	goto	u2701
  3986  04D0  2CD2               	goto	u2700
  3987  04D1                     u2701:
  3988  04D1  2CD7               	goto	l2388
  3989  04D2                     u2700:
  3990  04D2                     l2386:
  3991  04D2  0838               	movf	___flmul@bexp,w
  3992  04D3  1D03               	btfss	3,2
  3993  04D4  2CD6               	goto	u2711
  3994  04D5  2CD7               	goto	u2710
  3995  04D6                     u2711:
  3996  04D6  2CE0               	goto	l2392
  3997  04D7                     u2710:
  3998  04D7                     l2388:
  3999  04D7  3000               	movlw	0
  4000  04D8  00A8               	movwf	?___flmul+3
  4001  04D9  3000               	movlw	0
  4002  04DA  00A7               	movwf	?___flmul+2
  4003  04DB  3000               	movlw	0
  4004  04DC  00A6               	movwf	?___flmul+1
  4005  04DD  3000               	movlw	0
  4006  04DE  00A5               	movwf	?___flmul
  4007  04DF  2FD3               	goto	l801
  4008  04E0                     l2392:
  4009  04E0  0825               	movf	___flmul@b,w
  4010  04E1  00AD               	movwf	??___flmul
  4011  04E2  082D               	movf	??___flmul,w
  4012  04E3  00F0               	movwf	__Umul8_16@multiplicand
  4013  04E4  082B               	movf	___flmul@a+2,w
  4014  04E5  160A  118A  2659  120A  118A  	fcall	__Umul8_16
  4015  04EA  0871               	movf	?__Umul8_16+1,w
  4016  04EB  1283               	bcf	3,5	;RP0=0, select bank0
  4017  04EC  1303               	bcf	3,6	;RP1=0, select bank0
  4018  04ED  00BE               	movwf	___flmul@temp+1
  4019  04EE  0870               	movf	?__Umul8_16,w
  4020  04EF  00BD               	movwf	___flmul@temp
  4021  04F0                     l2394:
  4022  04F0  083D               	movf	___flmul@temp,w
  4023  04F1  00AD               	movwf	??___flmul
  4024  04F2  01AE               	clrf	??___flmul+1
  4025  04F3  01AF               	clrf	??___flmul+2
  4026  04F4  01B0               	clrf	??___flmul+3
  4027  04F5  0830               	movf	??___flmul+3,w
  4028  04F6  00B6               	movwf	___flmul@grs+3
  4029  04F7  082F               	movf	??___flmul+2,w
  4030  04F8  00B5               	movwf	___flmul@grs+2
  4031  04F9  082E               	movf	??___flmul+1,w
  4032  04FA  00B4               	movwf	___flmul@grs+1
  4033  04FB  082D               	movf	??___flmul,w
  4034  04FC  00B3               	movwf	___flmul@grs
  4035  04FD                     l2396:
  4036  04FD  083E               	movf	___flmul@temp+1,w
  4037  04FE  00AD               	movwf	??___flmul
  4038  04FF  01AE               	clrf	??___flmul+1
  4039  0500  01AF               	clrf	??___flmul+2
  4040  0501  01B0               	clrf	??___flmul+3
  4041  0502  0830               	movf	??___flmul+3,w
  4042  0503  00BC               	movwf	___flmul@prod+3
  4043  0504  082F               	movf	??___flmul+2,w
  4044  0505  00BB               	movwf	___flmul@prod+2
  4045  0506  082E               	movf	??___flmul+1,w
  4046  0507  00BA               	movwf	___flmul@prod+1
  4047  0508  082D               	movf	??___flmul,w
  4048  0509  00B9               	movwf	___flmul@prod
  4049  050A  0826               	movf	___flmul@b+1,w
  4050  050B  00AD               	movwf	??___flmul
  4051  050C  082D               	movf	??___flmul,w
  4052  050D  00F0               	movwf	__Umul8_16@multiplicand
  4053  050E  082A               	movf	___flmul@a+1,w
  4054  050F  160A  118A  2659  120A  118A  	fcall	__Umul8_16
  4055  0514  0871               	movf	?__Umul8_16+1,w
  4056  0515  1283               	bcf	3,5	;RP0=0, select bank0
  4057  0516  1303               	bcf	3,6	;RP1=0, select bank0
  4058  0517  00BE               	movwf	___flmul@temp+1
  4059  0518  0870               	movf	?__Umul8_16,w
  4060  0519  00BD               	movwf	___flmul@temp
  4061  051A                     l2398:
  4062  051A  083D               	movf	___flmul@temp,w
  4063  051B  00AD               	movwf	??___flmul
  4064  051C  01AE               	clrf	??___flmul+1
  4065  051D  01AF               	clrf	??___flmul+2
  4066  051E  01B0               	clrf	??___flmul+3
  4067  051F  082D               	movf	??___flmul,w
  4068  0520  07B3               	addwf	___flmul@grs,f
  4069  0521  082E               	movf	??___flmul+1,w
  4070  0522  1103               	clrz
  4071  0523  1803               	skipnc
  4072  0524  3E01               	addlw	1
  4073  0525  1903               	skipnz
  4074  0526  2D28               	goto	u2721
  4075  0527  07B4               	addwf	___flmul@grs+1,f
  4076  0528                     u2721:
  4077  0528  082F               	movf	??___flmul+2,w
  4078  0529  1103               	clrz
  4079  052A  1803               	skipnc
  4080  052B  3E01               	addlw	1
  4081  052C  1903               	skipnz
  4082  052D  2D2F               	goto	u2722
  4083  052E  07B5               	addwf	___flmul@grs+2,f
  4084  052F                     u2722:
  4085  052F  0830               	movf	??___flmul+3,w
  4086  0530  1103               	clrz
  4087  0531  1803               	skipnc
  4088  0532  3E01               	addlw	1
  4089  0533  1903               	skipnz
  4090  0534  2D36               	goto	u2723
  4091  0535  07B6               	addwf	___flmul@grs+3,f
  4092  0536                     u2723:
  4093  0536                     l2400:
  4094  0536  083E               	movf	___flmul@temp+1,w
  4095  0537  00AD               	movwf	??___flmul
  4096  0538  01AE               	clrf	??___flmul+1
  4097  0539  01AF               	clrf	??___flmul+2
  4098  053A  01B0               	clrf	??___flmul+3
  4099  053B  082D               	movf	??___flmul,w
  4100  053C  07B9               	addwf	___flmul@prod,f
  4101  053D  082E               	movf	??___flmul+1,w
  4102  053E  1103               	clrz
  4103  053F  1803               	skipnc
  4104  0540  3E01               	addlw	1
  4105  0541  1903               	skipnz
  4106  0542  2D44               	goto	u2731
  4107  0543  07BA               	addwf	___flmul@prod+1,f
  4108  0544                     u2731:
  4109  0544  082F               	movf	??___flmul+2,w
  4110  0545  1103               	clrz
  4111  0546  1803               	skipnc
  4112  0547  3E01               	addlw	1
  4113  0548  1903               	skipnz
  4114  0549  2D4B               	goto	u2732
  4115  054A  07BB               	addwf	___flmul@prod+2,f
  4116  054B                     u2732:
  4117  054B  0830               	movf	??___flmul+3,w
  4118  054C  1103               	clrz
  4119  054D  1803               	skipnc
  4120  054E  3E01               	addlw	1
  4121  054F  1903               	skipnz
  4122  0550  2D52               	goto	u2733
  4123  0551  07BC               	addwf	___flmul@prod+3,f
  4124  0552                     u2733:
  4125  0552  0827               	movf	___flmul@b+2,w
  4126  0553  00AD               	movwf	??___flmul
  4127  0554  082D               	movf	??___flmul,w
  4128  0555  00F0               	movwf	__Umul8_16@multiplicand
  4129  0556  0829               	movf	___flmul@a,w
  4130  0557  160A  118A  2659  120A  118A  	fcall	__Umul8_16
  4131  055C  0871               	movf	?__Umul8_16+1,w
  4132  055D  1283               	bcf	3,5	;RP0=0, select bank0
  4133  055E  1303               	bcf	3,6	;RP1=0, select bank0
  4134  055F  00BE               	movwf	___flmul@temp+1
  4135  0560  0870               	movf	?__Umul8_16,w
  4136  0561  00BD               	movwf	___flmul@temp
  4137  0562                     l2402:
  4138  0562  083D               	movf	___flmul@temp,w
  4139  0563  00AD               	movwf	??___flmul
  4140  0564  01AE               	clrf	??___flmul+1
  4141  0565  01AF               	clrf	??___flmul+2
  4142  0566  01B0               	clrf	??___flmul+3
  4143  0567  082D               	movf	??___flmul,w
  4144  0568  07B3               	addwf	___flmul@grs,f
  4145  0569  082E               	movf	??___flmul+1,w
  4146  056A  1103               	clrz
  4147  056B  1803               	skipnc
  4148  056C  3E01               	addlw	1
  4149  056D  1903               	skipnz
  4150  056E  2D70               	goto	u2741
  4151  056F  07B4               	addwf	___flmul@grs+1,f
  4152  0570                     u2741:
  4153  0570  082F               	movf	??___flmul+2,w
  4154  0571  1103               	clrz
  4155  0572  1803               	skipnc
  4156  0573  3E01               	addlw	1
  4157  0574  1903               	skipnz
  4158  0575  2D77               	goto	u2742
  4159  0576  07B5               	addwf	___flmul@grs+2,f
  4160  0577                     u2742:
  4161  0577  0830               	movf	??___flmul+3,w
  4162  0578  1103               	clrz
  4163  0579  1803               	skipnc
  4164  057A  3E01               	addlw	1
  4165  057B  1903               	skipnz
  4166  057C  2D7E               	goto	u2743
  4167  057D  07B6               	addwf	___flmul@grs+3,f
  4168  057E                     u2743:
  4169  057E                     l2404:
  4170  057E  083E               	movf	___flmul@temp+1,w
  4171  057F  00AD               	movwf	??___flmul
  4172  0580  01AE               	clrf	??___flmul+1
  4173  0581  01AF               	clrf	??___flmul+2
  4174  0582  01B0               	clrf	??___flmul+3
  4175  0583  082D               	movf	??___flmul,w
  4176  0584  07B9               	addwf	___flmul@prod,f
  4177  0585  082E               	movf	??___flmul+1,w
  4178  0586  1103               	clrz
  4179  0587  1803               	skipnc
  4180  0588  3E01               	addlw	1
  4181  0589  1903               	skipnz
  4182  058A  2D8C               	goto	u2751
  4183  058B  07BA               	addwf	___flmul@prod+1,f
  4184  058C                     u2751:
  4185  058C  082F               	movf	??___flmul+2,w
  4186  058D  1103               	clrz
  4187  058E  1803               	skipnc
  4188  058F  3E01               	addlw	1
  4189  0590  1903               	skipnz
  4190  0591  2D93               	goto	u2752
  4191  0592  07BB               	addwf	___flmul@prod+2,f
  4192  0593                     u2752:
  4193  0593  0830               	movf	??___flmul+3,w
  4194  0594  1103               	clrz
  4195  0595  1803               	skipnc
  4196  0596  3E01               	addlw	1
  4197  0597  1903               	skipnz
  4198  0598  2D9A               	goto	u2753
  4199  0599  07BC               	addwf	___flmul@prod+3,f
  4200  059A                     u2753:
  4201  059A                     l2406:
  4202  059A  3008               	movlw	8
  4203  059B  00AD               	movwf	??___flmul
  4204  059C                     u2765:
  4205  059C  1003               	clrc
  4206  059D  0DB3               	rlf	___flmul@grs,f
  4207  059E  0DB4               	rlf	___flmul@grs+1,f
  4208  059F  0DB5               	rlf	___flmul@grs+2,f
  4209  05A0  0DB6               	rlf	___flmul@grs+3,f
  4210  05A1  0BAD               	decfsz	??___flmul,f
  4211  05A2  2D9C               	goto	u2765
  4212  05A3                     l2408:
  4213  05A3  0826               	movf	___flmul@b+1,w
  4214  05A4  00AD               	movwf	??___flmul
  4215  05A5  082D               	movf	??___flmul,w
  4216  05A6  00F0               	movwf	__Umul8_16@multiplicand
  4217  05A7  0829               	movf	___flmul@a,w
  4218  05A8  160A  118A  2659  120A  118A  	fcall	__Umul8_16
  4219  05AD  0871               	movf	?__Umul8_16+1,w
  4220  05AE  1283               	bcf	3,5	;RP0=0, select bank0
  4221  05AF  1303               	bcf	3,6	;RP1=0, select bank0
  4222  05B0  00BE               	movwf	___flmul@temp+1
  4223  05B1  0870               	movf	?__Umul8_16,w
  4224  05B2  00BD               	movwf	___flmul@temp
  4225  05B3                     l2410:
  4226  05B3  083D               	movf	___flmul@temp,w
  4227  05B4  00AD               	movwf	??___flmul
  4228  05B5  083E               	movf	___flmul@temp+1,w
  4229  05B6  00AE               	movwf	??___flmul+1
  4230  05B7  01AF               	clrf	??___flmul+2
  4231  05B8  01B0               	clrf	??___flmul+3
  4232  05B9  082D               	movf	??___flmul,w
  4233  05BA  07B3               	addwf	___flmul@grs,f
  4234  05BB  082E               	movf	??___flmul+1,w
  4235  05BC  1103               	clrz
  4236  05BD  1803               	skipnc
  4237  05BE  3E01               	addlw	1
  4238  05BF  1903               	skipnz
  4239  05C0  2DC2               	goto	u2771
  4240  05C1  07B4               	addwf	___flmul@grs+1,f
  4241  05C2                     u2771:
  4242  05C2  082F               	movf	??___flmul+2,w
  4243  05C3  1103               	clrz
  4244  05C4  1803               	skipnc
  4245  05C5  3E01               	addlw	1
  4246  05C6  1903               	skipnz
  4247  05C7  2DC9               	goto	u2772
  4248  05C8  07B5               	addwf	___flmul@grs+2,f
  4249  05C9                     u2772:
  4250  05C9  0830               	movf	??___flmul+3,w
  4251  05CA  1103               	clrz
  4252  05CB  1803               	skipnc
  4253  05CC  3E01               	addlw	1
  4254  05CD  1903               	skipnz
  4255  05CE  2DD0               	goto	u2773
  4256  05CF  07B6               	addwf	___flmul@grs+3,f
  4257  05D0                     u2773:
  4258  05D0                     l2412:
  4259  05D0  0825               	movf	___flmul@b,w
  4260  05D1  00AD               	movwf	??___flmul
  4261  05D2  082D               	movf	??___flmul,w
  4262  05D3  00F0               	movwf	__Umul8_16@multiplicand
  4263  05D4  082A               	movf	___flmul@a+1,w
  4264  05D5  160A  118A  2659  120A  118A  	fcall	__Umul8_16
  4265  05DA  0871               	movf	?__Umul8_16+1,w
  4266  05DB  1283               	bcf	3,5	;RP0=0, select bank0
  4267  05DC  1303               	bcf	3,6	;RP1=0, select bank0
  4268  05DD  00BE               	movwf	___flmul@temp+1
  4269  05DE  0870               	movf	?__Umul8_16,w
  4270  05DF  00BD               	movwf	___flmul@temp
  4271  05E0                     l2414:
  4272  05E0  083D               	movf	___flmul@temp,w
  4273  05E1  00AD               	movwf	??___flmul
  4274  05E2  083E               	movf	___flmul@temp+1,w
  4275  05E3  00AE               	movwf	??___flmul+1
  4276  05E4  01AF               	clrf	??___flmul+2
  4277  05E5  01B0               	clrf	??___flmul+3
  4278  05E6  082D               	movf	??___flmul,w
  4279  05E7  07B3               	addwf	___flmul@grs,f
  4280  05E8  082E               	movf	??___flmul+1,w
  4281  05E9  1103               	clrz
  4282  05EA  1803               	skipnc
  4283  05EB  3E01               	addlw	1
  4284  05EC  1903               	skipnz
  4285  05ED  2DEF               	goto	u2781
  4286  05EE  07B4               	addwf	___flmul@grs+1,f
  4287  05EF                     u2781:
  4288  05EF  082F               	movf	??___flmul+2,w
  4289  05F0  1103               	clrz
  4290  05F1  1803               	skipnc
  4291  05F2  3E01               	addlw	1
  4292  05F3  1903               	skipnz
  4293  05F4  2DF6               	goto	u2782
  4294  05F5  07B5               	addwf	___flmul@grs+2,f
  4295  05F6                     u2782:
  4296  05F6  0830               	movf	??___flmul+3,w
  4297  05F7  1103               	clrz
  4298  05F8  1803               	skipnc
  4299  05F9  3E01               	addlw	1
  4300  05FA  1903               	skipnz
  4301  05FB  2DFD               	goto	u2783
  4302  05FC  07B6               	addwf	___flmul@grs+3,f
  4303  05FD                     u2783:
  4304  05FD                     l2416:
  4305  05FD  3008               	movlw	8
  4306  05FE  00AD               	movwf	??___flmul
  4307  05FF                     u2795:
  4308  05FF  1003               	clrc
  4309  0600  0DB3               	rlf	___flmul@grs,f
  4310  0601  0DB4               	rlf	___flmul@grs+1,f
  4311  0602  0DB5               	rlf	___flmul@grs+2,f
  4312  0603  0DB6               	rlf	___flmul@grs+3,f
  4313  0604  0BAD               	decfsz	??___flmul,f
  4314  0605  2DFF               	goto	u2795
  4315  0606  0825               	movf	___flmul@b,w
  4316  0607  00AD               	movwf	??___flmul
  4317  0608  082D               	movf	??___flmul,w
  4318  0609  00F0               	movwf	__Umul8_16@multiplicand
  4319  060A  0829               	movf	___flmul@a,w
  4320  060B  160A  118A  2659  120A  118A  	fcall	__Umul8_16
  4321  0610  0871               	movf	?__Umul8_16+1,w
  4322  0611  1283               	bcf	3,5	;RP0=0, select bank0
  4323  0612  1303               	bcf	3,6	;RP1=0, select bank0
  4324  0613  00BE               	movwf	___flmul@temp+1
  4325  0614  0870               	movf	?__Umul8_16,w
  4326  0615  00BD               	movwf	___flmul@temp
  4327  0616                     l2418:
  4328  0616  083D               	movf	___flmul@temp,w
  4329  0617  00AD               	movwf	??___flmul
  4330  0618  083E               	movf	___flmul@temp+1,w
  4331  0619  00AE               	movwf	??___flmul+1
  4332  061A  01AF               	clrf	??___flmul+2
  4333  061B  01B0               	clrf	??___flmul+3
  4334  061C  082D               	movf	??___flmul,w
  4335  061D  07B3               	addwf	___flmul@grs,f
  4336  061E  082E               	movf	??___flmul+1,w
  4337  061F  1103               	clrz
  4338  0620  1803               	skipnc
  4339  0621  3E01               	addlw	1
  4340  0622  1903               	skipnz
  4341  0623  2E25               	goto	u2801
  4342  0624  07B4               	addwf	___flmul@grs+1,f
  4343  0625                     u2801:
  4344  0625  082F               	movf	??___flmul+2,w
  4345  0626  1103               	clrz
  4346  0627  1803               	skipnc
  4347  0628  3E01               	addlw	1
  4348  0629  1903               	skipnz
  4349  062A  2E2C               	goto	u2802
  4350  062B  07B5               	addwf	___flmul@grs+2,f
  4351  062C                     u2802:
  4352  062C  0830               	movf	??___flmul+3,w
  4353  062D  1103               	clrz
  4354  062E  1803               	skipnc
  4355  062F  3E01               	addlw	1
  4356  0630  1903               	skipnz
  4357  0631  2E33               	goto	u2803
  4358  0632  07B6               	addwf	___flmul@grs+3,f
  4359  0633                     u2803:
  4360  0633                     l2420:
  4361  0633  0826               	movf	___flmul@b+1,w
  4362  0634  00AD               	movwf	??___flmul
  4363  0635  082D               	movf	??___flmul,w
  4364  0636  00F0               	movwf	__Umul8_16@multiplicand
  4365  0637  082B               	movf	___flmul@a+2,w
  4366  0638  160A  118A  2659  120A  118A  	fcall	__Umul8_16
  4367  063D  0871               	movf	?__Umul8_16+1,w
  4368  063E  1283               	bcf	3,5	;RP0=0, select bank0
  4369  063F  1303               	bcf	3,6	;RP1=0, select bank0
  4370  0640  00BE               	movwf	___flmul@temp+1
  4371  0641  0870               	movf	?__Umul8_16,w
  4372  0642  00BD               	movwf	___flmul@temp
  4373  0643  083D               	movf	___flmul@temp,w
  4374  0644  00AD               	movwf	??___flmul
  4375  0645  083E               	movf	___flmul@temp+1,w
  4376  0646  00AE               	movwf	??___flmul+1
  4377  0647  01AF               	clrf	??___flmul+2
  4378  0648  01B0               	clrf	??___flmul+3
  4379  0649  082D               	movf	??___flmul,w
  4380  064A  07B9               	addwf	___flmul@prod,f
  4381  064B  082E               	movf	??___flmul+1,w
  4382  064C  1103               	clrz
  4383  064D  1803               	skipnc
  4384  064E  3E01               	addlw	1
  4385  064F  1903               	skipnz
  4386  0650  2E52               	goto	u2811
  4387  0651  07BA               	addwf	___flmul@prod+1,f
  4388  0652                     u2811:
  4389  0652  082F               	movf	??___flmul+2,w
  4390  0653  1103               	clrz
  4391  0654  1803               	skipnc
  4392  0655  3E01               	addlw	1
  4393  0656  1903               	skipnz
  4394  0657  2E59               	goto	u2812
  4395  0658  07BB               	addwf	___flmul@prod+2,f
  4396  0659                     u2812:
  4397  0659  0830               	movf	??___flmul+3,w
  4398  065A  1103               	clrz
  4399  065B  1803               	skipnc
  4400  065C  3E01               	addlw	1
  4401  065D  1903               	skipnz
  4402  065E  2E60               	goto	u2813
  4403  065F  07BC               	addwf	___flmul@prod+3,f
  4404  0660                     u2813:
  4405  0660                     l2422:
  4406  0660  0827               	movf	___flmul@b+2,w
  4407  0661  00AD               	movwf	??___flmul
  4408  0662  082D               	movf	??___flmul,w
  4409  0663  00F0               	movwf	__Umul8_16@multiplicand
  4410  0664  082A               	movf	___flmul@a+1,w
  4411  0665  160A  118A  2659  120A  118A  	fcall	__Umul8_16
  4412  066A  0871               	movf	?__Umul8_16+1,w
  4413  066B  1283               	bcf	3,5	;RP0=0, select bank0
  4414  066C  1303               	bcf	3,6	;RP1=0, select bank0
  4415  066D  00BE               	movwf	___flmul@temp+1
  4416  066E  0870               	movf	?__Umul8_16,w
  4417  066F  00BD               	movwf	___flmul@temp
  4418  0670                     l2424:
  4419  0670  083D               	movf	___flmul@temp,w
  4420  0671  00AD               	movwf	??___flmul
  4421  0672  083E               	movf	___flmul@temp+1,w
  4422  0673  00AE               	movwf	??___flmul+1
  4423  0674  01AF               	clrf	??___flmul+2
  4424  0675  01B0               	clrf	??___flmul+3
  4425  0676  082D               	movf	??___flmul,w
  4426  0677  07B9               	addwf	___flmul@prod,f
  4427  0678  082E               	movf	??___flmul+1,w
  4428  0679  1103               	clrz
  4429  067A  1803               	skipnc
  4430  067B  3E01               	addlw	1
  4431  067C  1903               	skipnz
  4432  067D  2E7F               	goto	u2821
  4433  067E  07BA               	addwf	___flmul@prod+1,f
  4434  067F                     u2821:
  4435  067F  082F               	movf	??___flmul+2,w
  4436  0680  1103               	clrz
  4437  0681  1803               	skipnc
  4438  0682  3E01               	addlw	1
  4439  0683  1903               	skipnz
  4440  0684  2E86               	goto	u2822
  4441  0685  07BB               	addwf	___flmul@prod+2,f
  4442  0686                     u2822:
  4443  0686  0830               	movf	??___flmul+3,w
  4444  0687  1103               	clrz
  4445  0688  1803               	skipnc
  4446  0689  3E01               	addlw	1
  4447  068A  1903               	skipnz
  4448  068B  2E8D               	goto	u2823
  4449  068C  07BC               	addwf	___flmul@prod+3,f
  4450  068D                     u2823:
  4451  068D  0827               	movf	___flmul@b+2,w
  4452  068E  00AD               	movwf	??___flmul
  4453  068F  082D               	movf	??___flmul,w
  4454  0690  00F0               	movwf	__Umul8_16@multiplicand
  4455  0691  082B               	movf	___flmul@a+2,w
  4456  0692  160A  118A  2659  120A  118A  	fcall	__Umul8_16
  4457  0697  0871               	movf	?__Umul8_16+1,w
  4458  0698  1283               	bcf	3,5	;RP0=0, select bank0
  4459  0699  1303               	bcf	3,6	;RP1=0, select bank0
  4460  069A  00BE               	movwf	___flmul@temp+1
  4461  069B  0870               	movf	?__Umul8_16,w
  4462  069C  00BD               	movwf	___flmul@temp
  4463  069D                     l2426:
  4464  069D  083D               	movf	___flmul@temp,w
  4465  069E  00AD               	movwf	??___flmul
  4466  069F  083E               	movf	___flmul@temp+1,w
  4467  06A0  00AE               	movwf	??___flmul+1
  4468  06A1  01AF               	clrf	??___flmul+2
  4469  06A2  01B0               	clrf	??___flmul+3
  4470  06A3  3008               	movlw	8
  4471  06A4                     u2835:
  4472  06A4  1003               	clrc
  4473  06A5  0DAD               	rlf	??___flmul,f
  4474  06A6  0DAE               	rlf	??___flmul+1,f
  4475  06A7  0DAF               	rlf	??___flmul+2,f
  4476  06A8  0DB0               	rlf	??___flmul+3,f
  4477  06A9                     u2830:
  4478  06A9  3EFF               	addlw	-1
  4479  06AA  1D03               	skipz
  4480  06AB  2EA4               	goto	u2835
  4481  06AC  082D               	movf	??___flmul,w
  4482  06AD  07B9               	addwf	___flmul@prod,f
  4483  06AE  082E               	movf	??___flmul+1,w
  4484  06AF  1103               	clrz
  4485  06B0  1803               	skipnc
  4486  06B1  3E01               	addlw	1
  4487  06B2  1903               	skipnz
  4488  06B3  2EB5               	goto	u2841
  4489  06B4  07BA               	addwf	___flmul@prod+1,f
  4490  06B5                     u2841:
  4491  06B5  082F               	movf	??___flmul+2,w
  4492  06B6  1103               	clrz
  4493  06B7  1803               	skipnc
  4494  06B8  3E01               	addlw	1
  4495  06B9  1903               	skipnz
  4496  06BA  2EBC               	goto	u2842
  4497  06BB  07BB               	addwf	___flmul@prod+2,f
  4498  06BC                     u2842:
  4499  06BC  0830               	movf	??___flmul+3,w
  4500  06BD  1103               	clrz
  4501  06BE  1803               	skipnc
  4502  06BF  3E01               	addlw	1
  4503  06C0  1903               	skipnz
  4504  06C1  2EC3               	goto	u2843
  4505  06C2  07BC               	addwf	___flmul@prod+3,f
  4506  06C3                     u2843:
  4507  06C3                     l2428:
  4508  06C3  0833               	movf	___flmul@grs,w
  4509  06C4  00AD               	movwf	??___flmul
  4510  06C5  0834               	movf	___flmul@grs+1,w
  4511  06C6  00AE               	movwf	??___flmul+1
  4512  06C7  0835               	movf	___flmul@grs+2,w
  4513  06C8  00AF               	movwf	??___flmul+2
  4514  06C9  0836               	movf	___flmul@grs+3,w
  4515  06CA  00B0               	movwf	??___flmul+3
  4516  06CB  3018               	movlw	24
  4517  06CC                     u2855:
  4518  06CC  1003               	clrc
  4519  06CD  0CB0               	rrf	??___flmul+3,f
  4520  06CE  0CAF               	rrf	??___flmul+2,f
  4521  06CF  0CAE               	rrf	??___flmul+1,f
  4522  06D0  0CAD               	rrf	??___flmul,f
  4523  06D1                     u2850:
  4524  06D1  3EFF               	addlw	-1
  4525  06D2  1D03               	skipz
  4526  06D3  2ECC               	goto	u2855
  4527  06D4  082D               	movf	??___flmul,w
  4528  06D5  07B9               	addwf	___flmul@prod,f
  4529  06D6  082E               	movf	??___flmul+1,w
  4530  06D7  1103               	clrz
  4531  06D8  1803               	skipnc
  4532  06D9  3E01               	addlw	1
  4533  06DA  1903               	skipnz
  4534  06DB  2EDD               	goto	u2861
  4535  06DC  07BA               	addwf	___flmul@prod+1,f
  4536  06DD                     u2861:
  4537  06DD  082F               	movf	??___flmul+2,w
  4538  06DE  1103               	clrz
  4539  06DF  1803               	skipnc
  4540  06E0  3E01               	addlw	1
  4541  06E1  1903               	skipnz
  4542  06E2  2EE4               	goto	u2862
  4543  06E3  07BB               	addwf	___flmul@prod+2,f
  4544  06E4                     u2862:
  4545  06E4  0830               	movf	??___flmul+3,w
  4546  06E5  1103               	clrz
  4547  06E6  1803               	skipnc
  4548  06E7  3E01               	addlw	1
  4549  06E8  1903               	skipnz
  4550  06E9  2EEB               	goto	u2863
  4551  06EA  07BC               	addwf	___flmul@prod+3,f
  4552  06EB                     u2863:
  4553  06EB                     l2430:
  4554  06EB  3008               	movlw	8
  4555  06EC  00AD               	movwf	??___flmul
  4556  06ED                     u2875:
  4557  06ED  1003               	clrc
  4558  06EE  0DB3               	rlf	___flmul@grs,f
  4559  06EF  0DB4               	rlf	___flmul@grs+1,f
  4560  06F0  0DB5               	rlf	___flmul@grs+2,f
  4561  06F1  0DB6               	rlf	___flmul@grs+3,f
  4562  06F2  0BAD               	decfsz	??___flmul,f
  4563  06F3  2EED               	goto	u2875
  4564  06F4                     l2432:
  4565  06F4  0838               	movf	___flmul@bexp,w
  4566  06F5  0737               	addwf	___flmul@aexp,w
  4567  06F6  00AD               	movwf	??___flmul
  4568  06F7  01AE               	clrf	??___flmul+1
  4569  06F8  0DAE               	rlf	??___flmul+1,f
  4570  06F9  082D               	movf	??___flmul,w
  4571  06FA  3E82               	addlw	130
  4572  06FB  00BD               	movwf	___flmul@temp
  4573  06FC  082E               	movf	??___flmul+1,w
  4574  06FD  1803               	skipnc
  4575  06FE  3E01               	addlw	1
  4576  06FF  3EFF               	addlw	255
  4577  0700  00BE               	movwf	___flmul@temp+1
  4578  0701  2F1F               	goto	l2444
  4579  0702                     l2434:
  4580  0702  3001               	movlw	1
  4581  0703  00AD               	movwf	??___flmul
  4582  0704                     u2885:
  4583  0704  1003               	clrc
  4584  0705  0DB9               	rlf	___flmul@prod,f
  4585  0706  0DBA               	rlf	___flmul@prod+1,f
  4586  0707  0DBB               	rlf	___flmul@prod+2,f
  4587  0708  0DBC               	rlf	___flmul@prod+3,f
  4588  0709  0BAD               	decfsz	??___flmul,f
  4589  070A  2F04               	goto	u2885
  4590  070B                     l2436:
  4591  070B  1FB6               	btfss	___flmul@grs+3,7
  4592  070C  2F0E               	goto	u2891
  4593  070D  2F0F               	goto	u2890
  4594  070E                     u2891:
  4595  070E  2F10               	goto	l2440
  4596  070F                     u2890:
  4597  070F                     l2438:
  4598  070F  1439               	bsf	___flmul@prod,0
  4599  0710                     l2440:
  4600  0710  3001               	movlw	1
  4601  0711  00AD               	movwf	??___flmul
  4602  0712                     u2905:
  4603  0712  1003               	clrc
  4604  0713  0DB3               	rlf	___flmul@grs,f
  4605  0714  0DB4               	rlf	___flmul@grs+1,f
  4606  0715  0DB5               	rlf	___flmul@grs+2,f
  4607  0716  0DB6               	rlf	___flmul@grs+3,f
  4608  0717  0BAD               	decfsz	??___flmul,f
  4609  0718  2F12               	goto	u2905
  4610  0719                     l2442:
  4611  0719  30FF               	movlw	255
  4612  071A  07BD               	addwf	___flmul@temp,f
  4613  071B  1803               	skipnc
  4614  071C  0ABE               	incf	___flmul@temp+1,f
  4615  071D  30FF               	movlw	255
  4616  071E  07BE               	addwf	___flmul@temp+1,f
  4617  071F                     l2444:
  4618  071F  1FBB               	btfss	___flmul@prod+2,7
  4619  0720  2F22               	goto	u2911
  4620  0721  2F23               	goto	u2910
  4621  0722                     u2911:
  4622  0722  2F02               	goto	l2434
  4623  0723                     u2910:
  4624  0723                     l2446:
  4625  0723  01B7               	clrf	___flmul@aexp
  4626  0724                     l2448:
  4627  0724  1FB6               	btfss	___flmul@grs+3,7
  4628  0725  2F27               	goto	u2921
  4629  0726  2F28               	goto	u2920
  4630  0727                     u2921:
  4631  0727  2F44               	goto	l2456
  4632  0728                     u2920:
  4633  0728                     l2450:
  4634  0728  30FF               	movlw	255
  4635  0729  0533               	andwf	___flmul@grs,w
  4636  072A  00AD               	movwf	??___flmul
  4637  072B  30FF               	movlw	255
  4638  072C  0534               	andwf	___flmul@grs+1,w
  4639  072D  00AE               	movwf	??___flmul+1
  4640  072E  30FF               	movlw	255
  4641  072F  0535               	andwf	___flmul@grs+2,w
  4642  0730  00AF               	movwf	??___flmul+2
  4643  0731  307F               	movlw	127
  4644  0732  0536               	andwf	___flmul@grs+3,w
  4645  0733  00B0               	movwf	??___flmul+3
  4646  0734  0830               	movf	??___flmul+3,w
  4647  0735  042F               	iorwf	??___flmul+2,w
  4648  0736  042E               	iorwf	??___flmul+1,w
  4649  0737  042D               	iorwf	??___flmul,w
  4650  0738  1903               	skipnz
  4651  0739  2F3B               	goto	u2931
  4652  073A  2F3C               	goto	u2930
  4653  073B                     u2931:
  4654  073B  2F3F               	goto	l807
  4655  073C                     u2930:
  4656  073C                     l2452:
  4657  073C  01B7               	clrf	___flmul@aexp
  4658  073D  0AB7               	incf	___flmul@aexp,f
  4659  073E  2F44               	goto	l2456
  4660  073F                     l807:
  4661  073F  1C39               	btfss	___flmul@prod,0
  4662  0740  2F42               	goto	u2941
  4663  0741  2F43               	goto	u2940
  4664  0742                     u2941:
  4665  0742  2F44               	goto	l2456
  4666  0743                     u2940:
  4667  0743  2F3C               	goto	l2452
  4668  0744                     l2456:
  4669  0744  0837               	movf	___flmul@aexp,w
  4670  0745  1903               	btfsc	3,2
  4671  0746  2F48               	goto	u2951
  4672  0747  2F49               	goto	u2950
  4673  0748                     u2951:
  4674  0748  2F7A               	goto	l2466
  4675  0749                     u2950:
  4676  0749                     l2458:
  4677  0749  3001               	movlw	1
  4678  074A  07B9               	addwf	___flmul@prod,f
  4679  074B  3000               	movlw	0
  4680  074C  1803               	skipnc
  4681  074D  3001               	movlw	1
  4682  074E  07BA               	addwf	___flmul@prod+1,f
  4683  074F  3000               	movlw	0
  4684  0750  1803               	skipnc
  4685  0751  3001               	movlw	1
  4686  0752  07BB               	addwf	___flmul@prod+2,f
  4687  0753  3000               	movlw	0
  4688  0754  1803               	skipnc
  4689  0755  3001               	movlw	1
  4690  0756  07BC               	addwf	___flmul@prod+3,f
  4691  0757                     l2460:
  4692  0757  1C3C               	btfss	___flmul@prod+3,0
  4693  0758  2F5A               	goto	u2961
  4694  0759  2F5B               	goto	u2960
  4695  075A                     u2961:
  4696  075A  2F7A               	goto	l2466
  4697  075B                     u2960:
  4698  075B                     l2462:
  4699  075B  0839               	movf	___flmul@prod,w
  4700  075C  00AD               	movwf	??___flmul
  4701  075D  083A               	movf	___flmul@prod+1,w
  4702  075E  00AE               	movwf	??___flmul+1
  4703  075F  083B               	movf	___flmul@prod+2,w
  4704  0760  00AF               	movwf	??___flmul+2
  4705  0761  083C               	movf	___flmul@prod+3,w
  4706  0762  00B0               	movwf	??___flmul+3
  4707  0763  3001               	movlw	1
  4708  0764  00B1               	movwf	??___flmul+4
  4709  0765                     u2975:
  4710  0765  0D30               	rlf	??___flmul+3,w
  4711  0766  0CB0               	rrf	??___flmul+3,f
  4712  0767  0CAF               	rrf	??___flmul+2,f
  4713  0768  0CAE               	rrf	??___flmul+1,f
  4714  0769  0CAD               	rrf	??___flmul,f
  4715  076A                     u2970:
  4716  076A  0BB1               	decfsz	??___flmul+4,f
  4717  076B  2F65               	goto	u2975
  4718  076C  0830               	movf	??___flmul+3,w
  4719  076D  00BC               	movwf	___flmul@prod+3
  4720  076E  082F               	movf	??___flmul+2,w
  4721  076F  00BB               	movwf	___flmul@prod+2
  4722  0770  082E               	movf	??___flmul+1,w
  4723  0771  00BA               	movwf	___flmul@prod+1
  4724  0772  082D               	movf	??___flmul,w
  4725  0773  00B9               	movwf	___flmul@prod
  4726  0774                     l2464:
  4727  0774  3001               	movlw	1
  4728  0775  07BD               	addwf	___flmul@temp,f
  4729  0776  1803               	skipnc
  4730  0777  0ABE               	incf	___flmul@temp+1,f
  4731  0778  3000               	movlw	0
  4732  0779  07BE               	addwf	___flmul@temp+1,f
  4733  077A                     l2466:
  4734  077A  083E               	movf	___flmul@temp+1,w
  4735  077B  3A80               	xorlw	128
  4736  077C  00FF               	movwf	btemp+1
  4737  077D  3080               	movlw	128
  4738  077E  027F               	subwf	btemp+1,w
  4739  077F  1D03               	skipz
  4740  0780  2F83               	goto	u2985
  4741  0781  30FF               	movlw	255
  4742  0782  023D               	subwf	___flmul@temp,w
  4743  0783                     u2985:
  4744  0783  1C03               	skipc
  4745  0784  2F86               	goto	u2981
  4746  0785  2F87               	goto	u2980
  4747  0786                     u2981:
  4748  0786  2F92               	goto	l2470
  4749  0787                     u2980:
  4750  0787                     l2468:
  4751  0787  307F               	movlw	127
  4752  0788  1283               	bcf	3,5	;RP0=0, select bank0
  4753  0789  1303               	bcf	3,6	;RP1=0, select bank0
  4754  078A  00BC               	movwf	___flmul@prod+3
  4755  078B  3080               	movlw	128
  4756  078C  00BB               	movwf	___flmul@prod+2
  4757  078D  3000               	movlw	0
  4758  078E  00BA               	movwf	___flmul@prod+1
  4759  078F  3000               	movlw	0
  4760  0790  00B9               	movwf	___flmul@prod
  4761  0791  2FC7               	goto	l813
  4762  0792                     l2470:
  4763  0792  1283               	bcf	3,5	;RP0=0, select bank0
  4764  0793  1303               	bcf	3,6	;RP1=0, select bank0
  4765  0794  083E               	movf	___flmul@temp+1,w
  4766  0795  3A80               	xorlw	128
  4767  0796  00FF               	movwf	btemp+1
  4768  0797  3080               	movlw	128
  4769  0798  027F               	subwf	btemp+1,w
  4770  0799  1D03               	skipz
  4771  079A  2F9D               	goto	u2995
  4772  079B  3001               	movlw	1
  4773  079C  023D               	subwf	___flmul@temp,w
  4774  079D                     u2995:
  4775  079D  1803               	skipnc
  4776  079E  2FA0               	goto	u2991
  4777  079F  2FA1               	goto	u2990
  4778  07A0                     u2991:
  4779  07A0  2FAD               	goto	l2476
  4780  07A1                     u2990:
  4781  07A1                     l2472:
  4782  07A1  3000               	movlw	0
  4783  07A2  1283               	bcf	3,5	;RP0=0, select bank0
  4784  07A3  1303               	bcf	3,6	;RP1=0, select bank0
  4785  07A4  00BC               	movwf	___flmul@prod+3
  4786  07A5  3000               	movlw	0
  4787  07A6  00BB               	movwf	___flmul@prod+2
  4788  07A7  3000               	movlw	0
  4789  07A8  00BA               	movwf	___flmul@prod+1
  4790  07A9  3000               	movlw	0
  4791  07AA  00B9               	movwf	___flmul@prod
  4792  07AB                     l2474:
  4793  07AB  01B2               	clrf	___flmul@sign
  4794  07AC  2FC7               	goto	l813
  4795  07AD                     l2476:
  4796  07AD  1283               	bcf	3,5	;RP0=0, select bank0
  4797  07AE  1303               	bcf	3,6	;RP1=0, select bank0
  4798  07AF  083D               	movf	___flmul@temp,w
  4799  07B0  00AD               	movwf	??___flmul
  4800  07B1  082D               	movf	??___flmul,w
  4801  07B2  00B8               	movwf	___flmul@bexp
  4802  07B3  30FF               	movlw	255
  4803  07B4  05B9               	andwf	___flmul@prod,f
  4804  07B5  30FF               	movlw	255
  4805  07B6  05BA               	andwf	___flmul@prod+1,f
  4806  07B7  307F               	movlw	127
  4807  07B8  05BB               	andwf	___flmul@prod+2,f
  4808  07B9  3000               	movlw	0
  4809  07BA  05BC               	andwf	___flmul@prod+3,f
  4810  07BB                     l2478:
  4811  07BB  1C38               	btfss	___flmul@bexp,0
  4812  07BC  2FBE               	goto	u3001
  4813  07BD  2FBF               	goto	u3000
  4814  07BE                     u3001:
  4815  07BE  2FC0               	goto	l2482
  4816  07BF                     u3000:
  4817  07BF                     l2480:
  4818  07BF  17BB               	bsf	___flmul@prod+2,7
  4819  07C0                     l2482:
  4820  07C0  0838               	movf	___flmul@bexp,w
  4821  07C1  00AD               	movwf	??___flmul
  4822  07C2  1003               	clrc
  4823  07C3  0C2D               	rrf	??___flmul,w
  4824  07C4  00AE               	movwf	??___flmul+1
  4825  07C5  082E               	movf	??___flmul+1,w
  4826  07C6  00BC               	movwf	___flmul@prod+3
  4827  07C7                     l813:
  4828  07C7  0832               	movf	___flmul@sign,w
  4829  07C8  00AD               	movwf	??___flmul
  4830  07C9  082D               	movf	??___flmul,w
  4831  07CA  04BC               	iorwf	___flmul@prod+3,f
  4832  07CB                     l2484:
  4833  07CB  083C               	movf	___flmul@prod+3,w
  4834  07CC  00A8               	movwf	?___flmul+3
  4835  07CD  083B               	movf	___flmul@prod+2,w
  4836  07CE  00A7               	movwf	?___flmul+2
  4837  07CF  083A               	movf	___flmul@prod+1,w
  4838  07D0  00A6               	movwf	?___flmul+1
  4839  07D1  0839               	movf	___flmul@prod,w
  4840  07D2  00A5               	movwf	?___flmul
  4841  07D3                     l801:
  4842  07D3  0008               	return
  4843  07D4                     __end_of___flmul:
  4844                           
  4845                           	psect	text12
  4846  1659                     __ptext12:	
  4847 ;; *************** function __Umul8_16 *****************
  4848 ;; Defined at:
  4849 ;;		line 4 in file "C:\Program Files\Microchip\xc8\v2.36\pic\sources\c90\common\Umul8_16.c"
  4850 ;; Parameters:    Size  Location     Type
  4851 ;;  multiplier      1    wreg     unsigned char 
  4852 ;;  multiplicand    1    0[COMMON] unsigned char 
  4853 ;; Auto vars:     Size  Location     Type
  4854 ;;  multiplier      1    8[COMMON] unsigned char 
  4855 ;;  word_mpld       2    6[COMMON] unsigned int 
  4856 ;;  product         2    4[COMMON] unsigned int 
  4857 ;; Return value:  Size  Location     Type
  4858 ;;                  2    0[COMMON] unsigned int 
  4859 ;; Registers used:
  4860 ;;		wreg, status,2, status,0
  4861 ;; Tracked objects:
  4862 ;;		On entry : 0/0
  4863 ;;		On exit  : 0/0
  4864 ;;		Unchanged: 0/0
  4865 ;; Data sizes:     COMMON   BANK0   BANK1   BANK3   BANK2
  4866 ;;      Params:         2       0       0       0       0
  4867 ;;      Locals:         5       0       0       0       0
  4868 ;;      Temps:          2       0       0       0       0
  4869 ;;      Totals:         9       0       0       0       0
  4870 ;;Total ram usage:        9 bytes
  4871 ;; Hardware stack levels used: 1
  4872 ;; This function calls:
  4873 ;;		Nothing
  4874 ;; This function is called by:
  4875 ;;		___flmul
  4876 ;; This function uses a non-reentrant model
  4877 ;;
  4878                           
  4879  1659                     __Umul8_16:	
  4880                           ;psect for function __Umul8_16
  4881                           
  4882                           
  4883                           ;incstack = 0
  4884                           ; Regs used in __Umul8_16: [wreg+status,2+status,0]
  4885                           ;__Umul8_16@multiplier stored from wreg
  4886  1659  00F8               	movwf	__Umul8_16@multiplier
  4887  165A                     l2108:
  4888  165A  01F4               	clrf	__Umul8_16@product
  4889  165B  01F5               	clrf	__Umul8_16@product+1
  4890  165C                     l2110:
  4891  165C  0870               	movf	__Umul8_16@multiplicand,w
  4892  165D  00F2               	movwf	??__Umul8_16
  4893  165E  01F3               	clrf	??__Umul8_16+1
  4894  165F  0872               	movf	??__Umul8_16,w
  4895  1660  00F6               	movwf	__Umul8_16@word_mpld
  4896  1661  0873               	movf	??__Umul8_16+1,w
  4897  1662  00F7               	movwf	__Umul8_16@word_mpld+1
  4898  1663                     l2112:
  4899  1663  1C78               	btfss	__Umul8_16@multiplier,0
  4900  1664  2E66               	goto	u2111
  4901  1665  2E67               	goto	u2110
  4902  1666                     u2111:
  4903  1666  2E6D               	goto	l820
  4904  1667                     u2110:
  4905  1667                     l2114:
  4906  1667  0876               	movf	__Umul8_16@word_mpld,w
  4907  1668  07F4               	addwf	__Umul8_16@product,f
  4908  1669  1803               	skipnc
  4909  166A  0AF5               	incf	__Umul8_16@product+1,f
  4910  166B  0877               	movf	__Umul8_16@word_mpld+1,w
  4911  166C  07F5               	addwf	__Umul8_16@product+1,f
  4912  166D                     l820:
  4913  166D  3001               	movlw	1
  4914  166E                     u2125:
  4915  166E  1003               	clrc
  4916  166F  0DF6               	rlf	__Umul8_16@word_mpld,f
  4917  1670  0DF7               	rlf	__Umul8_16@word_mpld+1,f
  4918  1671  3EFF               	addlw	-1
  4919  1672  1D03               	skipz
  4920  1673  2E6E               	goto	u2125
  4921  1674  1003               	clrc
  4922  1675  0CF8               	rrf	__Umul8_16@multiplier,f
  4923  1676                     l2116:
  4924  1676  0878               	movf	__Umul8_16@multiplier,w
  4925  1677  1D03               	btfss	3,2
  4926  1678  2E7A               	goto	u2131
  4927  1679  2E7B               	goto	u2130
  4928  167A                     u2131:
  4929  167A  2E63               	goto	l2112
  4930  167B                     u2130:
  4931  167B                     l2118:
  4932  167B  0875               	movf	__Umul8_16@product+1,w
  4933  167C  00F1               	movwf	?__Umul8_16+1
  4934  167D  0874               	movf	__Umul8_16@product,w
  4935  167E  00F0               	movwf	?__Umul8_16
  4936  167F                     l822:
  4937  167F  0008               	return
  4938  1680                     __end_of__Umul8_16:
  4939                           
  4940                           	psect	text13
  4941  01EB                     __ptext13:	
  4942 ;; *************** function ___fladd *****************
  4943 ;; Defined at:
  4944 ;;		line 10 in file "C:\Program Files\Microchip\xc8\v2.36\pic\sources\c90\common\sprcadd.c"
  4945 ;; Parameters:    Size  Location     Type
  4946 ;;  b               4   57[BANK0 ] unsigned int 
  4947 ;;  a               4   61[BANK0 ] unsigned int 
  4948 ;; Auto vars:     Size  Location     Type
  4949 ;;  grs             1   76[BANK0 ] unsigned char 
  4950 ;;  bexp            1   75[BANK0 ] unsigned char 
  4951 ;;  aexp            1   74[BANK0 ] unsigned char 
  4952 ;;  signs           1   73[BANK0 ] unsigned char 
  4953 ;; Return value:  Size  Location     Type
  4954 ;;                  4   57[BANK0 ] unsigned char 
  4955 ;; Registers used:
  4956 ;;		wreg, status,2, status,0, btemp+1
  4957 ;; Tracked objects:
  4958 ;;		On entry : 0/0
  4959 ;;		On exit  : 0/0
  4960 ;;		Unchanged: 0/0
  4961 ;; Data sizes:     COMMON   BANK0   BANK1   BANK3   BANK2
  4962 ;;      Params:         0       8       0       0       0
  4963 ;;      Locals:         0       4       0       0       0
  4964 ;;      Temps:          0       8       0       0       0
  4965 ;;      Totals:         0      20       0       0       0
  4966 ;;Total ram usage:       20 bytes
  4967 ;; Hardware stack levels used: 1
  4968 ;; This function calls:
  4969 ;;		Nothing
  4970 ;; This function is called by:
  4971 ;;		_main
  4972 ;;		_log
  4973 ;;		_eval_poly
  4974 ;; This function uses a non-reentrant model
  4975 ;;
  4976                           
  4977  01EB                     ___fladd:	
  4978                           ;psect for function ___fladd
  4979                           
  4980  01EB                     l2154:	
  4981                           ;incstack = 0
  4982                           ; Regs used in ___fladd: [wreg+status,2+status,0+btemp+1]
  4983                           
  4984  01EB  1283               	bcf	3,5	;RP0=0, select bank0
  4985  01EC  1303               	bcf	3,6	;RP1=0, select bank0
  4986  01ED  085C               	movf	___fladd@b+3,w
  4987  01EE  3980               	andlw	128
  4988  01EF  00E1               	movwf	??___fladd
  4989  01F0  0861               	movf	??___fladd,w
  4990  01F1  00E9               	movwf	___fladd@signs
  4991  01F2                     l2156:
  4992  01F2  085C               	movf	___fladd@b+3,w
  4993  01F3  00E1               	movwf	??___fladd
  4994  01F4  0761               	addwf	??___fladd,w
  4995  01F5  00E2               	movwf	??___fladd+1
  4996  01F6  0862               	movf	??___fladd+1,w
  4997  01F7  00EB               	movwf	___fladd@bexp
  4998  01F8                     l2158:
  4999  01F8  1FDB               	btfss	___fladd@b+2,7
  5000  01F9  29FB               	goto	u2181
  5001  01FA  29FC               	goto	u2180
  5002  01FB                     u2181:
  5003  01FB  29FD               	goto	l2162
  5004  01FC                     u2180:
  5005  01FC                     l2160:
  5006  01FC  146B               	bsf	___fladd@bexp,0
  5007  01FD                     l2162:
  5008  01FD  086B               	movf	___fladd@bexp,w
  5009  01FE  1903               	btfsc	3,2
  5010  01FF  2A01               	goto	u2191
  5011  0200  2A02               	goto	u2190
  5012  0201                     u2191:
  5013  0201  2A12               	goto	l2172
  5014  0202                     u2190:
  5015  0202                     l2164:
  5016  0202  0A6B               	incf	___fladd@bexp,w
  5017  0203  1D03               	btfss	3,2
  5018  0204  2A06               	goto	u2201
  5019  0205  2A07               	goto	u2200
  5020  0206                     u2201:
  5021  0206  2A0F               	goto	l2168
  5022  0207                     u2200:
  5023  0207                     l2166:
  5024  0207  3000               	movlw	0
  5025  0208  00DC               	movwf	___fladd@b+3
  5026  0209  3000               	movlw	0
  5027  020A  00DB               	movwf	___fladd@b+2
  5028  020B  3000               	movlw	0
  5029  020C  00DA               	movwf	___fladd@b+1
  5030  020D  3000               	movlw	0
  5031  020E  00D9               	movwf	___fladd@b
  5032  020F                     l2168:
  5033  020F  17DB               	bsf	___fladd@b+2,7
  5034  0210                     l2170:
  5035  0210  01DC               	clrf	___fladd@b+3
  5036  0211  2A1A               	goto	l2174
  5037  0212                     l2172:
  5038  0212  3000               	movlw	0
  5039  0213  00DC               	movwf	___fladd@b+3
  5040  0214  3000               	movlw	0
  5041  0215  00DB               	movwf	___fladd@b+2
  5042  0216  3000               	movlw	0
  5043  0217  00DA               	movwf	___fladd@b+1
  5044  0218  3000               	movlw	0
  5045  0219  00D9               	movwf	___fladd@b
  5046  021A                     l2174:
  5047  021A  0860               	movf	___fladd@a+3,w
  5048  021B  3980               	andlw	128
  5049  021C  00E1               	movwf	??___fladd
  5050  021D  0861               	movf	??___fladd,w
  5051  021E  00EA               	movwf	___fladd@aexp
  5052  021F                     l2176:
  5053  021F  086A               	movf	___fladd@aexp,w
  5054  0220  0669               	xorwf	___fladd@signs,w
  5055  0221  1903               	skipnz
  5056  0222  2A24               	goto	u2211
  5057  0223  2A25               	goto	u2210
  5058  0224                     u2211:
  5059  0224  2A26               	goto	l2180
  5060  0225                     u2210:
  5061  0225                     l2178:
  5062  0225  1769               	bsf	___fladd@signs,6
  5063  0226                     l2180:
  5064  0226  0860               	movf	___fladd@a+3,w
  5065  0227  00E1               	movwf	??___fladd
  5066  0228  0761               	addwf	??___fladd,w
  5067  0229  00E2               	movwf	??___fladd+1
  5068  022A  0862               	movf	??___fladd+1,w
  5069  022B  00EA               	movwf	___fladd@aexp
  5070  022C                     l2182:
  5071  022C  1FDF               	btfss	___fladd@a+2,7
  5072  022D  2A2F               	goto	u2221
  5073  022E  2A30               	goto	u2220
  5074  022F                     u2221:
  5075  022F  2A31               	goto	l2186
  5076  0230                     u2220:
  5077  0230                     l2184:
  5078  0230  146A               	bsf	___fladd@aexp,0
  5079  0231                     l2186:
  5080  0231  086A               	movf	___fladd@aexp,w
  5081  0232  1903               	btfsc	3,2
  5082  0233  2A35               	goto	u2231
  5083  0234  2A36               	goto	u2230
  5084  0235                     u2231:
  5085  0235  2A46               	goto	l2196
  5086  0236                     u2230:
  5087  0236                     l2188:
  5088  0236  0A6A               	incf	___fladd@aexp,w
  5089  0237  1D03               	btfss	3,2
  5090  0238  2A3A               	goto	u2241
  5091  0239  2A3B               	goto	u2240
  5092  023A                     u2241:
  5093  023A  2A43               	goto	l2192
  5094  023B                     u2240:
  5095  023B                     l2190:
  5096  023B  3000               	movlw	0
  5097  023C  00E0               	movwf	___fladd@a+3
  5098  023D  3000               	movlw	0
  5099  023E  00DF               	movwf	___fladd@a+2
  5100  023F  3000               	movlw	0
  5101  0240  00DE               	movwf	___fladd@a+1
  5102  0241  3000               	movlw	0
  5103  0242  00DD               	movwf	___fladd@a
  5104  0243                     l2192:
  5105  0243  17DF               	bsf	___fladd@a+2,7
  5106  0244                     l2194:
  5107  0244  01E0               	clrf	___fladd@a+3
  5108  0245  2A4E               	goto	l705
  5109  0246                     l2196:
  5110  0246  3000               	movlw	0
  5111  0247  00E0               	movwf	___fladd@a+3
  5112  0248  3000               	movlw	0
  5113  0249  00DF               	movwf	___fladd@a+2
  5114  024A  3000               	movlw	0
  5115  024B  00DE               	movwf	___fladd@a+1
  5116  024C  3000               	movlw	0
  5117  024D  00DD               	movwf	___fladd@a
  5118  024E                     l705:
  5119  024E  086B               	movf	___fladd@bexp,w
  5120  024F  026A               	subwf	___fladd@aexp,w
  5121  0250  1803               	skipnc
  5122  0251  2A53               	goto	u2251
  5123  0252  2A54               	goto	u2250
  5124  0253                     u2251:
  5125  0253  2A98               	goto	l2232
  5126  0254                     u2250:
  5127  0254                     l2198:
  5128  0254  1F69               	btfss	___fladd@signs,6
  5129  0255  2A57               	goto	u2261
  5130  0256  2A58               	goto	u2260
  5131  0257                     u2261:
  5132  0257  2A5C               	goto	l2202
  5133  0258                     u2260:
  5134  0258                     l2200:
  5135  0258  3080               	movlw	128
  5136  0259  00E1               	movwf	??___fladd
  5137  025A  0861               	movf	??___fladd,w
  5138  025B  06E9               	xorwf	___fladd@signs,f
  5139  025C                     l2202:
  5140  025C  086B               	movf	___fladd@bexp,w
  5141  025D  00E1               	movwf	??___fladd
  5142  025E  0861               	movf	??___fladd,w
  5143  025F  00EC               	movwf	___fladd@grs
  5144  0260                     l2204:
  5145  0260  086A               	movf	___fladd@aexp,w
  5146  0261  00E1               	movwf	??___fladd
  5147  0262  0861               	movf	??___fladd,w
  5148  0263  00EB               	movwf	___fladd@bexp
  5149  0264                     l2206:
  5150  0264  086C               	movf	___fladd@grs,w
  5151  0265  00E1               	movwf	??___fladd
  5152  0266  0861               	movf	??___fladd,w
  5153  0267  00EA               	movwf	___fladd@aexp
  5154  0268                     l2208:
  5155  0268  0859               	movf	___fladd@b,w
  5156  0269  00E1               	movwf	??___fladd
  5157  026A  0861               	movf	??___fladd,w
  5158  026B  00EC               	movwf	___fladd@grs
  5159  026C                     l2210:
  5160  026C  085D               	movf	___fladd@a,w
  5161  026D  00E1               	movwf	??___fladd
  5162  026E  0861               	movf	??___fladd,w
  5163  026F  00D9               	movwf	___fladd@b
  5164  0270                     l2212:
  5165  0270  086C               	movf	___fladd@grs,w
  5166  0271  00E1               	movwf	??___fladd
  5167  0272  0861               	movf	??___fladd,w
  5168  0273  00DD               	movwf	___fladd@a
  5169  0274                     l2214:
  5170  0274  085A               	movf	___fladd@b+1,w
  5171  0275  00E1               	movwf	??___fladd
  5172  0276  0861               	movf	??___fladd,w
  5173  0277  00EC               	movwf	___fladd@grs
  5174  0278                     l2216:
  5175  0278  085E               	movf	___fladd@a+1,w
  5176  0279  00E1               	movwf	??___fladd
  5177  027A  0861               	movf	??___fladd,w
  5178  027B  00DA               	movwf	___fladd@b+1
  5179  027C                     l2218:
  5180  027C  086C               	movf	___fladd@grs,w
  5181  027D  00E1               	movwf	??___fladd
  5182  027E  0861               	movf	??___fladd,w
  5183  027F  00DE               	movwf	___fladd@a+1
  5184  0280                     l2220:
  5185  0280  085B               	movf	___fladd@b+2,w
  5186  0281  00E1               	movwf	??___fladd
  5187  0282  0861               	movf	??___fladd,w
  5188  0283  00EC               	movwf	___fladd@grs
  5189  0284                     l2222:
  5190  0284  085F               	movf	___fladd@a+2,w
  5191  0285  00E1               	movwf	??___fladd
  5192  0286  0861               	movf	??___fladd,w
  5193  0287  00DB               	movwf	___fladd@b+2
  5194  0288                     l2224:
  5195  0288  086C               	movf	___fladd@grs,w
  5196  0289  00E1               	movwf	??___fladd
  5197  028A  0861               	movf	??___fladd,w
  5198  028B  00DF               	movwf	___fladd@a+2
  5199  028C                     l2226:
  5200  028C  085C               	movf	___fladd@b+3,w
  5201  028D  00E1               	movwf	??___fladd
  5202  028E  0861               	movf	??___fladd,w
  5203  028F  00EC               	movwf	___fladd@grs
  5204  0290                     l2228:
  5205  0290  0860               	movf	___fladd@a+3,w
  5206  0291  00E1               	movwf	??___fladd
  5207  0292  0861               	movf	??___fladd,w
  5208  0293  00DC               	movwf	___fladd@b+3
  5209  0294                     l2230:
  5210  0294  086C               	movf	___fladd@grs,w
  5211  0295  00E1               	movwf	??___fladd
  5212  0296  0861               	movf	??___fladd,w
  5213  0297  00E0               	movwf	___fladd@a+3
  5214  0298                     l2232:
  5215  0298  01EC               	clrf	___fladd@grs
  5216  0299                     l2234:
  5217  0299  086A               	movf	___fladd@aexp,w
  5218  029A  00E1               	movwf	??___fladd
  5219  029B  01E2               	clrf	??___fladd+1
  5220  029C  0862               	movf	??___fladd+1,w
  5221  029D  00E4               	movwf	??___fladd+3
  5222  029E  086B               	movf	___fladd@bexp,w
  5223  029F  0261               	subwf	??___fladd,w
  5224  02A0  00E3               	movwf	??___fladd+2
  5225  02A1  1C03               	skipc
  5226  02A2  03E4               	decf	??___fladd+3,f
  5227  02A3  0864               	movf	??___fladd+3,w
  5228  02A4  3A80               	xorlw	128
  5229  02A5  00FF               	movwf	btemp+1
  5230  02A6  3080               	movlw	128
  5231  02A7  027F               	subwf	btemp+1,w
  5232  02A8  1D03               	skipz
  5233  02A9  2AAC               	goto	u2275
  5234  02AA  301A               	movlw	26
  5235  02AB  0263               	subwf	??___fladd+2,w
  5236  02AC                     u2275:
  5237  02AC  1C03               	skipc
  5238  02AD  2AAF               	goto	u2271
  5239  02AE  2AB0               	goto	u2270
  5240  02AF                     u2271:
  5241  02AF  2AED               	goto	l2250
  5242  02B0                     u2270:
  5243  02B0                     l2236:
  5244  02B0  1283               	bcf	3,5	;RP0=0, select bank0
  5245  02B1  1303               	bcf	3,6	;RP1=0, select bank0
  5246  02B2  085C               	movf	___fladd@b+3,w
  5247  02B3  045B               	iorwf	___fladd@b+2,w
  5248  02B4  045A               	iorwf	___fladd@b+1,w
  5249  02B5  0459               	iorwf	___fladd@b,w
  5250  02B6  1D03               	skipz
  5251  02B7  2AB9               	goto	u2281
  5252  02B8  2ABB               	goto	u2280
  5253  02B9                     u2281:
  5254  02B9  3001               	movlw	1
  5255  02BA  2ABC               	goto	u2290
  5256  02BB                     u2280:
  5257  02BB  3000               	movlw	0
  5258  02BC                     u2290:
  5259  02BC  00E1               	movwf	??___fladd
  5260  02BD  0861               	movf	??___fladd,w
  5261  02BE  00EC               	movwf	___fladd@grs
  5262  02BF  3000               	movlw	0
  5263  02C0  00DC               	movwf	___fladd@b+3
  5264  02C1  3000               	movlw	0
  5265  02C2  00DB               	movwf	___fladd@b+2
  5266  02C3  3000               	movlw	0
  5267  02C4  00DA               	movwf	___fladd@b+1
  5268  02C5  3000               	movlw	0
  5269  02C6  00D9               	movwf	___fladd@b
  5270  02C7  086A               	movf	___fladd@aexp,w
  5271  02C8  00E1               	movwf	??___fladd
  5272  02C9  0861               	movf	??___fladd,w
  5273  02CA  00EB               	movwf	___fladd@bexp
  5274  02CB  2AF5               	goto	l709
  5275  02CC                     l711:
  5276  02CC  1C6C               	btfss	___fladd@grs,0
  5277  02CD  2ACF               	goto	u2301
  5278  02CE  2AD0               	goto	u2300
  5279  02CF                     u2301:
  5280  02CF  2AD9               	goto	l2240
  5281  02D0                     u2300:
  5282  02D0                     l2238:
  5283  02D0  086C               	movf	___fladd@grs,w
  5284  02D1  00E1               	movwf	??___fladd
  5285  02D2  1003               	clrc
  5286  02D3  0C61               	rrf	??___fladd,w
  5287  02D4  3801               	iorlw	1
  5288  02D5  00E2               	movwf	??___fladd+1
  5289  02D6  0862               	movf	??___fladd+1,w
  5290  02D7  00EC               	movwf	___fladd@grs
  5291  02D8  2ADB               	goto	l2242
  5292  02D9                     l2240:
  5293  02D9  1003               	clrc
  5294  02DA  0CEC               	rrf	___fladd@grs,f
  5295  02DB                     l2242:
  5296  02DB  1C59               	btfss	___fladd@b,0
  5297  02DC  2ADE               	goto	u2311
  5298  02DD  2ADF               	goto	u2310
  5299  02DE                     u2311:
  5300  02DE  2AE0               	goto	l2246
  5301  02DF                     u2310:
  5302  02DF                     l2244:
  5303  02DF  17EC               	bsf	___fladd@grs,7
  5304  02E0                     l2246:
  5305  02E0  3001               	movlw	1
  5306  02E1  00E1               	movwf	??___fladd
  5307  02E2                     u2325:
  5308  02E2  0D5C               	rlf	___fladd@b+3,w
  5309  02E3  0CDC               	rrf	___fladd@b+3,f
  5310  02E4  0CDB               	rrf	___fladd@b+2,f
  5311  02E5  0CDA               	rrf	___fladd@b+1,f
  5312  02E6  0CD9               	rrf	___fladd@b,f
  5313  02E7  0BE1               	decfsz	??___fladd& (0+127),f
  5314  02E8  2AE2               	goto	u2325
  5315  02E9                     l2248:
  5316  02E9  3001               	movlw	1
  5317  02EA  00E1               	movwf	??___fladd
  5318  02EB  0861               	movf	??___fladd,w
  5319  02EC  07EB               	addwf	___fladd@bexp,f
  5320  02ED                     l2250:
  5321  02ED  1283               	bcf	3,5	;RP0=0, select bank0
  5322  02EE  1303               	bcf	3,6	;RP1=0, select bank0
  5323  02EF  086A               	movf	___fladd@aexp,w
  5324  02F0  026B               	subwf	___fladd@bexp,w
  5325  02F1  1C03               	skipc
  5326  02F2  2AF4               	goto	u2331
  5327  02F3  2AF5               	goto	u2330
  5328  02F4                     u2331:
  5329  02F4  2ACC               	goto	l711
  5330  02F5                     u2330:
  5331  02F5                     l709:
  5332  02F5  1B69               	btfsc	___fladd@signs,6
  5333  02F6  2AF8               	goto	u2341
  5334  02F7  2AF9               	goto	u2340
  5335  02F8                     u2341:
  5336  02F8  2B44               	goto	l2276
  5337  02F9                     u2340:
  5338  02F9                     l2252:
  5339  02F9  086B               	movf	___fladd@bexp,w
  5340  02FA  1D03               	btfss	3,2
  5341  02FB  2AFD               	goto	u2351
  5342  02FC  2AFE               	goto	u2350
  5343  02FD                     u2351:
  5344  02FD  2B07               	goto	l2258
  5345  02FE                     u2350:
  5346  02FE                     l2254:
  5347  02FE  3000               	movlw	0
  5348  02FF  00DC               	movwf	?___fladd+3
  5349  0300  3000               	movlw	0
  5350  0301  00DB               	movwf	?___fladd+2
  5351  0302  3000               	movlw	0
  5352  0303  00DA               	movwf	?___fladd+1
  5353  0304  3000               	movlw	0
  5354  0305  00D9               	movwf	?___fladd
  5355  0306  2C72               	goto	l718
  5356  0307                     l2258:
  5357  0307  085D               	movf	___fladd@a,w
  5358  0308  07D9               	addwf	___fladd@b,f
  5359  0309  085E               	movf	___fladd@a+1,w
  5360  030A  1103               	clrz
  5361  030B  1803               	skipnc
  5362  030C  3E01               	addlw	1
  5363  030D  1903               	skipnz
  5364  030E  2B10               	goto	u2361
  5365  030F  07DA               	addwf	___fladd@b+1,f
  5366  0310                     u2361:
  5367  0310  085F               	movf	___fladd@a+2,w
  5368  0311  1103               	clrz
  5369  0312  1803               	skipnc
  5370  0313  3E01               	addlw	1
  5371  0314  1903               	skipnz
  5372  0315  2B17               	goto	u2362
  5373  0316  07DB               	addwf	___fladd@b+2,f
  5374  0317                     u2362:
  5375  0317  0860               	movf	___fladd@a+3,w
  5376  0318  1103               	clrz
  5377  0319  1803               	skipnc
  5378  031A  3E01               	addlw	1
  5379  031B  1903               	skipnz
  5380  031C  2B1E               	goto	u2363
  5381  031D  07DC               	addwf	___fladd@b+3,f
  5382  031E                     u2363:
  5383  031E                     l2260:
  5384  031E  1C5C               	btfss	___fladd@b+3,0
  5385  031F  2B21               	goto	u2371
  5386  0320  2B22               	goto	u2370
  5387  0321                     u2371:
  5388  0321  2BF8               	goto	l2310
  5389  0322                     u2370:
  5390  0322                     l2262:
  5391  0322  1C6C               	btfss	___fladd@grs,0
  5392  0323  2B25               	goto	u2381
  5393  0324  2B26               	goto	u2380
  5394  0325                     u2381:
  5395  0325  2B2F               	goto	l2266
  5396  0326                     u2380:
  5397  0326                     l2264:
  5398  0326  086C               	movf	___fladd@grs,w
  5399  0327  00E1               	movwf	??___fladd
  5400  0328  1003               	clrc
  5401  0329  0C61               	rrf	??___fladd,w
  5402  032A  3801               	iorlw	1
  5403  032B  00E2               	movwf	??___fladd+1
  5404  032C  0862               	movf	??___fladd+1,w
  5405  032D  00EC               	movwf	___fladd@grs
  5406  032E  2B31               	goto	l2268
  5407  032F                     l2266:
  5408  032F  1003               	clrc
  5409  0330  0CEC               	rrf	___fladd@grs,f
  5410  0331                     l2268:
  5411  0331  1C59               	btfss	___fladd@b,0
  5412  0332  2B34               	goto	u2391
  5413  0333  2B35               	goto	u2390
  5414  0334                     u2391:
  5415  0334  2B36               	goto	l2272
  5416  0335                     u2390:
  5417  0335                     l2270:
  5418  0335  17EC               	bsf	___fladd@grs,7
  5419  0336                     l2272:
  5420  0336  3001               	movlw	1
  5421  0337  00E1               	movwf	??___fladd
  5422  0338                     u2405:
  5423  0338  0D5C               	rlf	___fladd@b+3,w
  5424  0339  0CDC               	rrf	___fladd@b+3,f
  5425  033A  0CDB               	rrf	___fladd@b+2,f
  5426  033B  0CDA               	rrf	___fladd@b+1,f
  5427  033C  0CD9               	rrf	___fladd@b,f
  5428  033D  0BE1               	decfsz	??___fladd& (0+127),f
  5429  033E  2B38               	goto	u2405
  5430  033F                     l2274:
  5431  033F  3001               	movlw	1
  5432  0340  00E1               	movwf	??___fladd
  5433  0341  0861               	movf	??___fladd,w
  5434  0342  07EB               	addwf	___fladd@bexp,f
  5435  0343  2BF8               	goto	l2310
  5436  0344                     l2276:
  5437  0344  085C               	movf	___fladd@b+3,w
  5438  0345  3A80               	xorlw	128
  5439  0346  00FF               	movwf	btemp+1
  5440  0347  0860               	movf	___fladd@a+3,w
  5441  0348  3A80               	xorlw	128
  5442  0349  027F               	subwf	btemp+1,w
  5443  034A  1D03               	skipz
  5444  034B  2B56               	goto	u2413
  5445  034C  085F               	movf	___fladd@a+2,w
  5446  034D  025B               	subwf	___fladd@b+2,w
  5447  034E  1D03               	skipz
  5448  034F  2B56               	goto	u2413
  5449  0350  085E               	movf	___fladd@a+1,w
  5450  0351  025A               	subwf	___fladd@b+1,w
  5451  0352  1D03               	skipz
  5452  0353  2B56               	goto	u2413
  5453  0354  085D               	movf	___fladd@a,w
  5454  0355  0259               	subwf	___fladd@b,w
  5455  0356                     u2413:
  5456  0356  1803               	skipnc
  5457  0357  2B59               	goto	u2411
  5458  0358  2B5A               	goto	u2410
  5459  0359                     u2411:
  5460  0359  2BB2               	goto	l2286
  5461  035A                     u2410:
  5462  035A                     l2278:
  5463  035A  30FF               	movlw	255
  5464  035B  00E1               	movwf	??___fladd
  5465  035C  30FF               	movlw	255
  5466  035D  00E2               	movwf	??___fladd+1
  5467  035E  30FF               	movlw	255
  5468  035F  00E3               	movwf	??___fladd+2
  5469  0360  30FF               	movlw	255
  5470  0361  00E4               	movwf	??___fladd+3
  5471  0362  085D               	movf	___fladd@a,w
  5472  0363  00E5               	movwf	??___fladd+4
  5473  0364  085E               	movf	___fladd@a+1,w
  5474  0365  00E6               	movwf	??___fladd+5
  5475  0366  085F               	movf	___fladd@a+2,w
  5476  0367  00E7               	movwf	??___fladd+6
  5477  0368  0860               	movf	___fladd@a+3,w
  5478  0369  00E8               	movwf	??___fladd+7
  5479  036A  0859               	movf	___fladd@b,w
  5480  036B  02E5               	subwf	??___fladd+4,f
  5481  036C  085A               	movf	___fladd@b+1,w
  5482  036D  1C03               	skipc
  5483  036E  0F5A               	incfsz	___fladd@b+1,w
  5484  036F  2B71               	goto	u2421
  5485  0370  2B72               	goto	u2422
  5486  0371                     u2421:
  5487  0371  02E6               	subwf	??___fladd+5,f
  5488  0372                     u2422:
  5489  0372  085B               	movf	___fladd@b+2,w
  5490  0373  1C03               	skipc
  5491  0374  0F5B               	incfsz	___fladd@b+2,w
  5492  0375  2B77               	goto	u2423
  5493  0376  2B78               	goto	u2424
  5494  0377                     u2423:
  5495  0377  02E7               	subwf	??___fladd+6,f
  5496  0378                     u2424:
  5497  0378  085C               	movf	___fladd@b+3,w
  5498  0379  1C03               	skipc
  5499  037A  0F5C               	incfsz	___fladd@b+3,w
  5500  037B  2B7D               	goto	u2425
  5501  037C  2B7E               	goto	u2426
  5502  037D                     u2425:
  5503  037D  02E8               	subwf	??___fladd+7,f
  5504  037E                     u2426:
  5505  037E  0865               	movf	??___fladd+4,w
  5506  037F  07E1               	addwf	??___fladd,f
  5507  0380  0866               	movf	??___fladd+5,w
  5508  0381  1803               	skipnc
  5509  0382  0F66               	incfsz	??___fladd+5,w
  5510  0383  2B85               	goto	u2430
  5511  0384  2B86               	goto	u2431
  5512  0385                     u2430:
  5513  0385  07E2               	addwf	??___fladd+1,f
  5514  0386                     u2431:
  5515  0386  0867               	movf	??___fladd+6,w
  5516  0387  1803               	skipnc
  5517  0388  0F67               	incfsz	??___fladd+6,w
  5518  0389  2B8B               	goto	u2432
  5519  038A  2B8C               	goto	u2433
  5520  038B                     u2432:
  5521  038B  07E3               	addwf	??___fladd+2,f
  5522  038C                     u2433:
  5523  038C  0868               	movf	??___fladd+7,w
  5524  038D  1803               	skipnc
  5525  038E  0A68               	incf	??___fladd+7,w
  5526  038F  07E4               	addwf	??___fladd+3,f
  5527  0390  0864               	movf	??___fladd+3,w
  5528  0391  00DC               	movwf	___fladd@b+3
  5529  0392  0863               	movf	??___fladd+2,w
  5530  0393  00DB               	movwf	___fladd@b+2
  5531  0394  0862               	movf	??___fladd+1,w
  5532  0395  00DA               	movwf	___fladd@b+1
  5533  0396  0861               	movf	??___fladd,w
  5534  0397  00D9               	movwf	___fladd@b
  5535  0398                     l2280:
  5536  0398  3080               	movlw	128
  5537  0399  00E1               	movwf	??___fladd
  5538  039A  0861               	movf	??___fladd,w
  5539  039B  06E9               	xorwf	___fladd@signs,f
  5540  039C  09EC               	comf	___fladd@grs,f
  5541  039D  0AEC               	incf	___fladd@grs,f
  5542  039E                     l2282:
  5543  039E  086C               	movf	___fladd@grs,w
  5544  039F  1D03               	btfss	3,2
  5545  03A0  2BA2               	goto	u2441
  5546  03A1  2BA3               	goto	u2440
  5547  03A2                     u2441:
  5548  03A2  2BC0               	goto	l726
  5549  03A3                     u2440:
  5550  03A3                     l2284:
  5551  03A3  3001               	movlw	1
  5552  03A4  07D9               	addwf	___fladd@b,f
  5553  03A5  3000               	movlw	0
  5554  03A6  1803               	skipnc
  5555  03A7  3001               	movlw	1
  5556  03A8  07DA               	addwf	___fladd@b+1,f
  5557  03A9  3000               	movlw	0
  5558  03AA  1803               	skipnc
  5559  03AB  3001               	movlw	1
  5560  03AC  07DB               	addwf	___fladd@b+2,f
  5561  03AD  3000               	movlw	0
  5562  03AE  1803               	skipnc
  5563  03AF  3001               	movlw	1
  5564  03B0  07DC               	addwf	___fladd@b+3,f
  5565  03B1  2BC0               	goto	l726
  5566  03B2                     l2286:
  5567  03B2  085D               	movf	___fladd@a,w
  5568  03B3  02D9               	subwf	___fladd@b,f
  5569  03B4  085E               	movf	___fladd@a+1,w
  5570  03B5  1C03               	skipc
  5571  03B6  0F5E               	incfsz	___fladd@a+1,w
  5572  03B7  02DA               	subwf	___fladd@b+1,f
  5573  03B8  085F               	movf	___fladd@a+2,w
  5574  03B9  1C03               	skipc
  5575  03BA  0F5F               	incfsz	___fladd@a+2,w
  5576  03BB  02DB               	subwf	___fladd@b+2,f
  5577  03BC  0860               	movf	___fladd@a+3,w
  5578  03BD  1C03               	skipc
  5579  03BE  0F60               	incfsz	___fladd@a+3,w
  5580  03BF  02DC               	subwf	___fladd@b+3,f
  5581  03C0                     l726:
  5582  03C0  085C               	movf	___fladd@b+3,w
  5583  03C1  045B               	iorwf	___fladd@b+2,w
  5584  03C2  045A               	iorwf	___fladd@b+1,w
  5585  03C3  0459               	iorwf	___fladd@b,w
  5586  03C4  1D03               	skipz
  5587  03C5  2BC7               	goto	u2451
  5588  03C6  2BC8               	goto	u2450
  5589  03C7                     u2451:
  5590  03C7  2BF4               	goto	l2308
  5591  03C8                     u2450:
  5592  03C8                     l2288:
  5593  03C8  086C               	movf	___fladd@grs,w
  5594  03C9  1D03               	btfss	3,2
  5595  03CA  2BCC               	goto	u2461
  5596  03CB  2BCD               	goto	u2460
  5597  03CC                     u2461:
  5598  03CC  2BF4               	goto	l2308
  5599  03CD                     u2460:
  5600  03CD                     l2290:
  5601  03CD  3000               	movlw	0
  5602  03CE  00DC               	movwf	?___fladd+3
  5603  03CF  3000               	movlw	0
  5604  03D0  00DB               	movwf	?___fladd+2
  5605  03D1  3000               	movlw	0
  5606  03D2  00DA               	movwf	?___fladd+1
  5607  03D3  3000               	movlw	0
  5608  03D4  00D9               	movwf	?___fladd
  5609  03D5  2C72               	goto	l718
  5610  03D6                     l2294:
  5611  03D6  3001               	movlw	1
  5612  03D7  00E1               	movwf	??___fladd
  5613  03D8                     u2475:
  5614  03D8  1003               	clrc
  5615  03D9  0DD9               	rlf	___fladd@b,f
  5616  03DA  0DDA               	rlf	___fladd@b+1,f
  5617  03DB  0DDB               	rlf	___fladd@b+2,f
  5618  03DC  0DDC               	rlf	___fladd@b+3,f
  5619  03DD  0BE1               	decfsz	??___fladd,f
  5620  03DE  2BD8               	goto	u2475
  5621  03DF                     l2296:
  5622  03DF  1FEC               	btfss	___fladd@grs,7
  5623  03E0  2BE2               	goto	u2481
  5624  03E1  2BE3               	goto	u2480
  5625  03E2                     u2481:
  5626  03E2  2BE4               	goto	l730
  5627  03E3                     u2480:
  5628  03E3                     l2298:
  5629  03E3  1459               	bsf	___fladd@b,0
  5630  03E4                     l730:
  5631  03E4  1C6C               	btfss	___fladd@grs,0
  5632  03E5  2BE7               	goto	u2491
  5633  03E6  2BE8               	goto	u2490
  5634  03E7                     u2491:
  5635  03E7  2BEB               	goto	l2302
  5636  03E8                     u2490:
  5637  03E8                     l2300:
  5638  03E8  1403               	setc
  5639  03E9  0DEC               	rlf	___fladd@grs,f
  5640  03EA  2BED               	goto	l2304
  5641  03EB                     l2302:
  5642  03EB  1003               	clrc
  5643  03EC  0DEC               	rlf	___fladd@grs,f
  5644  03ED                     l2304:
  5645  03ED  086B               	movf	___fladd@bexp,w
  5646  03EE  1903               	btfsc	3,2
  5647  03EF  2BF1               	goto	u2501
  5648  03F0  2BF2               	goto	u2500
  5649  03F1                     u2501:
  5650  03F1  2BF4               	goto	l2308
  5651  03F2                     u2500:
  5652  03F2                     l2306:
  5653  03F2  3001               	movlw	1
  5654  03F3  02EB               	subwf	___fladd@bexp,f
  5655  03F4                     l2308:
  5656  03F4  1FDB               	btfss	___fladd@b+2,7
  5657  03F5  2BF7               	goto	u2511
  5658  03F6  2BF8               	goto	u2510
  5659  03F7                     u2511:
  5660  03F7  2BD6               	goto	l2294
  5661  03F8                     u2510:
  5662  03F8                     l2310:
  5663  03F8  01EA               	clrf	___fladd@aexp
  5664  03F9                     l2312:
  5665  03F9  1FEC               	btfss	___fladd@grs,7
  5666  03FA  2BFC               	goto	u2521
  5667  03FB  2BFD               	goto	u2520
  5668  03FC                     u2521:
  5669  03FC  2C0B               	goto	l2320
  5670  03FD                     u2520:
  5671  03FD                     l2314:
  5672  03FD  086C               	movf	___fladd@grs,w
  5673  03FE  397F               	andlw	127
  5674  03FF  1903               	btfsc	3,2
  5675  0400  2C02               	goto	u2531
  5676  0401  2C03               	goto	u2530
  5677  0402                     u2531:
  5678  0402  2C06               	goto	l736
  5679  0403                     u2530:
  5680  0403                     l2316:
  5681  0403  01EA               	clrf	___fladd@aexp
  5682  0404  0AEA               	incf	___fladd@aexp,f
  5683  0405  2C0B               	goto	l2320
  5684  0406                     l736:
  5685  0406  1C59               	btfss	___fladd@b,0
  5686  0407  2C09               	goto	u2541
  5687  0408  2C0A               	goto	u2540
  5688  0409                     u2541:
  5689  0409  2C0B               	goto	l2320
  5690  040A                     u2540:
  5691  040A  2C03               	goto	l2316
  5692  040B                     l2320:
  5693  040B  086A               	movf	___fladd@aexp,w
  5694  040C  1903               	btfsc	3,2
  5695  040D  2C0F               	goto	u2551
  5696  040E  2C10               	goto	u2550
  5697  040F                     u2551:
  5698  040F  2C44               	goto	l739
  5699  0410                     u2550:
  5700  0410                     l2322:
  5701  0410  3001               	movlw	1
  5702  0411  07D9               	addwf	___fladd@b,f
  5703  0412  3000               	movlw	0
  5704  0413  1803               	skipnc
  5705  0414  3001               	movlw	1
  5706  0415  07DA               	addwf	___fladd@b+1,f
  5707  0416  3000               	movlw	0
  5708  0417  1803               	skipnc
  5709  0418  3001               	movlw	1
  5710  0419  07DB               	addwf	___fladd@b+2,f
  5711  041A  3000               	movlw	0
  5712  041B  1803               	skipnc
  5713  041C  3001               	movlw	1
  5714  041D  07DC               	addwf	___fladd@b+3,f
  5715  041E                     l2324:
  5716  041E  1C5C               	btfss	___fladd@b+3,0
  5717  041F  2C21               	goto	u2561
  5718  0420  2C22               	goto	u2560
  5719  0421                     u2561:
  5720  0421  2C44               	goto	l739
  5721  0422                     u2560:
  5722  0422                     l2326:
  5723  0422  0859               	movf	___fladd@b,w
  5724  0423  00E1               	movwf	??___fladd
  5725  0424  085A               	movf	___fladd@b+1,w
  5726  0425  00E2               	movwf	??___fladd+1
  5727  0426  085B               	movf	___fladd@b+2,w
  5728  0427  00E3               	movwf	??___fladd+2
  5729  0428  085C               	movf	___fladd@b+3,w
  5730  0429  00E4               	movwf	??___fladd+3
  5731  042A  3001               	movlw	1
  5732  042B  00E5               	movwf	??___fladd+4
  5733  042C                     u2575:
  5734  042C  0D64               	rlf	??___fladd+3,w
  5735  042D  0CE4               	rrf	??___fladd+3,f
  5736  042E  0CE3               	rrf	??___fladd+2,f
  5737  042F  0CE2               	rrf	??___fladd+1,f
  5738  0430  0CE1               	rrf	??___fladd,f
  5739  0431                     u2570:
  5740  0431  0BE5               	decfsz	??___fladd+4,f
  5741  0432  2C2C               	goto	u2575
  5742  0433  0864               	movf	??___fladd+3,w
  5743  0434  00DC               	movwf	___fladd@b+3
  5744  0435  0863               	movf	??___fladd+2,w
  5745  0436  00DB               	movwf	___fladd@b+2
  5746  0437  0862               	movf	??___fladd+1,w
  5747  0438  00DA               	movwf	___fladd@b+1
  5748  0439  0861               	movf	??___fladd,w
  5749  043A  00D9               	movwf	___fladd@b
  5750  043B  0A6B               	incf	___fladd@bexp,w
  5751  043C  1903               	btfsc	3,2
  5752  043D  2C3F               	goto	u2581
  5753  043E  2C40               	goto	u2580
  5754  043F                     u2581:
  5755  043F  2C44               	goto	l739
  5756  0440                     u2580:
  5757  0440                     l2328:
  5758  0440  3001               	movlw	1
  5759  0441  00E1               	movwf	??___fladd
  5760  0442  0861               	movf	??___fladd,w
  5761  0443  07EB               	addwf	___fladd@bexp,f
  5762  0444                     l739:
  5763  0444  0A6B               	incf	___fladd@bexp,w
  5764  0445  1903               	btfsc	3,2
  5765  0446  2C48               	goto	u2591
  5766  0447  2C49               	goto	u2590
  5767  0448                     u2591:
  5768  0448  2C4E               	goto	l2332
  5769  0449                     u2590:
  5770  0449                     l2330:
  5771  0449  086B               	movf	___fladd@bexp,w
  5772  044A  1D03               	btfss	3,2
  5773  044B  2C4D               	goto	u2601
  5774  044C  2C4E               	goto	u2600
  5775  044D                     u2601:
  5776  044D  2C5C               	goto	l2338
  5777  044E                     u2600:
  5778  044E                     l2332:
  5779  044E  3000               	movlw	0
  5780  044F  00DC               	movwf	___fladd@b+3
  5781  0450  3000               	movlw	0
  5782  0451  00DB               	movwf	___fladd@b+2
  5783  0452  3000               	movlw	0
  5784  0453  00DA               	movwf	___fladd@b+1
  5785  0454  3000               	movlw	0
  5786  0455  00D9               	movwf	___fladd@b
  5787  0456                     l2334:
  5788  0456  086B               	movf	___fladd@bexp,w
  5789  0457  1D03               	btfss	3,2
  5790  0458  2C5A               	goto	u2611
  5791  0459  2C5B               	goto	u2610
  5792  045A                     u2611:
  5793  045A  2C5C               	goto	l2338
  5794  045B                     u2610:
  5795  045B                     l2336:
  5796  045B  01E9               	clrf	___fladd@signs
  5797  045C                     l2338:
  5798  045C  1C6B               	btfss	___fladd@bexp,0
  5799  045D  2C5F               	goto	u2621
  5800  045E  2C60               	goto	u2620
  5801  045F                     u2621:
  5802  045F  2C62               	goto	l2342
  5803  0460                     u2620:
  5804  0460                     l2340:
  5805  0460  17DB               	bsf	___fladd@b+2,7
  5806  0461  2C66               	goto	l747
  5807  0462                     l2342:
  5808  0462  307F               	movlw	127
  5809  0463  00E1               	movwf	??___fladd
  5810  0464  0861               	movf	??___fladd,w
  5811  0465  05DB               	andwf	___fladd@b+2,f
  5812  0466                     l747:
  5813  0466  086B               	movf	___fladd@bexp,w
  5814  0467  00E1               	movwf	??___fladd
  5815  0468  1003               	clrc
  5816  0469  0C61               	rrf	??___fladd,w
  5817  046A  00E2               	movwf	??___fladd+1
  5818  046B  0862               	movf	??___fladd+1,w
  5819  046C  00DC               	movwf	___fladd@b+3
  5820  046D                     l2344:
  5821  046D  1FE9               	btfss	___fladd@signs,7
  5822  046E  2C70               	goto	u2631
  5823  046F  2C71               	goto	u2630
  5824  0470                     u2631:
  5825  0470  2C72               	goto	l748
  5826  0471                     u2630:
  5827  0471                     l2346:
  5828  0471  17DC               	bsf	___fladd@b+3,7
  5829  0472                     l748:
  5830  0472                     l718:
  5831  0472  0008               	return
  5832  0473                     __end_of___fladd:
  5833                           
  5834                           	psect	text14
  5835  0A0F                     __ptext14:	
  5836 ;; *************** function ___xxtofl *****************
  5837 ;; Defined at:
  5838 ;;		line 10 in file "C:\Program Files\Microchip\xc8\v2.36\pic\sources\c90\common\xxtofl.c"
  5839 ;; Parameters:    Size  Location     Type
  5840 ;;  sign            1    wreg     unsigned char 
  5841 ;;  val             4    0[COMMON] long 
  5842 ;; Auto vars:     Size  Location     Type
  5843 ;;  sign            1    8[COMMON] unsigned char 
  5844 ;;  arg             4   10[COMMON] unsigned long 
  5845 ;;  exp             1    9[COMMON] unsigned char 
  5846 ;; Return value:  Size  Location     Type
  5847 ;;                  4    0[COMMON] unsigned char 
  5848 ;; Registers used:
  5849 ;;		wreg, status,2, status,0
  5850 ;; Tracked objects:
  5851 ;;		On entry : 0/0
  5852 ;;		On exit  : 0/0
  5853 ;;		Unchanged: 0/0
  5854 ;; Data sizes:     COMMON   BANK0   BANK1   BANK3   BANK2
  5855 ;;      Params:         4       0       0       0       0
  5856 ;;      Locals:         6       0       0       0       0
  5857 ;;      Temps:          4       0       0       0       0
  5858 ;;      Totals:        14       0       0       0       0
  5859 ;;Total ram usage:       14 bytes
  5860 ;; Hardware stack levels used: 1
  5861 ;; This function calls:
  5862 ;;		Nothing
  5863 ;; This function is called by:
  5864 ;;		_main
  5865 ;;		_log
  5866 ;; This function uses a non-reentrant model
  5867 ;;
  5868                           
  5869  0A0F                     ___xxtofl:	
  5870                           ;psect for function ___xxtofl
  5871                           
  5872                           
  5873                           ;incstack = 0
  5874                           ; Regs used in ___xxtofl: [wreg+status,2+status,0]
  5875                           ;___xxtofl@sign stored from wreg
  5876  0A0F  00F8               	movwf	___xxtofl@sign
  5877  0A10                     l2584:
  5878  0A10  0878               	movf	___xxtofl@sign,w
  5879  0A11  1903               	btfsc	3,2
  5880  0A12  2A14               	goto	u3231
  5881  0A13  2A15               	goto	u3230
  5882  0A14                     u3231:
  5883  0A14  2A29               	goto	l2590
  5884  0A15                     u3230:
  5885  0A15                     l2586:
  5886  0A15  1FF3               	btfss	___xxtofl@val+3,7
  5887  0A16  2A18               	goto	u3241
  5888  0A17  2A19               	goto	u3240
  5889  0A18                     u3241:
  5890  0A18  2A29               	goto	l2590
  5891  0A19                     u3240:
  5892  0A19                     l2588:
  5893  0A19  0970               	comf	___xxtofl@val,w
  5894  0A1A  00FA               	movwf	___xxtofl@arg
  5895  0A1B  0971               	comf	___xxtofl@val+1,w
  5896  0A1C  00FB               	movwf	___xxtofl@arg+1
  5897  0A1D  0972               	comf	___xxtofl@val+2,w
  5898  0A1E  00FC               	movwf	___xxtofl@arg+2
  5899  0A1F  0973               	comf	___xxtofl@val+3,w
  5900  0A20  00FD               	movwf	___xxtofl@arg+3
  5901  0A21  0AFA               	incf	___xxtofl@arg,f
  5902  0A22  1903               	skipnz
  5903  0A23  0AFB               	incf	___xxtofl@arg+1,f
  5904  0A24  1903               	skipnz
  5905  0A25  0AFC               	incf	___xxtofl@arg+2,f
  5906  0A26  1903               	skipnz
  5907  0A27  0AFD               	incf	___xxtofl@arg+3,f
  5908  0A28  2A31               	goto	l845
  5909  0A29                     l2590:
  5910  0A29  0873               	movf	___xxtofl@val+3,w
  5911  0A2A  00FD               	movwf	___xxtofl@arg+3
  5912  0A2B  0872               	movf	___xxtofl@val+2,w
  5913  0A2C  00FC               	movwf	___xxtofl@arg+2
  5914  0A2D  0871               	movf	___xxtofl@val+1,w
  5915  0A2E  00FB               	movwf	___xxtofl@arg+1
  5916  0A2F  0870               	movf	___xxtofl@val,w
  5917  0A30  00FA               	movwf	___xxtofl@arg
  5918  0A31                     l845:
  5919  0A31  0873               	movf	___xxtofl@val+3,w
  5920  0A32  0472               	iorwf	___xxtofl@val+2,w
  5921  0A33  0471               	iorwf	___xxtofl@val+1,w
  5922  0A34  0470               	iorwf	___xxtofl@val,w
  5923  0A35  1D03               	skipz
  5924  0A36  2A38               	goto	u3251
  5925  0A37  2A39               	goto	u3250
  5926  0A38                     u3251:
  5927  0A38  2A42               	goto	l2596
  5928  0A39                     u3250:
  5929  0A39                     l2592:
  5930  0A39  3000               	movlw	0
  5931  0A3A  00F3               	movwf	?___xxtofl+3
  5932  0A3B  3000               	movlw	0
  5933  0A3C  00F2               	movwf	?___xxtofl+2
  5934  0A3D  3000               	movlw	0
  5935  0A3E  00F1               	movwf	?___xxtofl+1
  5936  0A3F  3000               	movlw	0
  5937  0A40  00F0               	movwf	?___xxtofl
  5938  0A41  2AC8               	goto	l847
  5939  0A42                     l2596:
  5940  0A42  3096               	movlw	150
  5941  0A43  00F4               	movwf	??___xxtofl
  5942  0A44  0874               	movf	??___xxtofl,w
  5943  0A45  00F9               	movwf	___xxtofl@exp
  5944  0A46  2A54               	goto	l2600
  5945  0A47                     l2598:
  5946  0A47  3001               	movlw	1
  5947  0A48  00F4               	movwf	??___xxtofl
  5948  0A49  0874               	movf	??___xxtofl,w
  5949  0A4A  07F9               	addwf	___xxtofl@exp,f
  5950  0A4B  3001               	movlw	1
  5951  0A4C                     u3265:
  5952  0A4C  1003               	clrc
  5953  0A4D  0CFD               	rrf	___xxtofl@arg+3,f
  5954  0A4E  0CFC               	rrf	___xxtofl@arg+2,f
  5955  0A4F  0CFB               	rrf	___xxtofl@arg+1,f
  5956  0A50  0CFA               	rrf	___xxtofl@arg,f
  5957  0A51  3EFF               	addlw	-1
  5958  0A52  1D03               	skipz
  5959  0A53  2A4C               	goto	u3265
  5960  0A54                     l2600:
  5961  0A54  30FE               	movlw	254
  5962  0A55  057D               	andwf	___xxtofl@arg+3,w
  5963  0A56  1D03               	btfss	3,2
  5964  0A57  2A59               	goto	u3271
  5965  0A58  2A5A               	goto	u3270
  5966  0A59                     u3271:
  5967  0A59  2A47               	goto	l2598
  5968  0A5A                     u3270:
  5969  0A5A  2A76               	goto	l851
  5970  0A5B                     l2602:
  5971  0A5B  3001               	movlw	1
  5972  0A5C  00F4               	movwf	??___xxtofl
  5973  0A5D  0874               	movf	??___xxtofl,w
  5974  0A5E  07F9               	addwf	___xxtofl@exp,f
  5975  0A5F                     l2604:
  5976  0A5F  3001               	movlw	1
  5977  0A60  07FA               	addwf	___xxtofl@arg,f
  5978  0A61  3000               	movlw	0
  5979  0A62  1803               	skipnc
  5980  0A63  3001               	movlw	1
  5981  0A64  07FB               	addwf	___xxtofl@arg+1,f
  5982  0A65  3000               	movlw	0
  5983  0A66  1803               	skipnc
  5984  0A67  3001               	movlw	1
  5985  0A68  07FC               	addwf	___xxtofl@arg+2,f
  5986  0A69  3000               	movlw	0
  5987  0A6A  1803               	skipnc
  5988  0A6B  3001               	movlw	1
  5989  0A6C  07FD               	addwf	___xxtofl@arg+3,f
  5990  0A6D                     l2606:
  5991  0A6D  3001               	movlw	1
  5992  0A6E                     u3285:
  5993  0A6E  1003               	clrc
  5994  0A6F  0CFD               	rrf	___xxtofl@arg+3,f
  5995  0A70  0CFC               	rrf	___xxtofl@arg+2,f
  5996  0A71  0CFB               	rrf	___xxtofl@arg+1,f
  5997  0A72  0CFA               	rrf	___xxtofl@arg,f
  5998  0A73  3EFF               	addlw	-1
  5999  0A74  1D03               	skipz
  6000  0A75  2A6E               	goto	u3285
  6001  0A76                     l851:
  6002  0A76  30FF               	movlw	255
  6003  0A77  057D               	andwf	___xxtofl@arg+3,w
  6004  0A78  1D03               	btfss	3,2
  6005  0A79  2A7B               	goto	u3291
  6006  0A7A  2A7C               	goto	u3290
  6007  0A7B                     u3291:
  6008  0A7B  2A5B               	goto	l2602
  6009  0A7C                     u3290:
  6010  0A7C  2A88               	goto	l2610
  6011  0A7D                     l2608:
  6012  0A7D  3001               	movlw	1
  6013  0A7E  02F9               	subwf	___xxtofl@exp,f
  6014  0A7F  3001               	movlw	1
  6015  0A80  00F4               	movwf	??___xxtofl
  6016  0A81                     u3305:
  6017  0A81  1003               	clrc
  6018  0A82  0DFA               	rlf	___xxtofl@arg,f
  6019  0A83  0DFB               	rlf	___xxtofl@arg+1,f
  6020  0A84  0DFC               	rlf	___xxtofl@arg+2,f
  6021  0A85  0DFD               	rlf	___xxtofl@arg+3,f
  6022  0A86  0BF4               	decfsz	??___xxtofl,f
  6023  0A87  2A81               	goto	u3305
  6024  0A88                     l2610:
  6025  0A88  1BFC               	btfsc	___xxtofl@arg+2,7
  6026  0A89  2A8B               	goto	u3311
  6027  0A8A  2A8C               	goto	u3310
  6028  0A8B                     u3311:
  6029  0A8B  2A92               	goto	l858
  6030  0A8C                     u3310:
  6031  0A8C                     l2612:
  6032  0A8C  3002               	movlw	2
  6033  0A8D  0279               	subwf	___xxtofl@exp,w
  6034  0A8E  1803               	skipnc
  6035  0A8F  2A91               	goto	u3321
  6036  0A90  2A92               	goto	u3320
  6037  0A91                     u3321:
  6038  0A91  2A7D               	goto	l2608
  6039  0A92                     u3320:
  6040  0A92                     l858:
  6041  0A92  1879               	btfsc	___xxtofl@exp,0
  6042  0A93  2A95               	goto	u3331
  6043  0A94  2A96               	goto	u3330
  6044  0A95                     u3331:
  6045  0A95  2A9E               	goto	l859
  6046  0A96                     u3330:
  6047  0A96                     l2614:
  6048  0A96  30FF               	movlw	255
  6049  0A97  05FA               	andwf	___xxtofl@arg,f
  6050  0A98  30FF               	movlw	255
  6051  0A99  05FB               	andwf	___xxtofl@arg+1,f
  6052  0A9A  307F               	movlw	127
  6053  0A9B  05FC               	andwf	___xxtofl@arg+2,f
  6054  0A9C  30FF               	movlw	255
  6055  0A9D  05FD               	andwf	___xxtofl@arg+3,f
  6056  0A9E                     l859:
  6057  0A9E  1003               	clrc
  6058  0A9F  0CF9               	rrf	___xxtofl@exp,f
  6059  0AA0                     l2616:
  6060  0AA0  0879               	movf	___xxtofl@exp,w
  6061  0AA1  00F4               	movwf	??___xxtofl
  6062  0AA2  01F5               	clrf	??___xxtofl+1
  6063  0AA3  01F6               	clrf	??___xxtofl+2
  6064  0AA4  01F7               	clrf	??___xxtofl+3
  6065  0AA5  3018               	movlw	24
  6066  0AA6                     u3345:
  6067  0AA6  1003               	clrc
  6068  0AA7  0DF4               	rlf	??___xxtofl,f
  6069  0AA8  0DF5               	rlf	??___xxtofl+1,f
  6070  0AA9  0DF6               	rlf	??___xxtofl+2,f
  6071  0AAA  0DF7               	rlf	??___xxtofl+3,f
  6072  0AAB                     u3340:
  6073  0AAB  3EFF               	addlw	-1
  6074  0AAC  1D03               	skipz
  6075  0AAD  2AA6               	goto	u3345
  6076  0AAE  0874               	movf	??___xxtofl,w
  6077  0AAF  04FA               	iorwf	___xxtofl@arg,f
  6078  0AB0  0875               	movf	??___xxtofl+1,w
  6079  0AB1  04FB               	iorwf	___xxtofl@arg+1,f
  6080  0AB2  0876               	movf	??___xxtofl+2,w
  6081  0AB3  04FC               	iorwf	___xxtofl@arg+2,f
  6082  0AB4  0877               	movf	??___xxtofl+3,w
  6083  0AB5  04FD               	iorwf	___xxtofl@arg+3,f
  6084  0AB6                     l2618:
  6085  0AB6  0878               	movf	___xxtofl@sign,w
  6086  0AB7  1903               	btfsc	3,2
  6087  0AB8  2ABA               	goto	u3351
  6088  0AB9  2ABB               	goto	u3350
  6089  0ABA                     u3351:
  6090  0ABA  2AC0               	goto	l2624
  6091  0ABB                     u3350:
  6092  0ABB                     l2620:
  6093  0ABB  1FF3               	btfss	___xxtofl@val+3,7
  6094  0ABC  2ABE               	goto	u3361
  6095  0ABD  2ABF               	goto	u3360
  6096  0ABE                     u3361:
  6097  0ABE  2AC0               	goto	l2624
  6098  0ABF                     u3360:
  6099  0ABF                     l2622:
  6100  0ABF  17FD               	bsf	___xxtofl@arg+3,7
  6101  0AC0                     l2624:
  6102  0AC0  087D               	movf	___xxtofl@arg+3,w
  6103  0AC1  00F3               	movwf	?___xxtofl+3
  6104  0AC2  087C               	movf	___xxtofl@arg+2,w
  6105  0AC3  00F2               	movwf	?___xxtofl+2
  6106  0AC4  087B               	movf	___xxtofl@arg+1,w
  6107  0AC5  00F1               	movwf	?___xxtofl+1
  6108  0AC6  087A               	movf	___xxtofl@arg,w
  6109  0AC7  00F0               	movwf	?___xxtofl
  6110  0AC8                     l847:
  6111  0AC8  0008               	return
  6112  0AC9                     __end_of___xxtofl:
  6113                           
  6114                           	psect	text15
  6115  096D                     __ptext15:	
  6116 ;; *************** function ___flge *****************
  6117 ;; Defined at:
  6118 ;;		line 4 in file "C:\Program Files\Microchip\xc8\v2.36\pic\sources\c90\common\flge.c"
  6119 ;; Parameters:    Size  Location     Type
  6120 ;;  ff1             4    0[COMMON] unsigned char 
  6121 ;;  ff2             4    4[COMMON] unsigned char 
  6122 ;; Auto vars:     Size  Location     Type
  6123 ;;		None
  6124 ;; Return value:  Size  Location     Type
  6125 ;;		None               void
  6126 ;; Registers used:
  6127 ;;		wreg, status,2, status,0
  6128 ;; Tracked objects:
  6129 ;;		On entry : 0/0
  6130 ;;		On exit  : 0/0
  6131 ;;		Unchanged: 0/0
  6132 ;; Data sizes:     COMMON   BANK0   BANK1   BANK3   BANK2
  6133 ;;      Params:         8       0       0       0       0
  6134 ;;      Locals:         0       0       0       0       0
  6135 ;;      Temps:          4       0       0       0       0
  6136 ;;      Totals:        12       0       0       0       0
  6137 ;;Total ram usage:       12 bytes
  6138 ;; Hardware stack levels used: 1
  6139 ;; This function calls:
  6140 ;;		Nothing
  6141 ;; This function is called by:
  6142 ;;		_log
  6143 ;; This function uses a non-reentrant model
  6144 ;;
  6145                           
  6146  096D                     ___flge:	
  6147                           ;psect for function ___flge
  6148                           
  6149  096D                     l2516:	
  6150                           ;incstack = 0
  6151                           ; Regs used in ___flge: [wreg+status,2+status,0]
  6152                           
  6153  096D  3000               	movlw	0
  6154  096E  0570               	andwf	___flge@ff1,w
  6155  096F  00F8               	movwf	??___flge
  6156  0970  3000               	movlw	0
  6157  0971  0571               	andwf	___flge@ff1+1,w
  6158  0972  00F9               	movwf	??___flge+1
  6159  0973  3080               	movlw	128
  6160  0974  0572               	andwf	___flge@ff1+2,w
  6161  0975  00FA               	movwf	??___flge+2
  6162  0976  307F               	movlw	127
  6163  0977  0573               	andwf	___flge@ff1+3,w
  6164  0978  00FB               	movwf	??___flge+3
  6165  0979  087B               	movf	??___flge+3,w
  6166  097A  047A               	iorwf	??___flge+2,w
  6167  097B  0479               	iorwf	??___flge+1,w
  6168  097C  0478               	iorwf	??___flge,w
  6169  097D  1D03               	skipz
  6170  097E  2980               	goto	u3031
  6171  097F  2981               	goto	u3030
  6172  0980                     u3031:
  6173  0980  2989               	goto	l586
  6174  0981                     u3030:
  6175  0981                     l2518:
  6176  0981  3000               	movlw	0
  6177  0982  00F3               	movwf	___flge@ff1+3
  6178  0983  3000               	movlw	0
  6179  0984  00F2               	movwf	___flge@ff1+2
  6180  0985  3000               	movlw	0
  6181  0986  00F1               	movwf	___flge@ff1+1
  6182  0987  3000               	movlw	0
  6183  0988  00F0               	movwf	___flge@ff1
  6184  0989                     l586:
  6185  0989  3000               	movlw	0
  6186  098A  0574               	andwf	___flge@ff2,w
  6187  098B  00F8               	movwf	??___flge
  6188  098C  3000               	movlw	0
  6189  098D  0575               	andwf	___flge@ff2+1,w
  6190  098E  00F9               	movwf	??___flge+1
  6191  098F  3080               	movlw	128
  6192  0990  0576               	andwf	___flge@ff2+2,w
  6193  0991  00FA               	movwf	??___flge+2
  6194  0992  307F               	movlw	127
  6195  0993  0577               	andwf	___flge@ff2+3,w
  6196  0994  00FB               	movwf	??___flge+3
  6197  0995  087B               	movf	??___flge+3,w
  6198  0996  047A               	iorwf	??___flge+2,w
  6199  0997  0479               	iorwf	??___flge+1,w
  6200  0998  0478               	iorwf	??___flge,w
  6201  0999  1D03               	skipz
  6202  099A  299C               	goto	u3041
  6203  099B  299D               	goto	u3040
  6204  099C                     u3041:
  6205  099C  29A5               	goto	l2522
  6206  099D                     u3040:
  6207  099D                     l2520:
  6208  099D  3000               	movlw	0
  6209  099E  00F7               	movwf	___flge@ff2+3
  6210  099F  3000               	movlw	0
  6211  09A0  00F6               	movwf	___flge@ff2+2
  6212  09A1  3000               	movlw	0
  6213  09A2  00F5               	movwf	___flge@ff2+1
  6214  09A3  3000               	movlw	0
  6215  09A4  00F4               	movwf	___flge@ff2
  6216  09A5                     l2522:
  6217  09A5  1FF3               	btfss	___flge@ff1+3,7
  6218  09A6  29A8               	goto	u3051
  6219  09A7  29A9               	goto	u3050
  6220  09A8                     u3051:
  6221  09A8  29CD               	goto	l2526
  6222  09A9                     u3050:
  6223  09A9                     l2524:
  6224  09A9  3000               	movlw	0
  6225  09AA  00F8               	movwf	??___flge
  6226  09AB  3000               	movlw	0
  6227  09AC  00F9               	movwf	??___flge+1
  6228  09AD  3000               	movlw	0
  6229  09AE  00FA               	movwf	??___flge+2
  6230  09AF  3080               	movlw	128
  6231  09B0  00FB               	movwf	??___flge+3
  6232  09B1  0870               	movf	___flge@ff1,w
  6233  09B2  02F8               	subwf	??___flge,f
  6234  09B3  0871               	movf	___flge@ff1+1,w
  6235  09B4  1C03               	skipc
  6236  09B5  0F71               	incfsz	___flge@ff1+1,w
  6237  09B6  29B8               	goto	u3061
  6238  09B7  29B9               	goto	u3062
  6239  09B8                     u3061:
  6240  09B8  02F9               	subwf	??___flge+1,f
  6241  09B9                     u3062:
  6242  09B9  0872               	movf	___flge@ff1+2,w
  6243  09BA  1C03               	skipc
  6244  09BB  0F72               	incfsz	___flge@ff1+2,w
  6245  09BC  29BE               	goto	u3063
  6246  09BD  29BF               	goto	u3064
  6247  09BE                     u3063:
  6248  09BE  02FA               	subwf	??___flge+2,f
  6249  09BF                     u3064:
  6250  09BF  0873               	movf	___flge@ff1+3,w
  6251  09C0  1C03               	skipc
  6252  09C1  0F73               	incfsz	___flge@ff1+3,w
  6253  09C2  29C4               	goto	u3065
  6254  09C3  29C5               	goto	u3066
  6255  09C4                     u3065:
  6256  09C4  02FB               	subwf	??___flge+3,f
  6257  09C5                     u3066:
  6258  09C5  087B               	movf	??___flge+3,w
  6259  09C6  00F3               	movwf	___flge@ff1+3
  6260  09C7  087A               	movf	??___flge+2,w
  6261  09C8  00F2               	movwf	___flge@ff1+2
  6262  09C9  0879               	movf	??___flge+1,w
  6263  09CA  00F1               	movwf	___flge@ff1+1
  6264  09CB  0878               	movf	??___flge,w
  6265  09CC  00F0               	movwf	___flge@ff1
  6266  09CD                     l2526:
  6267  09CD  1FF7               	btfss	___flge@ff2+3,7
  6268  09CE  29D0               	goto	u3071
  6269  09CF  29D1               	goto	u3070
  6270  09D0                     u3071:
  6271  09D0  29F5               	goto	l589
  6272  09D1                     u3070:
  6273  09D1                     l2528:
  6274  09D1  3000               	movlw	0
  6275  09D2  00F8               	movwf	??___flge
  6276  09D3  3000               	movlw	0
  6277  09D4  00F9               	movwf	??___flge+1
  6278  09D5  3000               	movlw	0
  6279  09D6  00FA               	movwf	??___flge+2
  6280  09D7  3080               	movlw	128
  6281  09D8  00FB               	movwf	??___flge+3
  6282  09D9  0874               	movf	___flge@ff2,w
  6283  09DA  02F8               	subwf	??___flge,f
  6284  09DB  0875               	movf	___flge@ff2+1,w
  6285  09DC  1C03               	skipc
  6286  09DD  0F75               	incfsz	___flge@ff2+1,w
  6287  09DE  29E0               	goto	u3081
  6288  09DF  29E1               	goto	u3082
  6289  09E0                     u3081:
  6290  09E0  02F9               	subwf	??___flge+1,f
  6291  09E1                     u3082:
  6292  09E1  0876               	movf	___flge@ff2+2,w
  6293  09E2  1C03               	skipc
  6294  09E3  0F76               	incfsz	___flge@ff2+2,w
  6295  09E4  29E6               	goto	u3083
  6296  09E5  29E7               	goto	u3084
  6297  09E6                     u3083:
  6298  09E6  02FA               	subwf	??___flge+2,f
  6299  09E7                     u3084:
  6300  09E7  0877               	movf	___flge@ff2+3,w
  6301  09E8  1C03               	skipc
  6302  09E9  0F77               	incfsz	___flge@ff2+3,w
  6303  09EA  29EC               	goto	u3085
  6304  09EB  29ED               	goto	u3086
  6305  09EC                     u3085:
  6306  09EC  02FB               	subwf	??___flge+3,f
  6307  09ED                     u3086:
  6308  09ED  087B               	movf	??___flge+3,w
  6309  09EE  00F7               	movwf	___flge@ff2+3
  6310  09EF  087A               	movf	??___flge+2,w
  6311  09F0  00F6               	movwf	___flge@ff2+2
  6312  09F1  0879               	movf	??___flge+1,w
  6313  09F2  00F5               	movwf	___flge@ff2+1
  6314  09F3  0878               	movf	??___flge,w
  6315  09F4  00F4               	movwf	___flge@ff2
  6316  09F5                     l589:
  6317  09F5  3080               	movlw	128
  6318  09F6  06F3               	xorwf	___flge@ff1+3,f
  6319  09F7  3080               	movlw	128
  6320  09F8  06F7               	xorwf	___flge@ff2+3,f
  6321  09F9  0877               	movf	___flge@ff2+3,w
  6322  09FA  0273               	subwf	___flge@ff1+3,w
  6323  09FB  1D03               	skipz
  6324  09FC  2A07               	goto	u3095
  6325  09FD  0876               	movf	___flge@ff2+2,w
  6326  09FE  0272               	subwf	___flge@ff1+2,w
  6327  09FF  1D03               	skipz
  6328  0A00  2A07               	goto	u3095
  6329  0A01  0875               	movf	___flge@ff2+1,w
  6330  0A02  0271               	subwf	___flge@ff1+1,w
  6331  0A03  1D03               	skipz
  6332  0A04  2A07               	goto	u3095
  6333  0A05  0874               	movf	___flge@ff2,w
  6334  0A06  0270               	subwf	___flge@ff1,w
  6335  0A07                     u3095:
  6336  0A07  1803               	skipnc
  6337  0A08  2A0A               	goto	u3091
  6338  0A09  2A0B               	goto	u3090
  6339  0A0A                     u3091:
  6340  0A0A  2A0D               	goto	l2532
  6341  0A0B                     u3090:
  6342  0A0B                     l2530:
  6343  0A0B  1003               	clrc
  6344  0A0C  2A0E               	goto	l590
  6345  0A0D                     l2532:
  6346  0A0D  1403               	setc
  6347  0A0E                     l590:
  6348  0A0E  0008               	return
  6349  0A0F                     __end_of___flge:
  6350                           
  6351                           	psect	text16
  6352  1583                     __ptext16:	
  6353 ;; *************** function _keypad_init *****************
  6354 ;; Defined at:
  6355 ;;		line 38 in file "KEYPAD.c"
  6356 ;; Parameters:    Size  Location     Type
  6357 ;;		None
  6358 ;; Auto vars:     Size  Location     Type
  6359 ;;		None
  6360 ;; Return value:  Size  Location     Type
  6361 ;;                  1    wreg      void 
  6362 ;; Registers used:
  6363 ;;		wreg, status,2, status,0
  6364 ;; Tracked objects:
  6365 ;;		On entry : 0/0
  6366 ;;		On exit  : 0/0
  6367 ;;		Unchanged: 0/0
  6368 ;; Data sizes:     COMMON   BANK0   BANK1   BANK3   BANK2
  6369 ;;      Params:         0       0       0       0       0
  6370 ;;      Locals:         0       0       0       0       0
  6371 ;;      Temps:          1       0       0       0       0
  6372 ;;      Totals:         1       0       0       0       0
  6373 ;;Total ram usage:        1 bytes
  6374 ;; Hardware stack levels used: 1
  6375 ;; This function calls:
  6376 ;;		Nothing
  6377 ;; This function is called by:
  6378 ;;		_main
  6379 ;; This function uses a non-reentrant model
  6380 ;;
  6381                           
  6382  1583                     _keypad_init:	
  6383                           ;psect for function _keypad_init
  6384                           
  6385  1583                     l2726:	
  6386                           ;incstack = 0
  6387                           ; Regs used in _keypad_init: [wreg+status,2+status,0]
  6388                           
  6389                           
  6390                           ;KEYPAD.c: 40:     TRISB &= ~(1<<0) & ~(1<<1) & ~(1<<2) & ~(1<<3);
  6391  1583  30F0               	movlw	240
  6392  1584  00F0               	movwf	??_keypad_init
  6393  1585  0870               	movf	??_keypad_init,w
  6394  1586  1683               	bsf	3,5	;RP0=1, select bank1
  6395  1587  1303               	bcf	3,6	;RP1=0, select bank1
  6396  1588  0586               	andwf	6,f	;volatile
  6397                           
  6398                           ;KEYPAD.c: 41:     TRISB |= (1<<4) | (1<<5) | (1<<6) | (1<<7);
  6399  1589  30F0               	movlw	240
  6400  158A  00F0               	movwf	??_keypad_init
  6401  158B  0870               	movf	??_keypad_init,w
  6402  158C  0486               	iorwf	6,f	;volatile
  6403  158D                     l2728:
  6404                           
  6405                           ;KEYPAD.c: 42:     OPTION_REGbits.nRBPU = 0;
  6406  158D  1381               	bcf	1,7	;volatile
  6407  158E                     l88:
  6408  158E  0008               	return
  6409  158F                     __end_of_keypad_init:
  6410                           
  6411                           	psect	text17
  6412  16D6                     __ptext17:	
  6413 ;; *************** function _capturaTemp *****************
  6414 ;; Defined at:
  6415 ;;		line 44 in file "ADC.c"
  6416 ;; Parameters:    Size  Location     Type
  6417 ;;		None
  6418 ;; Auto vars:     Size  Location     Type
  6419 ;;		None
  6420 ;; Return value:  Size  Location     Type
  6421 ;;                  2    0[COMMON] int 
  6422 ;; Registers used:
  6423 ;;		wreg, status,2, status,0, btemp+1
  6424 ;; Tracked objects:
  6425 ;;		On entry : 0/0
  6426 ;;		On exit  : 0/0
  6427 ;;		Unchanged: 0/0
  6428 ;; Data sizes:     COMMON   BANK0   BANK1   BANK3   BANK2
  6429 ;;      Params:         2       0       0       0       0
  6430 ;;      Locals:         0       0       0       0       0
  6431 ;;      Temps:          4       0       0       0       0
  6432 ;;      Totals:         6       0       0       0       0
  6433 ;;Total ram usage:        6 bytes
  6434 ;; Hardware stack levels used: 1
  6435 ;; This function calls:
  6436 ;;		Nothing
  6437 ;; This function is called by:
  6438 ;;		_main
  6439 ;; This function uses a non-reentrant model
  6440 ;;
  6441                           
  6442  16D6                     _capturaTemp:	
  6443                           ;psect for function _capturaTemp
  6444                           
  6445  16D6                     l2760:	
  6446                           ;incstack = 0
  6447                           ; Regs used in _capturaTemp: [wreg+status,2+status,0+btemp+1]
  6448                           
  6449                           
  6450                           ;ADC.c: 45:         ADCON0bits.GO_DONE = 1;
  6451  16D6  1283               	bcf	3,5	;RP0=0, select bank0
  6452  16D7  1303               	bcf	3,6	;RP1=0, select bank0
  6453  16D8  149F               	bsf	31,1	;volatile
  6454  16D9                     l269:	
  6455                           ;ADC.c: 46:         while (ADCON0bits.GO_DONE);
  6456                           
  6457  16D9  189F               	btfsc	31,1	;volatile
  6458  16DA  2EDC               	goto	u3471
  6459  16DB  2EDD               	goto	u3470
  6460  16DC                     u3471:
  6461  16DC  2ED9               	goto	l269
  6462  16DD                     u3470:
  6463  16DD                     l2762:
  6464                           
  6465                           ;ADC.c: 47:         value_adc = ADRESH;
  6466  16DD  081E               	movf	30,w	;volatile
  6467  16DE  00F2               	movwf	??_capturaTemp
  6468  16DF  01F3               	clrf	??_capturaTemp+1
  6469  16E0  0872               	movf	??_capturaTemp,w
  6470  16E1  1683               	bsf	3,5	;RP0=1, select bank1
  6471  16E2  1303               	bcf	3,6	;RP1=0, select bank1
  6472  16E3  00DF               	movwf	_value_adc^(0+128)
  6473  16E4  0873               	movf	??_capturaTemp+1,w
  6474  16E5  00E0               	movwf	(_value_adc+1)^(0+128)
  6475  16E6                     l2764:
  6476                           
  6477                           ;ADC.c: 48:         value_adc = (value_adc << 8) + ADRESL;
  6478  16E6  0860               	movf	(_value_adc+1)^(0+128),w
  6479  16E7  00F3               	movwf	??_capturaTemp+1
  6480  16E8  085F               	movf	_value_adc^(0+128),w
  6481  16E9  00F2               	movwf	??_capturaTemp
  6482  16EA  0872               	movf	??_capturaTemp,w
  6483  16EB  00F3               	movwf	??_capturaTemp+1
  6484  16EC  01F2               	clrf	??_capturaTemp
  6485  16ED  081E               	movf	30,w	;volatile
  6486  16EE  0772               	addwf	??_capturaTemp,w
  6487  16EF  00F4               	movwf	??_capturaTemp+2
  6488  16F0  3000               	movlw	0
  6489  16F1  1803               	skipnc
  6490  16F2  3001               	movlw	1
  6491  16F3  0773               	addwf	??_capturaTemp+1,w
  6492  16F4  00F5               	movwf	??_capturaTemp+3
  6493  16F5  0874               	movf	??_capturaTemp+2,w
  6494  16F6  00DF               	movwf	_value_adc^(0+128)
  6495  16F7  0875               	movf	??_capturaTemp+3,w
  6496  16F8  00E0               	movwf	(_value_adc+1)^(0+128)
  6497  16F9                     l2766:
  6498                           
  6499                           ;ADC.c: 49:         temp = value_adc;
  6500  16F9  0860               	movf	(_value_adc+1)^(0+128),w
  6501  16FA  00DE               	movwf	(_temp+1)^(0+128)
  6502  16FB  085F               	movf	_value_adc^(0+128),w
  6503  16FC  00DD               	movwf	_temp^(0+128)
  6504  16FD                     l2768:
  6505                           
  6506                           ;ADC.c: 51:         return temp;
  6507  16FD  085E               	movf	(_temp+1)^(0+128),w
  6508  16FE  00F1               	movwf	?_capturaTemp+1
  6509  16FF  085D               	movf	_temp^(0+128),w
  6510  1700  00F0               	movwf	?_capturaTemp
  6511  1701                     l272:
  6512  1701  0008               	return
  6513  1702                     __end_of_capturaTemp:
  6514                           
  6515                           	psect	text18
  6516  0858                     __ptext18:	
  6517 ;; *************** function _apagarAlarma2 *****************
  6518 ;; Defined at:
  6519 ;;		line 35 in file "alarma.c"
  6520 ;; Parameters:    Size  Location     Type
  6521 ;;		None
  6522 ;; Auto vars:     Size  Location     Type
  6523 ;;		None
  6524 ;; Return value:  Size  Location     Type
  6525 ;;                  1    wreg      void 
  6526 ;; Registers used:
  6527 ;;		None
  6528 ;; Tracked objects:
  6529 ;;		On entry : 0/0
  6530 ;;		On exit  : 0/0
  6531 ;;		Unchanged: 0/0
  6532 ;; Data sizes:     COMMON   BANK0   BANK1   BANK3   BANK2
  6533 ;;      Params:         0       0       0       0       0
  6534 ;;      Locals:         0       0       0       0       0
  6535 ;;      Temps:          0       0       0       0       0
  6536 ;;      Totals:         0       0       0       0       0
  6537 ;;Total ram usage:        0 bytes
  6538 ;; Hardware stack levels used: 1
  6539 ;; This function calls:
  6540 ;;		Nothing
  6541 ;; This function is called by:
  6542 ;;		_main
  6543 ;; This function uses a non-reentrant model
  6544 ;;
  6545                           
  6546  0858                     _apagarAlarma2:	
  6547                           ;psect for function _apagarAlarma2
  6548                           
  6549  0858                     l2864:	
  6550                           ;incstack = 0
  6551                           ; Regs used in _apagarAlarma2: []
  6552                           
  6553                           
  6554                           ;alarma.c: 36:     PORTCbits.RC4=0;
  6555  0858  1283               	bcf	3,5	;RP0=0, select bank0
  6556  0859  1303               	bcf	3,6	;RP1=0, select bank0
  6557  085A  1207               	bcf	7,4	;volatile
  6558                           
  6559                           ;alarma.c: 37:     PORTCbits.RC5=0;
  6560  085B  1287               	bcf	7,5	;volatile
  6561  085C                     l297:
  6562  085C  0008               	return
  6563  085D                     __end_of_apagarAlarma2:
  6564                           
  6565                           	psect	text19
  6566  157E                     __ptext19:	
  6567 ;; *************** function _apagarAlarma1 *****************
  6568 ;; Defined at:
  6569 ;;		line 30 in file "alarma.c"
  6570 ;; Parameters:    Size  Location     Type
  6571 ;;		None
  6572 ;; Auto vars:     Size  Location     Type
  6573 ;;		None
  6574 ;; Return value:  Size  Location     Type
  6575 ;;                  1    wreg      void 
  6576 ;; Registers used:
  6577 ;;		None
  6578 ;; Tracked objects:
  6579 ;;		On entry : 0/0
  6580 ;;		On exit  : 0/0
  6581 ;;		Unchanged: 0/0
  6582 ;; Data sizes:     COMMON   BANK0   BANK1   BANK3   BANK2
  6583 ;;      Params:         0       0       0       0       0
  6584 ;;      Locals:         0       0       0       0       0
  6585 ;;      Temps:          0       0       0       0       0
  6586 ;;      Totals:         0       0       0       0       0
  6587 ;;Total ram usage:        0 bytes
  6588 ;; Hardware stack levels used: 1
  6589 ;; This function calls:
  6590 ;;		Nothing
  6591 ;; This function is called by:
  6592 ;;		_main
  6593 ;; This function uses a non-reentrant model
  6594 ;;
  6595                           
  6596  157E                     _apagarAlarma1:	
  6597                           ;psect for function _apagarAlarma1
  6598                           
  6599  157E                     l2758:	
  6600                           ;incstack = 0
  6601                           ; Regs used in _apagarAlarma1: []
  6602                           
  6603                           
  6604                           ;alarma.c: 31:     PORTCbits.RC4=0;
  6605  157E  1283               	bcf	3,5	;RP0=0, select bank0
  6606  157F  1303               	bcf	3,6	;RP1=0, select bank0
  6607  1580  1207               	bcf	7,4	;volatile
  6608                           
  6609                           ;alarma.c: 32:     PORTCbits.RC3=0;
  6610  1581  1187               	bcf	7,3	;volatile
  6611  1582                     l294:
  6612  1582  0008               	return
  6613  1583                     __end_of_apagarAlarma1:
  6614                           
  6615                           	psect	text20
  6616  158F                     __ptext20:	
  6617 ;; *************** function _alarma_init *****************
  6618 ;; Defined at:
  6619 ;;		line 9 in file "alarma.c"
  6620 ;; Parameters:    Size  Location     Type
  6621 ;;		None
  6622 ;; Auto vars:     Size  Location     Type
  6623 ;;		None
  6624 ;; Return value:  Size  Location     Type
  6625 ;;                  1    wreg      void 
  6626 ;; Registers used:
  6627 ;;		None
  6628 ;; Tracked objects:
  6629 ;;		On entry : 0/0
  6630 ;;		On exit  : 0/0
  6631 ;;		Unchanged: 0/0
  6632 ;; Data sizes:     COMMON   BANK0   BANK1   BANK3   BANK2
  6633 ;;      Params:         0       0       0       0       0
  6634 ;;      Locals:         0       0       0       0       0
  6635 ;;      Temps:          0       0       0       0       0
  6636 ;;      Totals:         0       0       0       0       0
  6637 ;;Total ram usage:        0 bytes
  6638 ;; Hardware stack levels used: 1
  6639 ;; This function calls:
  6640 ;;		Nothing
  6641 ;; This function is called by:
  6642 ;;		_main
  6643 ;; This function uses a non-reentrant model
  6644 ;;
  6645                           
  6646  158F                     _alarma_init:	
  6647                           ;psect for function _alarma_init
  6648                           
  6649  158F                     l2754:	
  6650                           ;incstack = 0
  6651                           ; Regs used in _alarma_init: []
  6652                           
  6653                           
  6654                           ;alarma.c: 10:     PORTCbits.RC4 = 0;
  6655  158F  1283               	bcf	3,5	;RP0=0, select bank0
  6656  1590  1303               	bcf	3,6	;RP1=0, select bank0
  6657  1591  1207               	bcf	7,4	;volatile
  6658                           
  6659                           ;alarma.c: 11:     PORTCbits.RC3=0;
  6660  1592  1187               	bcf	7,3	;volatile
  6661                           
  6662                           ;alarma.c: 12:     PORTCbits.RC5=0;
  6663  1593  1287               	bcf	7,5	;volatile
  6664                           
  6665                           ;alarma.c: 13:     PORTCbits.RC6=0;
  6666  1594  1307               	bcf	7,6	;volatile
  6667                           
  6668                           ;alarma.c: 14:     TRISC3=0;
  6669  1595  1683               	bsf	3,5	;RP0=1, select bank1
  6670  1596  1303               	bcf	3,6	;RP1=0, select bank1
  6671  1597  1187               	bcf	7,3	;volatile
  6672                           
  6673                           ;alarma.c: 15:     TRISC5=0;
  6674  1598  1287               	bcf	7,5	;volatile
  6675                           
  6676                           ;alarma.c: 16:     TRISC6=0;
  6677  1599  1307               	bcf	7,6	;volatile
  6678                           
  6679                           ;alarma.c: 17:     TRISC4=0;
  6680  159A  1207               	bcf	7,4	;volatile
  6681  159B                     l285:
  6682  159B  0008               	return
  6683  159C                     __end_of_alarma_init:
  6684                           
  6685                           	psect	text21
  6686  1579                     __ptext21:	
  6687 ;; *************** function _alarmaSeguridad *****************
  6688 ;; Defined at:
  6689 ;;		line 20 in file "alarma.c"
  6690 ;; Parameters:    Size  Location     Type
  6691 ;;		None
  6692 ;; Auto vars:     Size  Location     Type
  6693 ;;		None
  6694 ;; Return value:  Size  Location     Type
  6695 ;;                  1    wreg      void 
  6696 ;; Registers used:
  6697 ;;		None
  6698 ;; Tracked objects:
  6699 ;;		On entry : 0/0
  6700 ;;		On exit  : 0/0
  6701 ;;		Unchanged: 0/0
  6702 ;; Data sizes:     COMMON   BANK0   BANK1   BANK3   BANK2
  6703 ;;      Params:         0       0       0       0       0
  6704 ;;      Locals:         0       0       0       0       0
  6705 ;;      Temps:          0       0       0       0       0
  6706 ;;      Totals:         0       0       0       0       0
  6707 ;;Total ram usage:        0 bytes
  6708 ;; Hardware stack levels used: 1
  6709 ;; This function calls:
  6710 ;;		Nothing
  6711 ;; This function is called by:
  6712 ;;		_main
  6713 ;; This function uses a non-reentrant model
  6714 ;;
  6715                           
  6716  1579                     _alarmaSeguridad:	
  6717                           ;psect for function _alarmaSeguridad
  6718                           
  6719  1579                     l2862:	
  6720                           ;incstack = 0
  6721                           ; Regs used in _alarmaSeguridad: []
  6722                           
  6723                           
  6724                           ;alarma.c: 21:     PORTCbits.RC4=1;
  6725  1579  1283               	bcf	3,5	;RP0=0, select bank0
  6726  157A  1303               	bcf	3,6	;RP1=0, select bank0
  6727  157B  1607               	bsf	7,4	;volatile
  6728                           
  6729                           ;alarma.c: 22:     PORTCbits.RC3=1;
  6730  157C  1587               	bsf	7,3	;volatile
  6731  157D                     l288:
  6732  157D  0008               	return
  6733  157E                     __end_of_alarmaSeguridad:
  6734                           
  6735                           	psect	text22
  6736  1574                     __ptext22:	
  6737 ;; *************** function _alarmaFlama *****************
  6738 ;; Defined at:
  6739 ;;		line 25 in file "alarma.c"
  6740 ;; Parameters:    Size  Location     Type
  6741 ;;		None
  6742 ;; Auto vars:     Size  Location     Type
  6743 ;;		None
  6744 ;; Return value:  Size  Location     Type
  6745 ;;                  1    wreg      void 
  6746 ;; Registers used:
  6747 ;;		None
  6748 ;; Tracked objects:
  6749 ;;		On entry : 0/0
  6750 ;;		On exit  : 0/0
  6751 ;;		Unchanged: 0/0
  6752 ;; Data sizes:     COMMON   BANK0   BANK1   BANK3   BANK2
  6753 ;;      Params:         0       0       0       0       0
  6754 ;;      Locals:         0       0       0       0       0
  6755 ;;      Temps:          0       0       0       0       0
  6756 ;;      Totals:         0       0       0       0       0
  6757 ;;Total ram usage:        0 bytes
  6758 ;; Hardware stack levels used: 1
  6759 ;; This function calls:
  6760 ;;		Nothing
  6761 ;; This function is called by:
  6762 ;;		_main
  6763 ;; This function uses a non-reentrant model
  6764 ;;
  6765                           
  6766  1574                     _alarmaFlama:	
  6767                           ;psect for function _alarmaFlama
  6768                           
  6769  1574                     l2756:	
  6770                           ;incstack = 0
  6771                           ; Regs used in _alarmaFlama: []
  6772                           
  6773                           
  6774                           ;alarma.c: 26:     PORTCbits.RC4=1;
  6775  1574  1283               	bcf	3,5	;RP0=0, select bank0
  6776  1575  1303               	bcf	3,6	;RP1=0, select bank0
  6777  1576  1607               	bsf	7,4	;volatile
  6778                           
  6779                           ;alarma.c: 27:     PORTCbits.RC5=1;
  6780  1577  1687               	bsf	7,5	;volatile
  6781  1578                     l291:
  6782  1578  0008               	return
  6783  1579                     __end_of_alarmaFlama:
  6784                           
  6785                           	psect	text23
  6786  08F3                     __ptext23:	
  6787 ;; *************** function ___fltol *****************
  6788 ;; Defined at:
  6789 ;;		line 43 in file "C:\Program Files\Microchip\xc8\v2.36\pic\sources\c90\common\fltol.c"
  6790 ;; Parameters:    Size  Location     Type
  6791 ;;  f1              4    0[COMMON] void 
  6792 ;; Auto vars:     Size  Location     Type
  6793 ;;  exp1            1   10[COMMON] unsigned char 
  6794 ;;  sign1           1    9[COMMON] unsigned char 
  6795 ;; Return value:  Size  Location     Type
  6796 ;;                  4    0[COMMON] long 
  6797 ;; Registers used:
  6798 ;;		wreg, status,2, status,0
  6799 ;; Tracked objects:
  6800 ;;		On entry : 0/0
  6801 ;;		On exit  : 0/0
  6802 ;;		Unchanged: 0/0
  6803 ;; Data sizes:     COMMON   BANK0   BANK1   BANK3   BANK2
  6804 ;;      Params:         4       0       0       0       0
  6805 ;;      Locals:         2       0       0       0       0
  6806 ;;      Temps:          5       0       0       0       0
  6807 ;;      Totals:        11       0       0       0       0
  6808 ;;Total ram usage:       11 bytes
  6809 ;; Hardware stack levels used: 1
  6810 ;; This function calls:
  6811 ;;		Nothing
  6812 ;; This function is called by:
  6813 ;;		_main
  6814 ;; This function uses a non-reentrant model
  6815 ;;
  6816                           
  6817  08F3                     ___fltol:	
  6818                           ;psect for function ___fltol
  6819                           
  6820  08F3                     l2866:	
  6821                           ;incstack = 0
  6822                           ; Regs used in ___fltol: [wreg+status,2+status,0]
  6823                           
  6824  08F3  1003               	clrc
  6825  08F4  0D72               	rlf	___fltol@f1+2,w
  6826  08F5  0D73               	rlf	___fltol@f1+3,w
  6827  08F6  00F4               	movwf	??___fltol
  6828  08F7  0874               	movf	??___fltol,w
  6829  08F8  00FA               	movwf	___fltol@exp1
  6830  08F9  087A               	movf	___fltol@exp1,w
  6831  08FA  1D03               	btfss	3,2
  6832  08FB  28FD               	goto	u3571
  6833  08FC  28FE               	goto	u3570
  6834  08FD                     u3571:
  6835  08FD  2907               	goto	l2872
  6836  08FE                     u3570:
  6837  08FE                     l2868:
  6838  08FE  3000               	movlw	0
  6839  08FF  00F3               	movwf	?___fltol+3
  6840  0900  3000               	movlw	0
  6841  0901  00F2               	movwf	?___fltol+2
  6842  0902  3000               	movlw	0
  6843  0903  00F1               	movwf	?___fltol+1
  6844  0904  3000               	movlw	0
  6845  0905  00F0               	movwf	?___fltol
  6846  0906  296C               	goto	l598
  6847  0907                     l2872:
  6848  0907  0870               	movf	___fltol@f1,w
  6849  0908  00F4               	movwf	??___fltol
  6850  0909  0871               	movf	___fltol@f1+1,w
  6851  090A  00F5               	movwf	??___fltol+1
  6852  090B  0872               	movf	___fltol@f1+2,w
  6853  090C  00F6               	movwf	??___fltol+2
  6854  090D  0873               	movf	___fltol@f1+3,w
  6855  090E  00F7               	movwf	??___fltol+3
  6856  090F  301F               	movlw	31
  6857  0910                     u3585:
  6858  0910  1003               	clrc
  6859  0911  0CF7               	rrf	??___fltol+3,f
  6860  0912  0CF6               	rrf	??___fltol+2,f
  6861  0913  0CF5               	rrf	??___fltol+1,f
  6862  0914  0CF4               	rrf	??___fltol,f
  6863  0915                     u3580:
  6864  0915  3EFF               	addlw	-1
  6865  0916  1D03               	skipz
  6866  0917  2910               	goto	u3585
  6867  0918  0874               	movf	??___fltol,w
  6868  0919  00F8               	movwf	??___fltol+4
  6869  091A  0878               	movf	??___fltol+4,w
  6870  091B  00F9               	movwf	___fltol@sign1
  6871  091C                     l2874:
  6872  091C  17F2               	bsf	___fltol@f1+2,7
  6873  091D                     l2876:
  6874  091D  30FF               	movlw	255
  6875  091E  05F0               	andwf	___fltol@f1,f
  6876  091F  30FF               	movlw	255
  6877  0920  05F1               	andwf	___fltol@f1+1,f
  6878  0921  30FF               	movlw	255
  6879  0922  05F2               	andwf	___fltol@f1+2,f
  6880  0923  3000               	movlw	0
  6881  0924  05F3               	andwf	___fltol@f1+3,f
  6882  0925                     l2878:
  6883  0925  3096               	movlw	150
  6884  0926  02FA               	subwf	___fltol@exp1,f
  6885  0927                     l2880:
  6886  0927  1FFA               	btfss	___fltol@exp1,7
  6887  0928  292A               	goto	u3591
  6888  0929  292B               	goto	u3590
  6889  092A                     u3591:
  6890  092A  2945               	goto	l2890
  6891  092B                     u3590:
  6892  092B                     l2882:
  6893  092B  087A               	movf	___fltol@exp1,w
  6894  092C  3A80               	xorlw	128
  6895  092D  3E97               	addlw	151
  6896  092E  1803               	skipnc
  6897  092F  2931               	goto	u3601
  6898  0930  2932               	goto	u3600
  6899  0931                     u3601:
  6900  0931  2933               	goto	l2888
  6901  0932                     u3600:
  6902  0932  28FE               	goto	l2868
  6903  0933                     l2888:
  6904  0933  3001               	movlw	1
  6905  0934                     u3615:
  6906  0934  1003               	clrc
  6907  0935  0CF3               	rrf	___fltol@f1+3,f
  6908  0936  0CF2               	rrf	___fltol@f1+2,f
  6909  0937  0CF1               	rrf	___fltol@f1+1,f
  6910  0938  0CF0               	rrf	___fltol@f1,f
  6911  0939  3EFF               	addlw	-1
  6912  093A  1D03               	skipz
  6913  093B  2934               	goto	u3615
  6914  093C  3001               	movlw	1
  6915  093D  00F4               	movwf	??___fltol
  6916  093E  0874               	movf	??___fltol,w
  6917  093F  07FA               	addwf	___fltol@exp1,f
  6918  0940  1D03               	btfss	3,2
  6919  0941  2943               	goto	u3621
  6920  0942  2944               	goto	u3620
  6921  0943                     u3621:
  6922  0943  2933               	goto	l2888
  6923  0944                     u3620:
  6924  0944  295C               	goto	l2898
  6925  0945                     l2890:
  6926  0945  3020               	movlw	32
  6927  0946  027A               	subwf	___fltol@exp1,w
  6928  0947  1C03               	skipc
  6929  0948  294A               	goto	u3631
  6930  0949  294B               	goto	u3630
  6931  094A                     u3631:
  6932  094A  2957               	goto	l605
  6933  094B                     u3630:
  6934  094B  28FE               	goto	l2868
  6935  094C                     l2896:
  6936  094C  3001               	movlw	1
  6937  094D  00F4               	movwf	??___fltol
  6938  094E                     u3645:
  6939  094E  1003               	clrc
  6940  094F  0DF0               	rlf	___fltol@f1,f
  6941  0950  0DF1               	rlf	___fltol@f1+1,f
  6942  0951  0DF2               	rlf	___fltol@f1+2,f
  6943  0952  0DF3               	rlf	___fltol@f1+3,f
  6944  0953  0BF4               	decfsz	??___fltol,f
  6945  0954  294E               	goto	u3645
  6946  0955  3001               	movlw	1
  6947  0956  02FA               	subwf	___fltol@exp1,f
  6948  0957                     l605:
  6949  0957  087A               	movf	___fltol@exp1,w
  6950  0958  1D03               	btfss	3,2
  6951  0959  295B               	goto	u3651
  6952  095A  295C               	goto	u3650
  6953  095B                     u3651:
  6954  095B  294C               	goto	l2896
  6955  095C                     u3650:
  6956  095C                     l2898:
  6957  095C  0879               	movf	___fltol@sign1,w
  6958  095D  1903               	btfsc	3,2
  6959  095E  2960               	goto	u3661
  6960  095F  2961               	goto	u3660
  6961  0960                     u3661:
  6962  0960  296C               	goto	l608
  6963  0961                     u3660:
  6964  0961                     l2900:
  6965  0961  09F0               	comf	___fltol@f1,f
  6966  0962  09F1               	comf	___fltol@f1+1,f
  6967  0963  09F2               	comf	___fltol@f1+2,f
  6968  0964  09F3               	comf	___fltol@f1+3,f
  6969  0965  0AF0               	incf	___fltol@f1,f
  6970  0966  1903               	skipnz
  6971  0967  0AF1               	incf	___fltol@f1+1,f
  6972  0968  1903               	skipnz
  6973  0969  0AF2               	incf	___fltol@f1+2,f
  6974  096A  1903               	skipnz
  6975  096B  0AF3               	incf	___fltol@f1+3,f
  6976  096C                     l608:
  6977  096C                     l598:
  6978  096C  0008               	return
  6979  096D                     __end_of___fltol:
  6980                           
  6981                           	psect	text24
  6982  000E                     __ptext24:	
  6983 ;; *************** function ___fldiv *****************
  6984 ;; Defined at:
  6985 ;;		line 8 in file "C:\Program Files\Microchip\xc8\v2.36\pic\sources\c90\common\sprcdiv.c"
  6986 ;; Parameters:    Size  Location     Type
  6987 ;;  a               4   31[BANK0 ] long 
  6988 ;;  b               4   35[BANK0 ] long 
  6989 ;; Auto vars:     Size  Location     Type
  6990 ;;  grs             4   51[BANK0 ] unsigned long 
  6991 ;;  rem             4   44[BANK0 ] unsigned long 
  6992 ;;  new_exp         2   49[BANK0 ] int 
  6993 ;;  aexp            1   56[BANK0 ] unsigned char 
  6994 ;;  bexp            1   55[BANK0 ] unsigned char 
  6995 ;;  sign            1   48[BANK0 ] unsigned char 
  6996 ;; Return value:  Size  Location     Type
  6997 ;;                  4   31[BANK0 ] unsigned char 
  6998 ;; Registers used:
  6999 ;;		wreg, status,2, status,0, btemp+1
  7000 ;; Tracked objects:
  7001 ;;		On entry : 0/0
  7002 ;;		On exit  : 0/0
  7003 ;;		Unchanged: 0/0
  7004 ;; Data sizes:     COMMON   BANK0   BANK1   BANK3   BANK2
  7005 ;;      Params:         0       8       0       0       0
  7006 ;;      Locals:         0      13       0       0       0
  7007 ;;      Temps:          0       5       0       0       0
  7008 ;;      Totals:         0      26       0       0       0
  7009 ;;Total ram usage:       26 bytes
  7010 ;; Hardware stack levels used: 1
  7011 ;; This function calls:
  7012 ;;		Nothing
  7013 ;; This function is called by:
  7014 ;;		_main
  7015 ;; This function uses a non-reentrant model
  7016 ;;
  7017                           
  7018  000E                     ___fldiv:	
  7019                           ;psect for function ___fldiv
  7020                           
  7021  000E                     l2902:	
  7022                           ;incstack = 0
  7023                           ; Regs used in ___fldiv: [wreg+status,2+status,0+btemp+1]
  7024                           
  7025  000E  1283               	bcf	3,5	;RP0=0, select bank0
  7026  000F  1303               	bcf	3,6	;RP1=0, select bank0
  7027  0010  0846               	movf	___fldiv@b+3,w
  7028  0011  3980               	andlw	128
  7029  0012  00C7               	movwf	??___fldiv
  7030  0013  0847               	movf	??___fldiv,w
  7031  0014  00D0               	movwf	___fldiv@sign
  7032  0015                     l2904:
  7033  0015  0846               	movf	___fldiv@b+3,w
  7034  0016  00C7               	movwf	??___fldiv
  7035  0017  0747               	addwf	??___fldiv,w
  7036  0018  00C8               	movwf	??___fldiv+1
  7037  0019  0848               	movf	??___fldiv+1,w
  7038  001A  00D7               	movwf	___fldiv@bexp
  7039  001B                     l2906:
  7040  001B  1FC5               	btfss	___fldiv@b+2,7
  7041  001C  281E               	goto	u3671
  7042  001D  281F               	goto	u3670
  7043  001E                     u3671:
  7044  001E  2820               	goto	l2910
  7045  001F                     u3670:
  7046  001F                     l2908:
  7047  001F  1457               	bsf	___fldiv@bexp,0
  7048  0020                     l2910:
  7049  0020  0857               	movf	___fldiv@bexp,w
  7050  0021  1903               	btfsc	3,2
  7051  0022  2824               	goto	u3681
  7052  0023  2825               	goto	u3680
  7053  0024                     u3681:
  7054  0024  2835               	goto	l2920
  7055  0025                     u3680:
  7056  0025                     l2912:
  7057  0025  0A57               	incf	___fldiv@bexp,w
  7058  0026  1D03               	btfss	3,2
  7059  0027  2829               	goto	u3691
  7060  0028  282A               	goto	u3690
  7061  0029                     u3691:
  7062  0029  2832               	goto	l2916
  7063  002A                     u3690:
  7064  002A                     l2914:
  7065  002A  3000               	movlw	0
  7066  002B  00C6               	movwf	___fldiv@b+3
  7067  002C  3000               	movlw	0
  7068  002D  00C5               	movwf	___fldiv@b+2
  7069  002E  3000               	movlw	0
  7070  002F  00C4               	movwf	___fldiv@b+1
  7071  0030  3000               	movlw	0
  7072  0031  00C3               	movwf	___fldiv@b
  7073  0032                     l2916:
  7074  0032  17C5               	bsf	___fldiv@b+2,7
  7075  0033                     l2918:
  7076  0033  01C6               	clrf	___fldiv@b+3
  7077  0034  283D               	goto	l2922
  7078  0035                     l2920:
  7079  0035  3000               	movlw	0
  7080  0036  00C6               	movwf	___fldiv@b+3
  7081  0037  3000               	movlw	0
  7082  0038  00C5               	movwf	___fldiv@b+2
  7083  0039  3000               	movlw	0
  7084  003A  00C4               	movwf	___fldiv@b+1
  7085  003B  3000               	movlw	0
  7086  003C  00C3               	movwf	___fldiv@b
  7087  003D                     l2922:
  7088  003D  0842               	movf	___fldiv@a+3,w
  7089  003E  3980               	andlw	128
  7090  003F  00C7               	movwf	??___fldiv
  7091  0040  0847               	movf	??___fldiv,w
  7092  0041  06D0               	xorwf	___fldiv@sign,f
  7093  0042                     l2924:
  7094  0042  0842               	movf	___fldiv@a+3,w
  7095  0043  00C7               	movwf	??___fldiv
  7096  0044  0747               	addwf	??___fldiv,w
  7097  0045  00C8               	movwf	??___fldiv+1
  7098  0046  0848               	movf	??___fldiv+1,w
  7099  0047  00D8               	movwf	___fldiv@aexp
  7100  0048                     l2926:
  7101  0048  1FC1               	btfss	___fldiv@a+2,7
  7102  0049  284B               	goto	u3701
  7103  004A  284C               	goto	u3700
  7104  004B                     u3701:
  7105  004B  284D               	goto	l2930
  7106  004C                     u3700:
  7107  004C                     l2928:
  7108  004C  1458               	bsf	___fldiv@aexp,0
  7109  004D                     l2930:
  7110  004D  0858               	movf	___fldiv@aexp,w
  7111  004E  1903               	btfsc	3,2
  7112  004F  2851               	goto	u3711
  7113  0050  2852               	goto	u3710
  7114  0051                     u3711:
  7115  0051  2862               	goto	l2940
  7116  0052                     u3710:
  7117  0052                     l2932:
  7118  0052  0A58               	incf	___fldiv@aexp,w
  7119  0053  1D03               	btfss	3,2
  7120  0054  2856               	goto	u3721
  7121  0055  2857               	goto	u3720
  7122  0056                     u3721:
  7123  0056  285F               	goto	l2936
  7124  0057                     u3720:
  7125  0057                     l2934:
  7126  0057  3000               	movlw	0
  7127  0058  00C2               	movwf	___fldiv@a+3
  7128  0059  3000               	movlw	0
  7129  005A  00C1               	movwf	___fldiv@a+2
  7130  005B  3000               	movlw	0
  7131  005C  00C0               	movwf	___fldiv@a+1
  7132  005D  3000               	movlw	0
  7133  005E  00BF               	movwf	___fldiv@a
  7134  005F                     l2936:
  7135  005F  17C1               	bsf	___fldiv@a+2,7
  7136  0060                     l2938:
  7137  0060  01C2               	clrf	___fldiv@a+3
  7138  0061  286A               	goto	l761
  7139  0062                     l2940:
  7140  0062  3000               	movlw	0
  7141  0063  00C2               	movwf	___fldiv@a+3
  7142  0064  3000               	movlw	0
  7143  0065  00C1               	movwf	___fldiv@a+2
  7144  0066  3000               	movlw	0
  7145  0067  00C0               	movwf	___fldiv@a+1
  7146  0068  3000               	movlw	0
  7147  0069  00BF               	movwf	___fldiv@a
  7148  006A                     l761:
  7149  006A  0842               	movf	___fldiv@a+3,w
  7150  006B  0441               	iorwf	___fldiv@a+2,w
  7151  006C  0440               	iorwf	___fldiv@a+1,w
  7152  006D  043F               	iorwf	___fldiv@a,w
  7153  006E  1D03               	skipz
  7154  006F  2871               	goto	u3731
  7155  0070  2872               	goto	u3730
  7156  0071                     u3731:
  7157  0071  288B               	goto	l2950
  7158  0072                     u3730:
  7159  0072                     l2942:
  7160  0072  3000               	movlw	0
  7161  0073  00C6               	movwf	___fldiv@b+3
  7162  0074  3000               	movlw	0
  7163  0075  00C5               	movwf	___fldiv@b+2
  7164  0076  3000               	movlw	0
  7165  0077  00C4               	movwf	___fldiv@b+1
  7166  0078  3000               	movlw	0
  7167  0079  00C3               	movwf	___fldiv@b
  7168  007A  3080               	movlw	128
  7169  007B  04C5               	iorwf	___fldiv@b+2,f
  7170  007C  307F               	movlw	127
  7171  007D  04C6               	iorwf	___fldiv@b+3,f
  7172  007E                     l2944:
  7173  007E  0850               	movf	___fldiv@sign,w
  7174  007F  00C7               	movwf	??___fldiv
  7175  0080  0847               	movf	??___fldiv,w
  7176  0081  04C6               	iorwf	___fldiv@b+3,f
  7177  0082                     l2946:
  7178  0082  0846               	movf	___fldiv@b+3,w
  7179  0083  00C2               	movwf	?___fldiv+3
  7180  0084  0845               	movf	___fldiv@b+2,w
  7181  0085  00C1               	movwf	?___fldiv+2
  7182  0086  0844               	movf	___fldiv@b+1,w
  7183  0087  00C0               	movwf	?___fldiv+1
  7184  0088  0843               	movf	___fldiv@b,w
  7185  0089  00BF               	movwf	?___fldiv
  7186  008A  29EA               	goto	l763
  7187  008B                     l2950:
  7188  008B  0857               	movf	___fldiv@bexp,w
  7189  008C  1D03               	btfss	3,2
  7190  008D  288F               	goto	u3741
  7191  008E  2890               	goto	u3740
  7192  008F                     u3741:
  7193  008F  2899               	goto	l2956
  7194  0090                     u3740:
  7195  0090                     l2952:
  7196  0090  3000               	movlw	0
  7197  0091  00C2               	movwf	?___fldiv+3
  7198  0092  3000               	movlw	0
  7199  0093  00C1               	movwf	?___fldiv+2
  7200  0094  3000               	movlw	0
  7201  0095  00C0               	movwf	?___fldiv+1
  7202  0096  3000               	movlw	0
  7203  0097  00BF               	movwf	?___fldiv
  7204  0098  29EA               	goto	l763
  7205  0099                     l2956:
  7206  0099  0857               	movf	___fldiv@bexp,w
  7207  009A  00C7               	movwf	??___fldiv
  7208  009B  01C8               	clrf	??___fldiv+1
  7209  009C  0848               	movf	??___fldiv+1,w
  7210  009D  00CA               	movwf	??___fldiv+3
  7211  009E  0858               	movf	___fldiv@aexp,w
  7212  009F  0247               	subwf	??___fldiv,w
  7213  00A0  00C9               	movwf	??___fldiv+2
  7214  00A1  1C03               	skipc
  7215  00A2  03CA               	decf	??___fldiv+3,f
  7216  00A3  0849               	movf	??___fldiv+2,w
  7217  00A4  3E7F               	addlw	127
  7218  00A5  00D1               	movwf	___fldiv@new_exp
  7219  00A6  084A               	movf	??___fldiv+3,w
  7220  00A7  1803               	skipnc
  7221  00A8  3E01               	addlw	1
  7222  00A9  3E00               	addlw	0
  7223  00AA  00D2               	movwf	___fldiv@new_exp+1
  7224  00AB                     l2958:
  7225  00AB  0846               	movf	___fldiv@b+3,w
  7226  00AC  00CF               	movwf	___fldiv@rem+3
  7227  00AD  0845               	movf	___fldiv@b+2,w
  7228  00AE  00CE               	movwf	___fldiv@rem+2
  7229  00AF  0844               	movf	___fldiv@b+1,w
  7230  00B0  00CD               	movwf	___fldiv@rem+1
  7231  00B1  0843               	movf	___fldiv@b,w
  7232  00B2  00CC               	movwf	___fldiv@rem
  7233  00B3                     l2960:
  7234  00B3  3000               	movlw	0
  7235  00B4  00C6               	movwf	___fldiv@b+3
  7236  00B5  3000               	movlw	0
  7237  00B6  00C5               	movwf	___fldiv@b+2
  7238  00B7  3000               	movlw	0
  7239  00B8  00C4               	movwf	___fldiv@b+1
  7240  00B9  3000               	movlw	0
  7241  00BA  00C3               	movwf	___fldiv@b
  7242  00BB                     l2962:
  7243  00BB  3000               	movlw	0
  7244  00BC  00D6               	movwf	___fldiv@grs+3
  7245  00BD  3000               	movlw	0
  7246  00BE  00D5               	movwf	___fldiv@grs+2
  7247  00BF  3000               	movlw	0
  7248  00C0  00D4               	movwf	___fldiv@grs+1
  7249  00C1  3000               	movlw	0
  7250  00C2  00D3               	movwf	___fldiv@grs
  7251  00C3                     l2964:
  7252  00C3  01D8               	clrf	___fldiv@aexp
  7253  00C4  290F               	goto	l2984
  7254  00C5                     l2966:
  7255  00C5  0858               	movf	___fldiv@aexp,w
  7256  00C6  1903               	btfsc	3,2
  7257  00C7  28C9               	goto	u3751
  7258  00C8  28CA               	goto	u3750
  7259  00C9                     u3751:
  7260  00C9  28EA               	goto	l2976
  7261  00CA                     u3750:
  7262  00CA                     l2968:
  7263  00CA  3001               	movlw	1
  7264  00CB  00C7               	movwf	??___fldiv
  7265  00CC                     u3765:
  7266  00CC  1003               	clrc
  7267  00CD  0DCC               	rlf	___fldiv@rem,f
  7268  00CE  0DCD               	rlf	___fldiv@rem+1,f
  7269  00CF  0DCE               	rlf	___fldiv@rem+2,f
  7270  00D0  0DCF               	rlf	___fldiv@rem+3,f
  7271  00D1  0BC7               	decfsz	??___fldiv,f
  7272  00D2  28CC               	goto	u3765
  7273  00D3  3001               	movlw	1
  7274  00D4  00C7               	movwf	??___fldiv
  7275  00D5                     u3775:
  7276  00D5  1003               	clrc
  7277  00D6  0DC3               	rlf	___fldiv@b,f
  7278  00D7  0DC4               	rlf	___fldiv@b+1,f
  7279  00D8  0DC5               	rlf	___fldiv@b+2,f
  7280  00D9  0DC6               	rlf	___fldiv@b+3,f
  7281  00DA  0BC7               	decfsz	??___fldiv,f
  7282  00DB  28D5               	goto	u3775
  7283  00DC                     l2970:
  7284  00DC  1FD6               	btfss	___fldiv@grs+3,7
  7285  00DD  28DF               	goto	u3781
  7286  00DE  28E0               	goto	u3780
  7287  00DF                     u3781:
  7288  00DF  28E1               	goto	l2974
  7289  00E0                     u3780:
  7290  00E0                     l2972:
  7291  00E0  1443               	bsf	___fldiv@b,0
  7292  00E1                     l2974:
  7293  00E1  3001               	movlw	1
  7294  00E2  00C7               	movwf	??___fldiv
  7295  00E3                     u3795:
  7296  00E3  1003               	clrc
  7297  00E4  0DD3               	rlf	___fldiv@grs,f
  7298  00E5  0DD4               	rlf	___fldiv@grs+1,f
  7299  00E6  0DD5               	rlf	___fldiv@grs+2,f
  7300  00E7  0DD6               	rlf	___fldiv@grs+3,f
  7301  00E8  0BC7               	decfsz	??___fldiv,f
  7302  00E9  28E3               	goto	u3795
  7303  00EA                     l2976:
  7304  00EA  0842               	movf	___fldiv@a+3,w
  7305  00EB  024F               	subwf	___fldiv@rem+3,w
  7306  00EC  1D03               	skipz
  7307  00ED  28F8               	goto	u3805
  7308  00EE  0841               	movf	___fldiv@a+2,w
  7309  00EF  024E               	subwf	___fldiv@rem+2,w
  7310  00F0  1D03               	skipz
  7311  00F1  28F8               	goto	u3805
  7312  00F2  0840               	movf	___fldiv@a+1,w
  7313  00F3  024D               	subwf	___fldiv@rem+1,w
  7314  00F4  1D03               	skipz
  7315  00F5  28F8               	goto	u3805
  7316  00F6  083F               	movf	___fldiv@a,w
  7317  00F7  024C               	subwf	___fldiv@rem,w
  7318  00F8                     u3805:
  7319  00F8  1C03               	skipc
  7320  00F9  28FB               	goto	u3801
  7321  00FA  28FC               	goto	u3800
  7322  00FB                     u3801:
  7323  00FB  290B               	goto	l2982
  7324  00FC                     u3800:
  7325  00FC                     l2978:
  7326  00FC  1756               	bsf	___fldiv@grs+3,6
  7327  00FD                     l2980:
  7328  00FD  083F               	movf	___fldiv@a,w
  7329  00FE  02CC               	subwf	___fldiv@rem,f
  7330  00FF  0840               	movf	___fldiv@a+1,w
  7331  0100  1C03               	skipc
  7332  0101  0F40               	incfsz	___fldiv@a+1,w
  7333  0102  02CD               	subwf	___fldiv@rem+1,f
  7334  0103  0841               	movf	___fldiv@a+2,w
  7335  0104  1C03               	skipc
  7336  0105  0F41               	incfsz	___fldiv@a+2,w
  7337  0106  02CE               	subwf	___fldiv@rem+2,f
  7338  0107  0842               	movf	___fldiv@a+3,w
  7339  0108  1C03               	skipc
  7340  0109  0F42               	incfsz	___fldiv@a+3,w
  7341  010A  02CF               	subwf	___fldiv@rem+3,f
  7342  010B                     l2982:
  7343  010B  3001               	movlw	1
  7344  010C  00C7               	movwf	??___fldiv
  7345  010D  0847               	movf	??___fldiv,w
  7346  010E  07D8               	addwf	___fldiv@aexp,f
  7347  010F                     l2984:
  7348  010F  301A               	movlw	26
  7349  0110  0258               	subwf	___fldiv@aexp,w
  7350  0111  1C03               	skipc
  7351  0112  2914               	goto	u3811
  7352  0113  2915               	goto	u3810
  7353  0114                     u3811:
  7354  0114  28C5               	goto	l2966
  7355  0115                     u3810:
  7356  0115                     l2986:
  7357  0115  084F               	movf	___fldiv@rem+3,w
  7358  0116  044E               	iorwf	___fldiv@rem+2,w
  7359  0117  044D               	iorwf	___fldiv@rem+1,w
  7360  0118  044C               	iorwf	___fldiv@rem,w
  7361  0119  1903               	skipnz
  7362  011A  291C               	goto	u3821
  7363  011B  291D               	goto	u3820
  7364  011C                     u3821:
  7365  011C  293C               	goto	l3000
  7366  011D                     u3820:
  7367  011D                     l2988:
  7368  011D  1453               	bsf	___fldiv@grs,0
  7369  011E  293C               	goto	l3000
  7370  011F                     l2990:
  7371  011F  3001               	movlw	1
  7372  0120  00C7               	movwf	??___fldiv
  7373  0121                     u3835:
  7374  0121  1003               	clrc
  7375  0122  0DC3               	rlf	___fldiv@b,f
  7376  0123  0DC4               	rlf	___fldiv@b+1,f
  7377  0124  0DC5               	rlf	___fldiv@b+2,f
  7378  0125  0DC6               	rlf	___fldiv@b+3,f
  7379  0126  0BC7               	decfsz	??___fldiv,f
  7380  0127  2921               	goto	u3835
  7381  0128                     l2992:
  7382  0128  1FD6               	btfss	___fldiv@grs+3,7
  7383  0129  292B               	goto	u3841
  7384  012A  292C               	goto	u3840
  7385  012B                     u3841:
  7386  012B  292D               	goto	l2996
  7387  012C                     u3840:
  7388  012C                     l2994:
  7389  012C  1443               	bsf	___fldiv@b,0
  7390  012D                     l2996:
  7391  012D  3001               	movlw	1
  7392  012E  00C7               	movwf	??___fldiv
  7393  012F                     u3855:
  7394  012F  1003               	clrc
  7395  0130  0DD3               	rlf	___fldiv@grs,f
  7396  0131  0DD4               	rlf	___fldiv@grs+1,f
  7397  0132  0DD5               	rlf	___fldiv@grs+2,f
  7398  0133  0DD6               	rlf	___fldiv@grs+3,f
  7399  0134  0BC7               	decfsz	??___fldiv,f
  7400  0135  292F               	goto	u3855
  7401  0136                     l2998:
  7402  0136  30FF               	movlw	255
  7403  0137  07D1               	addwf	___fldiv@new_exp,f
  7404  0138  1803               	skipnc
  7405  0139  0AD2               	incf	___fldiv@new_exp+1,f
  7406  013A  30FF               	movlw	255
  7407  013B  07D2               	addwf	___fldiv@new_exp+1,f
  7408  013C                     l3000:
  7409  013C  1FC5               	btfss	___fldiv@b+2,7
  7410  013D  293F               	goto	u3861
  7411  013E  2940               	goto	u3860
  7412  013F                     u3861:
  7413  013F  291F               	goto	l2990
  7414  0140                     u3860:
  7415  0140                     l3002:
  7416  0140  01D8               	clrf	___fldiv@aexp
  7417  0141                     l3004:
  7418  0141  1FD6               	btfss	___fldiv@grs+3,7
  7419  0142  2944               	goto	u3871
  7420  0143  2945               	goto	u3870
  7421  0144                     u3871:
  7422  0144  2961               	goto	l3012
  7423  0145                     u3870:
  7424  0145                     l3006:
  7425  0145  30FF               	movlw	255
  7426  0146  0553               	andwf	___fldiv@grs,w
  7427  0147  00C7               	movwf	??___fldiv
  7428  0148  30FF               	movlw	255
  7429  0149  0554               	andwf	___fldiv@grs+1,w
  7430  014A  00C8               	movwf	??___fldiv+1
  7431  014B  30FF               	movlw	255
  7432  014C  0555               	andwf	___fldiv@grs+2,w
  7433  014D  00C9               	movwf	??___fldiv+2
  7434  014E  307F               	movlw	127
  7435  014F  0556               	andwf	___fldiv@grs+3,w
  7436  0150  00CA               	movwf	??___fldiv+3
  7437  0151  084A               	movf	??___fldiv+3,w
  7438  0152  0449               	iorwf	??___fldiv+2,w
  7439  0153  0448               	iorwf	??___fldiv+1,w
  7440  0154  0447               	iorwf	??___fldiv,w
  7441  0155  1903               	skipnz
  7442  0156  2958               	goto	u3881
  7443  0157  2959               	goto	u3880
  7444  0158                     u3881:
  7445  0158  295C               	goto	l777
  7446  0159                     u3880:
  7447  0159                     l3008:
  7448  0159  01D8               	clrf	___fldiv@aexp
  7449  015A  0AD8               	incf	___fldiv@aexp,f
  7450  015B  2961               	goto	l3012
  7451  015C                     l777:
  7452  015C  1C43               	btfss	___fldiv@b,0
  7453  015D  295F               	goto	u3891
  7454  015E  2960               	goto	u3890
  7455  015F                     u3891:
  7456  015F  2961               	goto	l3012
  7457  0160                     u3890:
  7458  0160  2959               	goto	l3008
  7459  0161                     l3012:
  7460  0161  0858               	movf	___fldiv@aexp,w
  7461  0162  1903               	btfsc	3,2
  7462  0163  2965               	goto	u3901
  7463  0164  2966               	goto	u3900
  7464  0165                     u3901:
  7465  0165  2997               	goto	l3022
  7466  0166                     u3900:
  7467  0166                     l3014:
  7468  0166  3001               	movlw	1
  7469  0167  07C3               	addwf	___fldiv@b,f
  7470  0168  3000               	movlw	0
  7471  0169  1803               	skipnc
  7472  016A  3001               	movlw	1
  7473  016B  07C4               	addwf	___fldiv@b+1,f
  7474  016C  3000               	movlw	0
  7475  016D  1803               	skipnc
  7476  016E  3001               	movlw	1
  7477  016F  07C5               	addwf	___fldiv@b+2,f
  7478  0170  3000               	movlw	0
  7479  0171  1803               	skipnc
  7480  0172  3001               	movlw	1
  7481  0173  07C6               	addwf	___fldiv@b+3,f
  7482  0174                     l3016:
  7483  0174  1C46               	btfss	___fldiv@b+3,0
  7484  0175  2977               	goto	u3911
  7485  0176  2978               	goto	u3910
  7486  0177                     u3911:
  7487  0177  2997               	goto	l3022
  7488  0178                     u3910:
  7489  0178                     l3018:
  7490  0178  0843               	movf	___fldiv@b,w
  7491  0179  00C7               	movwf	??___fldiv
  7492  017A  0844               	movf	___fldiv@b+1,w
  7493  017B  00C8               	movwf	??___fldiv+1
  7494  017C  0845               	movf	___fldiv@b+2,w
  7495  017D  00C9               	movwf	??___fldiv+2
  7496  017E  0846               	movf	___fldiv@b+3,w
  7497  017F  00CA               	movwf	??___fldiv+3
  7498  0180  3001               	movlw	1
  7499  0181  00CB               	movwf	??___fldiv+4
  7500  0182                     u3925:
  7501  0182  0D4A               	rlf	??___fldiv+3,w
  7502  0183  0CCA               	rrf	??___fldiv+3,f
  7503  0184  0CC9               	rrf	??___fldiv+2,f
  7504  0185  0CC8               	rrf	??___fldiv+1,f
  7505  0186  0CC7               	rrf	??___fldiv,f
  7506  0187                     u3920:
  7507  0187  0BCB               	decfsz	??___fldiv+4,f
  7508  0188  2982               	goto	u3925
  7509  0189  084A               	movf	??___fldiv+3,w
  7510  018A  00C6               	movwf	___fldiv@b+3
  7511  018B  0849               	movf	??___fldiv+2,w
  7512  018C  00C5               	movwf	___fldiv@b+2
  7513  018D  0848               	movf	??___fldiv+1,w
  7514  018E  00C4               	movwf	___fldiv@b+1
  7515  018F  0847               	movf	??___fldiv,w
  7516  0190  00C3               	movwf	___fldiv@b
  7517  0191                     l3020:
  7518  0191  3001               	movlw	1
  7519  0192  07D1               	addwf	___fldiv@new_exp,f
  7520  0193  1803               	skipnc
  7521  0194  0AD2               	incf	___fldiv@new_exp+1,f
  7522  0195  3000               	movlw	0
  7523  0196  07D2               	addwf	___fldiv@new_exp+1,f
  7524  0197                     l3022:
  7525  0197  0852               	movf	___fldiv@new_exp+1,w
  7526  0198  3A80               	xorlw	128
  7527  0199  00FF               	movwf	btemp+1
  7528  019A  3080               	movlw	128
  7529  019B  027F               	subwf	btemp+1,w
  7530  019C  1D03               	skipz
  7531  019D  29A0               	goto	u3935
  7532  019E  30FF               	movlw	255
  7533  019F  0251               	subwf	___fldiv@new_exp,w
  7534  01A0                     u3935:
  7535  01A0  1C03               	skipc
  7536  01A1  29A3               	goto	u3931
  7537  01A2  29A4               	goto	u3930
  7538  01A3                     u3931:
  7539  01A3  29B2               	goto	l3026
  7540  01A4                     u3930:
  7541  01A4                     l3024:
  7542  01A4  30FF               	movlw	255
  7543  01A5  1283               	bcf	3,5	;RP0=0, select bank0
  7544  01A6  1303               	bcf	3,6	;RP1=0, select bank0
  7545  01A7  00D1               	movwf	___fldiv@new_exp
  7546  01A8  3000               	movlw	0
  7547  01A9  00D2               	movwf	___fldiv@new_exp+1
  7548  01AA  3000               	movlw	0
  7549  01AB  00C6               	movwf	___fldiv@b+3
  7550  01AC  3000               	movlw	0
  7551  01AD  00C5               	movwf	___fldiv@b+2
  7552  01AE  3000               	movlw	0
  7553  01AF  00C4               	movwf	___fldiv@b+1
  7554  01B0  3000               	movlw	0
  7555  01B1  00C3               	movwf	___fldiv@b
  7556  01B2                     l3026:
  7557  01B2  1283               	bcf	3,5	;RP0=0, select bank0
  7558  01B3  1303               	bcf	3,6	;RP1=0, select bank0
  7559  01B4  0852               	movf	___fldiv@new_exp+1,w
  7560  01B5  3A80               	xorlw	128
  7561  01B6  00FF               	movwf	btemp+1
  7562  01B7  3080               	movlw	128
  7563  01B8  027F               	subwf	btemp+1,w
  7564  01B9  1D03               	skipz
  7565  01BA  29BD               	goto	u3945
  7566  01BB  3001               	movlw	1
  7567  01BC  0251               	subwf	___fldiv@new_exp,w
  7568  01BD                     u3945:
  7569  01BD  1803               	skipnc
  7570  01BE  29C0               	goto	u3941
  7571  01BF  29C1               	goto	u3940
  7572  01C0                     u3941:
  7573  01C0  29CE               	goto	l783
  7574  01C1                     u3940:
  7575  01C1                     l3028:
  7576  01C1  1283               	bcf	3,5	;RP0=0, select bank0
  7577  01C2  1303               	bcf	3,6	;RP1=0, select bank0
  7578  01C3  01D1               	clrf	___fldiv@new_exp
  7579  01C4  01D2               	clrf	___fldiv@new_exp+1
  7580  01C5                     l3030:
  7581  01C5  3000               	movlw	0
  7582  01C6  00C6               	movwf	___fldiv@b+3
  7583  01C7  3000               	movlw	0
  7584  01C8  00C5               	movwf	___fldiv@b+2
  7585  01C9  3000               	movlw	0
  7586  01CA  00C4               	movwf	___fldiv@b+1
  7587  01CB  3000               	movlw	0
  7588  01CC  00C3               	movwf	___fldiv@b
  7589  01CD                     l3032:
  7590  01CD  01D0               	clrf	___fldiv@sign
  7591  01CE                     l783:
  7592  01CE  1283               	bcf	3,5	;RP0=0, select bank0
  7593  01CF  1303               	bcf	3,6	;RP1=0, select bank0
  7594  01D0  0851               	movf	___fldiv@new_exp,w
  7595  01D1  00C7               	movwf	??___fldiv
  7596  01D2  0847               	movf	??___fldiv,w
  7597  01D3  00D7               	movwf	___fldiv@bexp
  7598  01D4                     l3034:
  7599  01D4  1C57               	btfss	___fldiv@bexp,0
  7600  01D5  29D7               	goto	u3951
  7601  01D6  29D8               	goto	u3950
  7602  01D7                     u3951:
  7603  01D7  29DA               	goto	l3038
  7604  01D8                     u3950:
  7605  01D8                     l3036:
  7606  01D8  17C5               	bsf	___fldiv@b+2,7
  7607  01D9  29DE               	goto	l785
  7608  01DA                     l3038:
  7609  01DA  307F               	movlw	127
  7610  01DB  00C7               	movwf	??___fldiv
  7611  01DC  0847               	movf	??___fldiv,w
  7612  01DD  05C5               	andwf	___fldiv@b+2,f
  7613  01DE                     l785:
  7614  01DE  0857               	movf	___fldiv@bexp,w
  7615  01DF  00C7               	movwf	??___fldiv
  7616  01E0  1003               	clrc
  7617  01E1  0C47               	rrf	??___fldiv,w
  7618  01E2  00C8               	movwf	??___fldiv+1
  7619  01E3  0848               	movf	??___fldiv+1,w
  7620  01E4  00C6               	movwf	___fldiv@b+3
  7621  01E5  0850               	movf	___fldiv@sign,w
  7622  01E6  00C7               	movwf	??___fldiv
  7623  01E7  0847               	movf	??___fldiv,w
  7624  01E8  04C6               	iorwf	___fldiv@b+3,f
  7625  01E9  2882               	goto	l2946
  7626  01EA                     l763:
  7627  01EA  0008               	return
  7628  01EB                     __end_of___fldiv:
  7629                           
  7630                           	psect	text25
  7631  1617                     __ptext25:	
  7632 ;; *************** function _LeerSensorProximidad *****************
  7633 ;; Defined at:
  7634 ;;		line 20 in file "obstacleAvoidanceSensor.c"
  7635 ;; Parameters:    Size  Location     Type
  7636 ;;		None
  7637 ;; Auto vars:     Size  Location     Type
  7638 ;;		None
  7639 ;; Return value:  Size  Location     Type
  7640 ;;                  2    0[COMMON] int 
  7641 ;; Registers used:
  7642 ;;		wreg, status,2
  7643 ;; Tracked objects:
  7644 ;;		On entry : 0/0
  7645 ;;		On exit  : 0/0
  7646 ;;		Unchanged: 0/0
  7647 ;; Data sizes:     COMMON   BANK0   BANK1   BANK3   BANK2
  7648 ;;      Params:         2       0       0       0       0
  7649 ;;      Locals:         0       0       0       0       0
  7650 ;;      Temps:          0       0       0       0       0
  7651 ;;      Totals:         2       0       0       0       0
  7652 ;;Total ram usage:        2 bytes
  7653 ;; Hardware stack levels used: 1
  7654 ;; This function calls:
  7655 ;;		Nothing
  7656 ;; This function is called by:
  7657 ;;		_main
  7658 ;; This function uses a non-reentrant model
  7659 ;;
  7660                           
  7661  1617                     _LeerSensorProximidad:	
  7662                           ;psect for function _LeerSensorProximidad
  7663                           
  7664  1617                     l2684:	
  7665                           ;incstack = 0
  7666                           ; Regs used in _LeerSensorProximidad: [wreg+status,2]
  7667                           
  7668                           
  7669                           ;obstacleAvoidanceSensor.c: 21:     if( PORTCbits.RC1 == 1)
  7670  1617  1283               	bcf	3,5	;RP0=0, select bank0
  7671  1618  1303               	bcf	3,6	;RP1=0, select bank0
  7672  1619  1C87               	btfss	7,1	;volatile
  7673  161A  2E1C               	goto	u3441
  7674  161B  2E1D               	goto	u3440
  7675  161C                     u3441:
  7676  161C  2E24               	goto	l39
  7677  161D                     u3440:
  7678  161D                     l2686:
  7679                           
  7680                           ;obstacleAvoidanceSensor.c: 22:     {;obstacleAvoidanceSensor.c: 23:         r=1;
  7681  161D  3001               	movlw	1
  7682  161E  1683               	bsf	3,5	;RP0=1, select bank1
  7683  161F  1303               	bcf	3,6	;RP1=0, select bank1
  7684  1620  00E5               	movwf	_r^(0+128)
  7685  1621  3000               	movlw	0
  7686  1622  00E6               	movwf	(_r^(0+128)+1)
  7687                           
  7688                           ;obstacleAvoidanceSensor.c: 24:     }
  7689  1623  2E2C               	goto	l2690
  7690  1624                     l39:	
  7691                           ;obstacleAvoidanceSensor.c: 25:     else if (PORTCbits.RC1 == 0){
  7692                           
  7693  1624  1887               	btfsc	7,1	;volatile
  7694  1625  2E27               	goto	u3451
  7695  1626  2E28               	goto	u3450
  7696  1627                     u3451:
  7697  1627  2E2C               	goto	l2690
  7698  1628                     u3450:
  7699  1628                     l2688:
  7700                           
  7701                           ;obstacleAvoidanceSensor.c: 26:         r=0;
  7702  1628  1683               	bsf	3,5	;RP0=1, select bank1
  7703  1629  1303               	bcf	3,6	;RP1=0, select bank1
  7704  162A  01E5               	clrf	_r^(0+128)
  7705  162B  01E6               	clrf	(_r+1)^(0+128)
  7706  162C                     l2690:
  7707                           
  7708                           ;obstacleAvoidanceSensor.c: 28:     return r;
  7709  162C  1683               	bsf	3,5	;RP0=1, select bank1
  7710  162D  1303               	bcf	3,6	;RP1=0, select bank1
  7711  162E  0866               	movf	(_r+1)^(0+128),w
  7712  162F  00F1               	movwf	?_LeerSensorProximidad+1
  7713  1630  0865               	movf	_r^(0+128),w
  7714  1631  00F0               	movwf	?_LeerSensorProximidad
  7715  1632                     l42:
  7716  1632  0008               	return
  7717  1633                     __end_of_LeerSensorProximidad:
  7718                           
  7719                           	psect	text26
  7720  15FB                     __ptext26:	
  7721 ;; *************** function _LeerSensorFlame *****************
  7722 ;; Defined at:
  7723 ;;		line 18 in file "flame_sensor.c"
  7724 ;; Parameters:    Size  Location     Type
  7725 ;;		None
  7726 ;; Auto vars:     Size  Location     Type
  7727 ;;		None
  7728 ;; Return value:  Size  Location     Type
  7729 ;;                  2    0[COMMON] int 
  7730 ;; Registers used:
  7731 ;;		wreg, status,2
  7732 ;; Tracked objects:
  7733 ;;		On entry : 0/0
  7734 ;;		On exit  : 0/0
  7735 ;;		Unchanged: 0/0
  7736 ;; Data sizes:     COMMON   BANK0   BANK1   BANK3   BANK2
  7737 ;;      Params:         2       0       0       0       0
  7738 ;;      Locals:         0       0       0       0       0
  7739 ;;      Temps:          0       0       0       0       0
  7740 ;;      Totals:         2       0       0       0       0
  7741 ;;Total ram usage:        2 bytes
  7742 ;; Hardware stack levels used: 1
  7743 ;; This function calls:
  7744 ;;		Nothing
  7745 ;; This function is called by:
  7746 ;;		_main
  7747 ;; This function uses a non-reentrant model
  7748 ;;
  7749                           
  7750  15FB                     _LeerSensorFlame:	
  7751                           ;psect for function _LeerSensorFlame
  7752                           
  7753  15FB                     l2660:	
  7754                           ;incstack = 0
  7755                           ; Regs used in _LeerSensorFlame: [wreg+status,2]
  7756                           
  7757                           
  7758                           ;flame_sensor.c: 20:     if( PORTCbits.RC0 == 1)
  7759  15FB  1283               	bcf	3,5	;RP0=0, select bank0
  7760  15FC  1303               	bcf	3,6	;RP1=0, select bank0
  7761  15FD  1C07               	btfss	7,0	;volatile
  7762  15FE  2E00               	goto	u3411
  7763  15FF  2E01               	goto	u3410
  7764  1600                     u3411:
  7765  1600  2E08               	goto	l12
  7766  1601                     u3410:
  7767  1601                     l2662:
  7768                           
  7769                           ;flame_sensor.c: 21:     {;flame_sensor.c: 22:         f=1;
  7770  1601  3001               	movlw	1
  7771  1602  1683               	bsf	3,5	;RP0=1, select bank1
  7772  1603  1303               	bcf	3,6	;RP1=0, select bank1
  7773  1604  00E7               	movwf	_f^(0+128)
  7774  1605  3000               	movlw	0
  7775  1606  00E8               	movwf	(_f^(0+128)+1)
  7776                           
  7777                           ;flame_sensor.c: 23:     }
  7778  1607  2E10               	goto	l2666
  7779  1608                     l12:	
  7780                           ;flame_sensor.c: 24:     else if (PORTCbits.RC0 == 0){
  7781                           
  7782  1608  1807               	btfsc	7,0	;volatile
  7783  1609  2E0B               	goto	u3421
  7784  160A  2E0C               	goto	u3420
  7785  160B                     u3421:
  7786  160B  2E10               	goto	l2666
  7787  160C                     u3420:
  7788  160C                     l2664:
  7789                           
  7790                           ;flame_sensor.c: 25:         f=0;
  7791  160C  1683               	bsf	3,5	;RP0=1, select bank1
  7792  160D  1303               	bcf	3,6	;RP1=0, select bank1
  7793  160E  01E7               	clrf	_f^(0+128)
  7794  160F  01E8               	clrf	(_f+1)^(0+128)
  7795  1610                     l2666:
  7796                           
  7797                           ;flame_sensor.c: 27:     return f;
  7798  1610  1683               	bsf	3,5	;RP0=1, select bank1
  7799  1611  1303               	bcf	3,6	;RP1=0, select bank1
  7800  1612  0868               	movf	(_f+1)^(0+128),w
  7801  1613  00F1               	movwf	?_LeerSensorFlame+1
  7802  1614  0867               	movf	_f^(0+128),w
  7803  1615  00F0               	movwf	?_LeerSensorFlame
  7804  1616                     l15:
  7805  1616  0008               	return
  7806  1617                     __end_of_LeerSensorFlame:
  7807                           
  7808                           	psect	text27
  7809  15BC                     __ptext27:	
  7810 ;; *************** function _LeerMicrofono *****************
  7811 ;; Defined at:
  7812 ;;		line 16 in file "Microphone.c"
  7813 ;; Parameters:    Size  Location     Type
  7814 ;;		None
  7815 ;; Auto vars:     Size  Location     Type
  7816 ;;  a               2    2[COMMON] int 
  7817 ;; Return value:  Size  Location     Type
  7818 ;;                  2    0[COMMON] int 
  7819 ;; Registers used:
  7820 ;;		wreg, status,2
  7821 ;; Tracked objects:
  7822 ;;		On entry : 0/0
  7823 ;;		On exit  : 0/0
  7824 ;;		Unchanged: 0/0
  7825 ;; Data sizes:     COMMON   BANK0   BANK1   BANK3   BANK2
  7826 ;;      Params:         2       0       0       0       0
  7827 ;;      Locals:         2       0       0       0       0
  7828 ;;      Temps:          0       0       0       0       0
  7829 ;;      Totals:         4       0       0       0       0
  7830 ;;Total ram usage:        4 bytes
  7831 ;; Hardware stack levels used: 1
  7832 ;; This function calls:
  7833 ;;		Nothing
  7834 ;; This function is called by:
  7835 ;;		_main
  7836 ;; This function uses a non-reentrant model
  7837 ;;
  7838                           
  7839  15BC                     _LeerMicrofono:	
  7840                           ;psect for function _LeerMicrofono
  7841                           
  7842  15BC                     l2672:	
  7843                           ;incstack = 0
  7844                           ; Regs used in _LeerMicrofono: [wreg+status,2]
  7845                           
  7846                           
  7847                           ;Microphone.c: 18:     int a ;;Microphone.c: 19:         if(PORTCbits.RC2 == 1 ){
  7848  15BC  1283               	bcf	3,5	;RP0=0, select bank0
  7849  15BD  1303               	bcf	3,6	;RP1=0, select bank0
  7850  15BE  1D07               	btfss	7,2	;volatile
  7851  15BF  2DC1               	goto	u3431
  7852  15C0  2DC2               	goto	u3430
  7853  15C1                     u3431:
  7854  15C1  2DC7               	goto	l2676
  7855  15C2                     u3430:
  7856  15C2                     l2674:
  7857                           
  7858                           ;Microphone.c: 20:             a = 1;
  7859  15C2  3001               	movlw	1
  7860  15C3  00F2               	movwf	LeerMicrofono@a
  7861  15C4  3000               	movlw	0
  7862  15C5  00F3               	movwf	LeerMicrofono@a+1
  7863                           
  7864                           ;Microphone.c: 21:         }
  7865  15C6  2DC9               	goto	l2678
  7866  15C7                     l2676:
  7867                           
  7868                           ;Microphone.c: 23:             a = 0;
  7869  15C7  01F2               	clrf	LeerMicrofono@a
  7870  15C8  01F3               	clrf	LeerMicrofono@a+1
  7871  15C9                     l2678:
  7872                           
  7873                           ;Microphone.c: 25:         return a ;
  7874  15C9  0873               	movf	LeerMicrofono@a+1,w
  7875  15CA  00F1               	movwf	?_LeerMicrofono+1
  7876  15CB  0872               	movf	LeerMicrofono@a,w
  7877  15CC  00F0               	movwf	?_LeerMicrofono
  7878  15CD                     l27:
  7879  15CD  0008               	return
  7880  15CE                     __end_of_LeerMicrofono:
  7881                           
  7882                           	psect	text28
  7883  16AA                     __ptext28:	
  7884 ;; *************** function _LCD_String_xy *****************
  7885 ;; Defined at:
  7886 ;;		line 113 in file "LCD.c"
  7887 ;; Parameters:    Size  Location     Type
  7888 ;;  row             1    wreg     unsigned char 
  7889 ;;  pos             1    5[COMMON] unsigned char 
  7890 ;;  msg             1    6[COMMON] PTR const unsigned char 
  7891 ;;		 -> STR_2(6), 
  7892 ;; Auto vars:     Size  Location     Type
  7893 ;;  row             1    8[COMMON] unsigned char 
  7894 ;;  location        1    9[COMMON] unsigned char 
  7895 ;; Return value:  Size  Location     Type
  7896 ;;                  1    wreg      void 
  7897 ;; Registers used:
  7898 ;;		wreg, fsr0l, fsr0h, status,2, status,0, btemp+1, pclath, cstack
  7899 ;; Tracked objects:
  7900 ;;		On entry : 0/0
  7901 ;;		On exit  : 0/0
  7902 ;;		Unchanged: 0/0
  7903 ;; Data sizes:     COMMON   BANK0   BANK1   BANK3   BANK2
  7904 ;;      Params:         2       0       0       0       0
  7905 ;;      Locals:         2       0       0       0       0
  7906 ;;      Temps:          1       0       0       0       0
  7907 ;;      Totals:         5       0       0       0       0
  7908 ;;Total ram usage:        5 bytes
  7909 ;; Hardware stack levels used: 1
  7910 ;; Hardware stack levels required when called: 2
  7911 ;; This function calls:
  7912 ;;		_LCD_Command
  7913 ;;		_LCD_String
  7914 ;; This function is called by:
  7915 ;;		_main
  7916 ;; This function uses a non-reentrant model
  7917 ;;
  7918                           
  7919  16AA                     _LCD_String_xy:	
  7920                           ;psect for function _LCD_String_xy
  7921                           
  7922                           
  7923                           ;incstack = 0
  7924                           ; Regs used in _LCD_String_xy: [wreg-fsr0h+status,2+status,0+btemp+1+pclath+cstack]
  7925                           ;LCD_String_xy@row stored from wreg
  7926  16AA  00F8               	movwf	LCD_String_xy@row
  7927  16AB                     l2708:
  7928  16AB                     l2710:
  7929                           
  7930                           ;LCD.c: 116:     if(row<=1)
  7931  16AB  3002               	movlw	2
  7932  16AC  0278               	subwf	LCD_String_xy@row,w
  7933  16AD  1803               	skipnc
  7934  16AE  2EB0               	goto	u3461
  7935  16AF  2EB1               	goto	u3460
  7936  16B0                     u3461:
  7937  16B0  2EBE               	goto	l2716
  7938  16B1                     u3460:
  7939  16B1                     l2712:
  7940                           
  7941                           ;LCD.c: 117:     {;LCD.c: 118:         location=(0x80) | ((pos) & 0x0f);
  7942  16B1  0875               	movf	LCD_String_xy@pos,w
  7943  16B2  390F               	andlw	15
  7944  16B3  3880               	iorlw	128
  7945  16B4  00F7               	movwf	??_LCD_String_xy
  7946  16B5  0877               	movf	??_LCD_String_xy,w
  7947  16B6  00F9               	movwf	LCD_String_xy@location
  7948  16B7                     l2714:
  7949                           
  7950                           ;LCD.c: 119:         LCD_Command(location);
  7951  16B7  0879               	movf	LCD_String_xy@location,w
  7952  16B8  160A  118A  2702  160A  118A  	fcall	_LCD_Command
  7953                           
  7954                           ;LCD.c: 120:     }
  7955  16BD  2ECA               	goto	l2720
  7956  16BE                     l2716:
  7957                           
  7958                           ;LCD.c: 122:     {;LCD.c: 123:         location=(0xC0) | ((pos) & 0x0f);
  7959  16BE  0875               	movf	LCD_String_xy@pos,w
  7960  16BF  390F               	andlw	15
  7961  16C0  38C0               	iorlw	192
  7962  16C1  00F7               	movwf	??_LCD_String_xy
  7963  16C2  0877               	movf	??_LCD_String_xy,w
  7964  16C3  00F9               	movwf	LCD_String_xy@location
  7965  16C4                     l2718:
  7966                           
  7967                           ;LCD.c: 124:         LCD_Command(location);
  7968  16C4  0879               	movf	LCD_String_xy@location,w
  7969  16C5  160A  118A  2702  160A  118A  	fcall	_LCD_Command
  7970  16CA                     l2720:
  7971                           
  7972                           ;LCD.c: 128:     LCD_String(msg);
  7973  16CA  0876               	movf	LCD_String_xy@msg,w
  7974  16CB  00F3               	movwf	LCD_String@msg
  7975  16CC  3000               	movlw	0
  7976  16CD  1D03               	btfss	3,2
  7977  16CE  3080               	movlw	128
  7978  16CF  00F4               	movwf	LCD_String@msg+1
  7979  16D0  160A  118A  2633  160A  118A  	fcall	_LCD_String
  7980  16D5                     l74:
  7981  16D5  0008               	return
  7982  16D6                     __end_of_LCD_String_xy:
  7983                           
  7984                           	psect	text29
  7985  1633                     __ptext29:	
  7986 ;; *************** function _LCD_String *****************
  7987 ;; Defined at:
  7988 ;;		line 103 in file "LCD.c"
  7989 ;; Parameters:    Size  Location     Type
  7990 ;;  msg             2    3[COMMON] PTR const unsigned char 
  7991 ;;		 -> STR_3(3), STR_2(6), main@Temperature(10), 
  7992 ;; Auto vars:     Size  Location     Type
  7993 ;;		None
  7994 ;; Return value:  Size  Location     Type
  7995 ;;                  1    wreg      void 
  7996 ;; Registers used:
  7997 ;;		wreg, fsr0l, fsr0h, status,2, status,0, btemp+1, pclath, cstack
  7998 ;; Tracked objects:
  7999 ;;		On entry : 0/0
  8000 ;;		On exit  : 0/0
  8001 ;;		Unchanged: 0/0
  8002 ;; Data sizes:     COMMON   BANK0   BANK1   BANK3   BANK2
  8003 ;;      Params:         2       0       0       0       0
  8004 ;;      Locals:         0       0       0       0       0
  8005 ;;      Temps:          0       0       0       0       0
  8006 ;;      Totals:         2       0       0       0       0
  8007 ;;Total ram usage:        2 bytes
  8008 ;; Hardware stack levels used: 1
  8009 ;; Hardware stack levels required when called: 1
  8010 ;; This function calls:
  8011 ;;		_LCD_Char
  8012 ;; This function is called by:
  8013 ;;		_LCD_String_xy
  8014 ;;		_main
  8015 ;; This function uses a non-reentrant model
  8016 ;;
  8017                           
  8018  1633                     _LCD_String:	
  8019                           ;psect for function _LCD_String
  8020                           
  8021  1633                     l2508:	
  8022                           ;incstack = 0
  8023                           ; Regs used in _LCD_String: [wreg-fsr0h+status,2+status,0+btemp+1+pclath+cstack]
  8024                           
  8025                           
  8026                           ;LCD.c: 103: void LCD_String(const char *msg);LCD.c: 104: {;LCD.c: 105:  while((*msg)!=0
      +                          )
  8027  1633  2E48               	goto	l2514
  8028  1634                     l2510:
  8029                           
  8030                           ;LCD.c: 106:  {;LCD.c: 107:    LCD_Char(*msg);
  8031  1634  0874               	movf	LCD_String@msg+1,w
  8032  1635  00FF               	movwf	btemp+1
  8033  1636  0873               	movf	LCD_String@msg,w
  8034  1637  0084               	movwf	4
  8035  1638  120A  158A  2000  160A  118A  	fcall	stringtab
  8036  163D  160A  118A  2738  160A  118A  	fcall	_LCD_Char
  8037  1642                     l2512:
  8038                           
  8039                           ;LCD.c: 108:    msg++;
  8040  1642  3001               	movlw	1
  8041  1643  07F3               	addwf	LCD_String@msg,f
  8042  1644  1803               	skipnc
  8043  1645  0AF4               	incf	LCD_String@msg+1,f
  8044  1646  3000               	movlw	0
  8045  1647  07F4               	addwf	LCD_String@msg+1,f
  8046  1648                     l2514:
  8047                           
  8048                           ;LCD.c: 105:  while((*msg)!=0)
  8049  1648  0874               	movf	LCD_String@msg+1,w
  8050  1649  1283               	bcf	3,5	;RP0=0, select bank0
  8051  164A  1303               	bcf	3,6	;RP1=0, select bank0
  8052  164B  00FF               	movwf	btemp+1
  8053  164C  0873               	movf	LCD_String@msg,w
  8054  164D  0084               	movwf	4
  8055  164E  120A  158A  2000  160A  118A  	fcall	stringtab
  8056  1653  3A00               	xorlw	0
  8057  1654  1D03               	skipz
  8058  1655  2E57               	goto	u3021
  8059  1656  2E58               	goto	u3020
  8060  1657                     u3021:
  8061  1657  2E34               	goto	l2510
  8062  1658                     u3020:
  8063  1658                     l69:
  8064  1658  0008               	return
  8065  1659                     __end_of_LCD_String:
  8066                           
  8067                           	psect	text30
  8068  1738                     __ptext30:	
  8069 ;; *************** function _LCD_Char *****************
  8070 ;; Defined at:
  8071 ;;		line 88 in file "LCD.c"
  8072 ;; Parameters:    Size  Location     Type
  8073 ;;  dat             1    wreg     unsigned char 
  8074 ;; Auto vars:     Size  Location     Type
  8075 ;;  dat             1    2[COMMON] unsigned char 
  8076 ;; Return value:  Size  Location     Type
  8077 ;;                  1    wreg      void 
  8078 ;; Registers used:
  8079 ;;		wreg, status,2, status,0
  8080 ;; Tracked objects:
  8081 ;;		On entry : 0/0
  8082 ;;		On exit  : 0/0
  8083 ;;		Unchanged: 0/0
  8084 ;; Data sizes:     COMMON   BANK0   BANK1   BANK3   BANK2
  8085 ;;      Params:         0       0       0       0       0
  8086 ;;      Locals:         1       0       0       0       0
  8087 ;;      Temps:          2       0       0       0       0
  8088 ;;      Totals:         3       0       0       0       0
  8089 ;;Total ram usage:        3 bytes
  8090 ;; Hardware stack levels used: 1
  8091 ;; This function calls:
  8092 ;;		Nothing
  8093 ;; This function is called by:
  8094 ;;		_LCD_String
  8095 ;; This function uses a non-reentrant model
  8096 ;;
  8097                           
  8098  1738                     _LCD_Char:	
  8099                           ;psect for function _LCD_Char
  8100                           
  8101                           
  8102                           ;incstack = 0
  8103                           ; Regs used in _LCD_Char: [wreg+status,2+status,0]
  8104                           ;LCD_Char@dat stored from wreg
  8105  1738  00F2               	movwf	LCD_Char@dat
  8106  1739                     l2122:
  8107                           
  8108                           ;LCD.c: 88: void LCD_Char(unsigned char dat);LCD.c: 89: {;LCD.c: 90:  PORTD = (PORTD & 0
      +                          x0f) | (0xF0 & dat);
  8109  1739  30F0               	movlw	240
  8110  173A  0572               	andwf	LCD_Char@dat,w
  8111  173B  00F0               	movwf	??_LCD_Char
  8112  173C  1283               	bcf	3,5	;RP0=0, select bank0
  8113  173D  1303               	bcf	3,6	;RP1=0, select bank0
  8114  173E  0808               	movf	8,w	;volatile
  8115  173F  390F               	andlw	15
  8116  1740  0470               	iorwf	??_LCD_Char,w
  8117  1741  0088               	movwf	8	;volatile
  8118  1742                     l2124:
  8119                           
  8120                           ;LCD.c: 91:  PORTDbits.RD0 = 1;
  8121  1742  1408               	bsf	8,0	;volatile
  8122  1743                     l2126:
  8123                           
  8124                           ;LCD.c: 92:  PORTDbits.RD1 = 1;
  8125  1743  1488               	bsf	8,1	;volatile
  8126  1744                     l2128:
  8127                           
  8128                           ;LCD.c: 93:  __nop();
  8129  1744  0000               	nop
  8130  1745                     l2130:
  8131                           
  8132                           ;LCD.c: 94:  PORTDbits.RD1 = 0;
  8133  1745  1283               	bcf	3,5	;RP0=0, select bank0
  8134  1746  1303               	bcf	3,6	;RP1=0, select bank0
  8135  1747  1088               	bcf	8,1	;volatile
  8136  1748                     l2132:
  8137                           
  8138                           ;LCD.c: 95:  _delay((unsigned long)((1)*(8000000/4000.0)));
  8139  1748  3003               	movlw	3
  8140  1749  00F1               	movwf	??_LCD_Char+1
  8141  174A  3097               	movlw	151
  8142  174B  00F0               	movwf	??_LCD_Char
  8143  174C                     u4217:
  8144  174C  0BF0               	decfsz	??_LCD_Char,f
  8145  174D  2F4C               	goto	u4217
  8146  174E  0BF1               	decfsz	??_LCD_Char+1,f
  8147  174F  2F4C               	goto	u4217
  8148  1750  2F51               	nop2
  8149  1751                     l2134:
  8150                           
  8151                           ;LCD.c: 96:     PORTD = (unsigned char)((PORTD & 0x0f) | (dat<<4));
  8152  1751  0872               	movf	LCD_Char@dat,w
  8153  1752  00F0               	movwf	??_LCD_Char
  8154  1753  3004               	movlw	4
  8155  1754                     u2145:
  8156  1754  1003               	clrc
  8157  1755  0DF0               	rlf	??_LCD_Char,f
  8158  1756  3EFF               	addlw	-1
  8159  1757  1D03               	skipz
  8160  1758  2F54               	goto	u2145
  8161  1759  1283               	bcf	3,5	;RP0=0, select bank0
  8162  175A  1303               	bcf	3,6	;RP1=0, select bank0
  8163  175B  0808               	movf	8,w	;volatile
  8164  175C  390F               	andlw	15
  8165  175D  0470               	iorwf	??_LCD_Char,w
  8166  175E  0088               	movwf	8	;volatile
  8167  175F                     l2136:
  8168                           
  8169                           ;LCD.c: 97:  PORTDbits.RD1 = 1;
  8170  175F  1488               	bsf	8,1	;volatile
  8171  1760                     l2138:
  8172                           
  8173                           ;LCD.c: 98:  __nop();
  8174  1760  0000               	nop
  8175  1761                     l2140:
  8176                           
  8177                           ;LCD.c: 99:  PORTDbits.RD1 = 0;
  8178  1761  1283               	bcf	3,5	;RP0=0, select bank0
  8179  1762  1303               	bcf	3,6	;RP1=0, select bank0
  8180  1763  1088               	bcf	8,1	;volatile
  8181                           
  8182                           ;LCD.c: 100:  _delay((unsigned long)((3)*(8000000/4000.0)));
  8183  1764  3008               	movlw	8
  8184  1765  00F1               	movwf	??_LCD_Char+1
  8185  1766  30C9               	movlw	201
  8186  1767  00F0               	movwf	??_LCD_Char
  8187  1768                     u4227:
  8188  1768  0BF0               	decfsz	??_LCD_Char,f
  8189  1769  2F68               	goto	u4227
  8190  176A  0BF1               	decfsz	??_LCD_Char+1,f
  8191  176B  2F68               	goto	u4227
  8192  176C  2F6D               	nop2
  8193  176D                     l63:
  8194  176D  0008               	return
  8195  176E                     __end_of_LCD_Char:
  8196                           
  8197                           	psect	text31
  8198  1680                     __ptext31:	
  8199 ;; *************** function _LCD_Init *****************
  8200 ;; Defined at:
  8201 ;;		line 35 in file "LCD.c"
  8202 ;; Parameters:    Size  Location     Type
  8203 ;;		None
  8204 ;; Auto vars:     Size  Location     Type
  8205 ;;		None
  8206 ;; Return value:  Size  Location     Type
  8207 ;;                  1    wreg      void 
  8208 ;; Registers used:
  8209 ;;		wreg, status,2, status,0, pclath, cstack
  8210 ;; Tracked objects:
  8211 ;;		On entry : 0/0
  8212 ;;		On exit  : 0/0
  8213 ;;		Unchanged: 0/0
  8214 ;; Data sizes:     COMMON   BANK0   BANK1   BANK3   BANK2
  8215 ;;      Params:         0       0       0       0       0
  8216 ;;      Locals:         0       0       0       0       0
  8217 ;;      Temps:          2       0       0       0       0
  8218 ;;      Totals:         2       0       0       0       0
  8219 ;;Total ram usage:        2 bytes
  8220 ;; Hardware stack levels used: 1
  8221 ;; Hardware stack levels required when called: 1
  8222 ;; This function calls:
  8223 ;;		_LCD_Command
  8224 ;; This function is called by:
  8225 ;;		_main
  8226 ;; This function uses a non-reentrant model
  8227 ;;
  8228                           
  8229  1680                     _LCD_Init:	
  8230                           ;psect for function _LCD_Init
  8231                           
  8232  1680                     l2694:	
  8233                           ;incstack = 0
  8234                           ; Regs used in _LCD_Init: [wreg+status,2+status,0+pclath+cstack]
  8235                           
  8236                           
  8237                           ;LCD.c: 37:     TRISD = 0;
  8238  1680  1683               	bsf	3,5	;RP0=1, select bank1
  8239  1681  1303               	bcf	3,6	;RP1=0, select bank1
  8240  1682  0188               	clrf	8	;volatile
  8241  1683                     l2696:
  8242                           
  8243                           ;LCD.c: 38:     _delay((unsigned long)((15)*(8000000/4000.0)));
  8244  1683  3027               	movlw	39
  8245  1684  00F4               	movwf	??_LCD_Init+1
  8246  1685  30F5               	movlw	245
  8247  1686  00F3               	movwf	??_LCD_Init
  8248  1687                     u4237:
  8249  1687  0BF3               	decfsz	??_LCD_Init,f
  8250  1688  2E87               	goto	u4237
  8251  1689  0BF4               	decfsz	??_LCD_Init+1,f
  8252  168A  2E87               	goto	u4237
  8253  168B                     l2698:
  8254                           
  8255                           ;LCD.c: 39:     LCD_Command(0x02);
  8256  168B  3002               	movlw	2
  8257  168C  160A  118A  2702  160A  118A  	fcall	_LCD_Command
  8258  1691                     l2700:
  8259                           
  8260                           ;LCD.c: 40:     LCD_Command(0x28);
  8261  1691  3028               	movlw	40
  8262  1692  160A  118A  2702  160A  118A  	fcall	_LCD_Command
  8263  1697                     l2702:
  8264                           
  8265                           ;LCD.c: 41:     LCD_Command(0x01);
  8266  1697  3001               	movlw	1
  8267  1698  160A  118A  2702  160A  118A  	fcall	_LCD_Command
  8268  169D                     l2704:
  8269                           
  8270                           ;LCD.c: 42:     LCD_Command(0x0c);
  8271  169D  300C               	movlw	12
  8272  169E  160A  118A  2702  160A  118A  	fcall	_LCD_Command
  8273  16A3                     l2706:
  8274                           
  8275                           ;LCD.c: 43:     LCD_Command(0x06);
  8276  16A3  3006               	movlw	6
  8277  16A4  160A  118A  2702  160A  118A  	fcall	_LCD_Command
  8278  16A9                     l57:
  8279  16A9  0008               	return
  8280  16AA                     __end_of_LCD_Init:
  8281                           
  8282                           	psect	text32
  8283  159C                     __ptext32:	
  8284 ;; *************** function _LCD_Clear *****************
  8285 ;; Defined at:
  8286 ;;		line 144 in file "LCD.c"
  8287 ;; Parameters:    Size  Location     Type
  8288 ;;		None
  8289 ;; Auto vars:     Size  Location     Type
  8290 ;;		None
  8291 ;; Return value:  Size  Location     Type
  8292 ;;                  1    wreg      void 
  8293 ;; Registers used:
  8294 ;;		wreg, status,2, status,0, pclath, cstack
  8295 ;; Tracked objects:
  8296 ;;		On entry : 0/0
  8297 ;;		On exit  : 0/0
  8298 ;;		Unchanged: 0/0
  8299 ;; Data sizes:     COMMON   BANK0   BANK1   BANK3   BANK2
  8300 ;;      Params:         0       0       0       0       0
  8301 ;;      Locals:         0       0       0       0       0
  8302 ;;      Temps:          2       0       0       0       0
  8303 ;;      Totals:         2       0       0       0       0
  8304 ;;Total ram usage:        2 bytes
  8305 ;; Hardware stack levels used: 1
  8306 ;; Hardware stack levels required when called: 1
  8307 ;; This function calls:
  8308 ;;		_LCD_Command
  8309 ;; This function is called by:
  8310 ;;		_main
  8311 ;; This function uses a non-reentrant model
  8312 ;;
  8313                           
  8314  159C                     _LCD_Clear:	
  8315                           ;psect for function _LCD_Clear
  8316                           
  8317  159C                     l2722:	
  8318                           ;incstack = 0
  8319                           ; Regs used in _LCD_Clear: [wreg+status,2+status,0+pclath+cstack]
  8320                           
  8321                           
  8322                           ;LCD.c: 146:     LCD_Command(0x01);
  8323  159C  3001               	movlw	1
  8324  159D  160A  118A  2702  160A  118A  	fcall	_LCD_Command
  8325  15A2                     l2724:
  8326                           
  8327                           ;LCD.c: 147:     _delay((unsigned long)((3)*(8000000/4000.0)));
  8328  15A2  3008               	movlw	8
  8329  15A3  00F4               	movwf	??_LCD_Clear+1
  8330  15A4  30C9               	movlw	201
  8331  15A5  00F3               	movwf	??_LCD_Clear
  8332  15A6                     u4247:
  8333  15A6  0BF3               	decfsz	??_LCD_Clear,f
  8334  15A7  2DA6               	goto	u4247
  8335  15A8  0BF4               	decfsz	??_LCD_Clear+1,f
  8336  15A9  2DA6               	goto	u4247
  8337  15AA  2DAB               	nop2
  8338  15AB                     l77:
  8339  15AB  0008               	return
  8340  15AC                     __end_of_LCD_Clear:
  8341                           
  8342                           	psect	text33
  8343  1702                     __ptext33:	
  8344 ;; *************** function _LCD_Command *****************
  8345 ;; Defined at:
  8346 ;;		line 59 in file "LCD.c"
  8347 ;; Parameters:    Size  Location     Type
  8348 ;;  cmd             1    wreg     unsigned char 
  8349 ;; Auto vars:     Size  Location     Type
  8350 ;;  cmd             1    2[COMMON] unsigned char 
  8351 ;; Return value:  Size  Location     Type
  8352 ;;                  1    wreg      void 
  8353 ;; Registers used:
  8354 ;;		wreg, status,2, status,0
  8355 ;; Tracked objects:
  8356 ;;		On entry : 0/0
  8357 ;;		On exit  : 0/0
  8358 ;;		Unchanged: 0/0
  8359 ;; Data sizes:     COMMON   BANK0   BANK1   BANK3   BANK2
  8360 ;;      Params:         0       0       0       0       0
  8361 ;;      Locals:         1       0       0       0       0
  8362 ;;      Temps:          2       0       0       0       0
  8363 ;;      Totals:         3       0       0       0       0
  8364 ;;Total ram usage:        3 bytes
  8365 ;; Hardware stack levels used: 1
  8366 ;; This function calls:
  8367 ;;		Nothing
  8368 ;; This function is called by:
  8369 ;;		_LCD_Init
  8370 ;;		_LCD_String_xy
  8371 ;;		_LCD_Clear
  8372 ;; This function uses a non-reentrant model
  8373 ;;
  8374                           
  8375  1702                     _LCD_Command:	
  8376                           ;psect for function _LCD_Command
  8377                           
  8378                           
  8379                           ;incstack = 0
  8380                           ; Regs used in _LCD_Command: [wreg+status,2+status,0]
  8381                           ;LCD_Command@cmd stored from wreg
  8382  1702  00F2               	movwf	LCD_Command@cmd
  8383  1703                     l2488:
  8384                           
  8385                           ;LCD.c: 59: void LCD_Command(unsigned char cmd );LCD.c: 60: {;LCD.c: 61:  PORTD = (PORTD
      +                           & 0x0f) |(0xF0 & cmd);
  8386  1703  30F0               	movlw	240
  8387  1704  0572               	andwf	LCD_Command@cmd,w
  8388  1705  00F0               	movwf	??_LCD_Command
  8389  1706  1283               	bcf	3,5	;RP0=0, select bank0
  8390  1707  1303               	bcf	3,6	;RP1=0, select bank0
  8391  1708  0808               	movf	8,w	;volatile
  8392  1709  390F               	andlw	15
  8393  170A  0470               	iorwf	??_LCD_Command,w
  8394  170B  0088               	movwf	8	;volatile
  8395  170C                     l2490:
  8396                           
  8397                           ;LCD.c: 62:  PORTDbits.RD0 = 0;
  8398  170C  1008               	bcf	8,0	;volatile
  8399  170D                     l2492:
  8400                           
  8401                           ;LCD.c: 63:  PORTDbits.RD1 = 1;
  8402  170D  1488               	bsf	8,1	;volatile
  8403  170E                     l2494:
  8404                           
  8405                           ;LCD.c: 64:  __nop();
  8406  170E  0000               	nop
  8407  170F                     l2496:
  8408                           
  8409                           ;LCD.c: 65:  PORTDbits.RD1 = 0;
  8410  170F  1283               	bcf	3,5	;RP0=0, select bank0
  8411  1710  1303               	bcf	3,6	;RP1=0, select bank0
  8412  1711  1088               	bcf	8,1	;volatile
  8413  1712                     l2498:
  8414                           
  8415                           ;LCD.c: 66:  _delay((unsigned long)((1)*(8000000/4000.0)));
  8416  1712  3003               	movlw	3
  8417  1713  00F1               	movwf	??_LCD_Command+1
  8418  1714  3097               	movlw	151
  8419  1715  00F0               	movwf	??_LCD_Command
  8420  1716                     u4257:
  8421  1716  0BF0               	decfsz	??_LCD_Command,f
  8422  1717  2F16               	goto	u4257
  8423  1718  0BF1               	decfsz	??_LCD_Command+1,f
  8424  1719  2F16               	goto	u4257
  8425  171A  2F1B               	nop2
  8426  171B                     l2500:
  8427                           
  8428                           ;LCD.c: 67:     PORTD = (unsigned char)((PORTD & 0x0f) | (cmd<<4));
  8429  171B  0872               	movf	LCD_Command@cmd,w
  8430  171C  00F0               	movwf	??_LCD_Command
  8431  171D  3004               	movlw	4
  8432  171E                     u3015:
  8433  171E  1003               	clrc
  8434  171F  0DF0               	rlf	??_LCD_Command,f
  8435  1720  3EFF               	addlw	-1
  8436  1721  1D03               	skipz
  8437  1722  2F1E               	goto	u3015
  8438  1723  1283               	bcf	3,5	;RP0=0, select bank0
  8439  1724  1303               	bcf	3,6	;RP1=0, select bank0
  8440  1725  0808               	movf	8,w	;volatile
  8441  1726  390F               	andlw	15
  8442  1727  0470               	iorwf	??_LCD_Command,w
  8443  1728  0088               	movwf	8	;volatile
  8444  1729                     l2502:
  8445                           
  8446                           ;LCD.c: 68:  PORTDbits.RD1 = 1;
  8447  1729  1488               	bsf	8,1	;volatile
  8448  172A                     l2504:
  8449                           
  8450                           ;LCD.c: 69:  __nop();
  8451  172A  0000               	nop
  8452  172B                     l2506:
  8453                           
  8454                           ;LCD.c: 70:  PORTDbits.RD1 = 0;
  8455  172B  1283               	bcf	3,5	;RP0=0, select bank0
  8456  172C  1303               	bcf	3,6	;RP1=0, select bank0
  8457  172D  1088               	bcf	8,1	;volatile
  8458                           
  8459                           ;LCD.c: 71:  _delay((unsigned long)((3)*(8000000/4000.0)));
  8460  172E  3008               	movlw	8
  8461  172F  00F1               	movwf	??_LCD_Command+1
  8462  1730  30C9               	movlw	201
  8463  1731  00F0               	movwf	??_LCD_Command
  8464  1732                     u4267:
  8465  1732  0BF0               	decfsz	??_LCD_Command,f
  8466  1733  2F32               	goto	u4267
  8467  1734  0BF1               	decfsz	??_LCD_Command+1,f
  8468  1735  2F32               	goto	u4267
  8469  1736  2F37               	nop2
  8470  1737                     l60:
  8471  1737  0008               	return
  8472  1738                     __end_of_LCD_Command:
  8473                           
  8474                           	psect	text34
  8475  15E1                     __ptext34:	
  8476 ;; *************** function _ADC_init *****************
  8477 ;; Defined at:
  8478 ;;		line 25 in file "ADC.c"
  8479 ;; Parameters:    Size  Location     Type
  8480 ;;		None
  8481 ;; Auto vars:     Size  Location     Type
  8482 ;;		None
  8483 ;; Return value:  Size  Location     Type
  8484 ;;                  1    wreg      void 
  8485 ;; Registers used:
  8486 ;;		wreg, status,2, status,0
  8487 ;; Tracked objects:
  8488 ;;		On entry : 0/0
  8489 ;;		On exit  : 0/0
  8490 ;;		Unchanged: 0/0
  8491 ;; Data sizes:     COMMON   BANK0   BANK1   BANK3   BANK2
  8492 ;;      Params:         0       0       0       0       0
  8493 ;;      Locals:         0       0       0       0       0
  8494 ;;      Temps:          0       0       0       0       0
  8495 ;;      Totals:         0       0       0       0       0
  8496 ;;Total ram usage:        0 bytes
  8497 ;; Hardware stack levels used: 1
  8498 ;; This function calls:
  8499 ;;		Nothing
  8500 ;; This function is called by:
  8501 ;;		_main
  8502 ;; This function uses a non-reentrant model
  8503 ;;
  8504                           
  8505  15E1                     _ADC_init:	
  8506                           ;psect for function _ADC_init
  8507                           
  8508  15E1                     l2730:	
  8509                           ;incstack = 0
  8510                           ; Regs used in _ADC_init: [wreg+status,2+status,0]
  8511                           
  8512                           
  8513                           ;ADC.c: 27:     ANSEL = 0x01;
  8514  15E1  3001               	movlw	1
  8515  15E2  1683               	bsf	3,5	;RP0=1, select bank3
  8516  15E3  1703               	bsf	3,6	;RP1=1, select bank3
  8517  15E4  0088               	movwf	8	;volatile
  8518  15E5                     l2732:
  8519                           
  8520                           ;ADC.c: 28:     PORTA=0;
  8521  15E5  1283               	bcf	3,5	;RP0=0, select bank0
  8522  15E6  1303               	bcf	3,6	;RP1=0, select bank0
  8523  15E7  0185               	clrf	5	;volatile
  8524  15E8                     l2734:
  8525                           
  8526                           ;ADC.c: 29:     TRISA0 = 1;
  8527  15E8  1683               	bsf	3,5	;RP0=1, select bank1
  8528  15E9  1303               	bcf	3,6	;RP1=0, select bank1
  8529  15EA  1405               	bsf	5,0	;volatile
  8530  15EB                     l2736:
  8531                           
  8532                           ;ADC.c: 30:     TRISA1 = 0;
  8533  15EB  1085               	bcf	5,1	;volatile
  8534  15EC                     l2738:
  8535                           
  8536                           ;ADC.c: 31:     TRISA2 = 0;
  8537  15EC  1105               	bcf	5,2	;volatile
  8538  15ED                     l2740:
  8539                           
  8540                           ;ADC.c: 32:     TRISA3 = 0;
  8541  15ED  1185               	bcf	5,3	;volatile
  8542  15EE                     l2742:
  8543                           
  8544                           ;ADC.c: 35:     ADCON1bits.ADFM = 1;
  8545  15EE  179F               	bsf	31,7	;volatile
  8546  15EF                     l2744:
  8547                           
  8548                           ;ADC.c: 36:     ADCON1bits.VCFG0 = 0;
  8549  15EF  121F               	bcf	31,4	;volatile
  8550  15F0                     l2746:
  8551                           
  8552                           ;ADC.c: 37:     ADCON1bits.VCFG1 = 0;
  8553  15F0  129F               	bcf	31,5	;volatile
  8554  15F1                     l2748:
  8555                           
  8556                           ;ADC.c: 39:     ADCON0bits.CHS = 0b0000;
  8557  15F1  30C3               	movlw	-61
  8558  15F2  1283               	bcf	3,5	;RP0=0, select bank0
  8559  15F3  1303               	bcf	3,6	;RP1=0, select bank0
  8560  15F4  059F               	andwf	31,f	;volatile
  8561  15F5                     l2750:
  8562                           
  8563                           ;ADC.c: 40:     ADCON0bits.ADCS = 0b01;
  8564  15F5  081F               	movf	31,w	;volatile
  8565  15F6  393F               	andlw	-193
  8566  15F7  3840               	iorlw	64
  8567  15F8  009F               	movwf	31	;volatile
  8568  15F9                     l2752:
  8569                           
  8570                           ;ADC.c: 41:     ADCON0bits.ADON = 1;
  8571  15F9  141F               	bsf	31,0	;volatile
  8572  15FA                     l266:
  8573  15FA  0008               	return
  8574  15FB                     __end_of_ADC_init:
  8575  007E                     btemp	set	126	;btemp
  8576  007E                     wtemp0	set	126
  8577                           
  8578                           	psect	idloc
  8579                           
  8580                           ;Config register IDLOC0 @ 0x2000
  8581                           ;	unspecified, using default values
  8582  2000                     	org	8192
  8583  2000  3FFF               	dw	16383
  8584                           
  8585                           ;Config register IDLOC1 @ 0x2001
  8586                           ;	unspecified, using default values
  8587  2001                     	org	8193
  8588  2001  3FFF               	dw	16383
  8589                           
  8590                           ;Config register IDLOC2 @ 0x2002
  8591                           ;	unspecified, using default values
  8592  2002                     	org	8194
  8593  2002  3FFF               	dw	16383
  8594                           
  8595                           ;Config register IDLOC3 @ 0x2003
  8596                           ;	unspecified, using default values
  8597  2003                     	org	8195
  8598  2003  3FFF               	dw	16383
  8599                           
  8600                           	psect	config
  8601                           
  8602                           ;Config register CONFIG1 @ 0x2007
  8603                           ;	Oscillator Selection bits
  8604                           ;	FOSC = INTRC_CLKOUT, INTOSC oscillator: CLKOUT function on RA6/OSC2/CLKOUT pin, I/O fu
      +                          nction on RA7/OSC1/CLKIN
  8605                           ;	Watchdog Timer Enable bit
  8606                           ;	WDTE = OFF, WDT disabled and can be enabled by SWDTEN bit of the WDTCON register
  8607                           ;	Power-up Timer Enable bit
  8608                           ;	PWRTE = OFF, PWRT disabled
  8609                           ;	RE3/MCLR pin function select bit
  8610                           ;	MCLRE = OFF, RE3/MCLR pin function is digital input, MCLR internally tied to VDD
  8611                           ;	Code Protection bit
  8612                           ;	CP = OFF, Program memory code protection is disabled
  8613                           ;	Data Code Protection bit
  8614                           ;	CPD = OFF, Data memory code protection is disabled
  8615                           ;	Brown Out Reset Selection bits
  8616                           ;	BOREN = OFF, BOR disabled
  8617                           ;	Internal External Switchover bit
  8618                           ;	IESO = OFF, Internal/External Switchover mode is disabled
  8619                           ;	Fail-Safe Clock Monitor Enabled bit
  8620                           ;	FCMEN = OFF, Fail-Safe Clock Monitor is disabled
  8621                           ;	Low Voltage Programming Enable bit
  8622                           ;	LVP = OFF, RB3 pin has digital I/O, HV on MCLR must be used for programming
  8623                           ;	In-Circuit Debugger Mode bit
  8624                           ;	DEBUG = 0x1, unprogrammed default
  8625  2007                     	org	8199
  8626  2007  20D5               	dw	8405
  8627                           
  8628                           ;Config register CONFIG2 @ 0x2008
  8629                           ;	Brown-out Reset Selection bit
  8630                           ;	BOR4V = BOR40V, Brown-out Reset set to 4.0V
  8631                           ;	Flash Program Memory Self Write Enable bits
  8632                           ;	WRT = OFF, Write protection off
  8633  2008                     	org	8200
  8634  2008  3FFF               	dw	16383

Data Sizes:
    Strings     15
    Constant    53
    Data        18
    BSS         24
    Persistent  0
    Stack       0

Auto Spaces:
    Space          Size  Autos    Used
    COMMON           14     14      14
    BANK0            80     78      79
    BANK1            80     54      79
    BANK3            96      0      16
    BANK2            96      0       0

Pointer List with Targets:

    frexp@eptr	PTR int  size(1) Largest target is 2
		 -> log@exponent(BANK1[2]), 

    eval_poly@d	PTR const  size(1) Largest target is 36
		 -> log@coeff(CODE[36]), 

    sprintf@f	PTR const unsigned char  size(1) Largest target is 6
		 -> STR_1(CODE[6]), 

    sprintf@sp	PTR unsigned char  size(1) Largest target is 10
		 -> main@Temperature(BANK1[10]), 

    sprintf@ap	PTR void [1] size(1) Largest target is 2
		 -> ?_sprintf(BANK0[2]), 

    LCD_String_xy@msg	PTR const unsigned char  size(1) Largest target is 6
		 -> STR_2(CODE[6]), 

    LCD_String@msg	PTR const unsigned char  size(2) Largest target is 10
		 -> STR_3(CODE[3]), STR_2(CODE[6]), main@Temperature(BANK1[10]), 


Critical Paths under _main in COMMON

    _main->___xxtofl
    _sprintf->___lwmod
    ___lwmod->___lwdiv
    _log->___xxtofl
    _log->_frexp
    _frexp->___fleq
    ___flmul->___xxtofl
    ___flmul->_frexp
    ___fladd->___xxtofl
    ___fladd->_frexp
    ___fldiv->___xxtofl
    ___fldiv->_frexp
    _LCD_String_xy->_LCD_String
    _LCD_String->_LCD_Char
    _LCD_Init->_LCD_Command
    _LCD_Clear->_LCD_Command

Critical Paths under _main in BANK0

    _main->_log
    _log->___fladd
    _eval_poly->___fladd
    ___flmul->_frexp
    ___fladd->___fldiv
    ___fldiv->___flmul

Critical Paths under _main in BANK1

    _main->_log
    _log->_eval_poly

Critical Paths under _main in BANK3

    None.

Critical Paths under _main in BANK2

    None.

Call Graph Tables:

 ---------------------------------------------------------------------------------
 (Depth) Function   	        Calls       Base Space   Used Autos Params    Refs
 ---------------------------------------------------------------------------------
 (0) _main                                                32    32      0   22704
                                             22 BANK1     32    32      0
                           _ADC_init
                          _LCD_Clear
                           _LCD_Init
                         _LCD_String
                      _LCD_String_xy
                      _LeerMicrofono
                    _LeerSensorFlame
               _LeerSensorProximidad
                            ___fladd
                            ___fldiv
                            ___fltol
                           ___xxtofl
                        _alarmaFlama
                    _alarmaSeguridad
                        _alarma_init
                      _apagarAlarma1
                      _apagarAlarma2
                        _capturaTemp
                        _keypad_init
                                _log
                    _microphone_init
                   _sensorFlame_init
              _sensorProximidad_init
                            _sprintf
 ---------------------------------------------------------------------------------
 (1) _sprintf                                             23    18      5    1280
                                              0 BANK0     15    10      5
                            ___fltol (ARG)
                            ___lwdiv
                            ___lwmod
 ---------------------------------------------------------------------------------
 (2) ___lwmod                                              6     2      4     311
                                              8 COMMON     6     2      4
                            ___lwdiv (ARG)
 ---------------------------------------------------------------------------------
 (2) ___lwdiv                                              8     4      4     314
                                              0 COMMON     8     4      4
 ---------------------------------------------------------------------------------
 (1) _sensorProximidad_init                                0     0      0       0
 ---------------------------------------------------------------------------------
 (1) _sensorFlame_init                                     0     0      0       0
 ---------------------------------------------------------------------------------
 (1) _microphone_init                                      0     0      0       0
 ---------------------------------------------------------------------------------
 (1) _log                                                  7     3      4   14798
                                             77 BANK0      1     1      0
                                             16 BANK1      6     2      4
                            ___fladd
                            ___fldiv (ARG)
                             ___fleq
                             ___flge
                            ___flmul
                           ___xxtofl
                          _eval_poly
                              _frexp
 ---------------------------------------------------------------------------------
 (2) _frexp                                                7     2      5     896
                                             12 COMMON     2     2      0
                                              0 BANK0      5     0      5
                             ___fleq
 ---------------------------------------------------------------------------------
 (3) ___fleq                                              12     4      8     520
                                              0 COMMON    12     4      8
 ---------------------------------------------------------------------------------
 (2) _eval_poly                                           16     9      7    6275
                                              0 BANK1     16     9      7
                            ___fladd
                            ___fldiv (ARG)
                            ___flmul
 ---------------------------------------------------------------------------------
 (3) ___flmul                                             26    18      8    2847
                                              5 BANK0     26    18      8
                          __Umul8_16
                           ___xxtofl (ARG)
                              _frexp (ARG)
 ---------------------------------------------------------------------------------
 (4) __Umul8_16                                            9     7      2     799
                                              0 COMMON     9     7      2
 ---------------------------------------------------------------------------------
 (3) ___fladd                                             20    12      8    3022
                                             57 BANK0     20    12      8
                            ___fldiv (ARG)
                            ___flmul (ARG)
                           ___xxtofl (ARG)
                              _frexp (ARG)
 ---------------------------------------------------------------------------------
 (2) ___xxtofl                                            14    10      4     474
                                              0 COMMON    14    10      4
 ---------------------------------------------------------------------------------
 (2) ___flge                                              12     4      8     460
                                              0 COMMON    12     4      8
 ---------------------------------------------------------------------------------
 (1) _keypad_init                                          1     1      0       0
                                              0 COMMON     1     1      0
 ---------------------------------------------------------------------------------
 (1) _capturaTemp                                          6     4      2       0
                                              0 COMMON     6     4      2
 ---------------------------------------------------------------------------------
 (1) _apagarAlarma2                                        0     0      0       0
 ---------------------------------------------------------------------------------
 (1) _apagarAlarma1                                        0     0      0       0
 ---------------------------------------------------------------------------------
 (1) _alarma_init                                          0     0      0       0
 ---------------------------------------------------------------------------------
 (1) _alarmaSeguridad                                      0     0      0       0
 ---------------------------------------------------------------------------------
 (1) _alarmaFlama                                          0     0      0       0
 ---------------------------------------------------------------------------------
 (1) ___fltol                                             11     7      4     305
                                              0 COMMON    11     7      4
 ---------------------------------------------------------------------------------
 (1) ___fldiv                                             26    18      8    1577
                                             31 BANK0     26    18      8
                          __Umul8_16 (ARG)
                             ___fleq (ARG)
                             ___flge (ARG)
                            ___flmul (ARG)
                           ___xxtofl (ARG)
                              _frexp (ARG)
 ---------------------------------------------------------------------------------
 (1) _LeerSensorProximidad                                 2     0      2       0
                                              0 COMMON     2     0      2
 ---------------------------------------------------------------------------------
 (1) _LeerSensorFlame                                      2     0      2       0
                                              0 COMMON     2     0      2
 ---------------------------------------------------------------------------------
 (1) _LeerMicrofono                                        4     2      2      24
                                              0 COMMON     4     2      2
 ---------------------------------------------------------------------------------
 (1) _LCD_String_xy                                        5     3      2     648
                                              5 COMMON     5     3      2
                        _LCD_Command
                         _LCD_String
 ---------------------------------------------------------------------------------
 (2) _LCD_String                                           2     0      2     317
                                              3 COMMON     2     0      2
                           _LCD_Char
 ---------------------------------------------------------------------------------
 (3) _LCD_Char                                             3     3      0      44
                                              0 COMMON     3     3      0
 ---------------------------------------------------------------------------------
 (1) _LCD_Init                                             2     2      0      44
                                              3 COMMON     2     2      0
                        _LCD_Command
 ---------------------------------------------------------------------------------
 (1) _LCD_Clear                                            2     2      0      44
                                              3 COMMON     2     2      0
                        _LCD_Command
 ---------------------------------------------------------------------------------
 (2) _LCD_Command                                          3     3      0      44
                                              0 COMMON     3     3      0
 ---------------------------------------------------------------------------------
 (1) _ADC_init                                             0     0      0       0
 ---------------------------------------------------------------------------------
 Estimated maximum stack depth 4
 ---------------------------------------------------------------------------------

 Call Graph Graphs:

 _main (ROOT)
   _ADC_init
   _LCD_Clear
     _LCD_Command
   _LCD_Init
     _LCD_Command
   _LCD_String
     _LCD_Char
   _LCD_String_xy
     _LCD_Command
     _LCD_String
   _LeerMicrofono
   _LeerSensorFlame
   _LeerSensorProximidad
   ___fladd
     ___fldiv (ARG)
       __Umul8_16 (ARG)
       ___fleq (ARG)
       ___flge (ARG)
       ___flmul (ARG)
         __Umul8_16
         ___xxtofl (ARG)
         _frexp (ARG)
           ___fleq
       ___xxtofl (ARG)
       _frexp (ARG)
     ___flmul (ARG)
     ___xxtofl (ARG)
     _frexp (ARG)
   ___fldiv
   ___fltol
   ___xxtofl
   _alarmaFlama
   _alarmaSeguridad
   _alarma_init
   _apagarAlarma1
   _apagarAlarma2
   _capturaTemp
   _keypad_init
   _log
     ___fladd
     ___fldiv (ARG)
     ___fleq (ARG)
     ___flge (ARG)
     ___flmul (ARG)
     ___xxtofl (ARG)
     _eval_poly (ARG)
       ___fladd
       ___fldiv (ARG)
       ___flmul (ARG)
     _frexp (ARG)
   _microphone_init
   _sensorFlame_init
   _sensorProximidad_init
   _sprintf
     ___fltol (ARG)
     ___lwdiv (ARG)
     ___lwmod (ARG)
       ___lwdiv (ARG)

 Address spaces:
Name               Size   Autos  Total    Cost      Usage
BANK3               60      0      10       9       16.7%
BITBANK3            60      0       0       8        0.0%
SFR3                 0      0       0       4        0.0%
BITSFR3              0      0       0       4        0.0%
BANK2               60      0       0      11        0.0%
BITBANK2            60      0       0      10        0.0%
SFR2                 0      0       0       5        0.0%
BITSFR2              0      0       0       5        0.0%
BANK1               50     36      4F       7       98.8%
BITBANK1            50      0       0       6        0.0%
SFR1                 0      0       0       2        0.0%
BITSFR1              0      0       0       2        0.0%
BANK0               50     4E      4F       5       98.8%
BITBANK0            50      0       0       4        0.0%
SFR0                 0      0       0       1        0.0%
BITSFR0              0      0       0       1        0.0%
COMMON               E      E       E       1      100.0%
BITCOMMON            E      0       0       0        0.0%
CODE                 0      0       0       0        0.0%
DATA                 0      0      BC      12        0.0%
ABS                  0      0      BC       3        0.0%
NULL                 0      0       0       0        0.0%
STACK                0      0       0       2        0.0%
EEDATA             100      0       0       0        0.0%


Microchip Technology PIC Macro Assembler V2.36 build 20220127204148 
Symbol Table                                                                                   Wed Aug 10 12:06:53 2022

                            l9 1573                   ___fldiv@aexp 0058                   ___fldiv@bexp 0057  
                            _f 00E7                              _r 00E5                              pc 0002  
                 ___fldiv@sign 0050                   ?_LCD_Command 0070                             l12 1608  
                           l22 156F                             l15 1616                             l42 1632  
                           l27 15CD                             l60 1737                             l36 0857  
                           l63 176D                             l39 1624                             l57 16A9  
                           l74 16D5                             l77 15AB                             l69 1658  
                           l88 158E                             fsr 0004                    ?_LCD_String 0073  
          __Umul8_16@word_mpld 0076                            l231 0FF9                            l272 1701  
                          l408 0CA5                            l266 15FA                            l291 1578  
                          l605 0957                            l285 159B                            l269 16D9  
                          l294 1582                            l711 02CC                            l608 096C  
                          l288 157D                            l297 085C                            l705 024E  
                          l801 07D3                            l730 03E4                            l820 166D  
                          l709 02F5                            l813 07C7                            l581 17CE  
                          l590 0A0E                            l726 03C0                            l718 0472  
                          l822 167F                            l582 17EA                            l807 073F  
                          l583 17FF                            l736 0406                            l761 006A  
                          l586 0989                            l763 01EA                            l851 0A76  
                          l747 0466                            l739 0444                            l748 0472  
                          l684 17B1                            l589 09F5                            l845 0A31  
                          l598 096C                            l694 0896                            l783 01CE  
                          l847 0AC8                            l872 0DF1                            l785 01DE  
                          l777 015C                            l858 0A92                            l890 08F2  
                          l859 0A9E                            l884 0BA2                            _idx 006E  
                          _key 00EE                            _log 0CA6                            fsr0 0004  
                          indf 0000                   ___flmul@aexp 0037                   ___flmul@bexp 0038  
                 ___flmul@sign 0032                   ___flmul@temp 003D                   ___flmul@prod 0039  
                  LCD_Char@dat 0072                 LeerMicrofono@a 0072                   ___fltol@exp1 007A  
                         l2110 165C                           l3000 013C                           l2200 0258  
                         l2112 1663                           l2130 1745                           l2122 1739  
                         l3002 0140                           l2210 026C                           l2202 025C  
                         l2114 1667                           l2140 1761                           l2132 1748  
                         l2124 1742                           l3020 0191                           l3012 0161  
                         l3004 0141                           l2300 03E8                           l2220 0280  
                         l2212 0270                           l2204 0260                           l2116 1676  
                         l2108 165A                           l2134 1751                           l2126 1743  
                         l3030 01C5                           l3014 0166                           l3022 0197  
                         l3006 0145                           l2302 03EB                           l2310 03F8  
                         l2230 0294                           l2222 0284                           l2214 0274  
                         l2206 0264                           l2118 167B                           l2150 17FE  
                         l2142 17B2                           l2136 175F                           l2128 1744  
                         l3032 01CD                           l3024 01A4                           l3016 0174  
                         l3008 0159                           l2320 040B                           l2312 03F9  
                         l2304 03ED                           l2240 02D9                           l2224 0288  
                         l2216 0278                           l2208 0268                           l2232 0298  
                         l2160 01FC                           l2400 0536                           l2144 17C6  
                         l3200 0FF5                           l2138 1760                           l3034 01D4  
                         l3026 01B2                           l3018 0178                           l2330 0449  
                         l2322 0410                           l2314 03FD                           l2306 03F2  
                         l2242 02DB                           l2250 02ED                           l2234 0299  
                         l2226 028C                           l2218 027C                           l2170 0210  
                         l2162 01FD                           l2154 01EB                           l2410 05B3  
                         l2402 0562                           l2146 17E2                           l2500 171B  
                         l3036 01D8                           l3028 01C1                           l2340 0460  
                         l2332 044E                           l2324 041E                           l2316 0403  
                         l2308 03F4                           l2260 031E                           l2252 02F9  
                         l2244 02DF                           l2236 02B0                           l2228 0290  
                         l2180 0226                           l2164 0202                           l2172 0212  
                         l2156 01F2                           l2420 0633                           l2412 05D0  
                         l2404 057E                           l2148 17FC                           l3140 0DF2  
                         l2502 1729                           l2510 1634                           l3038 01DA  
                         l2342 0462                           l2334 0456                           l2326 0422  
                         l2270 0335                           l2262 0322                           l2254 02FE  
                         l2246 02E0                           l2238 02D0                           l2190 023B  
                         l2182 022C                           l2174 021A                           l2166 0207  
                         l2158 01F8                           l2430 06EB                           l2422 0660  
                         l2414 05E0                           l2406 059A                           l2350 047A  
                         l3222 0BE8                           l3150 0DFE                           l3142 0DF6  
                         l2504 172A                           l2512 1642                           l2520 099D  
                         l2600 0A54                           l2344 046D                           l2336 045B  
                         l2328 0440                           l2280 0398                           l2272 0336  
                         l2264 0326                           l2248 02E9                           l2192 0243  
                         l2184 0230                           l2176 021F                           l2168 020F  
                         l2440 0710                           l2432 06F4                           l2424 0670  
                         l2416 05FD                           l2408 05A3                           l2360 048F  
                         l2352 0480                           l3160 0E13                           l3152 0DFF  
                         l3144 0DF9                           l2506 172B                           l2514 1648  
                         l2530 0A0B                           l2522 09A5                           l2610 0A88  
                         l2602 0A5B                           l2346 0471                           l2338 045C  
                         l2290 03CD                           l2282 039E                           l2274 033F  
                         l2266 032F                           l2258 0307                           l2194 0244  
                         l2186 0231                           l2178 0225                           l2450 0728  
                         l2442 0719                           l2434 0702                           l2426 069D  
                         l2418 0616                           l2370 04AC                           l2362 0497  
                         l2354 0484                           l3170 0E33                           l3162 0E18  
                         l3154 0E04                           l3146 0DFC                           l2700 1691  
                         l2508 1633                           l2532 0A0D                           l2524 09A9  
                         l2516 096D                           l2620 0ABB                           l2612 0A8C  
                         l2604 0A5F                           l2284 03A3                           l2268 0331  
                         l2276 0344                           l2188 0236                           l2196 0246  
                         l2460 0757                           l2452 073C                           l2436 070B  
                         l2444 071F                           l2428 06C3                           l2380 04C3  
                         l2372 04B0                           l2364 0499                           l2356 0485  
                         l2348 0473                           l2540 1776                           l3180 0F4C  
                         l3172 0E38                           l3164 0E1D                           l3156 0E09  
                         l3148 0DFD                           l2702 1697                           l2710 16AB  
                         l2526 09CD                           l2518 0981                           l2622 0ABF  
                         l2614 0A96                           l2606 0A6D                           l2294 03D6  
                         l2278 035A                           l2286 03B2                           l2198 0254  
                         l2470 0792                           l2462 075B                           l2446 0723  
                         l2438 070F                           l2382 04C5                           l2374 04B1  
                         l2366 04A1                           l2358 048A                           l2630 08B2  
                         l2550 1799                           l2542 1779                           l3190 0FCB  
                         l3182 0F8B                           l3174 0E50                           l3166 0E22  
                         l3158 0E0E                           l2704 169D                           l2720 16CA  
                         l2712 16B1                           l2528 09D1                           l2624 0AC0  
                         l2616 0AA0                           l2608 0A7D                           l2296 03DF  
                         l2288 03C8                           l2480 07BF                           l2472 07A1  
                         l2464 0774                           l2456 0744                           l2448 0724  
                         l2392 04E0                           l2384 04CD                           l2376 04B6  
                         l2368 04A6                           l2640 08ED                           l2632 08BA  
                         l2552 179F                           l2544 1780                           l2536 176E  
                         l2800 0BB8                           l3192 0FD4                           l3184 0FB0  
                         l3176 0EA8                           l3168 0E2D                           l2730 15E1  
                         l2490 170C                           l2722 159C                           l2706 16A3  
                         l2714 16B7                           l2618 0AB6                           l2298 03E3  
                         l2482 07C0                           l2474 07AB                           l2458 0749  
                         l2466 077A                           l2394 04F0                           l2386 04D2  
                         l2378 04BB                           l2650 0AF8                           l2642 08F1  
                         l2554 17A0                           l2546 1784                           l2538 1770  
                         l2570 0871                           l2562 085D                           l2802 0BBD  
                         l3194 0FDF                           l3186 0FB5                           l3178 0EF6  
                         l2740 15ED                           l2732 15E5                           l2492 170D  
                         l2724 15A2                           l2716 16BE                           l2708 16AB  
                         l2660 15FB                           l2900 0961                           l2484 07CB  
                         l2476 07AD                           l2468 0787                           l2396 04FD  
                         l2388 04D7                           l2652 0B94                           l2644 08F2  
                         l2636 08C3                           l2628 0897                           l2556 17A7  
                         l2548 1788                           l2572 0875                           l2564 0863  
                         l2580 0892                           l2820 0C06                           l2804 0BBF  
                         l2812 0BD6                           l3196 0FE5                           l3188 0FC2  
                         l2750 15F5                           l2742 15EE                           l2734 15E8  
                         l2494 170E                           l2718 16C4                           l2662 1601  
                         l2910 0020                           l2902 000E                           l2726 1583  
                         l2590 0A29                           l2478 07BB                           l2398 051A  
                         l2654 0B9A                           l2638 08E0                           l2670 156C  
                         l2558 17AD                           l2574 087F                           l2566 0866  
                         l2830 0C11                           l2822 0C0A                           l2814 0BF6  
                         l2806 0BC6                           l3198 0FEA                           l2752 15F9  
                         l2744 15EF                           l2736 15EB                           l2496 170F  
                         l2488 1703                           l2672 15BC                           l2664 160C  
                         l2912 0025                           l2920 0035                           l2904 0015  
                         l2760 16D6                           l2728 158D                           l2592 0A39  
                         l2584 0A10                           l2648 0AC9                           l2576 0885  
                         l2568 086D                           l2840 0C44                           l2824 0C0F  
                         l2816 0BFE                           l2808 0BCA                           l2746 15F0  
                         l2738 15EC                           l2498 1712                           l2674 15C2  
                         l2666 1610                           l2690 162C                           l2930 004D  
                         l2922 003D                           l2914 002A                           l2906 001B  
                         l2754 158F                           l2762 16DD                           l2586 0A15  
                         l2658 1570                           l2682 0854                           l2578 088C  
                         l2850 0C86                           l2842 0C48                           l2834 0C2D  
                         l2818 0C02                           l2748 15F1                           l2676 15C7  
                         l2684 1617                           l2932 0052                           l2940 0062  
                         l2924 0042                           l2916 0032                           l2908 001F  
                         l2756 1574                           l2764 16E6                           l2596 0A42  
                         l2588 0A19                           l2780 0CEB                           l2772 0CA6  
                         l2844 0C4D                           l2836 0C37                           l2852 0C8F  
                         l2694 1680                           l2678 15C9                           l2686 161D  
                         l2942 0072                           l2950 008B                           l2934 0057  
                         l2926 0048                           l2918 0033                           l2862 1579  
                         l2758 157E                           l2766 16F9                           l2598 0A47  
                         l2790 0D8C                           l2774 0CC1                           l2846 0C7B  
                         l2838 0C3D                           l2854 0CA1                           l2696 1683  
                         l2688 1628                           l2960 00B3                           l2952 0090  
                         l2944 007E                           l2936 005F                           l2928 004C  
                         l2880 0927                           l2872 0907                           l2864 0858  
                         l2768 16FD                           l2784 0CFA                           l2848 0C82  
                         l2698 168B                           l2970 00DC                           l2962 00BB  
                         l2946 0082                           l2938 0060                           l2882 092B  
                         l2890 0945                           l2874 091C                           l2866 08F3  
                         l2786 0D63                           l2778 0CD0                           l2794 0BA6  
                         l2980 00FD                           l2972 00E0                           l2964 00C3  
                         l2956 0099                           l2876 091D                           l2868 08FE  
                         l2788 0D69                           l2796 0BAB                           l2990 011F  
                         l2982 010B                           l2974 00E1                           l2966 00C5  
                         l2958 00AB                           l2878 0925                           l2798 0BB1  
                         l2992 0128                           l2968 00CA                           l2976 00EA  
                         l2984 010F                           l2896 094C                           l2888 0933  
                         l2994 012C                           l2986 0115                           l2978 00FC  
                         l2898 095C                           l2996 012D                           l2988 011D  
                         ?_log 00B0                           l2998 0136                           STR_1 084B  
                         STR_2 0845                           STR_3 0851                           u2110 1667  
                         u2111 1666                           u2200 0207                           u3000 07BF  
                         u2201 0206                           u3001 07BE                           u2210 0225  
                         u2130 167B                           u2211 0224                           u2131 167A  
                         u3020 1658                           u2300 02D0                           u2220 0230  
                         u3100 1776                           u3021 1657                           u2301 02CF  
                         u2221 022F                           u2125 166E                           u3101 1775  
                         u3030 0981                           u2310 02DF                           u2230 0236  
                         u2150 17C6                           u3015 171E                           u3031 0980  
                         u2311 02DE                           u2231 0235                           u2151 17C5  
                         u3040 099D                           u2240 023B                           u2160 17E2  
                         u3120 1788                           u3200 087F                           u2145 1754  
                         u3041 099C                           u2241 023A                           u2161 17E1  
                         u3121 1787                           u3201 087E                           u3050 09A9  
                         u2410 035A                           u2330 02F5                           u2250 0254  
                         u2170 17FC                           u3051 09A8                           u2411 0359  
                         u2331 02F4                           u2251 0253                           u2171 17FB  
                         u3115 177A                           u2500 03F2                           u2340 02F9  
                         u2260 0258                           u2180 01FC                           u3140 1799  
                         u3220 0892                           u3061 09B8                           u2501 03F1  
                         u2421 0371                           u2413 0356                           u2405 0338  
                         u2341 02F8                           u2325 02E2                           u2261 0257  
                         u2181 01FB                           u3141 1798                           u3221 0891  
                         u3205 087B                           u3070 09D1                           u3062 09B9  
                         u3310 0A8C                           u3230 0A15                           u2510 03F8  
                         u2430 0385                           u2422 0372                           u2350 02FE  
                         u2270 02B0                           u2190 0202                           u3071 09D0  
                         u3063 09BE                           u3311 0A8B                           u3231 0A14  
                         u2511 03F7                           u2431 0386                           u2423 0377  
                         u2351 02FD                           u2271 02AF                           u2191 0201  
                         u2175 17F8                           u3135 1789                           u3215 0886  
                         u3064 09BF                           u3320 0A92                           u3240 0A19  
                         u2600 044E                           u2520 03FD                           u2440 03A3  
                         u2432 038B                           u2424 0378                           u2280 02BB  
                         u3400 0B9A                           u3160 17AD                           u4200 0FF5  
                         u3081 09E0                           u3065 09C4                           u3321 0A91  
                         u3305 0A81                           u3241 0A18                           u2601 044D  
                         u2521 03FC                           u2441 03A2                           u2433 038C  
                         u2425 037D                           u2361 0310                           u2281 02B9  
                         u3401 0B99                           u3161 17AC                           u3145 1795  
                         u4201 0FF4                           u3410 1601                           u3090 0A0B  
                         u3082 09E1                           u3066 09C5                           u3330 0A96  
                         u3250 0A39                           u2610 045B                           u2530 0403  
                         u2450 03C8                           u2426 037E                           u2370 0322  
                         u2362 0317                           u2290 02BC                           u3170 0863  
                         u3411 1600                           u3091 0A0A                           u3083 09E6  
                         u3331 0A95                           u3251 0A38                           u2611 045A  
                         u2531 0402                           u2451 03C7                           u2371 0321  
                         u2363 031E                           u2275 02AC                           u3155 17A1  
                         u3171 0862                           u3420 160C                           u3084 09E7  
                         u3340 0AAB                           u2620 0460                           u2540 040A  
                         u2460 03CD                           u2380 0326                           u2700 04D2  
                         u3500 0BB1                           u3421 160B                           u3085 09EC  
                         u2621 045F                           u2541 0409                           u2461 03CC  
                         u2381 0325                           u2701 04D1                           u3501 0BB0  
                         u3430 15C2                           u3086 09ED                           u3350 0ABB  
                         u3270 0A5A                           u2630 0471                           u2550 0410  
                         u2390 0335                           u2710 04D7                           u3190 0875  
                         u3510 0C06                           u3431 15C1                           u3095 0A07  
                         u3351 0ABA                           u3271 0A59                           u2631 0470  
                         u2551 040F                           u2391 0334                           u2711 04D6  
                         u3191 0874                           u3511 0C05                           u3440 161D  
                         u3600 0932                           u3360 0ABF                           u2560 0422  
                         u2480 03E3                           u2640 0484                           u3520 0C2C  
                         u4217 174C                           u3441 161C                           u3601 0931  
                         u3361 0ABE                           u3345 0AA6                           u3265 0A4C  
                         u2561 0421                           u2481 03E2                           u2801 0625  
                         u2721 0528                           u2641 0483                           u3185 0867  
                         u3521 0C2B                           u3450 1628                           u3290 0A7C  
                         u2570 0431                           u2490 03E8                           u2802 062C  
                         u2722 052F                           u2650 048A                           u3370 08B2  
                         u3530 0C37                           u4227 1768                           u3451 1627  
                         u3291 0A7B                           u2491 03E7                           u2475 03D8  
                         u2811 0652                           u2803 0633                           u2731 0544  
                         u2723 0536                           u2651 0489                           u3371 08B1  
                         u3531 0C36                           u3460 16B1                           u3700 004C  
                         u3620 0944                           u2580 0440                           u2812 0659  
                         u2732 054B                           u2660 048F                           u3540 0C3D  
                         u4180 0E2D                           u4237 1687                           u3461 16B0  
                         u3701 004B                           u3621 0943                           u3285 0A6E  
                         u2581 043F                           u2821 067F                           u2813 0660  
                         u2741 0570                           u2733 0552                           u2661 048E  
                         u3541 0C3C                           u3525 0C28                           u4181 0E2C  
                         u3710 0052                           u3630 094B                           u3470 16DD  
                         u2590 0449                           u2910 0723                           u2830 06A9  
                         u2822 0686                           u2742 0577                           u2670 04B0  
                         u3550 0C8F                           u4190 0FDF                           u4247 15A6  
                         u3711 0051                           u3631 094A                           u3615 0934  
                         u3471 16DC                           u2591 0448                           u2575 042C  
                         u2911 0722                           u2823 068D                           u2751 058C  
                         u2743 057E                           u2671 04AF                           u3551 0C8E  
                         u4191 0FDE                           u3800 00FC                           u3720 0057  
                         u2920 0728                           u2752 0593                           u2680 04B6  
                         u3480 0CC1                           u3560 0CA1                           u4257 1716  
                         u3801 00FB                           u3721 0056                           u2921 0727  
                         u2905 0712                           u2841 06B5                           u2753 059A  
                         u2681 04B5                           u3385 0ACE                           u3481 0CC0  
                         u3561 0CA0                           u3810 0115                           u3730 0072  
                         u3650 095C                           u3570 08FE                           u2930 073C  
                         u2850 06D1                           u2842 06BC                           u2690 04BB  
                         u3490 0CEB                           u4267 1732                           u3811 0114  
                         u3731 0071                           u3651 095B                           u3571 08FD  
                         u2931 073B                           u2843 06C3                           u2835 06A4  
                         u2771 05C2                           u2691 04BA                           u3395 0B01  
                         u3491 0CEA                           u3900 0166                           u3820 011D  
                         u3740 0090                           u3660 0961                           u3580 0915  
                         u2940 0743                           u2772 05C9                           u3901 0165  
                         u3821 011C                           u3805 00F8                           u3741 008F  
                         u3661 0960                           u3645 094E                           u2941 0742  
                         u2861 06DD                           u2781 05EF                           u2773 05D0  
                         u2765 059C                           u3910 0178                           u3750 00CA  
                         u3670 001F                           u3590 092B                           u2950 0749  
                         u2862 06E4                           u2782 05F6                           u3911 0177  
                         u3751 00C9                           u3671 001E                           u3591 092A  
                         u2951 0748                           u2863 06EB                           u2855 06CC  
                         u2783 05FD                           u3920 0187                           u3840 012C  
                         u3680 0025                           u2960 075B                           u3841 012B  
                         u3681 0024                           u3585 0910                           u2961 075A  
                         u3930 01A4                           u3690 002A                           u2970 076A  
                         u2890 070F                           u3931 01A3                           u3835 0121  
                         u3691 0029                           u2891 070E                           u2875 06ED  
                         u2795 05FF                           u3940 01C1                           u3860 0140  
                         u3780 00E0                           u2980 0787                           u3941 01C0  
                         u3925 0182                           u3861 013F                           u3781 00DF  
                         u3765 00CC                           u2981 0786                           u2885 0704  
                         u3950 01D8                           u3870 0145                           u2990 07A1  
                         u3951 01D7                           u3935 01A0                           u3871 0144  
                         u3855 012F                           u3775 00D5                           u2991 07A0  
                         u2975 0765                           u3880 0159                           u3945 01BD  
                         u3881 0158                           u2985 0783                           u3890 0160  
                         u3891 015F                           u3795 00E3                           u2995 079D  
                         _lm35 00E9                           _idx2 00EC                           _key1 00ED  
                         _main 0DF2                           _temp 00DD                           btemp 007E  
                         log@x 00B0                           start 0000               __end_of_ADC_init 15FB  
              ___fldiv@new_exp 0051                  _LCD_String_xy 16AA                ??_LeerMicrofono 0072  
                        ??_log 006D               __end_of_LCD_Char 176E               __end_of_LCD_Init 16AA  
                ___fltol@sign1 0079                __end_of___fladd 0473                          ?_main 0070  
              __end_of___fldiv 01EB                __end_of___flmul 07D4                __end_of___fltol 096D  
                        _ANSEL 0188                __end_of___lwdiv 17B2                __end_of___lwmod 0897  
                        _PORTA 0005                          _PORTB 0006                          _PORTD 0008  
                        _TRISB 0086                          _TRISD 0088          __end_of_apagarAlarma1 1583  
        __end_of_apagarAlarma2 085D                __end_of_dpowers 081A                   ?_keypad_init 0070  
                        _frexp 0897                          _errno 00DB                          main@a 00C2  
                        pclath 000A                          status 0003                          wtemp0 007E  
              __end_of_sprintf 0CA6                 ?_LCD_String_xy 0075                __initialization 07D4  
                  log@exponent 00B4                   __end_of_main 1000                         ??_main 00B6  
            __end_of_LCD_Clear 15AC                         ?_frexp 0020                         _ADRESH 001E  
                       _ADRESL 009E                         _ANSELH 0189               LCD_String_xy@msg 0076  
             LCD_String_xy@pos 0075               LCD_String_xy@row 0078                         _OSCCON 008F  
                       _TRISA0 0428                         _TRISA1 0429                         _TRISA2 042A  
                       _TRISA3 042B                         _TRISC0 0438                         _TRISC1 0439  
                       _TRISC2 043A                         _TRISC3 043B                         _TRISC4 043C  
                       _TRISC5 043D                         _TRISC6 043E               __end_of___xxtofl 0AC9  
                       ___flge 096D                         ___fleq 17B2                      ??___fladd 0061  
                    ??___fldiv 0047                      ??___flmul 002D                      ??___fltol 0074  
                    ??___lwdiv 0074                      ??___lwmod 007C                      ?_ADC_init 0070  
                    ??_sprintf 0025                _alarmaSeguridad 1579              ??_microphone_init 0070  
                   ___flge@ff1 0070                     ___flge@ff2 0074                   ___xxtofl@arg 007A  
                 ___xxtofl@exp 0079                   ___xxtofl@val 0070                     ___fleq@ff1 0070  
                   ___fleq@ff2 0074               __end_oflog@coeff 0845                      ?_LCD_Char 0070  
      __end_of__initialization 07FC                      ?_LCD_Init 0070                ??_LCD_String_xy 0077  
                 eval_poly@res 00AC                     ___fltol@f1 0070                 __pcstackCOMMON 0070  
                 __pidataBANK1 0004                   __pidataBANK3 15AC                  __end_of_frexp 08F3  
                 ??_LCD_String 0075          _sensorProximidad_init 0854                 _OPTION_REGbits 0081  
                   ??_ADC_init 0070                        ??_frexp 007C                     __pbssBANK0 006E  
                   __pbssBANK1 00D6                     ??_LCD_Char 0070                     ??_LCD_Init 0073  
           __end_of_LCD_String 1659              __end_of__Umul8_16 1680                     __pmaintext 0DF2  
               _counter_digito 00EA                        ?___flge 0070                        ?___fleq 0070  
              main@Temperature 00B8        __end_of_alarmaSeguridad 157E                      ?___xxtofl 0070  
            ??_LeerSensorFlame 0072                     __stringtab 0800                  LCD_String@msg 0073  
        __end_of_LeerMicrofono 15CE                        ___fladd 01EB                        ___fldiv 000E  
                      ___flmul 0473                        ___fltol 08F3                        ___lwdiv 176E  
                      ___lwmod 085D               _sensorFlame_init 1570              __end_of_eval_poly 0BA3  
       ?_sensorProximidad_init 0070                        __ptext1 0BA3                        __ptext2 085D  
                      __ptext3 176E                        __ptext4 0854                        __ptext5 1570  
                      __ptext6 156C                        __ptext7 0CA6                        __ptext8 0897  
                      __ptext9 17B2           __end_of_exitPassword 0821                        _dpowers 0810  
                   ??___xxtofl 0074                  ??_alarmaFlama 0070                      _LCD_Clear 159C  
                      _sprintf 0BA3                        clrloop0 0007                     _pass_user2 00E3  
                ??_alarma_init 0070           end_of_initialization 07FC                 LCD_Command@cmd 0072  
                ??_capturaTemp 0072                  _inputPassword 081A                      _PORTCbits 0007  
                    _PORTDbits 0008                _microphone_init 156C                    ___fladd@grs 006C  
             ?_alarmaSeguridad 0070                  ___xxtofl@sign 0078                     ?_LCD_Clear 0070  
                  ___fldiv@grs 0053                    ___fldiv@rem 004C                    ___flmul@grs 0033  
          __end_of_alarmaFlama 1579            __end_of_alarma_init 159C                  ??_LCD_Command 0070  
               __end_of___flge 0A0F                 __end_of___fleq 1800            __end_of_capturaTemp 1702  
           keypad_getkey@F1296 0190            start_initialization 07D4                     eval_poly@d 00A4  
                   eval_poly@n 00A5                     eval_poly@x 00A0                    __end_of_log 0DF2  
                _apagarAlarma1 157E                  _apagarAlarma2 0858   __end_of_LeerSensorProximidad 1633  
                   frexp@value 0020          __end_of_LCD_String_xy 16D6                    _casaOcupada 00EB  
                     ??___flge 0078                       ??___fleq 0078        __end_of_microphone_init 1570  
                   init_fetch0 15CE                      __Umul8_16 1659                    __pdataBANK1 00ED  
                  __pdataBANK3 0190                _LeerSensorFlame 15FB                      ___fladd@a 005D  
                    ___fladd@b 0059                      ___fldiv@a 003F                      ___fldiv@b 0043  
          __end_of_LCD_Command 1738                      ___flmul@a 0029                      ___flmul@b 0025  
                    ___latbits 0002                  __pcstackBANK0 0020                  __pcstackBANK1 00A0  
               ?_apagarAlarma1 0070                 ?_apagarAlarma2 0070                    ??_LCD_Clear 0073  
                  _alarmaFlama 1574                  ??_keypad_init 0070                    _alarma_init 158F  
     __end_of_sensorFlame_init 1574                    sprintf@flag 0028                    sprintf@prec 0029  
                 _exitPassword 081F                      _main$1110 00CE                      _main$1111 00D2  
                    _main$1109 00CA               ___lwdiv@dividend 0072                    _capturaTemp 16D6  
      ??_sensorProximidad_init 0070                       ?___fladd 0059                       ?___fldiv 003F  
                     ?___flmul 0025                       ?___fltol 0070                     ?__Umul8_16 0070  
                     ?___lwdiv 0070                       ?___lwmod 0078                      __pstrings 0800  
                    _eval_poly 0AC9                       _ADC_init 15E1               ___lwdiv@quotient 0075  
        LCD_String_xy@location 0079                       ?_sprintf 0020                       _LCD_Char 1738  
                     _LCD_Init 1680                      _pass_user 00D6            __end_of_keypad_init 158F  
                    clear_ram0 0006        __end_of_LeerSensorFlame 1617                      _value_adc 00DF  
             ?_microphone_init 0070           _LeerSensorProximidad 1617                    _LCD_Command 1702  
                   _ADCON0bits 001F                    __stringbase 080F                     _ADCON1bits 009F  
              ??_apagarAlarma1 0070                ??_apagarAlarma2 0070                     ?_eval_poly 00A0  
                    main@tempC 00C6                      frexp@eptr 0024                    _counter_try 00E1  
        ?_LeerSensorProximidad 0070                    ??__Umul8_16 0072             __end_of__stringtab 0810  
                   sprintf@val 002B                       ___xxtofl 0A0F                ___lwdiv@divisor 0070  
              ___lwdiv@counter 0077                       __ptext10 0AC9                       __ptext11 0473  
                     __ptext20 158F                       __ptext12 1659                       __ptext21 1579  
                     __ptext13 01EB                       __ptext30 1738                       __ptext22 1574  
                     __ptext14 0A0F                       __ptext31 1680                       __ptext23 08F3  
                     __ptext15 096D                       __ptext32 159C                       __ptext24 000E  
                     __ptext16 1583                       __ptext33 1702                       __ptext25 1617  
                     __ptext17 16D6                       __ptext34 15E1                       __ptext26 15FB  
                     __ptext18 0858                       __ptext27 15BC                       __ptext19 157E  
                     __ptext28 16AA                       __ptext29 1633                    _keypad_init 1583  
             ?_LeerSensorFlame 0070                  _LeerMicrofono 15BC                     _LCD_String 1633  
                     log@coeff 0821                    ??_eval_poly 00A7                       init_ram0 15D2  
                 ?_alarmaFlama 0070                   ?_alarma_init 0070                      sprintf@ap 002A  
                    sprintf@sp 002D               ___lwmod@dividend 007A              ?_sensorFlame_init 0070  
           ??_sensorFlame_init 0070                      stringcode 080A                   ?_capturaTemp 0070  
       ??_LeerSensorProximidad 0072                 ?_LeerMicrofono 0070  __end_of_sensorProximidad_init 0858  
       __Umul8_16@multiplicand 0070                       sprintf@c 002E                       sprintf@f 0020  
              ___lwmod@divisor 0078                ___lwmod@counter 007D                       stringdir 080A  
                     stringtab 0800                  ___fladd@signs 0069                   ___fladd@aexp 006A  
                 ___fladd@bexp 006B           __Umul8_16@multiplier 0078          __end_of_inputPassword 081F  
            __Umul8_16@product 0074              ??_alarmaSeguridad 0070  
