

Microchip MPLAB XC8 Assembler V2.36 build 20220127204148 
                                                                                               Wed Aug 10 19:35:29 2022

Microchip MPLAB XC8 C Compiler v2.36 (Free license) build 20220127204148 Og1 
     1                           	processor	16F887
     2                           	pagewidth 120
     3                           	opt	flic
     4                           	psect	idataBANK1,global,class=CODE,delta=2,noexec
     5                           	psect	idataBANK3,global,class=CODE,delta=2,noexec
     6                           	psect	strings,global,class=STRING,delta=2,noexec
     7                           	psect	cinit,global,class=CODE,merge=1,delta=2
     8                           	psect	bssBANK0,global,class=BANK0,space=1,delta=1,noexec
     9                           	psect	bssBANK1,global,class=BANK1,space=1,delta=1,noexec
    10                           	psect	dataBANK1,global,class=BANK1,space=1,delta=1,noexec
    11                           	psect	bssBANK3,global,class=BANK3,space=1,delta=1,noexec
    12                           	psect	dataBANK3,global,class=BANK3,space=1,delta=1,noexec
    13                           	psect	inittext,global,class=CODE,delta=2
    14                           	psect	cstackBANK1,global,class=BANK1,space=1,delta=1,noexec
    15                           	psect	cstackCOMMON,global,class=COMMON,space=1,delta=1,noexec
    16                           	psect	cstackBANK0,global,class=BANK0,space=1,delta=1,noexec
    17                           	psect	maintext,global,class=CODE,split=1,delta=2
    18                           	psect	text1,local,class=CODE,merge=1,delta=2,group=3
    19                           	psect	text2,local,class=CODE,merge=1,delta=2,group=1
    20                           	psect	text3,local,class=CODE,merge=1,delta=2,group=2
    21                           	psect	text4,local,class=CODE,merge=1,delta=2,group=2
    22                           	psect	text5,local,class=CODE,merge=1,delta=2,group=3
    23                           	psect	text6,local,class=CODE,merge=1,delta=2,group=3
    24                           	psect	text7,local,class=CODE,merge=1,delta=2,group=2
    25                           	psect	text8,local,class=CODE,merge=1,delta=2,group=3
    26                           	psect	text9,local,class=CODE,merge=1,delta=2,group=2
    27                           	psect	text10,local,class=CODE,merge=1,delta=2,group=2
    28                           	psect	text11,local,class=CODE,merge=1,delta=2,group=2
    29                           	psect	text12,local,class=CODE,merge=1,delta=2,group=2
    30                           	psect	text13,local,class=CODE,merge=1,delta=2
    31                           	psect	text14,local,class=CODE,merge=1,delta=2
    32                           	psect	text15,local,class=CODE,merge=1,delta=2
    33                           	psect	text16,local,class=CODE,merge=1,delta=2,group=2
    34                           	psect	text17,local,class=CODE,merge=1,delta=2,group=2
    35                           	psect	text18,local,class=CODE,merge=1,delta=2,group=2
    36                           	psect	text19,local,class=CODE,merge=1,delta=2,group=2
    37                           	psect	text20,local,class=CODE,merge=1,delta=2
    38                           	psect	text21,local,class=CODE,merge=1,delta=2
    39                           	psect	text22,local,class=CODE,merge=1,delta=2
    40                           	psect	text23,local,class=CODE,merge=1,delta=2
    41                           	psect	text24,local,class=CODE,merge=1,delta=2
    42                           	psect	text25,local,class=CODE,merge=1,delta=2
    43                           	psect	idloc,global,abs,ovrld,class=IDLOC,space=5,delta=2,noexec
    44                           	psect	config,global,abs,ovrld,class=CONFIG,space=4,delta=2,noexec
    45                           	dabs	1,0x7E,2
    46  0000                     
    47                           ; Version 2.40
    48                           ; Generated 17/11/2021 GMT
    49                           ; 
    50                           ; Copyright © 2021, Microchip Technology Inc. and its subsidiaries ("Microchip")
    51                           ; All rights reserved.
    52                           ; 
    53                           ; This software is developed by Microchip Technology Inc. and its subsidiaries ("Microch
      +                          ip").
    54                           ; 
    55                           ; Redistribution and use in source and binary forms, with or without modification, are
    56                           ; permitted provided that the following conditions are met:
    57                           ; 
    58                           ;     1. Redistributions of source code must retain the above copyright notice, this lis
      +                          t of
    59                           ;        conditions and the following disclaimer.
    60                           ; 
    61                           ;     2. Redistributions in binary form must reproduce the above copyright notice, this 
      +                          list
    62                           ;        of conditions and the following disclaimer in the documentation and/or other
    63                           ;        materials provided with the distribution. Publication is not required when
    64                           ;        this file is used in an embedded application.
    65                           ; 
    66                           ;     3. Microchip's name may not be used to endorse or promote products derived from th
      +                          is
    67                           ;        software without specific prior written permission.
    68                           ; 
    69                           ; THIS SOFTWARE IS PROVIDED BY MICROCHIP "AS IS" AND ANY EXPRESS OR IMPLIED WARRANTIES,
    70                           ; INCLUDING, BUT NOT LIMITED TO, THE IMPLIED WARRANTIES OF MERCHANTABILITY AND FITNESS F
      +                          OR
    71                           ; PURPOSE ARE DISCLAIMED.  IN NO EVENT SHALL MICROCHIP BE LIABLE FOR ANY DIRECT, INDIREC
      +                          T,
    72                           ; INCIDENTAL, SPECIAL, EXEMPLARY, OR CONSEQUENTIAL DAMAGES (INCLUDING BUT NOT LIMITED TO
    73                           ; PROCUREMENT OF SUBSTITUTE GOODS OR SERVICES; LOSS OF USE, DATA OR PROFITS; OR BUSINESS
    74                           ; INTERRUPTION) HOWSOEVER CAUSED AND ON ANY THEORY OF LIABILITY, WHETHER IN CONTRACT, ST
      +                          RICT
    75                           ; LIABILITY, OR TORT (INCLUDING NEGLIGENCE OR OTHERWISE) ARISING IN ANY WAY OUT OF THE U
      +                          SE OF
    76                           ; THIS SOFTWARE, EVEN IF ADVISED OF THE POSSIBILITY OF SUCH DAMAGE.
    77                           ; 
    78                           ; 
    79                           ; Code-generator required, PIC16F887 Definitions
    80                           ; 
    81                           ; SFR Addresses
    82  0000                     	;# 
    83  0001                     	;# 
    84  0002                     	;# 
    85  0003                     	;# 
    86  0004                     	;# 
    87  0005                     	;# 
    88  0006                     	;# 
    89  0007                     	;# 
    90  0008                     	;# 
    91  0009                     	;# 
    92  000A                     	;# 
    93  000B                     	;# 
    94  000C                     	;# 
    95  000D                     	;# 
    96  000E                     	;# 
    97  000E                     	;# 
    98  000F                     	;# 
    99  0010                     	;# 
   100  0011                     	;# 
   101  0012                     	;# 
   102  0013                     	;# 
   103  0014                     	;# 
   104  0015                     	;# 
   105  0015                     	;# 
   106  0016                     	;# 
   107  0017                     	;# 
   108  0018                     	;# 
   109  0019                     	;# 
   110  001A                     	;# 
   111  001B                     	;# 
   112  001B                     	;# 
   113  001C                     	;# 
   114  001D                     	;# 
   115  001E                     	;# 
   116  001F                     	;# 
   117  0081                     	;# 
   118  0085                     	;# 
   119  0086                     	;# 
   120  0087                     	;# 
   121  0088                     	;# 
   122  0089                     	;# 
   123  008C                     	;# 
   124  008D                     	;# 
   125  008E                     	;# 
   126  008F                     	;# 
   127  0090                     	;# 
   128  0091                     	;# 
   129  0092                     	;# 
   130  0093                     	;# 
   131  0093                     	;# 
   132  0093                     	;# 
   133  0094                     	;# 
   134  0095                     	;# 
   135  0096                     	;# 
   136  0097                     	;# 
   137  0098                     	;# 
   138  0099                     	;# 
   139  009A                     	;# 
   140  009B                     	;# 
   141  009C                     	;# 
   142  009D                     	;# 
   143  009E                     	;# 
   144  009F                     	;# 
   145  0105                     	;# 
   146  0107                     	;# 
   147  0108                     	;# 
   148  0109                     	;# 
   149  010C                     	;# 
   150  010C                     	;# 
   151  010D                     	;# 
   152  010E                     	;# 
   153  010F                     	;# 
   154  0185                     	;# 
   155  0187                     	;# 
   156  0188                     	;# 
   157  0189                     	;# 
   158  018C                     	;# 
   159  018D                     	;# 
   160  0000                     	;# 
   161  0001                     	;# 
   162  0002                     	;# 
   163  0003                     	;# 
   164  0004                     	;# 
   165  0005                     	;# 
   166  0006                     	;# 
   167  0007                     	;# 
   168  0008                     	;# 
   169  0009                     	;# 
   170  000A                     	;# 
   171  000B                     	;# 
   172  000C                     	;# 
   173  000D                     	;# 
   174  000E                     	;# 
   175  000E                     	;# 
   176  000F                     	;# 
   177  0010                     	;# 
   178  0011                     	;# 
   179  0012                     	;# 
   180  0013                     	;# 
   181  0014                     	;# 
   182  0015                     	;# 
   183  0015                     	;# 
   184  0016                     	;# 
   185  0017                     	;# 
   186  0018                     	;# 
   187  0019                     	;# 
   188  001A                     	;# 
   189  001B                     	;# 
   190  001B                     	;# 
   191  001C                     	;# 
   192  001D                     	;# 
   193  001E                     	;# 
   194  001F                     	;# 
   195  0081                     	;# 
   196  0085                     	;# 
   197  0086                     	;# 
   198  0087                     	;# 
   199  0088                     	;# 
   200  0089                     	;# 
   201  008C                     	;# 
   202  008D                     	;# 
   203  008E                     	;# 
   204  008F                     	;# 
   205  0090                     	;# 
   206  0091                     	;# 
   207  0092                     	;# 
   208  0093                     	;# 
   209  0093                     	;# 
   210  0093                     	;# 
   211  0094                     	;# 
   212  0095                     	;# 
   213  0096                     	;# 
   214  0097                     	;# 
   215  0098                     	;# 
   216  0099                     	;# 
   217  009A                     	;# 
   218  009B                     	;# 
   219  009C                     	;# 
   220  009D                     	;# 
   221  009E                     	;# 
   222  009F                     	;# 
   223  0105                     	;# 
   224  0107                     	;# 
   225  0108                     	;# 
   226  0109                     	;# 
   227  010C                     	;# 
   228  010C                     	;# 
   229  010D                     	;# 
   230  010E                     	;# 
   231  010F                     	;# 
   232  0185                     	;# 
   233  0187                     	;# 
   234  0188                     	;# 
   235  0189                     	;# 
   236  018C                     	;# 
   237  018D                     	;# 
   238  0000                     	;# 
   239  0001                     	;# 
   240  0002                     	;# 
   241  0003                     	;# 
   242  0004                     	;# 
   243  0005                     	;# 
   244  0006                     	;# 
   245  0007                     	;# 
   246  0008                     	;# 
   247  0009                     	;# 
   248  000A                     	;# 
   249  000B                     	;# 
   250  000C                     	;# 
   251  000D                     	;# 
   252  000E                     	;# 
   253  000E                     	;# 
   254  000F                     	;# 
   255  0010                     	;# 
   256  0011                     	;# 
   257  0012                     	;# 
   258  0013                     	;# 
   259  0014                     	;# 
   260  0015                     	;# 
   261  0015                     	;# 
   262  0016                     	;# 
   263  0017                     	;# 
   264  0018                     	;# 
   265  0019                     	;# 
   266  001A                     	;# 
   267  001B                     	;# 
   268  001B                     	;# 
   269  001C                     	;# 
   270  001D                     	;# 
   271  001E                     	;# 
   272  001F                     	;# 
   273  0081                     	;# 
   274  0085                     	;# 
   275  0086                     	;# 
   276  0087                     	;# 
   277  0088                     	;# 
   278  0089                     	;# 
   279  008C                     	;# 
   280  008D                     	;# 
   281  008E                     	;# 
   282  008F                     	;# 
   283  0090                     	;# 
   284  0091                     	;# 
   285  0092                     	;# 
   286  0093                     	;# 
   287  0093                     	;# 
   288  0093                     	;# 
   289  0094                     	;# 
   290  0095                     	;# 
   291  0096                     	;# 
   292  0097                     	;# 
   293  0098                     	;# 
   294  0099                     	;# 
   295  009A                     	;# 
   296  009B                     	;# 
   297  009C                     	;# 
   298  009D                     	;# 
   299  009E                     	;# 
   300  009F                     	;# 
   301  0105                     	;# 
   302  0107                     	;# 
   303  0108                     	;# 
   304  0109                     	;# 
   305  010C                     	;# 
   306  010C                     	;# 
   307  010D                     	;# 
   308  010E                     	;# 
   309  010F                     	;# 
   310  0185                     	;# 
   311  0187                     	;# 
   312  0188                     	;# 
   313  0189                     	;# 
   314  018C                     	;# 
   315  018D                     	;# 
   316  0000                     	;# 
   317  0001                     	;# 
   318  0002                     	;# 
   319  0003                     	;# 
   320  0004                     	;# 
   321  0005                     	;# 
   322  0006                     	;# 
   323  0007                     	;# 
   324  0008                     	;# 
   325  0009                     	;# 
   326  000A                     	;# 
   327  000B                     	;# 
   328  000C                     	;# 
   329  000D                     	;# 
   330  000E                     	;# 
   331  000E                     	;# 
   332  000F                     	;# 
   333  0010                     	;# 
   334  0011                     	;# 
   335  0012                     	;# 
   336  0013                     	;# 
   337  0014                     	;# 
   338  0015                     	;# 
   339  0015                     	;# 
   340  0016                     	;# 
   341  0017                     	;# 
   342  0018                     	;# 
   343  0019                     	;# 
   344  001A                     	;# 
   345  001B                     	;# 
   346  001B                     	;# 
   347  001C                     	;# 
   348  001D                     	;# 
   349  001E                     	;# 
   350  001F                     	;# 
   351  0081                     	;# 
   352  0085                     	;# 
   353  0086                     	;# 
   354  0087                     	;# 
   355  0088                     	;# 
   356  0089                     	;# 
   357  008C                     	;# 
   358  008D                     	;# 
   359  008E                     	;# 
   360  008F                     	;# 
   361  0090                     	;# 
   362  0091                     	;# 
   363  0092                     	;# 
   364  0093                     	;# 
   365  0093                     	;# 
   366  0093                     	;# 
   367  0094                     	;# 
   368  0095                     	;# 
   369  0096                     	;# 
   370  0097                     	;# 
   371  0098                     	;# 
   372  0099                     	;# 
   373  009A                     	;# 
   374  009B                     	;# 
   375  009C                     	;# 
   376  009D                     	;# 
   377  009E                     	;# 
   378  009F                     	;# 
   379  0105                     	;# 
   380  0107                     	;# 
   381  0108                     	;# 
   382  0109                     	;# 
   383  010C                     	;# 
   384  010C                     	;# 
   385  010D                     	;# 
   386  010E                     	;# 
   387  010F                     	;# 
   388  0185                     	;# 
   389  0187                     	;# 
   390  0188                     	;# 
   391  0189                     	;# 
   392  018C                     	;# 
   393  018D                     	;# 
   394                           
   395                           	psect	idataBANK1
   396  0004                     __pidataBANK1:
   397                           
   398                           ;initializer for _key2
   399  0004  3430               	retlw	48
   400                           
   401                           ;initializer for _key
   402  0005  3430               	retlw	48
   403                           
   404                           	psect	idataBANK3
   405  11D4                     __pidataBANK3:
   406                           
   407                           ;initializer for keypad_getkey2@F1320
   408  11D4  3431               	retlw	49
   409  11D5  3432               	retlw	50
   410  11D6  3433               	retlw	51
   411  11D7  3441               	retlw	65
   412  11D8  3434               	retlw	52
   413  11D9  3435               	retlw	53
   414  11DA  3436               	retlw	54
   415  11DB  3442               	retlw	66
   416  11DC  3437               	retlw	55
   417  11DD  3438               	retlw	56
   418  11DE  3439               	retlw	57
   419  11DF  3443               	retlw	67
   420  11E0  342A               	retlw	42
   421  11E1  3430               	retlw	48
   422  11E2  3423               	retlw	35
   423  11E3  3444               	retlw	68
   424                           
   425                           ;initializer for keypad_getkey@F1297
   426  11E4  3431               	retlw	49
   427  11E5  3432               	retlw	50
   428  11E6  3433               	retlw	51
   429  11E7  3441               	retlw	65
   430  11E8  3434               	retlw	52
   431  11E9  3435               	retlw	53
   432  11EA  3436               	retlw	54
   433  11EB  3442               	retlw	66
   434  11EC  3437               	retlw	55
   435  11ED  3438               	retlw	56
   436  11EE  3439               	retlw	57
   437  11EF  3443               	retlw	67
   438  11F0  342A               	retlw	42
   439  11F1  3430               	retlw	48
   440  11F2  3423               	retlw	35
   441  11F3  3444               	retlw	68
   442                           
   443                           	psect	strings
   444  1000                     __pstrings:
   445  1000                     stringtab:
   446  1000                     __stringtab:
   447                           
   448                           ;	String table - string pointers are 1 byte each
   449  1000  1BFF               	btfsc	btemp+1,7
   450  1001  280A               	ljmp	stringcode
   451  1002  1383               	bcf	3,7
   452  1003  187F               	btfsc	btemp+1,0
   453  1004  1783               	bsf	3,7
   454  1005  0800               	movf	0,w
   455  1006  0A84               	incf	4,f
   456  1007  1903               	skipnz
   457  1008  0AFF               	incf	btemp+1,f
   458  1009  0008               	return
   459  100A                     stringcode:
   460  100A                     stringdir:
   461  100A  3010               	movlw	high stringdir
   462  100B  008A               	movwf	10
   463  100C  0804               	movf	4,w
   464  100D  0A84               	incf	4,f
   465  100E  0782               	addwf	2,f
   466  100F                     __stringbase:
   467  100F  3400               	retlw	0
   468  1010                     __end_of__stringtab:
   469  1010                     _dpowers:
   470  1010  3401               	retlw	1
   471  1011  3400               	retlw	0
   472  1012  340A               	retlw	10
   473  1013  3400               	retlw	0
   474  1014  3464               	retlw	100
   475  1015  3400               	retlw	0
   476  1016  34E8               	retlw	232
   477  1017  3403               	retlw	3
   478  1018  3410               	retlw	16
   479  1019  3427               	retlw	39
   480  101A                     __end_of_dpowers:
   481  101A                     log@coeff:
   482  101A  3400               	retlw	0
   483  101B  3400               	retlw	0
   484  101C  3400               	retlw	0
   485  101D  3400               	retlw	0
   486  101E  34C4               	retlw	196
   487  101F  34FF               	retlw	255
   488  1020  347F               	retlw	127
   489  1021  343F               	retlw	63
   490  1022  3480               	retlw	128
   491  1023  34EF               	retlw	239
   492  1024  34FF               	retlw	255
   493  1025  34BE               	retlw	190
   494  1026  3490               	retlw	144
   495  1027  34E1               	retlw	225
   496  1028  34A9               	retlw	169
   497  1029  343E               	retlw	62
   498  102A  34EC               	retlw	236
   499  102B  3482               	retlw	130
   500  102C  3476               	retlw	118
   501  102D  34BE               	retlw	190
   502  102E  3482               	retlw	130
   503  102F  34AD               	retlw	173
   504  1030  342B               	retlw	43
   505  1031  343E               	retlw	62
   506  1032  340E               	retlw	14
   507  1033  343C               	retlw	60
   508  1034  34C3               	retlw	195
   509  1035  34BD               	retlw	189
   510  1036  3487               	retlw	135
   511  1037  34D1               	retlw	209
   512  1038  3413               	retlw	19
   513  1039  343D               	retlw	61
   514  103A  3441               	retlw	65
   515  103B  3478               	retlw	120
   516  103C  34D3               	retlw	211
   517  103D  34BB               	retlw	187
   518  103E                     __end_oflog@coeff:
   519  103E                     _inputPassword:
   520  103E  3432               	retlw	50
   521  103F  3430               	retlw	48
   522  1040  3432               	retlw	50
   523  1041  3431               	retlw	49
   524  1042  3400               	retlw	0
   525  1043                     __end_of_inputPassword:
   526  1043                     _exitPassword:
   527  1043  342A               	retlw	42
   528  1044  3400               	retlw	0
   529  1045                     __end_of_exitPassword:
   530  0008                     _PORTDbits	set	8
   531  0008                     _PORTD	set	8
   532  0006                     _PORTB	set	6
   533  001E                     _ADRESH	set	30
   534  0007                     _PORTCbits	set	7
   535  001F                     _ADCON0bits	set	31
   536  0005                     _PORTA	set	5
   537  0088                     _TRISD	set	136
   538  0081                     _OPTION_REGbits	set	129
   539  0086                     _TRISB	set	134
   540  009E                     _ADRESL	set	158
   541  009F                     _ADCON1bits	set	159
   542  0085                     _TRISA	set	133
   543  0087                     _TRISC	set	135
   544  008F                     _OSCCON	set	143
   545  043D                     _TRISC5	set	1085
   546  0439                     _TRISC1	set	1081
   547  043E                     _TRISC6	set	1086
   548  043A                     _TRISC2	set	1082
   549  043C                     _TRISC4	set	1084
   550  043B                     _TRISC3	set	1083
   551  0438                     _TRISC0	set	1080
   552  042B                     _TRISA3	set	1067
   553  042A                     _TRISA2	set	1066
   554  0429                     _TRISA1	set	1065
   555  0428                     _TRISA0	set	1064
   556  0188                     _ANSEL	set	392
   557  0189                     _ANSELH	set	393
   558  1045                     STR_7:
   559  1045  3449               	retlw	73	;'I'
   560  1046  346E               	retlw	110	;'n'
   561  1047  3467               	retlw	103	;'g'
   562  1048  3472               	retlw	114	;'r'
   563  1049  3465               	retlw	101	;'e'
   564  104A  3473               	retlw	115	;'s'
   565  104B  346F               	retlw	111	;'o'
   566  104C  3420               	retlw	32	;' '
   567  104D  344E               	retlw	78	;'N'
   568  104E  346F               	retlw	111	;'o'
   569  104F  3420               	retlw	32	;' '
   570  1050  3450               	retlw	80	;'P'
   571  1051  3465               	retlw	101	;'e'
   572  1052  3472               	retlw	114	;'r'
   573  1053  346D               	retlw	109	;'m'
   574  1054  3469               	retlw	105	;'i'
   575  1055  3474               	retlw	116	;'t'
   576  1056  3469               	retlw	105	;'i'
   577  1057  3464               	retlw	100	;'d'
   578  1058  346F               	retlw	111	;'o'
   579  1059  3400               	retlw	0
   580  105A                     STR_10:
   581  105A  3446               	retlw	70	;'F'
   582  105B  3475               	retlw	117	;'u'
   583  105C  3465               	retlw	101	;'e'
   584  105D  3472               	retlw	114	;'r'
   585  105E  3461               	retlw	97	;'a'
   586  105F  3420               	retlw	32	;' '
   587  1060  3464               	retlw	100	;'d'
   588  1061  3465               	retlw	101	;'e'
   589  1062  346C               	retlw	108	;'l'
   590  1063  3420               	retlw	32	;' '
   591  1064  3473               	retlw	115	;'s'
   592  1065  3469               	retlw	105	;'i'
   593  1066  3473               	retlw	115	;'s'
   594  1067  3474               	retlw	116	;'t'
   595  1068  3465               	retlw	101	;'e'
   596  1069  346D               	retlw	109	;'m'
   597  106A  3461               	retlw	97	;'a'
   598  106B  3400               	retlw	0
   599  106C                     STR_8:
   600  106C  3443               	retlw	67	;'C'
   601  106D  346C               	retlw	108	;'l'
   602  106E  3461               	retlw	97	;'a'
   603  106F  3476               	retlw	118	;'v'
   604  1070  3465               	retlw	101	;'e'
   605  1071  3420               	retlw	32	;' '
   606  1072  3469               	retlw	105	;'i'
   607  1073  346E               	retlw	110	;'n'
   608  1074  3463               	retlw	99	;'c'
   609  1075  346F               	retlw	111	;'o'
   610  1076  3472               	retlw	114	;'r'
   611  1077  3472               	retlw	114	;'r'
   612  1078  3465               	retlw	101	;'e'
   613  1079  3463               	retlw	99	;'c'
   614  107A  3474               	retlw	116	;'t'
   615  107B  3461               	retlw	97	;'a'
   616  107C  3400               	retlw	0
   617  107D                     STR_12:
   618  107D  3449               	retlw	73	;'I'
   619  107E  346E               	retlw	110	;'n'
   620  107F  3467               	retlw	103	;'g'
   621  1080  3472               	retlw	114	;'r'
   622  1081  3465               	retlw	101	;'e'
   623  1082  3473               	retlw	115	;'s'
   624  1083  3465               	retlw	101	;'e'
   625  1084  3420               	retlw	32	;' '
   626  1085  3463               	retlw	99	;'c'
   627  1086  3461               	retlw	97	;'a'
   628  1087  3472               	retlw	114	;'r'
   629  1088  3461               	retlw	97	;'a'
   630  1089  3463               	retlw	99	;'c'
   631  108A  3474               	retlw	116	;'t'
   632  108B  3465               	retlw	101	;'e'
   633  108C  3472               	retlw	114	;'r'
   634  108D  3400               	retlw	0
   635  108E                     STR_5:
   636  108E  3450               	retlw	80	;'P'
   637  108F  3472               	retlw	114	;'r'
   638  1090  3465               	retlw	101	;'e'
   639  1091  3473               	retlw	115	;'s'
   640  1092  3473               	retlw	115	;'s'
   641  1093  3420               	retlw	32	;' '
   642  1094  3461               	retlw	97	;'a'
   643  1095  3420               	retlw	32	;' '
   644  1096  344B               	retlw	75	;'K'
   645  1097  3465               	retlw	101	;'e'
   646  1098  3479               	retlw	121	;'y'
   647  1099  3420               	retlw	32	;' '
   648  109A  344F               	retlw	79	;'O'
   649  109B  3455               	retlw	85	;'U'
   650  109C  3454               	retlw	84	;'T'
   651  109D  3400               	retlw	0
   652  109E                     STR_4:
   653  109E  3450               	retlw	80	;'P'
   654  109F  3472               	retlw	114	;'r'
   655  10A0  3465               	retlw	101	;'e'
   656  10A1  3473               	retlw	115	;'s'
   657  10A2  3473               	retlw	115	;'s'
   658  10A3  3420               	retlw	32	;' '
   659  10A4  3461               	retlw	97	;'a'
   660  10A5  3420               	retlw	32	;' '
   661  10A6  344B               	retlw	75	;'K'
   662  10A7  3465               	retlw	101	;'e'
   663  10A8  3479               	retlw	121	;'y'
   664  10A9  3420               	retlw	32	;' '
   665  10AA  3449               	retlw	73	;'I'
   666  10AB  344E               	retlw	78	;'N'
   667  10AC  3400               	retlw	0
   668  10AD                     STR_6:
   669  10AD  3443               	retlw	67	;'C'
   670  10AE  346C               	retlw	108	;'l'
   671  10AF  3461               	retlw	97	;'a'
   672  10B0  3476               	retlw	118	;'v'
   673  10B1  3465               	retlw	101	;'e'
   674  10B2  3420               	retlw	32	;' '
   675  10B3  3443               	retlw	67	;'C'
   676  10B4  346F               	retlw	111	;'o'
   677  10B5  3472               	retlw	114	;'r'
   678  10B6  3472               	retlw	114	;'r'
   679  10B7  3465               	retlw	101	;'e'
   680  10B8  3463               	retlw	99	;'c'
   681  10B9  3474               	retlw	116	;'t'
   682  10BA  3461               	retlw	97	;'a'
   683  10BB  3400               	retlw	0
   684  10BC                     STR_2:
   685  10BC  3454               	retlw	84	;'T'
   686  10BD  3465               	retlw	101	;'e'
   687  10BE  346D               	retlw	109	;'m'
   688  10BF  3470               	retlw	112	;'p'
   689  10C0  3465               	retlw	101	;'e'
   690  10C1  3472               	retlw	114	;'r'
   691  10C2  3461               	retlw	97	;'a'
   692  10C3  3474               	retlw	116	;'t'
   693  10C4  3475               	retlw	117	;'u'
   694  10C5  3472               	retlw	114	;'r'
   695  10C6  3461               	retlw	97	;'a'
   696  10C7  343A               	retlw	58	;':'
   697  10C8  3400               	retlw	0
   698  10C9                     STR_1:
   699  10C9  3425               	retlw	37	;'%'
   700  10CA  3464               	retlw	100	;'d'
   701  10CB  3425               	retlw	37	;'%'
   702  10CC  3463               	retlw	99	;'c'
   703  10CD  3443               	retlw	67	;'C'
   704  10CE  3400               	retlw	0
   705  10CF                     STR_3:
   706  10CF  3420               	retlw	32	;' '
   707  10D0  3420               	retlw	32	;' '
   708  10D1  3400               	retlw	0
   709  10AD                     
   710                           	psect	cinit
   711  07C3                     start_initialization:	
   712                           ; #config settings
   713                           
   714  07C3                     __initialization:
   715                           
   716                           ; Initialize objects allocated to BANK3
   717  07C3  1783               	bsf	3,7	;select IRP bank2
   718  07C4  30B0               	movlw	low (__pdataBANK3+32)
   719  07C5  00FD               	movwf	btemp+-1
   720  07C6  3011               	movlw	high __pidataBANK3
   721  07C7  00FE               	movwf	btemp
   722  07C8  30D4               	movlw	low __pidataBANK3
   723  07C9  00FF               	movwf	btemp+1
   724  07CA  3090               	movlw	low __pdataBANK3
   725  07CB  0084               	movwf	4
   726  07CC  160A  118A  21C5  120A  118A  	fcall	init_ram0
   727                           
   728                           ; Initialize objects allocated to BANK1
   729  07D1  1683               	bsf	3,5	;RP0=1, select bank1
   730  07D2  1303               	bcf	3,6	;RP1=0, select bank1
   731  07D3  120A  118A  2004  120A  118A  	fcall	__pidataBANK1	;fetch initializer
   732  07D8  00ED               	movwf	__pdataBANK1& (0+127)
   733  07D9  120A  118A  2005  120A  118A  	fcall	__pidataBANK1+1	;fetch initializer
   734  07DE  00EE               	movwf	(__pdataBANK1+1)& (0+127)
   735                           
   736                           ; Clear objects allocated to BANK3
   737  07DF  1683               	bsf	3,5	;RP0=1, select bank3
   738  07E0  1703               	bsf	3,6	;RP1=1, select bank3
   739  07E1  01B0               	clrf	__pbssBANK3& (0+127)
   740  07E2  01B1               	clrf	(__pbssBANK3+1)& (0+127)
   741  07E3  01B2               	clrf	(__pbssBANK3+2)& (0+127)
   742  07E4  01B3               	clrf	(__pbssBANK3+3)& (0+127)
   743  07E5  01B4               	clrf	(__pbssBANK3+4)& (0+127)
   744  07E6  01B5               	clrf	(__pbssBANK3+5)& (0+127)
   745  07E7  01B6               	clrf	(__pbssBANK3+6)& (0+127)
   746  07E8  01B7               	clrf	(__pbssBANK3+7)& (0+127)
   747  07E9  01B8               	clrf	(__pbssBANK3+8)& (0+127)
   748  07EA  01B9               	clrf	(__pbssBANK3+9)& (0+127)
   749  07EB  01BA               	clrf	(__pbssBANK3+10)& (0+127)
   750                           
   751                           ; Clear objects allocated to BANK1
   752  07EC  1683               	bsf	3,5	;RP0=1, select bank1
   753  07ED  1303               	bcf	3,6	;RP1=0, select bank1
   754  07EE  01E2               	clrf	__pbssBANK1& (0+127)
   755  07EF  01E3               	clrf	(__pbssBANK1+1)& (0+127)
   756  07F0  01E4               	clrf	(__pbssBANK1+2)& (0+127)
   757  07F1  01E5               	clrf	(__pbssBANK1+3)& (0+127)
   758  07F2  01E6               	clrf	(__pbssBANK1+4)& (0+127)
   759  07F3  01E7               	clrf	(__pbssBANK1+5)& (0+127)
   760  07F4  01E8               	clrf	(__pbssBANK1+6)& (0+127)
   761  07F5  01E9               	clrf	(__pbssBANK1+7)& (0+127)
   762  07F6  01EA               	clrf	(__pbssBANK1+8)& (0+127)
   763  07F7  01EB               	clrf	(__pbssBANK1+9)& (0+127)
   764  07F8  01EC               	clrf	(__pbssBANK1+10)& (0+127)
   765                           
   766                           ; Clear objects allocated to BANK0
   767  07F9  1283               	bcf	3,5	;RP0=0, select bank0
   768  07FA  1303               	bcf	3,6	;RP1=0, select bank0
   769  07FB  01EF               	clrf	__pbssBANK0& (0+127)
   770  07FC                     end_of_initialization:	
   771                           ;End of C runtime variable initialization code
   772                           
   773  07FC                     __end_of__initialization:
   774  07FC  0183               	clrf	3
   775  07FD  120A  118A  2BB7   	ljmp	_main	;jump to C main() function
   776                           
   777                           	psect	bssBANK0
   778  006F                     __pbssBANK0:
   779  006F                     _counter_digito:
   780  006F                     	ds	1
   781                           
   782                           	psect	bssBANK1
   783  00E2                     __pbssBANK1:
   784  00E2                     _flag:
   785  00E2                     	ds	2
   786  00E4                     _value_adc:
   787  00E4                     	ds	2
   788  00E6                     _counter_try:
   789  00E6                     	ds	2
   790  00E8                     _lm35:
   791  00E8                     	ds	1
   792  00E9                     _idx2:
   793  00E9                     	ds	1
   794  00EA                     _idx:
   795  00EA                     	ds	1
   796  00EB                     _pass_user2:
   797  00EB                     	ds	2
   798                           
   799                           	psect	dataBANK1
   800  00ED                     __pdataBANK1:
   801  00ED                     _key2:
   802  00ED                     	ds	1
   803  00EE                     _key:
   804  00EE                     	ds	1
   805                           
   806                           	psect	bssBANK3
   807  01B0                     __pbssBANK3:
   808  01B0                     _temp:
   809  01B0                     	ds	4
   810  01B4                     _errno:
   811  01B4                     	ds	2
   812  01B6                     _pass_user:
   813  01B6                     	ds	5
   814                           
   815                           	psect	dataBANK3
   816  0190                     __pdataBANK3:
   817  0190                     keypad_getkey2@F1320:
   818  0190                     	ds	16
   819  01A0                     keypad_getkey@F1297:
   820  01A0                     	ds	16
   821                           
   822                           	psect	inittext
   823  11C1                     init_fetch0:	
   824                           ;	Called with low address in FSR and high address in W
   825                           
   826  11C1  087E               	movf	btemp,w
   827  11C2  008A               	movwf	10
   828  11C3  087F               	movf	btemp+1,w
   829  11C4  0082               	movwf	2
   830  11C5                     init_ram0:	
   831                           ;Called with:
   832                           ;	high address of idata address in btemp 
   833                           ;	low address of idata address in btemp+1 
   834                           ;	low address of data in FSR
   835                           ;	high address + 1 of data in btemp-1
   836                           
   837  11C5  160A  118A  21C1  160A  118A  	fcall	init_fetch0
   838  11CA  0080               	movwf	0
   839  11CB  0A84               	incf	4,f
   840  11CC  0804               	movf	4,w
   841  11CD  067D               	xorwf	btemp+-1,w
   842  11CE  1903               	btfsc	3,2
   843  11CF  3400               	retlw	0
   844  11D0  0AFF               	incf	btemp+1,f
   845  11D1  1903               	btfsc	3,2
   846  11D2  0AFE               	incf	btemp,f
   847  11D3  29C5               	goto	init_ram0
   848                           
   849                           	psect	cstackBANK1
   850  00A0                     __pcstackBANK1:
   851  00A0                     ?_eval_poly:
   852  00A0                     ?___flsub:	
   853                           ; 4 bytes @ 0x0
   854                           
   855  00A0                     ___flsub@a:	
   856                           ; 4 bytes @ 0x0
   857                           
   858  00A0                     eval_poly@x:	
   859                           ; 4 bytes @ 0x0
   860                           
   861                           
   862                           ; 4 bytes @ 0x0
   863  00A0                     	ds	4
   864  00A4                     eval_poly@d:
   865  00A4                     ___flsub@b:	
   866                           ; 1 bytes @ 0x4
   867                           
   868                           
   869                           ; 4 bytes @ 0x4
   870  00A4                     	ds	1
   871  00A5                     eval_poly@n:
   872                           
   873                           ; 2 bytes @ 0x5
   874  00A5                     	ds	2
   875  00A7                     ??_eval_poly:
   876                           
   877                           ; 1 bytes @ 0x7
   878  00A7                     	ds	1
   879  00A8                     ?___fltol:
   880  00A8                     ___fltol@f1:	
   881                           ; 4 bytes @ 0x8
   882                           
   883                           
   884                           ; 4 bytes @ 0x8
   885  00A8                     	ds	4
   886  00AC                     ??___fltol:
   887  00AC                     eval_poly@res:	
   888                           ; 1 bytes @ 0xC
   889                           
   890                           
   891                           ; 4 bytes @ 0xC
   892  00AC                     	ds	4
   893  00B0                     ?_log:
   894  00B0                     log@x:	
   895                           ; 4 bytes @ 0x10
   896                           
   897                           
   898                           ; 4 bytes @ 0x10
   899  00B0                     	ds	1
   900  00B1                     ?_sprintf:
   901  00B1                     sprintf@f:	
   902                           ; 2 bytes @ 0x11
   903                           
   904                           
   905                           ; 1 bytes @ 0x11
   906  00B1                     	ds	3
   907  00B4                     log@exponent:
   908                           
   909                           ; 2 bytes @ 0x14
   910  00B4                     	ds	2
   911  00B6                     ??_sprintf:
   912                           
   913                           ; 1 bytes @ 0x16
   914  00B6                     	ds	3
   915  00B9                     sprintf@flag:
   916                           
   917                           ; 1 bytes @ 0x19
   918  00B9                     	ds	1
   919  00BA                     sprintf@prec:
   920                           
   921                           ; 1 bytes @ 0x1A
   922  00BA                     	ds	1
   923  00BB                     sprintf@ap:
   924                           
   925                           ; 1 bytes @ 0x1B
   926  00BB                     	ds	1
   927  00BC                     sprintf@val:
   928                           
   929                           ; 2 bytes @ 0x1C
   930  00BC                     	ds	2
   931  00BE                     sprintf@sp:
   932                           
   933                           ; 1 bytes @ 0x1E
   934  00BE                     	ds	1
   935  00BF                     sprintf@c:
   936                           
   937                           ; 1 bytes @ 0x1F
   938  00BF                     	ds	1
   939  00C0                     ??_main:
   940                           
   941                           ; 1 bytes @ 0x20
   942  00C0                     	ds	4
   943  00C4                     main@Temperature:
   944                           
   945                           ; 10 bytes @ 0x24
   946  00C4                     	ds	10
   947  00CE                     main@a:
   948                           
   949                           ; 4 bytes @ 0x2E
   950  00CE                     	ds	4
   951  00D2                     main@tempC:
   952                           
   953                           ; 4 bytes @ 0x32
   954  00D2                     	ds	4
   955  00D6                     _main$1032:
   956                           
   957                           ; 4 bytes @ 0x36
   958  00D6                     	ds	4
   959  00DA                     _main$1033:
   960                           
   961                           ; 4 bytes @ 0x3A
   962  00DA                     	ds	4
   963  00DE                     _main$1034:
   964                           
   965                           ; 4 bytes @ 0x3E
   966  00DE                     	ds	4
   967                           
   968                           	psect	cstackCOMMON
   969  0070                     __pcstackCOMMON:
   970  0070                     ?___fleq:
   971  0070                     ?___flge:	
   972                           ; 1 bit 
   973                           
   974  0070                     ?_keypad_init:	
   975                           ; 1 bit 
   976                           
   977  0070                     ??_keypad_init:	
   978                           ; 1 bytes @ 0x0
   979                           
   980  0070                     ?_LCD_Init:	
   981                           ; 1 bytes @ 0x0
   982                           
   983  0070                     ?_LCD_Command:	
   984                           ; 1 bytes @ 0x0
   985                           
   986  0070                     ??_LCD_Command:	
   987                           ; 1 bytes @ 0x0
   988                           
   989  0070                     ?_keypad_getkey:	
   990                           ; 1 bytes @ 0x0
   991                           
   992  0070                     ??_keypad_getkey:	
   993                           ; 1 bytes @ 0x0
   994                           
   995  0070                     ?_LCD_Clear:	
   996                           ; 1 bytes @ 0x0
   997                           
   998  0070                     ?_LCD_Char:	
   999                           ; 1 bytes @ 0x0
  1000                           
  1001  0070                     ??_LCD_Char:	
  1002                           ; 1 bytes @ 0x0
  1003                           
  1004  0070                     ?_keypad_getkey2:	
  1005                           ; 1 bytes @ 0x0
  1006                           
  1007  0070                     ??_keypad_getkey2:	
  1008                           ; 1 bytes @ 0x0
  1009                           
  1010  0070                     ?_main:	
  1011                           ; 1 bytes @ 0x0
  1012                           
  1013  0070                     ?_strncmp:	
  1014                           ; 1 bytes @ 0x0
  1015                           
  1016  0070                     ?__Umul8_16:	
  1017                           ; 2 bytes @ 0x0
  1018                           
  1019  0070                     ?___lwdiv:	
  1020                           ; 2 bytes @ 0x0
  1021                           
  1022  0070                     ?___xxtofl:	
  1023                           ; 2 bytes @ 0x0
  1024                           
  1025  0070                     __Umul8_16@multiplicand:	
  1026                           ; 4 bytes @ 0x0
  1027                           
  1028  0070                     ___lwdiv@divisor:	
  1029                           ; 1 bytes @ 0x0
  1030                           
  1031  0070                     strncmp@s1:	
  1032                           ; 2 bytes @ 0x0
  1033                           
  1034  0070                     ___fleq@ff1:	
  1035                           ; 2 bytes @ 0x0
  1036                           
  1037  0070                     ___flge@ff1:	
  1038                           ; 4 bytes @ 0x0
  1039                           
  1040  0070                     ___xxtofl@val:	
  1041                           ; 4 bytes @ 0x0
  1042                           
  1043                           
  1044                           ; 4 bytes @ 0x0
  1045  0070                     	ds	2
  1046  0072                     ??__Umul8_16:
  1047  0072                     LCD_Command@cmd:	
  1048                           ; 1 bytes @ 0x2
  1049                           
  1050  0072                     LCD_Char@dat:	
  1051                           ; 1 bytes @ 0x2
  1052                           
  1053  0072                     strncmp@s2:	
  1054                           ; 1 bytes @ 0x2
  1055                           
  1056  0072                     ___lwdiv@dividend:	
  1057                           ; 1 bytes @ 0x2
  1058                           
  1059                           
  1060                           ; 2 bytes @ 0x2
  1061  0072                     	ds	1
  1062  0073                     ??_LCD_Init:
  1063  0073                     ?_LCD_String:	
  1064                           ; 1 bytes @ 0x3
  1065                           
  1066  0073                     ??_LCD_Clear:	
  1067                           ; 1 bytes @ 0x3
  1068                           
  1069  0073                     LCD_String@msg:	
  1070                           ; 1 bytes @ 0x3
  1071                           
  1072  0073                     strncmp@len:	
  1073                           ; 2 bytes @ 0x3
  1074                           
  1075                           
  1076                           ; 2 bytes @ 0x3
  1077  0073                     	ds	1
  1078  0074                     ??___lwdiv:
  1079  0074                     ??___xxtofl:	
  1080                           ; 1 bytes @ 0x4
  1081                           
  1082  0074                     __Umul8_16@product:	
  1083                           ; 1 bytes @ 0x4
  1084                           
  1085  0074                     ___fleq@ff2:	
  1086                           ; 2 bytes @ 0x4
  1087                           
  1088  0074                     ___flge@ff2:	
  1089                           ; 4 bytes @ 0x4
  1090                           
  1091                           
  1092                           ; 4 bytes @ 0x4
  1093  0074                     	ds	1
  1094  0075                     ?_LCD_String_xy:
  1095  0075                     ??_LCD_String:	
  1096                           ; 1 bytes @ 0x5
  1097                           
  1098  0075                     ??_strncmp:	
  1099                           ; 1 bytes @ 0x5
  1100                           
  1101  0075                     LCD_String_xy@pos:	
  1102                           ; 1 bytes @ 0x5
  1103                           
  1104  0075                     ___lwdiv@quotient:	
  1105                           ; 1 bytes @ 0x5
  1106                           
  1107                           
  1108                           ; 2 bytes @ 0x5
  1109  0075                     	ds	1
  1110  0076                     LCD_String_xy@msg:
  1111  0076                     __Umul8_16@word_mpld:	
  1112                           ; 1 bytes @ 0x6
  1113                           
  1114                           
  1115                           ; 2 bytes @ 0x6
  1116  0076                     	ds	1
  1117  0077                     ??_LCD_String_xy:
  1118  0077                     ___lwdiv@counter:	
  1119                           ; 1 bytes @ 0x7
  1120                           
  1121                           
  1122                           ; 1 bytes @ 0x7
  1123  0077                     	ds	1
  1124  0078                     ??___fleq:
  1125  0078                     ??___flge:	
  1126                           ; 1 bytes @ 0x8
  1127                           
  1128  0078                     ?___lwmod:	
  1129                           ; 1 bytes @ 0x8
  1130                           
  1131  0078                     LCD_String_xy@row:	
  1132                           ; 2 bytes @ 0x8
  1133                           
  1134  0078                     __Umul8_16@multiplier:	
  1135                           ; 1 bytes @ 0x8
  1136                           
  1137  0078                     ___xxtofl@sign:	
  1138                           ; 1 bytes @ 0x8
  1139                           
  1140  0078                     ___lwmod@divisor:	
  1141                           ; 1 bytes @ 0x8
  1142                           
  1143                           
  1144                           ; 2 bytes @ 0x8
  1145  0078                     	ds	1
  1146  0079                     LCD_String_xy@location:
  1147  0079                     ___xxtofl@exp:	
  1148                           ; 1 bytes @ 0x9
  1149                           
  1150                           
  1151                           ; 1 bytes @ 0x9
  1152  0079                     	ds	1
  1153  007A                     ___lwmod@dividend:
  1154  007A                     ___xxtofl@arg:	
  1155                           ; 2 bytes @ 0xA
  1156                           
  1157                           
  1158                           ; 4 bytes @ 0xA
  1159  007A                     	ds	2
  1160  007C                     ??_frexp:
  1161  007C                     ??___lwmod:	
  1162                           ; 1 bytes @ 0xC
  1163                           
  1164                           
  1165                           ; 1 bytes @ 0xC
  1166  007C                     	ds	1
  1167  007D                     ___lwmod@counter:
  1168                           
  1169                           ; 1 bytes @ 0xD
  1170  007D                     	ds	1
  1171  007E                     ??___flsub:
  1172                           
  1173                           	psect	cstackBANK0
  1174  0020                     __pcstackBANK0:	
  1175                           ; 1 bytes @ 0xE
  1176                           
  1177  0020                     ?_frexp:
  1178  0020                     frexp@value:	
  1179                           ; 4 bytes @ 0x0
  1180                           
  1181  0020                     keypad_getkey@letras:	
  1182                           ; 4 bytes @ 0x0
  1183                           
  1184  0020                     keypad_getkey2@letras:	
  1185                           ; 16 bytes @ 0x0
  1186                           
  1187                           
  1188                           ; 16 bytes @ 0x0
  1189  0020                     	ds	4
  1190  0024                     frexp@eptr:
  1191                           
  1192                           ; 1 bytes @ 0x4
  1193  0024                     	ds	1
  1194  0025                     ?___flmul:
  1195  0025                     ___flmul@b:	
  1196                           ; 4 bytes @ 0x5
  1197                           
  1198                           
  1199                           ; 4 bytes @ 0x5
  1200  0025                     	ds	4
  1201  0029                     ___flmul@a:
  1202                           
  1203                           ; 4 bytes @ 0x9
  1204  0029                     	ds	4
  1205  002D                     ??___flmul:
  1206                           
  1207                           ; 1 bytes @ 0xD
  1208  002D                     	ds	3
  1209  0030                     keypad_getkey@valor:
  1210  0030                     keypad_getkey2@valor:	
  1211                           ; 1 bytes @ 0x10
  1212                           
  1213                           
  1214                           ; 1 bytes @ 0x10
  1215  0030                     	ds	1
  1216  0031                     keypad_getkey@i:
  1217  0031                     keypad_getkey2@i:	
  1218                           ; 2 bytes @ 0x11
  1219                           
  1220                           
  1221                           ; 2 bytes @ 0x11
  1222  0031                     	ds	1
  1223  0032                     ___flmul@sign:
  1224                           
  1225                           ; 1 bytes @ 0x12
  1226  0032                     	ds	1
  1227  0033                     ___flmul@grs:
  1228                           
  1229                           ; 4 bytes @ 0x13
  1230  0033                     	ds	4
  1231  0037                     ___flmul@aexp:
  1232                           
  1233                           ; 1 bytes @ 0x17
  1234  0037                     	ds	1
  1235  0038                     ___flmul@bexp:
  1236                           
  1237                           ; 1 bytes @ 0x18
  1238  0038                     	ds	1
  1239  0039                     ___flmul@prod:
  1240                           
  1241                           ; 4 bytes @ 0x19
  1242  0039                     	ds	4
  1243  003D                     ___flmul@temp:
  1244                           
  1245                           ; 2 bytes @ 0x1D
  1246  003D                     	ds	2
  1247  003F                     ?___fldiv:
  1248  003F                     ___fldiv@a:	
  1249                           ; 4 bytes @ 0x1F
  1250                           
  1251                           
  1252                           ; 4 bytes @ 0x1F
  1253  003F                     	ds	4
  1254  0043                     ___fldiv@b:
  1255                           
  1256                           ; 4 bytes @ 0x23
  1257  0043                     	ds	4
  1258  0047                     ??___fldiv:
  1259                           
  1260                           ; 1 bytes @ 0x27
  1261  0047                     	ds	5
  1262  004C                     ___fldiv@rem:
  1263                           
  1264                           ; 4 bytes @ 0x2C
  1265  004C                     	ds	4
  1266  0050                     ___fldiv@sign:
  1267                           
  1268                           ; 1 bytes @ 0x30
  1269  0050                     	ds	1
  1270  0051                     ___fldiv@new_exp:
  1271                           
  1272                           ; 2 bytes @ 0x31
  1273  0051                     	ds	2
  1274  0053                     ___fldiv@grs:
  1275                           
  1276                           ; 4 bytes @ 0x33
  1277  0053                     	ds	4
  1278  0057                     ___fldiv@bexp:
  1279                           
  1280                           ; 1 bytes @ 0x37
  1281  0057                     	ds	1
  1282  0058                     ___fldiv@aexp:
  1283                           
  1284                           ; 1 bytes @ 0x38
  1285  0058                     	ds	1
  1286  0059                     ?___fladd:
  1287  0059                     ___fladd@b:	
  1288                           ; 4 bytes @ 0x39
  1289                           
  1290                           
  1291                           ; 4 bytes @ 0x39
  1292  0059                     	ds	4
  1293  005D                     ___fladd@a:
  1294                           
  1295                           ; 4 bytes @ 0x3D
  1296  005D                     	ds	4
  1297  0061                     ??___fladd:
  1298                           
  1299                           ; 1 bytes @ 0x41
  1300  0061                     	ds	8
  1301  0069                     ___fladd@signs:
  1302                           
  1303                           ; 1 bytes @ 0x49
  1304  0069                     	ds	1
  1305  006A                     ___fladd@aexp:
  1306                           
  1307                           ; 1 bytes @ 0x4A
  1308  006A                     	ds	1
  1309  006B                     ___fladd@bexp:
  1310                           
  1311                           ; 1 bytes @ 0x4B
  1312  006B                     	ds	1
  1313  006C                     ___fladd@grs:
  1314                           
  1315                           ; 1 bytes @ 0x4C
  1316  006C                     	ds	1
  1317  006D                     ??_log:
  1318  006D                     ___fltol@sign1:	
  1319                           ; 1 bytes @ 0x4D
  1320                           
  1321                           
  1322                           ; 1 bytes @ 0x4D
  1323  006D                     	ds	1
  1324  006E                     ___fltol@exp1:
  1325                           
  1326                           ; 1 bytes @ 0x4E
  1327  006E                     	ds	1
  1328                           
  1329                           	psect	maintext
  1330  03B7                     __pmaintext:	
  1331 ;;
  1332 ;;Main: autosize = 0, tempsize = 4, incstack = 0, save=0
  1333 ;;
  1334 ;; *************** function _main *****************
  1335 ;; Defined at:
  1336 ;;		line 41 in file "main.c"
  1337 ;; Parameters:    Size  Location     Type
  1338 ;;		None
  1339 ;; Auto vars:     Size  Location     Type
  1340 ;;  Temperature    10   36[BANK1 ] unsigned char [10]
  1341 ;;  tempC           4   50[BANK1 ] float 
  1342 ;;  a               4   46[BANK1 ] long 
  1343 ;; Return value:  Size  Location     Type
  1344 ;;                  1    wreg      void 
  1345 ;; Registers used:
  1346 ;;		wreg, fsr0l, fsr0h, status,2, status,0, btemp+1, pclath, cstack
  1347 ;; Tracked objects:
  1348 ;;		On entry : B00/0
  1349 ;;		On exit  : 0/0
  1350 ;;		Unchanged: 0/0
  1351 ;; Data sizes:     COMMON   BANK0   BANK1   BANK3   BANK2
  1352 ;;      Params:         0       0       0       0       0
  1353 ;;      Locals:         0       0      30       0       0
  1354 ;;      Temps:          0       0       4       0       0
  1355 ;;      Totals:         0       0      34       0       0
  1356 ;;Total ram usage:       34 bytes
  1357 ;; Hardware stack levels required when called: 4
  1358 ;; This function calls:
  1359 ;;		_LCD_Char
  1360 ;;		_LCD_Clear
  1361 ;;		_LCD_Command
  1362 ;;		_LCD_Init
  1363 ;;		_LCD_String
  1364 ;;		_LCD_String_xy
  1365 ;;		___fladd
  1366 ;;		___fldiv
  1367 ;;		___flsub
  1368 ;;		___fltol
  1369 ;;		___xxtofl
  1370 ;;		_keypad_getkey
  1371 ;;		_keypad_getkey2
  1372 ;;		_keypad_init
  1373 ;;		_log
  1374 ;;		_sprintf
  1375 ;;		_strncmp
  1376 ;; This function is called by:
  1377 ;;		Startup code after reset
  1378 ;; This function uses a non-reentrant model
  1379 ;;
  1380                           
  1381  03B7                     _main:	
  1382                           ;psect for function _main
  1383                           
  1384  03B7                     l3598:	
  1385                           ;incstack = 0
  1386                           ; Regs used in _main: [wreg-fsr0h+status,2+status,0+btemp+1+pclath+cstack]
  1387                           
  1388                           
  1389                           ;main.c: 43:     OSCCON = 0x71;
  1390  03B7  3071               	movlw	113
  1391  03B8  1683               	bsf	3,5	;RP0=1, select bank1
  1392  03B9  1303               	bcf	3,6	;RP1=0, select bank1
  1393  03BA  008F               	movwf	15	;volatile
  1394  03BB                     l3600:
  1395                           
  1396                           ;main.c: 44:     ANSELH = 0x00;
  1397  03BB  1683               	bsf	3,5	;RP0=1, select bank3
  1398  03BC  1703               	bsf	3,6	;RP1=1, select bank3
  1399  03BD  0189               	clrf	9	;volatile
  1400  03BE                     l3602:
  1401                           
  1402                           ;main.c: 45:     TRISC = 0x00;
  1403  03BE  1683               	bsf	3,5	;RP0=1, select bank1
  1404  03BF  1303               	bcf	3,6	;RP1=0, select bank1
  1405  03C0  0187               	clrf	7	;volatile
  1406  03C1                     l3604:
  1407                           
  1408                           ;main.c: 46:     TRISA = 0x00;
  1409  03C1  0185               	clrf	5	;volatile
  1410  03C2                     l3606:
  1411                           
  1412                           ;main.c: 49:     ANSEL = 0x01;
  1413  03C2  3001               	movlw	1
  1414  03C3  1683               	bsf	3,5	;RP0=1, select bank3
  1415  03C4  1703               	bsf	3,6	;RP1=1, select bank3
  1416  03C5  0088               	movwf	8	;volatile
  1417                           
  1418                           ;main.c: 50:     PORTA = 0;
  1419  03C6  1283               	bcf	3,5	;RP0=0, select bank0
  1420  03C7  1303               	bcf	3,6	;RP1=0, select bank0
  1421  03C8  0185               	clrf	5	;volatile
  1422  03C9                     l3608:
  1423                           
  1424                           ;main.c: 51:     TRISA0 = 1;
  1425  03C9  1683               	bsf	3,5	;RP0=1, select bank1
  1426  03CA  1303               	bcf	3,6	;RP1=0, select bank1
  1427  03CB  1405               	bsf	5,0	;volatile
  1428  03CC                     l3610:
  1429                           
  1430                           ;main.c: 52:     TRISA1 = 0;
  1431  03CC  1085               	bcf	5,1	;volatile
  1432  03CD                     l3612:
  1433                           
  1434                           ;main.c: 53:     TRISA2 = 0;
  1435  03CD  1105               	bcf	5,2	;volatile
  1436  03CE                     l3614:
  1437                           
  1438                           ;main.c: 54:     TRISA3 = 0;
  1439  03CE  1185               	bcf	5,3	;volatile
  1440  03CF                     l3616:
  1441                           
  1442                           ;main.c: 57:     ADCON1bits.ADFM = 1;
  1443  03CF  179F               	bsf	31,7	;volatile
  1444  03D0                     l3618:
  1445                           
  1446                           ;main.c: 58:     ADCON1bits.VCFG0 = 0;
  1447  03D0  121F               	bcf	31,4	;volatile
  1448  03D1                     l3620:
  1449                           
  1450                           ;main.c: 59:     ADCON1bits.VCFG1 = 0;
  1451  03D1  129F               	bcf	31,5	;volatile
  1452  03D2                     l3622:
  1453                           
  1454                           ;main.c: 61:     ADCON0bits.CHS = 0b0000;
  1455  03D2  30C3               	movlw	-61
  1456  03D3  1283               	bcf	3,5	;RP0=0, select bank0
  1457  03D4  1303               	bcf	3,6	;RP1=0, select bank0
  1458  03D5  059F               	andwf	31,f	;volatile
  1459  03D6                     l3624:
  1460                           
  1461                           ;main.c: 62:     ADCON0bits.ADCS = 0b01;
  1462  03D6  081F               	movf	31,w	;volatile
  1463  03D7  393F               	andlw	-193
  1464  03D8  3840               	iorlw	64
  1465  03D9  009F               	movwf	31	;volatile
  1466  03DA                     l3626:
  1467                           
  1468                           ;main.c: 63:     ADCON0bits.ADON = 1;
  1469  03DA  141F               	bsf	31,0	;volatile
  1470  03DB                     l3628:
  1471                           
  1472                           ;main.c: 66:     TRISC0 = 1;
  1473  03DB  1683               	bsf	3,5	;RP0=1, select bank1
  1474  03DC  1303               	bcf	3,6	;RP1=0, select bank1
  1475  03DD  1407               	bsf	7,0	;volatile
  1476  03DE                     l3630:
  1477                           
  1478                           ;main.c: 67:     TRISC3 = 0;
  1479  03DE  1187               	bcf	7,3	;volatile
  1480  03DF                     l3632:
  1481                           
  1482                           ;main.c: 68:     TRISC4 = 0;
  1483  03DF  1207               	bcf	7,4	;volatile
  1484  03E0                     l3634:
  1485                           
  1486                           ;main.c: 69:     PORTCbits.RC0 = 0;
  1487  03E0  1283               	bcf	3,5	;RP0=0, select bank0
  1488  03E1  1303               	bcf	3,6	;RP1=0, select bank0
  1489  03E2  1007               	bcf	7,0	;volatile
  1490  03E3                     l3636:
  1491                           
  1492                           ;main.c: 70:     PORTCbits.RC3 = 0;
  1493  03E3  1187               	bcf	7,3	;volatile
  1494  03E4                     l3638:
  1495                           
  1496                           ;main.c: 71:     PORTCbits.RC4 = 0;
  1497  03E4  1207               	bcf	7,4	;volatile
  1498  03E5                     l3640:
  1499                           
  1500                           ;main.c: 74:     TRISC2 = 1;
  1501  03E5  1683               	bsf	3,5	;RP0=1, select bank1
  1502  03E6  1303               	bcf	3,6	;RP1=0, select bank1
  1503  03E7  1507               	bsf	7,2	;volatile
  1504  03E8                     l3642:
  1505                           
  1506                           ;main.c: 75:     TRISC6 = 0;
  1507  03E8  1307               	bcf	7,6	;volatile
  1508  03E9                     l3644:
  1509                           
  1510                           ;main.c: 76:     PORTCbits.RC6 = 0;
  1511  03E9  1283               	bcf	3,5	;RP0=0, select bank0
  1512  03EA  1303               	bcf	3,6	;RP1=0, select bank0
  1513  03EB  1307               	bcf	7,6	;volatile
  1514  03EC                     l3646:
  1515                           
  1516                           ;main.c: 77:     PORTCbits.RC2 = 0;
  1517  03EC  1107               	bcf	7,2	;volatile
  1518  03ED                     l3648:
  1519                           
  1520                           ;main.c: 80:     TRISC1 = 1;
  1521  03ED  1683               	bsf	3,5	;RP0=1, select bank1
  1522  03EE  1303               	bcf	3,6	;RP1=0, select bank1
  1523  03EF  1487               	bsf	7,1	;volatile
  1524  03F0                     l3650:
  1525                           
  1526                           ;main.c: 81:     TRISC5 = 0;
  1527  03F0  1287               	bcf	7,5	;volatile
  1528  03F1                     l3652:
  1529                           
  1530                           ;main.c: 82:     PORTCbits.RC1 = 0;
  1531  03F1  1283               	bcf	3,5	;RP0=0, select bank0
  1532  03F2  1303               	bcf	3,6	;RP1=0, select bank0
  1533  03F3  1087               	bcf	7,1	;volatile
  1534  03F4                     l3654:
  1535                           
  1536                           ;main.c: 83:     PORTCbits.RC5 = 0;
  1537  03F4  1287               	bcf	7,5	;volatile
  1538  03F5                     l3656:
  1539                           
  1540                           ;main.c: 85:     keypad_init();
  1541  03F5  160A  118A  21A5  120A  118A  	fcall	_keypad_init
  1542  03FA                     l3658:
  1543                           
  1544                           ;main.c: 86:     LCD_Init();
  1545  03FA  160A  118A  2241  120A  118A  	fcall	_LCD_Init
  1546  03FF                     l3660:
  1547                           
  1548                           ;main.c: 91:         if( PORTCbits.RC0 == 1){
  1549  03FF  1283               	bcf	3,5	;RP0=0, select bank0
  1550  0400  1303               	bcf	3,6	;RP1=0, select bank0
  1551  0401  1C07               	btfss	7,0	;volatile
  1552  0402  2C04               	goto	u4881
  1553  0403  2C05               	goto	u4880
  1554  0404                     u4881:
  1555  0404  2C08               	goto	l104
  1556  0405                     u4880:
  1557  0405                     l3662:
  1558                           
  1559                           ;main.c: 92:             PORTCbits.RC4 = 1;
  1560  0405  1607               	bsf	7,4	;volatile
  1561                           
  1562                           ;main.c: 93:             PORTCbits.RC3 = 1;
  1563  0406  1587               	bsf	7,3	;volatile
  1564                           
  1565                           ;main.c: 94:         }
  1566  0407  2C0B               	goto	l3664
  1567  0408                     l104:	
  1568                           ;main.c: 95:         else{
  1569                           
  1570                           
  1571                           ;main.c: 96:             PORTCbits.RC4 = 0;
  1572  0408  1207               	bcf	7,4	;volatile
  1573                           
  1574                           ;main.c: 97:             PORTCbits.RC3 = 0;
  1575  0409  1187               	bcf	7,3	;volatile
  1576                           
  1577                           ;main.c: 98:             PORTCbits.RC5 = 0;
  1578  040A  1287               	bcf	7,5	;volatile
  1579  040B                     l3664:
  1580                           
  1581                           ;main.c: 103:         if (flag == 0){
  1582  040B  1683               	bsf	3,5	;RP0=1, select bank1
  1583  040C  1303               	bcf	3,6	;RP1=0, select bank1
  1584  040D  0862               	movf	_flag^(0+128),w
  1585  040E  0463               	iorwf	(_flag+1)^(0+128),w
  1586  040F  1D03               	btfss	3,2
  1587  0410  2C12               	goto	u4891
  1588  0411  2C13               	goto	u4890
  1589  0412                     u4891:
  1590  0412  2C1C               	goto	l106
  1591  0413                     u4890:
  1592  0413                     l3666:
  1593                           
  1594                           ;main.c: 104:             if ( PORTCbits.RC1 == 1){
  1595  0413  1283               	bcf	3,5	;RP0=0, select bank0
  1596  0414  1303               	bcf	3,6	;RP1=0, select bank0
  1597  0415  1C87               	btfss	7,1	;volatile
  1598  0416  2C18               	goto	u4901
  1599  0417  2C19               	goto	u4900
  1600  0418                     u4901:
  1601  0418  2C23               	goto	l108
  1602  0419                     u4900:
  1603  0419                     l3668:
  1604                           
  1605                           ;main.c: 105:                 PORTCbits.RC4 = 1;
  1606  0419  1607               	bsf	7,4	;volatile
  1607                           
  1608                           ;main.c: 106:                 PORTCbits.RC5 = 1;
  1609  041A  1687               	bsf	7,5	;volatile
  1610  041B  2C23               	goto	l108
  1611  041C                     l106:	
  1612                           ;main.c: 110:         else if(PORTCbits.RC2 == 1){
  1613                           
  1614  041C  1283               	bcf	3,5	;RP0=0, select bank0
  1615  041D  1303               	bcf	3,6	;RP1=0, select bank0
  1616  041E  1D07               	btfss	7,2	;volatile
  1617  041F  2C21               	goto	u4911
  1618  0420  2C22               	goto	u4910
  1619  0421                     u4911:
  1620  0421  2C23               	goto	l108
  1621  0422                     u4910:
  1622  0422                     l3670:
  1623                           
  1624                           ;main.c: 111:             PORTCbits.RC6 = 1;
  1625  0422  1707               	bsf	7,6	;volatile
  1626  0423                     l108:
  1627                           
  1628                           ;main.c: 115:         ADCON0bits.GO_DONE = 1;
  1629  0423  149F               	bsf	31,1	;volatile
  1630  0424                     l110:	
  1631                           ;main.c: 116:         while (ADCON0bits.GO_DONE);
  1632                           
  1633  0424  189F               	btfsc	31,1	;volatile
  1634  0425  2C27               	goto	u4921
  1635  0426  2C28               	goto	u4920
  1636  0427                     u4921:
  1637  0427  2C24               	goto	l110
  1638  0428                     u4920:
  1639  0428                     l3672:
  1640                           
  1641                           ;main.c: 117:         value_adc = ADRESH;
  1642  0428  081E               	movf	30,w	;volatile
  1643  0429  1683               	bsf	3,5	;RP0=1, select bank1
  1644  042A  1303               	bcf	3,6	;RP1=0, select bank1
  1645  042B  00C0               	movwf	??_main^(0+128)
  1646  042C  01C1               	clrf	(??_main^(0+128)+1)
  1647  042D  0840               	movf	??_main^(0+128),w
  1648  042E  00E4               	movwf	_value_adc^(0+128)
  1649  042F  0841               	movf	(??_main+1)^(0+128),w
  1650  0430  00E5               	movwf	(_value_adc+1)^(0+128)
  1651  0431                     l3674:
  1652                           
  1653                           ;main.c: 118:         value_adc = (value_adc << 8) + ADRESL;
  1654  0431  0865               	movf	(_value_adc+1)^(0+128),w
  1655  0432  00C1               	movwf	(??_main^(0+128)+1)
  1656  0433  0864               	movf	_value_adc^(0+128),w
  1657  0434  00C0               	movwf	??_main^(0+128)
  1658  0435  0840               	movf	??_main^(0+128),w
  1659  0436  00C1               	movwf	(??_main^(0+128)+1)
  1660  0437  01C0               	clrf	??_main^(0+128)
  1661  0438  081E               	movf	30,w	;volatile
  1662  0439  0740               	addwf	??_main^(0+128),w
  1663  043A  00C2               	movwf	(??_main+2)^(0+128)
  1664  043B  3000               	movlw	0
  1665  043C  1803               	skipnc
  1666  043D  3001               	movlw	1
  1667  043E  0741               	addwf	(??_main+1)^(0+128),w
  1668  043F  00C3               	movwf	(??_main+3)^(0+128)
  1669  0440  0842               	movf	(??_main+2)^(0+128),w
  1670  0441  00E4               	movwf	_value_adc^(0+128)
  1671  0442  0843               	movf	(??_main+3)^(0+128),w
  1672  0443  00E5               	movwf	(_value_adc+1)^(0+128)
  1673  0444                     l3676:
  1674                           
  1675                           ;main.c: 119:         temp = value_adc;
  1676  0444  0864               	movf	_value_adc^(0+128),w
  1677  0445  00F0               	movwf	___xxtofl@val
  1678  0446  0865               	movf	(_value_adc+1)^(0+128),w
  1679  0447  00F1               	movwf	___xxtofl@val+1
  1680  0448  3000               	movlw	0
  1681  0449  1BF1               	btfsc	___xxtofl@val+1,7
  1682  044A  30FF               	movlw	255
  1683  044B  00F2               	movwf	___xxtofl@val+2
  1684  044C  00F3               	movwf	___xxtofl@val+3
  1685  044D  3001               	movlw	1
  1686  044E  160A  118A  256A  120A  118A  	fcall	___xxtofl
  1687  0453  0873               	movf	?___xxtofl+3,w
  1688  0454  1683               	bsf	3,5	;RP0=1, select bank3
  1689  0455  1703               	bsf	3,6	;RP1=1, select bank3
  1690  0456  00B3               	movwf	(_temp+3)^(0+384)
  1691  0457  0872               	movf	?___xxtofl+2,w
  1692  0458  00B2               	movwf	(_temp+2)^(0+384)
  1693  0459  0871               	movf	?___xxtofl+1,w
  1694  045A  00B1               	movwf	(_temp+1)^(0+384)
  1695  045B  0870               	movf	?___xxtofl,w
  1696  045C  00B0               	movwf	_temp^(0+384)
  1697  045D                     l3678:
  1698                           
  1699                           ;main.c: 122:         long a = (long)(1023 - temp);
  1700  045D  3044               	movlw	68
  1701  045E  1683               	bsf	3,5	;RP0=1, select bank1
  1702  045F  1303               	bcf	3,6	;RP1=0, select bank1
  1703  0460  00A7               	movwf	(___flsub@b+3)^(0+128)
  1704  0461  307F               	movlw	127
  1705  0462  00A6               	movwf	(___flsub@b+2)^(0+128)
  1706  0463  30C0               	movlw	192
  1707  0464  00A5               	movwf	(___flsub@b+1)^(0+128)
  1708  0465  3000               	movlw	0
  1709  0466  00A4               	movwf	___flsub@b^(0+128)
  1710  0467  1683               	bsf	3,5	;RP0=1, select bank3
  1711  0468  1703               	bsf	3,6	;RP1=1, select bank3
  1712  0469  0833               	movf	(_temp+3)^(0+384),w
  1713  046A  1683               	bsf	3,5	;RP0=1, select bank1
  1714  046B  1303               	bcf	3,6	;RP1=0, select bank1
  1715  046C  00A3               	movwf	(___flsub@a+3)^(0+128)
  1716  046D  1683               	bsf	3,5	;RP0=1, select bank3
  1717  046E  1703               	bsf	3,6	;RP1=1, select bank3
  1718  046F  0832               	movf	(_temp+2)^(0+384),w
  1719  0470  1683               	bsf	3,5	;RP0=1, select bank1
  1720  0471  1303               	bcf	3,6	;RP1=0, select bank1
  1721  0472  00A2               	movwf	(___flsub@a+2)^(0+128)
  1722  0473  1683               	bsf	3,5	;RP0=1, select bank3
  1723  0474  1703               	bsf	3,6	;RP1=1, select bank3
  1724  0475  0831               	movf	(_temp+1)^(0+384),w
  1725  0476  1683               	bsf	3,5	;RP0=1, select bank1
  1726  0477  1303               	bcf	3,6	;RP1=0, select bank1
  1727  0478  00A1               	movwf	(___flsub@a+1)^(0+128)
  1728  0479  1683               	bsf	3,5	;RP0=1, select bank3
  1729  047A  1703               	bsf	3,6	;RP1=1, select bank3
  1730  047B  0830               	movf	_temp^(0+384),w
  1731  047C  1683               	bsf	3,5	;RP0=1, select bank1
  1732  047D  1303               	bcf	3,6	;RP1=0, select bank1
  1733  047E  00A0               	movwf	___flsub@a^(0+128)
  1734  047F  120A  118A  2006  120A  118A  	fcall	___flsub
  1735  0484  1683               	bsf	3,5	;RP0=1, select bank1
  1736  0485  1303               	bcf	3,6	;RP1=0, select bank1
  1737  0486  0823               	movf	(?___flsub+3)^(0+128),w
  1738  0487  00AB               	movwf	(___fltol@f1+3)^(0+128)
  1739  0488  0822               	movf	(?___flsub+2)^(0+128),w
  1740  0489  00AA               	movwf	(___fltol@f1+2)^(0+128)
  1741  048A  0821               	movf	(?___flsub+1)^(0+128),w
  1742  048B  00A9               	movwf	(___fltol@f1+1)^(0+128)
  1743  048C  0820               	movf	?___flsub^(0+128),w
  1744  048D  00A8               	movwf	___fltol@f1^(0+128)
  1745  048E  160A  118A  2436  120A  118A  	fcall	___fltol
  1746  0493  1683               	bsf	3,5	;RP0=1, select bank1
  1747  0494  1303               	bcf	3,6	;RP1=0, select bank1
  1748  0495  082B               	movf	(?___fltol+3)^(0+128),w
  1749  0496  00D1               	movwf	(main@a+3)^(0+128)
  1750  0497  082A               	movf	(?___fltol+2)^(0+128),w
  1751  0498  00D0               	movwf	(main@a+2)^(0+128)
  1752  0499  0829               	movf	(?___fltol+1)^(0+128),w
  1753  049A  00CF               	movwf	(main@a+1)^(0+128)
  1754  049B  0828               	movf	?___fltol^(0+128),w
  1755  049C  00CE               	movwf	main@a^(0+128)
  1756  049D                     l3680:
  1757                           
  1758                           ;main.c: 123:         float tempC = (float)(4090 /(log((1025.0 * 10/ a - 10) / 10) + 409
      +                          0 / 298.0) - 273.0);
  1759  049D  30C1               	movlw	193
  1760  049E  1283               	bcf	3,5	;RP0=0, select bank0
  1761  049F  1303               	bcf	3,6	;RP1=0, select bank0
  1762  04A0  00DC               	movwf	___fladd@b+3
  1763  04A1  3020               	movlw	32
  1764  04A2  00DB               	movwf	___fladd@b+2
  1765  04A3  3000               	movlw	0
  1766  04A4  00DA               	movwf	___fladd@b+1
  1767  04A5  3000               	movlw	0
  1768  04A6  00D9               	movwf	___fladd@b
  1769  04A7  1683               	bsf	3,5	;RP0=1, select bank1
  1770  04A8  1303               	bcf	3,6	;RP1=0, select bank1
  1771  04A9  0851               	movf	(main@a+3)^(0+128),w
  1772  04AA  00F3               	movwf	___xxtofl@val+3
  1773  04AB  0850               	movf	(main@a+2)^(0+128),w
  1774  04AC  00F2               	movwf	___xxtofl@val+2
  1775  04AD  084F               	movf	(main@a+1)^(0+128),w
  1776  04AE  00F1               	movwf	___xxtofl@val+1
  1777  04AF  084E               	movf	main@a^(0+128),w
  1778  04B0  00F0               	movwf	___xxtofl@val
  1779  04B1  3001               	movlw	1
  1780  04B2  160A  118A  256A  120A  118A  	fcall	___xxtofl
  1781  04B7  0873               	movf	?___xxtofl+3,w
  1782  04B8  1283               	bcf	3,5	;RP0=0, select bank0
  1783  04B9  1303               	bcf	3,6	;RP1=0, select bank0
  1784  04BA  00C2               	movwf	___fldiv@a+3
  1785  04BB  0872               	movf	?___xxtofl+2,w
  1786  04BC  00C1               	movwf	___fldiv@a+2
  1787  04BD  0871               	movf	?___xxtofl+1,w
  1788  04BE  00C0               	movwf	___fldiv@a+1
  1789  04BF  0870               	movf	?___xxtofl,w
  1790  04C0  00BF               	movwf	___fldiv@a
  1791  04C1  3046               	movlw	70
  1792  04C2  00C6               	movwf	___fldiv@b+3
  1793  04C3  3020               	movlw	32
  1794  04C4  00C5               	movwf	___fldiv@b+2
  1795  04C5  3028               	movlw	40
  1796  04C6  00C4               	movwf	___fldiv@b+1
  1797  04C7  3000               	movlw	0
  1798  04C8  00C3               	movwf	___fldiv@b
  1799  04C9  120A  158A  239B  120A  118A  	fcall	___fldiv
  1800  04CE  1283               	bcf	3,5	;RP0=0, select bank0
  1801  04CF  1303               	bcf	3,6	;RP1=0, select bank0
  1802  04D0  0842               	movf	?___fldiv+3,w
  1803  04D1  00E0               	movwf	___fladd@a+3
  1804  04D2  0841               	movf	?___fldiv+2,w
  1805  04D3  00DF               	movwf	___fladd@a+2
  1806  04D4  0840               	movf	?___fldiv+1,w
  1807  04D5  00DE               	movwf	___fladd@a+1
  1808  04D6  083F               	movf	?___fldiv,w
  1809  04D7  00DD               	movwf	___fladd@a
  1810  04D8  120A  158A  2578  120A  118A  	fcall	___fladd
  1811  04DD  1283               	bcf	3,5	;RP0=0, select bank0
  1812  04DE  1303               	bcf	3,6	;RP1=0, select bank0
  1813  04DF  085C               	movf	?___fladd+3,w
  1814  04E0  1683               	bsf	3,5	;RP0=1, select bank1
  1815  04E1  1303               	bcf	3,6	;RP1=0, select bank1
  1816  04E2  00D9               	movwf	(_main$1032+3)^(0+128)
  1817  04E3  1283               	bcf	3,5	;RP0=0, select bank0
  1818  04E4  1303               	bcf	3,6	;RP1=0, select bank0
  1819  04E5  085B               	movf	?___fladd+2,w
  1820  04E6  1683               	bsf	3,5	;RP0=1, select bank1
  1821  04E7  1303               	bcf	3,6	;RP1=0, select bank1
  1822  04E8  00D8               	movwf	(_main$1032+2)^(0+128)
  1823  04E9  1283               	bcf	3,5	;RP0=0, select bank0
  1824  04EA  1303               	bcf	3,6	;RP1=0, select bank0
  1825  04EB  085A               	movf	?___fladd+1,w
  1826  04EC  1683               	bsf	3,5	;RP0=1, select bank1
  1827  04ED  1303               	bcf	3,6	;RP1=0, select bank1
  1828  04EE  00D7               	movwf	(_main$1032+1)^(0+128)
  1829  04EF  1283               	bcf	3,5	;RP0=0, select bank0
  1830  04F0  1303               	bcf	3,6	;RP1=0, select bank0
  1831  04F1  0859               	movf	?___fladd,w
  1832  04F2  1683               	bsf	3,5	;RP0=1, select bank1
  1833  04F3  1303               	bcf	3,6	;RP1=0, select bank1
  1834  04F4  00D6               	movwf	_main$1032^(0+128)
  1835  04F5                     l3682:
  1836                           
  1837                           ;main.c: 123:         float tempC = (float)(4090 /(log((1025.0 * 10/ a - 10) / 10) + 409
      +                          0 / 298.0) - 273.0);
  1838  04F5  3041               	movlw	65
  1839  04F6  1283               	bcf	3,5	;RP0=0, select bank0
  1840  04F7  1303               	bcf	3,6	;RP1=0, select bank0
  1841  04F8  00C2               	movwf	___fldiv@a+3
  1842  04F9  3020               	movlw	32
  1843  04FA  00C1               	movwf	___fldiv@a+2
  1844  04FB  3000               	movlw	0
  1845  04FC  00C0               	movwf	___fldiv@a+1
  1846  04FD  3000               	movlw	0
  1847  04FE  00BF               	movwf	___fldiv@a
  1848  04FF  1683               	bsf	3,5	;RP0=1, select bank1
  1849  0500  1303               	bcf	3,6	;RP1=0, select bank1
  1850  0501  0859               	movf	(_main$1032+3)^(0+128),w
  1851  0502  1283               	bcf	3,5	;RP0=0, select bank0
  1852  0503  1303               	bcf	3,6	;RP1=0, select bank0
  1853  0504  00C6               	movwf	___fldiv@b+3
  1854  0505  1683               	bsf	3,5	;RP0=1, select bank1
  1855  0506  1303               	bcf	3,6	;RP1=0, select bank1
  1856  0507  0858               	movf	(_main$1032+2)^(0+128),w
  1857  0508  1283               	bcf	3,5	;RP0=0, select bank0
  1858  0509  1303               	bcf	3,6	;RP1=0, select bank0
  1859  050A  00C5               	movwf	___fldiv@b+2
  1860  050B  1683               	bsf	3,5	;RP0=1, select bank1
  1861  050C  1303               	bcf	3,6	;RP1=0, select bank1
  1862  050D  0857               	movf	(_main$1032+1)^(0+128),w
  1863  050E  1283               	bcf	3,5	;RP0=0, select bank0
  1864  050F  1303               	bcf	3,6	;RP1=0, select bank0
  1865  0510  00C4               	movwf	___fldiv@b+1
  1866  0511  1683               	bsf	3,5	;RP0=1, select bank1
  1867  0512  1303               	bcf	3,6	;RP1=0, select bank1
  1868  0513  0856               	movf	_main$1032^(0+128),w
  1869  0514  1283               	bcf	3,5	;RP0=0, select bank0
  1870  0515  1303               	bcf	3,6	;RP1=0, select bank0
  1871  0516  00C3               	movwf	___fldiv@b
  1872  0517  120A  158A  239B  120A  118A  	fcall	___fldiv
  1873  051C  1283               	bcf	3,5	;RP0=0, select bank0
  1874  051D  1303               	bcf	3,6	;RP1=0, select bank0
  1875  051E  0842               	movf	?___fldiv+3,w
  1876  051F  1683               	bsf	3,5	;RP0=1, select bank1
  1877  0520  1303               	bcf	3,6	;RP1=0, select bank1
  1878  0521  00B3               	movwf	(log@x+3)^(0+128)
  1879  0522  1283               	bcf	3,5	;RP0=0, select bank0
  1880  0523  1303               	bcf	3,6	;RP1=0, select bank0
  1881  0524  0841               	movf	?___fldiv+2,w
  1882  0525  1683               	bsf	3,5	;RP0=1, select bank1
  1883  0526  1303               	bcf	3,6	;RP1=0, select bank1
  1884  0527  00B2               	movwf	(log@x+2)^(0+128)
  1885  0528  1283               	bcf	3,5	;RP0=0, select bank0
  1886  0529  1303               	bcf	3,6	;RP1=0, select bank0
  1887  052A  0840               	movf	?___fldiv+1,w
  1888  052B  1683               	bsf	3,5	;RP0=1, select bank1
  1889  052C  1303               	bcf	3,6	;RP1=0, select bank1
  1890  052D  00B1               	movwf	(log@x+1)^(0+128)
  1891  052E  1283               	bcf	3,5	;RP0=0, select bank0
  1892  052F  1303               	bcf	3,6	;RP1=0, select bank0
  1893  0530  083F               	movf	?___fldiv,w
  1894  0531  1683               	bsf	3,5	;RP0=1, select bank1
  1895  0532  1303               	bcf	3,6	;RP1=0, select bank1
  1896  0533  00B0               	movwf	log@x^(0+128)
  1897  0534  120A  158A  224B  120A  118A  	fcall	_log
  1898  0539  1683               	bsf	3,5	;RP0=1, select bank1
  1899  053A  1303               	bcf	3,6	;RP1=0, select bank1
  1900  053B  0833               	movf	(?_log+3)^(0+128),w
  1901  053C  00DD               	movwf	(_main$1033+3)^(0+128)
  1902  053D  0832               	movf	(?_log+2)^(0+128),w
  1903  053E  00DC               	movwf	(_main$1033+2)^(0+128)
  1904  053F  0831               	movf	(?_log+1)^(0+128),w
  1905  0540  00DB               	movwf	(_main$1033+1)^(0+128)
  1906  0541  0830               	movf	?_log^(0+128),w
  1907  0542  00DA               	movwf	_main$1033^(0+128)
  1908  0543                     l3684:
  1909                           
  1910                           ;main.c: 123:         float tempC = (float)(4090 /(log((1025.0 * 10/ a - 10) / 10) + 409
      +                          0 / 298.0) - 273.0);
  1911  0543  3041               	movlw	65
  1912  0544  1283               	bcf	3,5	;RP0=0, select bank0
  1913  0545  1303               	bcf	3,6	;RP1=0, select bank0
  1914  0546  00DC               	movwf	___fladd@b+3
  1915  0547  305B               	movlw	91
  1916  0548  00DB               	movwf	___fladd@b+2
  1917  0549  3098               	movlw	152
  1918  054A  00DA               	movwf	___fladd@b+1
  1919  054B  30EA               	movlw	234
  1920  054C  00D9               	movwf	___fladd@b
  1921  054D  1683               	bsf	3,5	;RP0=1, select bank1
  1922  054E  1303               	bcf	3,6	;RP1=0, select bank1
  1923  054F  085D               	movf	(_main$1033+3)^(0+128),w
  1924  0550  1283               	bcf	3,5	;RP0=0, select bank0
  1925  0551  1303               	bcf	3,6	;RP1=0, select bank0
  1926  0552  00E0               	movwf	___fladd@a+3
  1927  0553  1683               	bsf	3,5	;RP0=1, select bank1
  1928  0554  1303               	bcf	3,6	;RP1=0, select bank1
  1929  0555  085C               	movf	(_main$1033+2)^(0+128),w
  1930  0556  1283               	bcf	3,5	;RP0=0, select bank0
  1931  0557  1303               	bcf	3,6	;RP1=0, select bank0
  1932  0558  00DF               	movwf	___fladd@a+2
  1933  0559  1683               	bsf	3,5	;RP0=1, select bank1
  1934  055A  1303               	bcf	3,6	;RP1=0, select bank1
  1935  055B  085B               	movf	(_main$1033+1)^(0+128),w
  1936  055C  1283               	bcf	3,5	;RP0=0, select bank0
  1937  055D  1303               	bcf	3,6	;RP1=0, select bank0
  1938  055E  00DE               	movwf	___fladd@a+1
  1939  055F  1683               	bsf	3,5	;RP0=1, select bank1
  1940  0560  1303               	bcf	3,6	;RP1=0, select bank1
  1941  0561  085A               	movf	_main$1033^(0+128),w
  1942  0562  1283               	bcf	3,5	;RP0=0, select bank0
  1943  0563  1303               	bcf	3,6	;RP1=0, select bank0
  1944  0564  00DD               	movwf	___fladd@a
  1945  0565  120A  158A  2578  120A  118A  	fcall	___fladd
  1946  056A  1283               	bcf	3,5	;RP0=0, select bank0
  1947  056B  1303               	bcf	3,6	;RP1=0, select bank0
  1948  056C  085C               	movf	?___fladd+3,w
  1949  056D  00C2               	movwf	___fldiv@a+3
  1950  056E  085B               	movf	?___fladd+2,w
  1951  056F  00C1               	movwf	___fldiv@a+2
  1952  0570  085A               	movf	?___fladd+1,w
  1953  0571  00C0               	movwf	___fldiv@a+1
  1954  0572  0859               	movf	?___fladd,w
  1955  0573  00BF               	movwf	___fldiv@a
  1956  0574  3045               	movlw	69
  1957  0575  00C6               	movwf	___fldiv@b+3
  1958  0576  307F               	movlw	127
  1959  0577  00C5               	movwf	___fldiv@b+2
  1960  0578  30A0               	movlw	160
  1961  0579  00C4               	movwf	___fldiv@b+1
  1962  057A  3000               	movlw	0
  1963  057B  00C3               	movwf	___fldiv@b
  1964  057C  120A  158A  239B  120A  118A  	fcall	___fldiv
  1965  0581  1283               	bcf	3,5	;RP0=0, select bank0
  1966  0582  1303               	bcf	3,6	;RP1=0, select bank0
  1967  0583  0842               	movf	?___fldiv+3,w
  1968  0584  1683               	bsf	3,5	;RP0=1, select bank1
  1969  0585  1303               	bcf	3,6	;RP1=0, select bank1
  1970  0586  00E1               	movwf	(_main$1034+3)^(0+128)
  1971  0587  1283               	bcf	3,5	;RP0=0, select bank0
  1972  0588  1303               	bcf	3,6	;RP1=0, select bank0
  1973  0589  0841               	movf	?___fldiv+2,w
  1974  058A  1683               	bsf	3,5	;RP0=1, select bank1
  1975  058B  1303               	bcf	3,6	;RP1=0, select bank1
  1976  058C  00E0               	movwf	(_main$1034+2)^(0+128)
  1977  058D  1283               	bcf	3,5	;RP0=0, select bank0
  1978  058E  1303               	bcf	3,6	;RP1=0, select bank0
  1979  058F  0840               	movf	?___fldiv+1,w
  1980  0590  1683               	bsf	3,5	;RP0=1, select bank1
  1981  0591  1303               	bcf	3,6	;RP1=0, select bank1
  1982  0592  00DF               	movwf	(_main$1034+1)^(0+128)
  1983  0593  1283               	bcf	3,5	;RP0=0, select bank0
  1984  0594  1303               	bcf	3,6	;RP1=0, select bank0
  1985  0595  083F               	movf	?___fldiv,w
  1986  0596  1683               	bsf	3,5	;RP0=1, select bank1
  1987  0597  1303               	bcf	3,6	;RP1=0, select bank1
  1988  0598  00DE               	movwf	_main$1034^(0+128)
  1989  0599                     l3686:
  1990                           
  1991                           ;main.c: 123:         float tempC = (float)(4090 /(log((1025.0 * 10/ a - 10) / 10) + 409
      +                          0 / 298.0) - 273.0);
  1992  0599  30C3               	movlw	195
  1993  059A  1283               	bcf	3,5	;RP0=0, select bank0
  1994  059B  1303               	bcf	3,6	;RP1=0, select bank0
  1995  059C  00DC               	movwf	___fladd@b+3
  1996  059D  3088               	movlw	136
  1997  059E  00DB               	movwf	___fladd@b+2
  1998  059F  3080               	movlw	128
  1999  05A0  00DA               	movwf	___fladd@b+1
  2000  05A1  3000               	movlw	0
  2001  05A2  00D9               	movwf	___fladd@b
  2002  05A3  1683               	bsf	3,5	;RP0=1, select bank1
  2003  05A4  1303               	bcf	3,6	;RP1=0, select bank1
  2004  05A5  0861               	movf	(_main$1034+3)^(0+128),w
  2005  05A6  1283               	bcf	3,5	;RP0=0, select bank0
  2006  05A7  1303               	bcf	3,6	;RP1=0, select bank0
  2007  05A8  00E0               	movwf	___fladd@a+3
  2008  05A9  1683               	bsf	3,5	;RP0=1, select bank1
  2009  05AA  1303               	bcf	3,6	;RP1=0, select bank1
  2010  05AB  0860               	movf	(_main$1034+2)^(0+128),w
  2011  05AC  1283               	bcf	3,5	;RP0=0, select bank0
  2012  05AD  1303               	bcf	3,6	;RP1=0, select bank0
  2013  05AE  00DF               	movwf	___fladd@a+2
  2014  05AF  1683               	bsf	3,5	;RP0=1, select bank1
  2015  05B0  1303               	bcf	3,6	;RP1=0, select bank1
  2016  05B1  085F               	movf	(_main$1034+1)^(0+128),w
  2017  05B2  1283               	bcf	3,5	;RP0=0, select bank0
  2018  05B3  1303               	bcf	3,6	;RP1=0, select bank0
  2019  05B4  00DE               	movwf	___fladd@a+1
  2020  05B5  1683               	bsf	3,5	;RP0=1, select bank1
  2021  05B6  1303               	bcf	3,6	;RP1=0, select bank1
  2022  05B7  085E               	movf	_main$1034^(0+128),w
  2023  05B8  1283               	bcf	3,5	;RP0=0, select bank0
  2024  05B9  1303               	bcf	3,6	;RP1=0, select bank0
  2025  05BA  00DD               	movwf	___fladd@a
  2026  05BB  120A  158A  2578  120A  118A  	fcall	___fladd
  2027  05C0  1283               	bcf	3,5	;RP0=0, select bank0
  2028  05C1  1303               	bcf	3,6	;RP1=0, select bank0
  2029  05C2  085C               	movf	?___fladd+3,w
  2030  05C3  1683               	bsf	3,5	;RP0=1, select bank1
  2031  05C4  1303               	bcf	3,6	;RP1=0, select bank1
  2032  05C5  00D5               	movwf	(main@tempC+3)^(0+128)
  2033  05C6  1283               	bcf	3,5	;RP0=0, select bank0
  2034  05C7  1303               	bcf	3,6	;RP1=0, select bank0
  2035  05C8  085B               	movf	?___fladd+2,w
  2036  05C9  1683               	bsf	3,5	;RP0=1, select bank1
  2037  05CA  1303               	bcf	3,6	;RP1=0, select bank1
  2038  05CB  00D4               	movwf	(main@tempC+2)^(0+128)
  2039  05CC  1283               	bcf	3,5	;RP0=0, select bank0
  2040  05CD  1303               	bcf	3,6	;RP1=0, select bank0
  2041  05CE  085A               	movf	?___fladd+1,w
  2042  05CF  1683               	bsf	3,5	;RP0=1, select bank1
  2043  05D0  1303               	bcf	3,6	;RP1=0, select bank1
  2044  05D1  00D3               	movwf	(main@tempC+1)^(0+128)
  2045  05D2  1283               	bcf	3,5	;RP0=0, select bank0
  2046  05D3  1303               	bcf	3,6	;RP1=0, select bank0
  2047  05D4  0859               	movf	?___fladd,w
  2048  05D5  1683               	bsf	3,5	;RP0=1, select bank1
  2049  05D6  1303               	bcf	3,6	;RP1=0, select bank1
  2050  05D7  00D2               	movwf	main@tempC^(0+128)
  2051  05D8                     l3688:
  2052                           
  2053                           ;main.c: 126:         char Temperature [10];;main.c: 127:         sprintf(Temperature, "
      +                          %d%cC", (int)tempC,0xdf );
  2054  05D8  30BA               	movlw	(low ((STR_1-__stringbase)| (0+32768)))& (0+255)
  2055  05D9  00C0               	movwf	??_main^(0+128)
  2056  05DA  0840               	movf	??_main^(0+128),w
  2057  05DB  00B1               	movwf	sprintf@f^(0+128)
  2058  05DC  0855               	movf	(main@tempC+3)^(0+128),w
  2059  05DD  00AB               	movwf	(___fltol@f1+3)^(0+128)
  2060  05DE  0854               	movf	(main@tempC+2)^(0+128),w
  2061  05DF  00AA               	movwf	(___fltol@f1+2)^(0+128)
  2062  05E0  0853               	movf	(main@tempC+1)^(0+128),w
  2063  05E1  00A9               	movwf	(___fltol@f1+1)^(0+128)
  2064  05E2  0852               	movf	main@tempC^(0+128),w
  2065  05E3  00A8               	movwf	___fltol@f1^(0+128)
  2066  05E4  160A  118A  2436  120A  118A  	fcall	___fltol
  2067  05E9  1683               	bsf	3,5	;RP0=1, select bank1
  2068  05EA  1303               	bcf	3,6	;RP1=0, select bank1
  2069  05EB  0829               	movf	(?___fltol+1)^(0+128),w
  2070  05EC  00B3               	movwf	((?_sprintf+1)^(0+128)+1)
  2071  05ED  0828               	movf	?___fltol^(0+128),w
  2072  05EE  00B2               	movwf	(?_sprintf^(0+128)+1)
  2073  05EF  30DF               	movlw	223
  2074  05F0  00B4               	movwf	(?_sprintf^(0+128)+3)
  2075  05F1  3000               	movlw	0
  2076  05F2  00B5               	movwf	(?_sprintf^(0+128)+4)
  2077  05F3  30C4               	movlw	(low (main@Temperature| 0))& (0+255)
  2078  05F4  120A  158A  2148  120A  118A  	fcall	_sprintf
  2079  05F9                     l3690:
  2080                           
  2081                           ;main.c: 129:         LCD_String_xy(1,0,"Temperatura:");
  2082  05F9  01F5               	clrf	LCD_String_xy@pos
  2083  05FA  30AD               	movlw	(low ((STR_2-__stringbase)| (0+32768)))& (0+255)
  2084  05FB  1683               	bsf	3,5	;RP0=1, select bank1
  2085  05FC  1303               	bcf	3,6	;RP1=0, select bank1
  2086  05FD  00C0               	movwf	??_main^(0+128)
  2087  05FE  0840               	movf	??_main^(0+128),w
  2088  05FF  00F6               	movwf	LCD_String_xy@msg
  2089  0600  3001               	movlw	1
  2090  0601  160A  118A  226B  120A  118A  	fcall	_LCD_String_xy
  2091  0606                     l3692:
  2092                           
  2093                           ;main.c: 130:         LCD_String(Temperature);
  2094  0606  30C4               	movlw	(low (main@Temperature| 0))& (0+255)
  2095  0607  00F3               	movwf	LCD_String@msg
  2096  0608  3000               	movlw	0
  2097  0609  00F4               	movwf	LCD_String@msg+1
  2098  060A  160A  118A  21F4  120A  118A  	fcall	_LCD_String
  2099  060F                     l3694:
  2100                           
  2101                           ;main.c: 131:         LCD_String("  ");
  2102  060F  30C0               	movlw	(low ((STR_3-__stringbase)| (0+32768)))& (0+255)
  2103  0610  00F3               	movwf	LCD_String@msg
  2104  0611  3080               	movlw	128
  2105  0612  00F4               	movwf	LCD_String@msg+1
  2106  0613  160A  118A  21F4  120A  118A  	fcall	_LCD_String
  2107  0618                     l3696:
  2108                           
  2109                           ;main.c: 132:         _delay((unsigned long)((1000)*(8000000/4000.0)));
  2110  0618  300B               	movlw	11
  2111  0619  1683               	bsf	3,5	;RP0=1, select bank1
  2112  061A  1303               	bcf	3,6	;RP1=0, select bank1
  2113  061B  00C2               	movwf	(??_main^(0+128)+2)
  2114  061C  3026               	movlw	38
  2115  061D  00C1               	movwf	(??_main^(0+128)+1)
  2116  061E  305D               	movlw	93
  2117  061F  00C0               	movwf	??_main^(0+128)
  2118  0620                     u5047:
  2119  0620  0BC0               	decfsz	??_main^(0+128),f
  2120  0621  2E20               	goto	u5047
  2121  0622  0BC1               	decfsz	(??_main^(0+128)+1),f
  2122  0623  2E20               	goto	u5047
  2123  0624  0BC2               	decfsz	(??_main^(0+128)+2),f
  2124  0625  2E20               	goto	u5047
  2125  0626                     l3698:
  2126                           
  2127                           ;main.c: 135:         if (flag == 0){
  2128  0626  1683               	bsf	3,5	;RP0=1, select bank1
  2129  0627  1303               	bcf	3,6	;RP1=0, select bank1
  2130  0628  0862               	movf	_flag^(0+128),w
  2131  0629  0463               	iorwf	(_flag+1)^(0+128),w
  2132  062A  1D03               	btfss	3,2
  2133  062B  2E2D               	goto	u4931
  2134  062C  2E2E               	goto	u4930
  2135  062D                     u4931:
  2136  062D  2E75               	goto	l3718
  2137  062E                     u4930:
  2138  062E                     l3700:
  2139                           
  2140                           ;main.c: 136:             if(idx == 0){
  2141  062E  086A               	movf	_idx^(0+128),w
  2142  062F  1D03               	btfss	3,2
  2143  0630  2E32               	goto	u4941
  2144  0631  2E33               	goto	u4940
  2145  0632                     u4941:
  2146  0632  2E44               	goto	l3706
  2147  0633                     u4940:
  2148  0633                     l3702:
  2149                           
  2150                           ;main.c: 137:                 LCD_String_xy(2,0,"Press a Key IN");
  2151  0633  01F5               	clrf	LCD_String_xy@pos
  2152  0634  308F               	movlw	(low ((STR_4-__stringbase)| (0+32768)))& (0+255)
  2153  0635  00C0               	movwf	??_main^(0+128)
  2154  0636  0840               	movf	??_main^(0+128),w
  2155  0637  00F6               	movwf	LCD_String_xy@msg
  2156  0638  3002               	movlw	2
  2157  0639  160A  118A  226B  120A  118A  	fcall	_LCD_String_xy
  2158  063E                     l3704:
  2159                           
  2160                           ;main.c: 138:                 LCD_Command(0xC0);
  2161  063E  30C0               	movlw	192
  2162  063F  160A  118A  2297  120A  118A  	fcall	_LCD_Command
  2163  0644                     l3706:
  2164                           
  2165                           ;main.c: 141:                 key = keypad_getkey();
  2166  0644  160A  118A  26FE  120A  118A  	fcall	_keypad_getkey
  2167  0649  1683               	bsf	3,5	;RP0=1, select bank1
  2168  064A  1303               	bcf	3,6	;RP1=0, select bank1
  2169  064B  00C0               	movwf	??_main^(0+128)
  2170  064C  0840               	movf	??_main^(0+128),w
  2171  064D  00EE               	movwf	_key^(0+128)
  2172  064E                     l3708:
  2173                           
  2174                           ;main.c: 142:                 if(key != 0){
  2175  064E  086E               	movf	_key^(0+128),w
  2176  064F  1903               	btfsc	3,2
  2177  0650  2E52               	goto	u4951
  2178  0651  2E53               	goto	u4950
  2179  0652                     u4951:
  2180  0652  2E6E               	goto	l3716
  2181  0653                     u4950:
  2182  0653                     l3710:
  2183                           
  2184                           ;main.c: 143:                     LCD_Clear();
  2185  0653  160A  118A  21B1  120A  118A  	fcall	_LCD_Clear
  2186                           
  2187                           ;main.c: 144:                     LCD_Char(key);
  2188  0658  1683               	bsf	3,5	;RP0=1, select bank1
  2189  0659  1303               	bcf	3,6	;RP1=0, select bank1
  2190  065A  086E               	movf	_key^(0+128),w
  2191  065B  160A  118A  22CD  120A  118A  	fcall	_LCD_Char
  2192  0660                     l3712:
  2193                           
  2194                           ;main.c: 145:                     pass_user[idx++] = key;
  2195  0660  1683               	bsf	3,5	;RP0=1, select bank1
  2196  0661  1303               	bcf	3,6	;RP1=0, select bank1
  2197  0662  086E               	movf	_key^(0+128),w
  2198  0663  00C0               	movwf	??_main^(0+128)
  2199  0664  086A               	movf	_idx^(0+128),w
  2200  0665  3EB6               	addlw	(low (_pass_user| (0+256)))& (0+255)
  2201  0666  0084               	movwf	4
  2202  0667  0840               	movf	??_main^(0+128),w
  2203  0668  1783               	bsf	3,7	;select IRP bank3
  2204  0669  0080               	movwf	0
  2205  066A                     l3714:
  2206  066A  3001               	movlw	1
  2207  066B  00C0               	movwf	??_main^(0+128)
  2208  066C  0840               	movf	??_main^(0+128),w
  2209  066D  07EA               	addwf	_idx^(0+128),f
  2210  066E                     l3716:
  2211                           
  2212                           ;main.c: 147:             }while(idx<5);
  2213  066E  3005               	movlw	5
  2214  066F  026A               	subwf	_idx^(0+128),w
  2215  0670  1C03               	skipc
  2216  0671  2E73               	goto	u4961
  2217  0672  2E74               	goto	u4960
  2218  0673                     u4961:
  2219  0673  2E44               	goto	l3706
  2220  0674                     u4960:
  2221  0674  2EB5               	goto	l3734
  2222  0675                     l3718:
  2223                           
  2224                           ;main.c: 151:             if (idx2 == 0){
  2225  0675  0869               	movf	_idx2^(0+128),w
  2226  0676  1D03               	btfss	3,2
  2227  0677  2E79               	goto	u4971
  2228  0678  2E7A               	goto	u4970
  2229  0679                     u4971:
  2230  0679  2E92               	goto	l119
  2231  067A                     u4970:
  2232  067A                     l3720:
  2233                           
  2234                           ;main.c: 152:                 LCD_Clear();
  2235  067A  160A  118A  21B1  120A  118A  	fcall	_LCD_Clear
  2236  067F                     l3722:
  2237                           
  2238                           ;main.c: 153:                 LCD_String_xy(2,0,"Press a Key OUT");
  2239  067F  01F5               	clrf	LCD_String_xy@pos
  2240  0680  307F               	movlw	(low ((STR_5-__stringbase)| (0+32768)))& (0+255)
  2241  0681  1683               	bsf	3,5	;RP0=1, select bank1
  2242  0682  1303               	bcf	3,6	;RP1=0, select bank1
  2243  0683  00C0               	movwf	??_main^(0+128)
  2244  0684  0840               	movf	??_main^(0+128),w
  2245  0685  00F6               	movwf	LCD_String_xy@msg
  2246  0686  3002               	movlw	2
  2247  0687  160A  118A  226B  120A  118A  	fcall	_LCD_String_xy
  2248  068C                     l3724:
  2249                           
  2250                           ;main.c: 154:                 LCD_Command(0xC0);
  2251  068C  30C0               	movlw	192
  2252  068D  160A  118A  2297  120A  118A  	fcall	_LCD_Command
  2253  0692                     l119:	
  2254                           ;main.c: 155:             }
  2255                           
  2256                           
  2257                           ;main.c: 156:             key2 = keypad_getkey2();
  2258  0692  120A  158A  2046  120A  118A  	fcall	_keypad_getkey2
  2259  0697  1683               	bsf	3,5	;RP0=1, select bank1
  2260  0698  1303               	bcf	3,6	;RP1=0, select bank1
  2261  0699  00C0               	movwf	??_main^(0+128)
  2262  069A  0840               	movf	??_main^(0+128),w
  2263  069B  00ED               	movwf	_key2^(0+128)
  2264  069C                     l3726:
  2265                           
  2266                           ;main.c: 157:             if(key2 != 0){
  2267  069C  086D               	movf	_key2^(0+128),w
  2268  069D  1903               	btfsc	3,2
  2269  069E  2EA0               	goto	u4981
  2270  069F  2EA1               	goto	u4980
  2271  06A0                     u4981:
  2272  06A0  2EB5               	goto	l3734
  2273  06A1                     u4980:
  2274  06A1                     l3728:
  2275                           
  2276                           ;main.c: 158:                 LCD_Char(key2);
  2277  06A1  086D               	movf	_key2^(0+128),w
  2278  06A2  160A  118A  22CD  120A  118A  	fcall	_LCD_Char
  2279  06A7                     l3730:
  2280                           
  2281                           ;main.c: 159:                 pass_user2[idx2++] = key2;
  2282  06A7  1683               	bsf	3,5	;RP0=1, select bank1
  2283  06A8  1303               	bcf	3,6	;RP1=0, select bank1
  2284  06A9  086D               	movf	_key2^(0+128),w
  2285  06AA  00C0               	movwf	??_main^(0+128)
  2286  06AB  0869               	movf	_idx2^(0+128),w
  2287  06AC  3EEB               	addlw	(low (_pass_user2| 0))& (0+255)
  2288  06AD  0084               	movwf	4
  2289  06AE  0840               	movf	??_main^(0+128),w
  2290  06AF  1383               	bcf	3,7	;select IRP bank1
  2291  06B0  0080               	movwf	0
  2292  06B1                     l3732:
  2293  06B1  3001               	movlw	1
  2294  06B2  00C0               	movwf	??_main^(0+128)
  2295  06B3  0840               	movf	??_main^(0+128),w
  2296  06B4  07E9               	addwf	_idx2^(0+128),f
  2297  06B5                     l3734:
  2298                           
  2299                           ;main.c: 163:         if (idx > 4 ){
  2300  06B5  3005               	movlw	5
  2301  06B6  026A               	subwf	_idx^(0+128),w
  2302  06B7  1C03               	skipc
  2303  06B8  2EBA               	goto	u4991
  2304  06B9  2EBB               	goto	u4990
  2305  06BA                     u4991:
  2306  06BA  2F52               	goto	l3768
  2307  06BB                     u4990:
  2308  06BB                     l3736:
  2309                           
  2310                           ;main.c: 164:             if(strncmp(pass_user,inputPassword,4)==0){
  2311  06BB  30B6               	movlw	(low (_pass_user| (0+256)))& (0+255)
  2312  06BC  00F0               	movwf	strncmp@s1
  2313  06BD  3001               	movlw	1
  2314  06BE  00F1               	movwf	strncmp@s1+1
  2315  06BF  302F               	movlw	(low ((_inputPassword-__stringbase)| (0+32768)))& (0+255)
  2316  06C0  00C0               	movwf	??_main^(0+128)
  2317  06C1  0840               	movf	??_main^(0+128),w
  2318  06C2  00F2               	movwf	strncmp@s2
  2319  06C3  3004               	movlw	4
  2320  06C4  00F3               	movwf	strncmp@len
  2321  06C5  3000               	movlw	0
  2322  06C6  00F4               	movwf	strncmp@len+1
  2323  06C7  160A  118A  238B  120A  118A  	fcall	_strncmp
  2324  06CC  0870               	movf	?_strncmp,w
  2325  06CD  0471               	iorwf	?_strncmp+1,w
  2326  06CE  1D03               	btfss	3,2
  2327  06CF  2ED1               	goto	u5001
  2328  06D0  2ED2               	goto	u5000
  2329  06D1                     u5001:
  2330  06D1  2EFD               	goto	l3748
  2331  06D2                     u5000:
  2332  06D2                     l3738:
  2333                           
  2334                           ;main.c: 165:                 LCD_Clear();
  2335  06D2  160A  118A  21B1  120A  118A  	fcall	_LCD_Clear
  2336  06D7                     l3740:
  2337                           
  2338                           ;main.c: 167:                 PORTCbits.RC4 = 0;
  2339  06D7  1283               	bcf	3,5	;RP0=0, select bank0
  2340  06D8  1303               	bcf	3,6	;RP1=0, select bank0
  2341  06D9  1207               	bcf	7,4	;volatile
  2342  06DA                     l3742:
  2343                           
  2344                           ;main.c: 168:                 LCD_String_xy(0,0,"Clave Correcta" );
  2345  06DA  01F5               	clrf	LCD_String_xy@pos
  2346  06DB  309E               	movlw	(low ((STR_6-__stringbase)| (0+32768)))& (0+255)
  2347  06DC  1683               	bsf	3,5	;RP0=1, select bank1
  2348  06DD  1303               	bcf	3,6	;RP1=0, select bank1
  2349  06DE  00C0               	movwf	??_main^(0+128)
  2350  06DF  0840               	movf	??_main^(0+128),w
  2351  06E0  00F6               	movwf	LCD_String_xy@msg
  2352  06E1  3000               	movlw	0
  2353  06E2  160A  118A  226B  120A  118A  	fcall	_LCD_String_xy
  2354  06E7                     l3744:
  2355                           
  2356                           ;main.c: 169:                 _delay((unsigned long)((2000)*(8000000/4000.0)));
  2357  06E7  3015               	movlw	21
  2358  06E8  1683               	bsf	3,5	;RP0=1, select bank1
  2359  06E9  1303               	bcf	3,6	;RP1=0, select bank1
  2360  06EA  00C2               	movwf	(??_main^(0+128)+2)
  2361  06EB  304B               	movlw	75
  2362  06EC  00C1               	movwf	(??_main^(0+128)+1)
  2363  06ED  30BD               	movlw	189
  2364  06EE  00C0               	movwf	??_main^(0+128)
  2365  06EF                     u5057:
  2366  06EF  0BC0               	decfsz	??_main^(0+128),f
  2367  06F0  2EEF               	goto	u5057
  2368  06F1  0BC1               	decfsz	(??_main^(0+128)+1),f
  2369  06F2  2EEF               	goto	u5057
  2370  06F3  0BC2               	decfsz	(??_main^(0+128)+2),f
  2371  06F4  2EEF               	goto	u5057
  2372  06F5  2EF6               	nop2
  2373  06F6                     l3746:
  2374                           
  2375                           ;main.c: 170:                 flag = 1;
  2376  06F6  3001               	movlw	1
  2377  06F7  1683               	bsf	3,5	;RP0=1, select bank1
  2378  06F8  1303               	bcf	3,6	;RP1=0, select bank1
  2379  06F9  00E2               	movwf	_flag^(0+128)
  2380  06FA  3000               	movlw	0
  2381  06FB  00E3               	movwf	(_flag^(0+128)+1)
  2382                           
  2383                           ;main.c: 171:             }
  2384  06FC  2FB1               	goto	l3786
  2385  06FD                     l3748:
  2386  06FD  3003               	movlw	3
  2387  06FE  1683               	bsf	3,5	;RP0=1, select bank1
  2388  06FF  1303               	bcf	3,6	;RP1=0, select bank1
  2389  0700  0666               	xorwf	_counter_try^(0+128),w
  2390  0701  0467               	iorwf	(_counter_try+1)^(0+128),w
  2391  0702  1D03               	btfss	3,2
  2392  0703  2F05               	goto	u5011
  2393  0704  2F06               	goto	u5010
  2394  0705                     u5011:
  2395  0705  2F2A               	goto	l3758
  2396  0706                     u5010:
  2397  0706                     l3750:
  2398                           
  2399                           ;main.c: 173:                 LCD_Clear();
  2400  0706  160A  118A  21B1  120A  118A  	fcall	_LCD_Clear
  2401  070B                     l3752:
  2402                           
  2403                           ;main.c: 174:                 LCD_String_xy(0,0,"Ingreso No Permitido");
  2404  070B  01F5               	clrf	LCD_String_xy@pos
  2405  070C  3036               	movlw	(low ((STR_7-__stringbase)| (0+32768)))& (0+255)
  2406  070D  1683               	bsf	3,5	;RP0=1, select bank1
  2407  070E  1303               	bcf	3,6	;RP1=0, select bank1
  2408  070F  00C0               	movwf	??_main^(0+128)
  2409  0710  0840               	movf	??_main^(0+128),w
  2410  0711  00F6               	movwf	LCD_String_xy@msg
  2411  0712  3000               	movlw	0
  2412  0713  160A  118A  226B  120A  118A  	fcall	_LCD_String_xy
  2413  0718                     l3754:
  2414                           
  2415                           ;main.c: 175:                 _delay((unsigned long)((5000)*(8000000/4000.0)));
  2416  0718  3033               	movlw	51
  2417  0719  1683               	bsf	3,5	;RP0=1, select bank1
  2418  071A  1303               	bcf	3,6	;RP1=0, select bank1
  2419  071B  00C2               	movwf	(??_main^(0+128)+2)
  2420  071C  30BB               	movlw	187
  2421  071D  00C1               	movwf	(??_main^(0+128)+1)
  2422  071E  30DF               	movlw	223
  2423  071F  00C0               	movwf	??_main^(0+128)
  2424  0720                     u5067:
  2425  0720  0BC0               	decfsz	??_main^(0+128),f
  2426  0721  2F20               	goto	u5067
  2427  0722  0BC1               	decfsz	(??_main^(0+128)+1),f
  2428  0723  2F20               	goto	u5067
  2429  0724  0BC2               	decfsz	(??_main^(0+128)+2),f
  2430  0725  2F20               	goto	u5067
  2431  0726                     l3756:
  2432                           
  2433                           ;main.c: 176:                 idx = 0;
  2434  0726  1683               	bsf	3,5	;RP0=1, select bank1
  2435  0727  1303               	bcf	3,6	;RP1=0, select bank1
  2436  0728  01EA               	clrf	_idx^(0+128)
  2437                           
  2438                           ;main.c: 177:             }
  2439  0729  2FB1               	goto	l3786
  2440  072A                     l3758:
  2441                           
  2442                           ;main.c: 180:                 counter_try = counter_try++;
  2443  072A  160A  118A  21B1  120A  118A  	fcall	_LCD_Clear
  2444  072F                     l3760:
  2445  072F  3001               	movlw	1
  2446  0730  1683               	bsf	3,5	;RP0=1, select bank1
  2447  0731  1303               	bcf	3,6	;RP1=0, select bank1
  2448  0732  07E6               	addwf	_counter_try^(0+128),f
  2449  0733  1803               	skipnc
  2450  0734  0AE7               	incf	(_counter_try+1)^(0+128),f
  2451  0735  3000               	movlw	0
  2452  0736  07E7               	addwf	(_counter_try+1)^(0+128),f
  2453  0737                     l3762:
  2454                           
  2455                           ;main.c: 181:                 LCD_String_xy(0,0,"Clave incorrecta" );
  2456  0737  01F5               	clrf	LCD_String_xy@pos
  2457  0738  305D               	movlw	(low ((STR_8-__stringbase)| (0+32768)))& (0+255)
  2458  0739  00C0               	movwf	??_main^(0+128)
  2459  073A  0840               	movf	??_main^(0+128),w
  2460  073B  00F6               	movwf	LCD_String_xy@msg
  2461  073C  3000               	movlw	0
  2462  073D  160A  118A  226B  120A  118A  	fcall	_LCD_String_xy
  2463  0742                     l3764:
  2464                           
  2465                           ;main.c: 182:                 _delay((unsigned long)((200)*(8000000/4000.0)));
  2466  0742  3003               	movlw	3
  2467  0743  1683               	bsf	3,5	;RP0=1, select bank1
  2468  0744  1303               	bcf	3,6	;RP1=0, select bank1
  2469  0745  00C2               	movwf	(??_main^(0+128)+2)
  2470  0746  3008               	movlw	8
  2471  0747  00C1               	movwf	(??_main^(0+128)+1)
  2472  0748  3076               	movlw	118
  2473  0749  00C0               	movwf	??_main^(0+128)
  2474  074A                     u5077:
  2475  074A  0BC0               	decfsz	??_main^(0+128),f
  2476  074B  2F4A               	goto	u5077
  2477  074C  0BC1               	decfsz	(??_main^(0+128)+1),f
  2478  074D  2F4A               	goto	u5077
  2479  074E  0BC2               	decfsz	(??_main^(0+128)+2),f
  2480  074F  2F4A               	goto	u5077
  2481  0750  0000               	nop
  2482  0751  2F26               	goto	l3756
  2483  0752                     l3768:
  2484  0752  3002               	movlw	2
  2485  0753  0269               	subwf	_idx2^(0+128),w
  2486  0754  1C03               	skipc
  2487  0755  2F57               	goto	u5021
  2488  0756  2F58               	goto	u5020
  2489  0757                     u5021:
  2490  0757  2FB1               	goto	l3786
  2491  0758                     u5020:
  2492  0758                     l3770:
  2493                           
  2494                           ;main.c: 188:             if(strncmp(pass_user2,exitPassword,1)==0){
  2495  0758  30EB               	movlw	(low (_pass_user2| 0))& (0+255)
  2496  0759  00F0               	movwf	strncmp@s1
  2497  075A  3000               	movlw	0
  2498  075B  00F1               	movwf	strncmp@s1+1
  2499  075C  3034               	movlw	(low ((_exitPassword-__stringbase)| (0+32768)))& (0+255)
  2500  075D  00C0               	movwf	??_main^(0+128)
  2501  075E  0840               	movf	??_main^(0+128),w
  2502  075F  00F2               	movwf	strncmp@s2
  2503  0760  3001               	movlw	1
  2504  0761  00F3               	movwf	strncmp@len
  2505  0762  3000               	movlw	0
  2506  0763  00F4               	movwf	strncmp@len+1
  2507  0764  160A  118A  238B  120A  118A  	fcall	_strncmp
  2508  0769  0870               	movf	?_strncmp,w
  2509  076A  0471               	iorwf	?_strncmp+1,w
  2510  076B  1D03               	btfss	3,2
  2511  076C  2F6E               	goto	u5031
  2512  076D  2F6F               	goto	u5030
  2513  076E                     u5031:
  2514  076E  2F8F               	goto	l3778
  2515  076F                     u5030:
  2516  076F                     l3772:
  2517                           
  2518                           ;main.c: 189:                 LCD_Clear();
  2519  076F  160A  118A  21B1  120A  118A  	fcall	_LCD_Clear
  2520  0774                     l3774:
  2521                           
  2522                           ;main.c: 190:                 LCD_String_xy(0,0,"Clave Correcta" );
  2523  0774  01F5               	clrf	LCD_String_xy@pos
  2524  0775  309E               	movlw	(low ((STR_6-__stringbase)| (0+32768)))& (0+255)
  2525  0776  1683               	bsf	3,5	;RP0=1, select bank1
  2526  0777  1303               	bcf	3,6	;RP1=0, select bank1
  2527  0778  00C0               	movwf	??_main^(0+128)
  2528  0779  0840               	movf	??_main^(0+128),w
  2529  077A  00F6               	movwf	LCD_String_xy@msg
  2530  077B  3000               	movlw	0
  2531  077C  160A  118A  226B  120A  118A  	fcall	_LCD_String_xy
  2532  0781                     l3776:
  2533                           
  2534                           ;main.c: 191:                 LCD_String_xy(2,0,"Fuera del sistema");
  2535  0781  01F5               	clrf	LCD_String_xy@pos
  2536  0782  304B               	movlw	(low ((STR_10-__stringbase)| (0+32768)))& (0+255)
  2537  0783  1683               	bsf	3,5	;RP0=1, select bank1
  2538  0784  1303               	bcf	3,6	;RP1=0, select bank1
  2539  0785  00C0               	movwf	??_main^(0+128)
  2540  0786  0840               	movf	??_main^(0+128),w
  2541  0787  00F6               	movwf	LCD_String_xy@msg
  2542  0788  3002               	movlw	2
  2543  0789  160A  118A  226B  120A  118A  	fcall	_LCD_String_xy
  2544                           
  2545                           ;main.c: 192:             }
  2546  078E  2FAE               	goto	l3784
  2547  078F                     l3778:
  2548                           
  2549                           ;main.c: 194:                 LCD_Clear();
  2550  078F  160A  118A  21B1  120A  118A  	fcall	_LCD_Clear
  2551  0794                     l3780:
  2552                           
  2553                           ;main.c: 195:                 LCD_String_xy(0,0,"Clave incorrecta");
  2554  0794  01F5               	clrf	LCD_String_xy@pos
  2555  0795  305D               	movlw	(low ((STR_8-__stringbase)| (0+32768)))& (0+255)
  2556  0796  1683               	bsf	3,5	;RP0=1, select bank1
  2557  0797  1303               	bcf	3,6	;RP1=0, select bank1
  2558  0798  00C0               	movwf	??_main^(0+128)
  2559  0799  0840               	movf	??_main^(0+128),w
  2560  079A  00F6               	movwf	LCD_String_xy@msg
  2561  079B  3000               	movlw	0
  2562  079C  160A  118A  226B  120A  118A  	fcall	_LCD_String_xy
  2563  07A1                     l3782:
  2564                           
  2565                           ;main.c: 196:                 LCD_String_xy(2,0,"Ingrese caracter");
  2566  07A1  01F5               	clrf	LCD_String_xy@pos
  2567  07A2  306E               	movlw	(low ((STR_12-__stringbase)| (0+32768)))& (0+255)
  2568  07A3  1683               	bsf	3,5	;RP0=1, select bank1
  2569  07A4  1303               	bcf	3,6	;RP1=0, select bank1
  2570  07A5  00C0               	movwf	??_main^(0+128)
  2571  07A6  0840               	movf	??_main^(0+128),w
  2572  07A7  00F6               	movwf	LCD_String_xy@msg
  2573  07A8  3002               	movlw	2
  2574  07A9  160A  118A  226B  120A  118A  	fcall	_LCD_String_xy
  2575  07AE                     l3784:
  2576                           
  2577                           ;main.c: 198:             idx2 = 0;
  2578  07AE  1683               	bsf	3,5	;RP0=1, select bank1
  2579  07AF  1303               	bcf	3,6	;RP1=0, select bank1
  2580  07B0  01E9               	clrf	_idx2^(0+128)
  2581  07B1                     l3786:
  2582                           
  2583                           ;main.c: 200:         _delay((unsigned long)((1000)*(8000000/4000.0)));
  2584  07B1  300B               	movlw	11
  2585  07B2  1683               	bsf	3,5	;RP0=1, select bank1
  2586  07B3  1303               	bcf	3,6	;RP1=0, select bank1
  2587  07B4  00C2               	movwf	(??_main^(0+128)+2)
  2588  07B5  3026               	movlw	38
  2589  07B6  00C1               	movwf	(??_main^(0+128)+1)
  2590  07B7  305D               	movlw	93
  2591  07B8  00C0               	movwf	??_main^(0+128)
  2592  07B9                     u5087:
  2593  07B9  0BC0               	decfsz	??_main^(0+128),f
  2594  07BA  2FB9               	goto	u5087
  2595  07BB  0BC1               	decfsz	(??_main^(0+128)+1),f
  2596  07BC  2FB9               	goto	u5087
  2597  07BD  0BC2               	decfsz	(??_main^(0+128)+2),f
  2598  07BE  2FB9               	goto	u5087
  2599  07BF  2BFF               	goto	l3660
  2600  07C0  120A  118A  2800   	ljmp	start
  2601  07C3                     __end_of_main:
  2602                           
  2603                           	psect	text1
  2604  138B                     __ptext1:	
  2605 ;; *************** function _strncmp *****************
  2606 ;; Defined at:
  2607 ;;		line 4 in file "C:\Program Files\Microchip\xc8\v2.36\pic\sources\c90\common\strncmp.c"
  2608 ;; Parameters:    Size  Location     Type
  2609 ;;  s1              2    0[COMMON] PTR const unsigned char 
  2610 ;;		 -> pass_user2(2), pass_user(5), 
  2611 ;;  s2              1    2[COMMON] PTR const unsigned char 
  2612 ;;		 -> exitPassword(2), inputPassword(5), 
  2613 ;;  len             2    3[COMMON] unsigned int 
  2614 ;; Auto vars:     Size  Location     Type
  2615 ;;		None
  2616 ;; Return value:  Size  Location     Type
  2617 ;;                  2    0[COMMON] int 
  2618 ;; Registers used:
  2619 ;;		wreg, fsr0l, fsr0h, status,2, status,0, pclath
  2620 ;; Tracked objects:
  2621 ;;		On entry : 0/0
  2622 ;;		On exit  : 0/0
  2623 ;;		Unchanged: 0/0
  2624 ;; Data sizes:     COMMON   BANK0   BANK1   BANK3   BANK2
  2625 ;;      Params:         5       0       0       0       0
  2626 ;;      Locals:         0       0       0       0       0
  2627 ;;      Temps:          2       0       0       0       0
  2628 ;;      Totals:         7       0       0       0       0
  2629 ;;Total ram usage:        7 bytes
  2630 ;; Hardware stack levels used: 2
  2631 ;; This function calls:
  2632 ;;		Nothing
  2633 ;; This function is called by:
  2634 ;;		_main
  2635 ;; This function uses a non-reentrant model
  2636 ;;
  2637                           
  2638  138B                     _strncmp:	
  2639                           ;psect for function _strncmp
  2640                           
  2641  138B                     l3578:	
  2642                           ;incstack = 0
  2643                           ; Regs used in _strncmp: [wreg-fsr0h+status,2+status,0+pclath]
  2644                           
  2645  138B  2BC9               	goto	l3592
  2646  138C                     l3580:
  2647  138C  0870               	movf	strncmp@s1,w
  2648  138D  0084               	movwf	4
  2649  138E  1783               	bsf	3,7
  2650  138F  1C71               	btfss	strncmp@s1+1,0
  2651  1390  1383               	bcf	3,7
  2652  1391  0800               	movf	0,w
  2653  1392  1903               	btfsc	3,2
  2654  1393  2B95               	goto	u4851
  2655  1394  2B96               	goto	u4850
  2656  1395                     u4851:
  2657  1395  2BA9               	goto	l3584
  2658  1396                     u4850:
  2659  1396                     l3582:
  2660  1396  0872               	movf	strncmp@s2,w
  2661  1397  0084               	movwf	4
  2662  1398  160A  118A  200A  160A  118A  	fcall	stringdir
  2663  139D  00F5               	movwf	??_strncmp
  2664  139E  0870               	movf	strncmp@s1,w
  2665  139F  0084               	movwf	4
  2666  13A0  1783               	bsf	3,7
  2667  13A1  1C71               	btfss	strncmp@s1+1,0
  2668  13A2  1383               	bcf	3,7
  2669  13A3  0800               	movf	0,w
  2670  13A4  0675               	xorwf	??_strncmp,w
  2671  13A5  1903               	skipnz
  2672  13A6  2BA8               	goto	u4861
  2673  13A7  2BA9               	goto	u4860
  2674  13A8                     u4861:
  2675  13A8  2BBF               	goto	l3588
  2676  13A9                     u4860:
  2677  13A9                     l3584:
  2678  13A9  0872               	movf	strncmp@s2,w
  2679  13AA  0084               	movwf	4
  2680  13AB  160A  118A  200A  160A  118A  	fcall	stringdir
  2681  13B0  00F5               	movwf	??_strncmp
  2682  13B1  0870               	movf	strncmp@s1,w
  2683  13B2  0084               	movwf	4
  2684  13B3  1783               	bsf	3,7
  2685  13B4  1C71               	btfss	strncmp@s1+1,0
  2686  13B5  1383               	bcf	3,7
  2687  13B6  0800               	movf	0,w
  2688  13B7  00F6               	movwf	??_strncmp+1
  2689  13B8  0875               	movf	??_strncmp,w
  2690  13B9  0276               	subwf	??_strncmp+1,w
  2691  13BA  00F0               	movwf	?_strncmp
  2692  13BB  01F1               	clrf	?_strncmp+1
  2693  13BC  1C03               	skipc
  2694  13BD  03F1               	decf	?_strncmp+1,f
  2695  13BE  2BD9               	goto	l907
  2696  13BF                     l3588:
  2697  13BF  3001               	movlw	1
  2698  13C0  07F0               	addwf	strncmp@s1,f
  2699  13C1  1803               	skipnc
  2700  13C2  0AF1               	incf	strncmp@s1+1,f
  2701  13C3  3000               	movlw	0
  2702  13C4  07F1               	addwf	strncmp@s1+1,f
  2703  13C5                     l3590:
  2704  13C5  3001               	movlw	1
  2705  13C6  00F5               	movwf	??_strncmp
  2706  13C7  0875               	movf	??_strncmp,w
  2707  13C8  07F2               	addwf	strncmp@s2,f
  2708  13C9                     l3592:
  2709  13C9  3001               	movlw	1
  2710  13CA  02F3               	subwf	strncmp@len,f
  2711  13CB  3000               	movlw	0
  2712  13CC  1C03               	skipc
  2713  13CD  03F4               	decf	strncmp@len+1,f
  2714  13CE  02F4               	subwf	strncmp@len+1,f
  2715  13CF  0A73               	incf	strncmp@len,w
  2716  13D0  1D03               	skipz
  2717  13D1  2BD6               	goto	u4871
  2718  13D2  0A74               	incf	strncmp@len+1,w
  2719  13D3  1D03               	btfss	3,2
  2720  13D4  2BD6               	goto	u4871
  2721  13D5  2BD7               	goto	u4870
  2722  13D6                     u4871:
  2723  13D6  2B8C               	goto	l3580
  2724  13D7                     u4870:
  2725  13D7                     l3594:
  2726  13D7  01F0               	clrf	?_strncmp
  2727  13D8  01F1               	clrf	?_strncmp+1
  2728  13D9                     l907:
  2729  13D9  0008               	return
  2730  13DA                     __end_of_strncmp:
  2731                           
  2732                           	psect	text2
  2733  0948                     __ptext2:	
  2734 ;; *************** function _sprintf *****************
  2735 ;; Defined at:
  2736 ;;		line 505 in file "C:\Program Files\Microchip\xc8\v2.36\pic\sources\c90\common\doprnt.c"
  2737 ;; Parameters:    Size  Location     Type
  2738 ;;  sp              1    wreg     PTR unsigned char 
  2739 ;;		 -> main@Temperature(10), 
  2740 ;;  f               1   17[BANK1 ] PTR const unsigned char 
  2741 ;;		 -> STR_1(6), 
  2742 ;; Auto vars:     Size  Location     Type
  2743 ;;  sp              1   30[BANK1 ] PTR unsigned char 
  2744 ;;		 -> main@Temperature(10), 
  2745 ;;  tmpval          4    0        struct .
  2746 ;;  val             2   28[BANK1 ] unsigned int 
  2747 ;;  cp              2    0        PTR const unsigned char 
  2748 ;;  len             2    0        unsigned int 
  2749 ;;  c               1   31[BANK1 ] unsigned char 
  2750 ;;  ap              1   27[BANK1 ] PTR void [1]
  2751 ;;		 -> ?_sprintf(2), 
  2752 ;;  prec            1   26[BANK1 ] char 
  2753 ;;  flag            1   25[BANK1 ] unsigned char 
  2754 ;; Return value:  Size  Location     Type
  2755 ;;                  2   17[BANK1 ] int 
  2756 ;; Registers used:
  2757 ;;		wreg, fsr0l, fsr0h, status,2, status,0, btemp+1, pclath, cstack
  2758 ;; Tracked objects:
  2759 ;;		On entry : 0/0
  2760 ;;		On exit  : 0/0
  2761 ;;		Unchanged: 0/0
  2762 ;; Data sizes:     COMMON   BANK0   BANK1   BANK3   BANK2
  2763 ;;      Params:         0       0       5       0       0
  2764 ;;      Locals:         0       0       7       0       0
  2765 ;;      Temps:          0       0       3       0       0
  2766 ;;      Totals:         0       0      15       0       0
  2767 ;;Total ram usage:       15 bytes
  2768 ;; Hardware stack levels used: 1
  2769 ;; Hardware stack levels required when called: 1
  2770 ;; This function calls:
  2771 ;;		___lwdiv
  2772 ;;		___lwmod
  2773 ;; This function is called by:
  2774 ;;		_main
  2775 ;; This function uses a non-reentrant model
  2776 ;;
  2777                           
  2778  0948                     _sprintf:	
  2779                           ;psect for function _sprintf
  2780                           
  2781                           
  2782                           ;incstack = 0
  2783                           ; Regs used in _sprintf: [wreg-fsr0h+status,2+status,0+btemp+1+pclath+cstack]
  2784                           ;sprintf@sp stored from wreg
  2785  0948  1683               	bsf	3,5	;RP0=1, select bank1
  2786  0949  1303               	bcf	3,6	;RP1=0, select bank1
  2787  094A  00BE               	movwf	sprintf@sp^(0+128)
  2788  094B                     l2878:
  2789                           
  2790                           ;C:\Program Files\Microchip\xc8\v2.36\pic\sources\c90\common\doprnt.c: 505: sprintf(char
      +                           * sp, const char * f, ...);C:\Program Files\Microchip\xc8\v2.36\pic\sources\c90\common\
      +                          doprnt.c: 506: {;C:\Program Files\Microchip\xc8\v2.36\pic\sources\c90\common\doprnt.c: 5
      +                          07:  va_list ap;;C:\Program Files\Microchip\xc8\v2.36\pic\sources\c90\common\doprnt.c: 5
      +                          12:  char c;;C:\Program Files\Microchip\xc8\v2.36\pic\sources\c90\common\doprnt.c: 521: 
      +                           signed char prec;;C:\Program Files\Microchip\xc8\v2.36\pic\sources\c90\common\doprnt.c:
      +                           525:  unsigned char flag;
  2791  094B  30B2               	movlw	(low ((?_sprintf| 0+1)))& (0+255)
  2792  094C  00B6               	movwf	??_sprintf^(0+128)
  2793  094D  0836               	movf	??_sprintf^(0+128),w
  2794  094E  00BB               	movwf	sprintf@ap^(0+128)
  2795                           
  2796                           ;C:\Program Files\Microchip\xc8\v2.36\pic\sources\c90\common\doprnt.c: 553:  while((c = 
      +                          *f++)) {
  2797  094F  2A34               	goto	l2936
  2798  0950                     l2880:
  2799                           
  2800                           ;C:\Program Files\Microchip\xc8\v2.36\pic\sources\c90\common\doprnt.c: 555:   if(c != '%
      +                          ')
  2801  0950  3025               	movlw	37
  2802  0951  063F               	xorwf	sprintf@c^(0+128),w
  2803  0952  1903               	btfsc	3,2
  2804  0953  2955               	goto	u3751
  2805  0954  2956               	goto	u3750
  2806  0955                     u3751:
  2807  0955  2962               	goto	l2886
  2808  0956                     u3750:
  2809  0956                     l2882:
  2810                           
  2811                           ;C:\Program Files\Microchip\xc8\v2.36\pic\sources\c90\common\doprnt.c: 557:   {;C:\Progr
      +                          am Files\Microchip\xc8\v2.36\pic\sources\c90\common\doprnt.c: 558:    ((*sp++ = (c)));
  2812  0956  083F               	movf	sprintf@c^(0+128),w
  2813  0957  00B6               	movwf	??_sprintf^(0+128)
  2814  0958  083E               	movf	sprintf@sp^(0+128),w
  2815  0959  0084               	movwf	4
  2816  095A  0836               	movf	??_sprintf^(0+128),w
  2817  095B  1383               	bcf	3,7	;select IRP bank0
  2818  095C  0080               	movwf	0
  2819  095D                     l2884:
  2820  095D  3001               	movlw	1
  2821  095E  00B6               	movwf	??_sprintf^(0+128)
  2822  095F  0836               	movf	??_sprintf^(0+128),w
  2823  0960  07BE               	addwf	sprintf@sp^(0+128),f
  2824                           
  2825                           ;C:\Program Files\Microchip\xc8\v2.36\pic\sources\c90\common\doprnt.c: 559:    continue;
  2826  0961  2A34               	goto	l2936
  2827  0962                     l2886:
  2828                           
  2829                           ;C:\Program Files\Microchip\xc8\v2.36\pic\sources\c90\common\doprnt.c: 565:   flag = 0;
  2830  0962  01B9               	clrf	sprintf@flag^(0+128)
  2831                           
  2832                           ;C:\Program Files\Microchip\xc8\v2.36\pic\sources\c90\common\doprnt.c: 661:   switch(c =
      +                           *f++) {
  2833  0963  297B               	goto	l2896
  2834  0964                     l2888:
  2835                           
  2836                           ;C:\Program Files\Microchip\xc8\v2.36\pic\sources\c90\common\doprnt.c: 825:    c = (char
      +                          )(*(int *)__va_arg((*(int **)ap), (int)0));
  2837  0964  083B               	movf	sprintf@ap^(0+128),w
  2838  0965  0084               	movwf	4
  2839  0966  1383               	bcf	3,7	;select IRP bank0
  2840  0967  0800               	movf	0,w
  2841  0968  00B6               	movwf	??_sprintf^(0+128)
  2842  0969  0836               	movf	??_sprintf^(0+128),w
  2843  096A  00BF               	movwf	sprintf@c^(0+128)
  2844  096B                     l2890:
  2845  096B  3002               	movlw	2
  2846  096C  00B6               	movwf	??_sprintf^(0+128)
  2847  096D  0836               	movf	??_sprintf^(0+128),w
  2848  096E  07BB               	addwf	sprintf@ap^(0+128),f
  2849  096F                     l2892:
  2850                           
  2851                           ;C:\Program Files\Microchip\xc8\v2.36\pic\sources\c90\common\doprnt.c: 835:    ((*sp++ =
      +                           (c)));
  2852  096F  083F               	movf	sprintf@c^(0+128),w
  2853  0970  00B6               	movwf	??_sprintf^(0+128)
  2854  0971  083E               	movf	sprintf@sp^(0+128),w
  2855  0972  0084               	movwf	4
  2856  0973  0836               	movf	??_sprintf^(0+128),w
  2857  0974  1383               	bcf	3,7	;select IRP bank0
  2858  0975  0080               	movwf	0
  2859  0976  3001               	movlw	1
  2860  0977  00B6               	movwf	??_sprintf^(0+128)
  2861  0978  0836               	movf	??_sprintf^(0+128),w
  2862  0979  07BE               	addwf	sprintf@sp^(0+128),f
  2863                           
  2864                           ;C:\Program Files\Microchip\xc8\v2.36\pic\sources\c90\common\doprnt.c: 836:    continue;
  2865  097A  2A34               	goto	l2936
  2866  097B                     l2896:
  2867  097B  3001               	movlw	1
  2868  097C  07B1               	addwf	sprintf@f^(0+128),f
  2869  097D  30FF               	movlw	-1
  2870  097E  0731               	addwf	sprintf@f^(0+128),w
  2871  097F  0084               	movwf	4
  2872  0980  160A  118A  200A  120A  158A  	fcall	stringdir
  2873  0985  00BF               	movwf	sprintf@c^(0+128)
  2874  0986  00B6               	movwf	??_sprintf^(0+128)
  2875  0987  01B7               	clrf	(??_sprintf^(0+128)+1)
  2876                           
  2877                           ; Switch on 2 bytes has been partitioned into a top level switch of size 1, and 1 sub-sw
      +                          itches
  2878                           ; Switch size 1, requested type "simple"
  2879                           ; Number of cases is 1, Range of values is 0 to 0
  2880                           ; switch strategies available:
  2881                           ; Name         Instructions Cycles
  2882                           ; simple_byte            4     3 (average)
  2883                           ; direct_byte           11     8 (fixed)
  2884                           ; jumptable            260     6 (fixed)
  2885                           ;	Chosen strategy is simple_byte
  2886  0988  0837               	movf	(??_sprintf+1)^(0+128),w
  2887  0989  3A00               	xorlw	0	; case 0
  2888  098A  1903               	skipnz
  2889  098B  298D               	goto	l3808
  2890  098C  296F               	goto	l2892
  2891  098D                     l3808:
  2892                           
  2893                           ; Switch size 1, requested type "simple"
  2894                           ; Number of cases is 4, Range of values is 0 to 105
  2895                           ; switch strategies available:
  2896                           ; Name         Instructions Cycles
  2897                           ; simple_byte           13     7 (average)
  2898                           ; jumptable            260     6 (fixed)
  2899                           ;	Chosen strategy is simple_byte
  2900  098D  0836               	movf	??_sprintf^(0+128),w
  2901  098E  3A00               	xorlw	0	; case 0
  2902  098F  1903               	skipnz
  2903  0990  2A46               	goto	l2938
  2904  0991  3A63               	xorlw	99	; case 99
  2905  0992  1903               	skipnz
  2906  0993  2964               	goto	l2888
  2907  0994  3A07               	xorlw	7	; case 100
  2908  0995  1903               	skipnz
  2909  0996  299B               	goto	l2898
  2910  0997  3A0D               	xorlw	13	; case 105
  2911  0998  1903               	skipnz
  2912  0999  299B               	goto	l2898
  2913  099A  296F               	goto	l2892
  2914  099B                     l2898:
  2915                           
  2916                           ;C:\Program Files\Microchip\xc8\v2.36\pic\sources\c90\common\doprnt.c: 1279:   {;C:\Prog
      +                          ram Files\Microchip\xc8\v2.36\pic\sources\c90\common\doprnt.c: 1285:     val = (unsigned
      +                           int)(*(int *)__va_arg((*(int **)ap), (int)0));
  2917  099B  083B               	movf	sprintf@ap^(0+128),w
  2918  099C  0084               	movwf	4
  2919  099D  1383               	bcf	3,7	;select IRP bank0
  2920  099E  0800               	movf	0,w
  2921  099F  00BC               	movwf	sprintf@val^(0+128)
  2922  09A0  0A84               	incf	4,f
  2923  09A1  0800               	movf	0,w
  2924  09A2  00BD               	movwf	(sprintf@val+1)^(0+128)
  2925  09A3                     l2900:
  2926  09A3  3002               	movlw	2
  2927  09A4  00B6               	movwf	??_sprintf^(0+128)
  2928  09A5  0836               	movf	??_sprintf^(0+128),w
  2929  09A6  07BB               	addwf	sprintf@ap^(0+128),f
  2930  09A7                     l2902:
  2931                           
  2932                           ;C:\Program Files\Microchip\xc8\v2.36\pic\sources\c90\common\doprnt.c: 1287:    if((int)
      +                          val < 0) {
  2933  09A7  1FBD               	btfss	(sprintf@val+1)^(0+128),7
  2934  09A8  29AA               	goto	u3761
  2935  09A9  29AB               	goto	u3760
  2936  09AA                     u3761:
  2937  09AA  29B4               	goto	l2908
  2938  09AB                     u3760:
  2939  09AB                     l2904:
  2940                           
  2941                           ;C:\Program Files\Microchip\xc8\v2.36\pic\sources\c90\common\doprnt.c: 1288:     flag |=
      +                           0x03;
  2942  09AB  3003               	movlw	3
  2943  09AC  00B6               	movwf	??_sprintf^(0+128)
  2944  09AD  0836               	movf	??_sprintf^(0+128),w
  2945  09AE  04B9               	iorwf	sprintf@flag^(0+128),f
  2946  09AF                     l2906:
  2947                           
  2948                           ;C:\Program Files\Microchip\xc8\v2.36\pic\sources\c90\common\doprnt.c: 1289:     val = -
      +                          val;
  2949  09AF  09BC               	comf	sprintf@val^(0+128),f
  2950  09B0  09BD               	comf	(sprintf@val+1)^(0+128),f
  2951  09B1  0ABC               	incf	sprintf@val^(0+128),f
  2952  09B2  1903               	skipnz
  2953  09B3  0ABD               	incf	(sprintf@val+1)^(0+128),f
  2954  09B4                     l2908:
  2955                           
  2956                           ;C:\Program Files\Microchip\xc8\v2.36\pic\sources\c90\common\doprnt.c: 1292:   };C:\Prog
      +                          ram Files\Microchip\xc8\v2.36\pic\sources\c90\common\doprnt.c: 1331:    for(c = 1 ; c !=
      +                           sizeof dpowers/sizeof dpowers[0] ; c++)
  2957  09B4  01BF               	clrf	sprintf@c^(0+128)
  2958  09B5  0ABF               	incf	sprintf@c^(0+128),f
  2959  09B6                     l2914:
  2960                           
  2961                           ;C:\Program Files\Microchip\xc8\v2.36\pic\sources\c90\common\doprnt.c: 1332:     if(val 
      +                          < dpowers[c])
  2962  09B6  083F               	movf	sprintf@c^(0+128),w
  2963  09B7  00B6               	movwf	??_sprintf^(0+128)
  2964  09B8  0736               	addwf	??_sprintf^(0+128),w
  2965  09B9  3E01               	addlw	low ((_dpowers-__stringbase)| (0+32768))
  2966  09BA  0084               	movwf	4
  2967  09BB  160A  118A  200A  120A  158A  	fcall	stringdir
  2968  09C0  00B7               	movwf	(??_sprintf+1)^(0+128)
  2969  09C1  160A  118A  200A  120A  158A  	fcall	stringdir
  2970  09C6  00B8               	movwf	((??_sprintf+1)^(0+128)+1)
  2971  09C7  0838               	movf	(??_sprintf+2)^(0+128),w
  2972  09C8  023D               	subwf	(sprintf@val+1)^(0+128),w
  2973  09C9  1D03               	skipz
  2974  09CA  29CD               	goto	u3775
  2975  09CB  0837               	movf	(??_sprintf+1)^(0+128),w
  2976  09CC  023C               	subwf	sprintf@val^(0+128),w
  2977  09CD                     u3775:
  2978  09CD  1803               	skipnc
  2979  09CE  29D0               	goto	u3771
  2980  09CF  29D1               	goto	u3770
  2981  09D0                     u3771:
  2982  09D0  29D2               	goto	l2918
  2983  09D1                     u3770:
  2984  09D1  29DC               	goto	l2920
  2985  09D2                     l2918:
  2986  09D2  3001               	movlw	1
  2987  09D3  00B6               	movwf	??_sprintf^(0+128)
  2988  09D4  0836               	movf	??_sprintf^(0+128),w
  2989  09D5  07BF               	addwf	sprintf@c^(0+128),f
  2990  09D6  3005               	movlw	5
  2991  09D7  063F               	xorwf	sprintf@c^(0+128),w
  2992  09D8  1D03               	btfss	3,2
  2993  09D9  29DB               	goto	u3781
  2994  09DA  29DC               	goto	u3780
  2995  09DB                     u3781:
  2996  09DB  29B6               	goto	l2914
  2997  09DC                     u3780:
  2998  09DC                     l2920:
  2999                           
  3000                           ;C:\Program Files\Microchip\xc8\v2.36\pic\sources\c90\common\doprnt.c: 1448:   {;C:\Prog
      +                          ram Files\Microchip\xc8\v2.36\pic\sources\c90\common\doprnt.c: 1464:    if(flag & 0x03)
  3001  09DC  0839               	movf	sprintf@flag^(0+128),w
  3002  09DD  3903               	andlw	3
  3003  09DE  1903               	btfsc	3,2
  3004  09DF  29E1               	goto	u3791
  3005  09E0  29E2               	goto	u3790
  3006  09E1                     u3791:
  3007  09E1  29ED               	goto	l2926
  3008  09E2                     u3790:
  3009  09E2                     l2922:
  3010                           
  3011                           ;C:\Program Files\Microchip\xc8\v2.36\pic\sources\c90\common\doprnt.c: 1465:     ((*sp++
      +                           = ('-')));
  3012  09E2  302D               	movlw	45
  3013  09E3  00B6               	movwf	??_sprintf^(0+128)
  3014  09E4  083E               	movf	sprintf@sp^(0+128),w
  3015  09E5  0084               	movwf	4
  3016  09E6  0836               	movf	??_sprintf^(0+128),w
  3017  09E7  1383               	bcf	3,7	;select IRP bank0
  3018  09E8  0080               	movwf	0
  3019  09E9                     l2924:
  3020  09E9  3001               	movlw	1
  3021  09EA  00B6               	movwf	??_sprintf^(0+128)
  3022  09EB  0836               	movf	??_sprintf^(0+128),w
  3023  09EC  07BE               	addwf	sprintf@sp^(0+128),f
  3024  09ED                     l2926:
  3025                           
  3026                           ;C:\Program Files\Microchip\xc8\v2.36\pic\sources\c90\common\doprnt.c: 1495:   };C:\Prog
      +                          ram Files\Microchip\xc8\v2.36\pic\sources\c90\common\doprnt.c: 1498:   prec = c;
  3027  09ED  083F               	movf	sprintf@c^(0+128),w
  3028  09EE  00B6               	movwf	??_sprintf^(0+128)
  3029  09EF  0836               	movf	??_sprintf^(0+128),w
  3030  09F0  00BA               	movwf	sprintf@prec^(0+128)
  3031                           
  3032                           ;C:\Program Files\Microchip\xc8\v2.36\pic\sources\c90\common\doprnt.c: 1500:   while(pre
      +                          c--) {
  3033  09F1  2A2B               	goto	l2934
  3034  09F2                     l2928:
  3035                           
  3036                           ;C:\Program Files\Microchip\xc8\v2.36\pic\sources\c90\common\doprnt.c: 1504:    {;C:\Pro
      +                          gram Files\Microchip\xc8\v2.36\pic\sources\c90\common\doprnt.c: 1515:     c = (val / dpo
      +                          wers[(unsigned char)prec]) % 10 + '0';
  3037  09F2  300A               	movlw	10
  3038  09F3  00F8               	movwf	___lwmod@divisor
  3039  09F4  3000               	movlw	0
  3040  09F5  00F9               	movwf	___lwmod@divisor+1
  3041  09F6  083A               	movf	sprintf@prec^(0+128),w
  3042  09F7  00B6               	movwf	??_sprintf^(0+128)
  3043  09F8  0736               	addwf	??_sprintf^(0+128),w
  3044  09F9  3E01               	addlw	low ((_dpowers-__stringbase)| (0+32768))
  3045  09FA  0084               	movwf	4
  3046  09FB  160A  118A  200A  120A  158A  	fcall	stringdir
  3047  0A00  00F0               	movwf	___lwdiv@divisor
  3048  0A01  160A  118A  200A  120A  158A  	fcall	stringdir
  3049  0A06  00F1               	movwf	___lwdiv@divisor+1
  3050  0A07  083D               	movf	(sprintf@val+1)^(0+128),w
  3051  0A08  00F3               	movwf	___lwdiv@dividend+1
  3052  0A09  083C               	movf	sprintf@val^(0+128),w
  3053  0A0A  00F2               	movwf	___lwdiv@dividend
  3054  0A0B  120A  158A  2002  120A  158A  	fcall	___lwdiv
  3055  0A10  0871               	movf	?___lwdiv+1,w
  3056  0A11  00FB               	movwf	___lwmod@dividend+1
  3057  0A12  0870               	movf	?___lwdiv,w
  3058  0A13  00FA               	movwf	___lwmod@dividend
  3059  0A14  160A  118A  2303  120A  158A  	fcall	___lwmod
  3060  0A19  0878               	movf	?___lwmod,w
  3061  0A1A  3E30               	addlw	48
  3062  0A1B  1683               	bsf	3,5	;RP0=1, select bank1
  3063  0A1C  1303               	bcf	3,6	;RP1=0, select bank1
  3064  0A1D  00B7               	movwf	(??_sprintf+1)^(0+128)
  3065  0A1E  0837               	movf	(??_sprintf+1)^(0+128),w
  3066  0A1F  00BF               	movwf	sprintf@c^(0+128)
  3067  0A20                     l2930:
  3068                           
  3069                           ;C:\Program Files\Microchip\xc8\v2.36\pic\sources\c90\common\doprnt.c: 1549:    };C:\Pro
      +                          gram Files\Microchip\xc8\v2.36\pic\sources\c90\common\doprnt.c: 1550:    ((*sp++ = (c)))
      +                          ;
  3070  0A20  083F               	movf	sprintf@c^(0+128),w
  3071  0A21  00B6               	movwf	??_sprintf^(0+128)
  3072  0A22  083E               	movf	sprintf@sp^(0+128),w
  3073  0A23  0084               	movwf	4
  3074  0A24  0836               	movf	??_sprintf^(0+128),w
  3075  0A25  1383               	bcf	3,7	;select IRP bank0
  3076  0A26  0080               	movwf	0
  3077  0A27                     l2932:
  3078  0A27  3001               	movlw	1
  3079  0A28  00B6               	movwf	??_sprintf^(0+128)
  3080  0A29  0836               	movf	??_sprintf^(0+128),w
  3081  0A2A  07BE               	addwf	sprintf@sp^(0+128),f
  3082  0A2B                     l2934:
  3083                           
  3084                           ;C:\Program Files\Microchip\xc8\v2.36\pic\sources\c90\common\doprnt.c: 1500:   while(pre
      +                          c--) {
  3085  0A2B  30FF               	movlw	255
  3086  0A2C  00B6               	movwf	??_sprintf^(0+128)
  3087  0A2D  0836               	movf	??_sprintf^(0+128),w
  3088  0A2E  07BA               	addwf	sprintf@prec^(0+128),f
  3089  0A2F  0A3A               	incf	sprintf@prec^(0+128),w
  3090  0A30  1D03               	btfss	3,2
  3091  0A31  2A33               	goto	u3801
  3092  0A32  2A34               	goto	u3800
  3093  0A33                     u3801:
  3094  0A33  29F2               	goto	l2928
  3095  0A34                     u3800:
  3096  0A34                     l2936:
  3097                           
  3098                           ;C:\Program Files\Microchip\xc8\v2.36\pic\sources\c90\common\doprnt.c: 553:  while((c = 
      +                          *f++)) {
  3099  0A34  3001               	movlw	1
  3100  0A35  07B1               	addwf	sprintf@f^(0+128),f
  3101  0A36  30FF               	movlw	-1
  3102  0A37  0731               	addwf	sprintf@f^(0+128),w
  3103  0A38  0084               	movwf	4
  3104  0A39  160A  118A  200A  120A  158A  	fcall	stringdir
  3105  0A3E  00B6               	movwf	??_sprintf^(0+128)
  3106  0A3F  0836               	movf	??_sprintf^(0+128),w
  3107  0A40  00BF               	movwf	sprintf@c^(0+128)
  3108  0A41  083F               	movf	sprintf@c^(0+128),w
  3109  0A42  1D03               	btfss	3,2
  3110  0A43  2A45               	goto	u3811
  3111  0A44  2A46               	goto	u3810
  3112  0A45                     u3811:
  3113  0A45  2950               	goto	l2880
  3114  0A46                     u3810:
  3115  0A46                     l2938:
  3116                           
  3117                           ;C:\Program Files\Microchip\xc8\v2.36\pic\sources\c90\common\doprnt.c: 1564:  *sp = 0;
  3118  0A46  083E               	movf	sprintf@sp^(0+128),w
  3119  0A47  0084               	movwf	4
  3120  0A48  1383               	bcf	3,7	;select IRP bank0
  3121  0A49  0180               	clrf	0
  3122  0A4A                     l407:
  3123  0A4A  0008               	return
  3124  0A4B                     __end_of_sprintf:
  3125                           
  3126                           	psect	text3
  3127  1303                     __ptext3:	
  3128 ;; *************** function ___lwmod *****************
  3129 ;; Defined at:
  3130 ;;		line 5 in file "C:\Program Files\Microchip\xc8\v2.36\pic\sources\c90\common\lwmod.c"
  3131 ;; Parameters:    Size  Location     Type
  3132 ;;  divisor         2    8[COMMON] unsigned int 
  3133 ;;  dividend        2   10[COMMON] unsigned int 
  3134 ;; Auto vars:     Size  Location     Type
  3135 ;;  counter         1   13[COMMON] unsigned char 
  3136 ;; Return value:  Size  Location     Type
  3137 ;;                  2    8[COMMON] unsigned int 
  3138 ;; Registers used:
  3139 ;;		wreg, status,2, status,0
  3140 ;; Tracked objects:
  3141 ;;		On entry : 0/0
  3142 ;;		On exit  : 0/0
  3143 ;;		Unchanged: 0/0
  3144 ;; Data sizes:     COMMON   BANK0   BANK1   BANK3   BANK2
  3145 ;;      Params:         4       0       0       0       0
  3146 ;;      Locals:         1       0       0       0       0
  3147 ;;      Temps:          1       0       0       0       0
  3148 ;;      Totals:         6       0       0       0       0
  3149 ;;Total ram usage:        6 bytes
  3150 ;; Hardware stack levels used: 1
  3151 ;; This function calls:
  3152 ;;		Nothing
  3153 ;; This function is called by:
  3154 ;;		_sprintf
  3155 ;; This function uses a non-reentrant model
  3156 ;;
  3157                           
  3158  1303                     ___lwmod:	
  3159                           ;psect for function ___lwmod
  3160                           
  3161  1303                     l2742:	
  3162                           ;incstack = 0
  3163                           ; Regs used in ___lwmod: [wreg+status,2+status,0]
  3164                           
  3165  1303  0878               	movf	___lwmod@divisor,w
  3166  1304  0479               	iorwf	___lwmod@divisor+1,w
  3167  1305  1903               	btfsc	3,2
  3168  1306  2B08               	goto	u3491
  3169  1307  2B09               	goto	u3490
  3170  1308                     u3491:
  3171  1308  2B38               	goto	l2760
  3172  1309                     u3490:
  3173  1309                     l2744:
  3174  1309  01FD               	clrf	___lwmod@counter
  3175  130A  0AFD               	incf	___lwmod@counter,f
  3176  130B  2B17               	goto	l2750
  3177  130C                     l2746:
  3178  130C  3001               	movlw	1
  3179  130D                     u3505:
  3180  130D  1003               	clrc
  3181  130E  0DF8               	rlf	___lwmod@divisor,f
  3182  130F  0DF9               	rlf	___lwmod@divisor+1,f
  3183  1310  3EFF               	addlw	-1
  3184  1311  1D03               	skipz
  3185  1312  2B0D               	goto	u3505
  3186  1313                     l2748:
  3187  1313  3001               	movlw	1
  3188  1314  00FC               	movwf	??___lwmod
  3189  1315  087C               	movf	??___lwmod,w
  3190  1316  07FD               	addwf	___lwmod@counter,f
  3191  1317                     l2750:
  3192  1317  1FF9               	btfss	___lwmod@divisor+1,7
  3193  1318  2B1A               	goto	u3511
  3194  1319  2B1B               	goto	u3510
  3195  131A                     u3511:
  3196  131A  2B0C               	goto	l2746
  3197  131B                     u3510:
  3198  131B                     l2752:
  3199  131B  0879               	movf	___lwmod@divisor+1,w
  3200  131C  027B               	subwf	___lwmod@dividend+1,w
  3201  131D  1D03               	skipz
  3202  131E  2B21               	goto	u3525
  3203  131F  0878               	movf	___lwmod@divisor,w
  3204  1320  027A               	subwf	___lwmod@dividend,w
  3205  1321                     u3525:
  3206  1321  1C03               	skipc
  3207  1322  2B24               	goto	u3521
  3208  1323  2B25               	goto	u3520
  3209  1324                     u3521:
  3210  1324  2B2B               	goto	l2756
  3211  1325                     u3520:
  3212  1325                     l2754:
  3213  1325  0878               	movf	___lwmod@divisor,w
  3214  1326  02FA               	subwf	___lwmod@dividend,f
  3215  1327  0879               	movf	___lwmod@divisor+1,w
  3216  1328  1C03               	skipc
  3217  1329  03FB               	decf	___lwmod@dividend+1,f
  3218  132A  02FB               	subwf	___lwmod@dividend+1,f
  3219  132B                     l2756:
  3220  132B  3001               	movlw	1
  3221  132C                     u3535:
  3222  132C  1003               	clrc
  3223  132D  0CF9               	rrf	___lwmod@divisor+1,f
  3224  132E  0CF8               	rrf	___lwmod@divisor,f
  3225  132F  3EFF               	addlw	-1
  3226  1330  1D03               	skipz
  3227  1331  2B2C               	goto	u3535
  3228  1332                     l2758:
  3229  1332  3001               	movlw	1
  3230  1333  02FD               	subwf	___lwmod@counter,f
  3231  1334  1D03               	btfss	3,2
  3232  1335  2B37               	goto	u3541
  3233  1336  2B38               	goto	u3540
  3234  1337                     u3541:
  3235  1337  2B1B               	goto	l2752
  3236  1338                     u3540:
  3237  1338                     l2760:
  3238  1338  087B               	movf	___lwmod@dividend+1,w
  3239  1339  00F9               	movwf	?___lwmod+1
  3240  133A  087A               	movf	___lwmod@dividend,w
  3241  133B  00F8               	movwf	?___lwmod
  3242  133C                     l693:
  3243  133C  0008               	return
  3244  133D                     __end_of___lwmod:
  3245                           
  3246                           	psect	text4
  3247  0802                     __ptext4:	
  3248 ;; *************** function ___lwdiv *****************
  3249 ;; Defined at:
  3250 ;;		line 5 in file "C:\Program Files\Microchip\xc8\v2.36\pic\sources\c90\common\lwdiv.c"
  3251 ;; Parameters:    Size  Location     Type
  3252 ;;  divisor         2    0[COMMON] unsigned int 
  3253 ;;  dividend        2    2[COMMON] unsigned int 
  3254 ;; Auto vars:     Size  Location     Type
  3255 ;;  quotient        2    5[COMMON] unsigned int 
  3256 ;;  counter         1    7[COMMON] unsigned char 
  3257 ;; Return value:  Size  Location     Type
  3258 ;;                  2    0[COMMON] unsigned int 
  3259 ;; Registers used:
  3260 ;;		wreg, status,2, status,0
  3261 ;; Tracked objects:
  3262 ;;		On entry : 0/0
  3263 ;;		On exit  : 0/0
  3264 ;;		Unchanged: 0/0
  3265 ;; Data sizes:     COMMON   BANK0   BANK1   BANK3   BANK2
  3266 ;;      Params:         4       0       0       0       0
  3267 ;;      Locals:         3       0       0       0       0
  3268 ;;      Temps:          1       0       0       0       0
  3269 ;;      Totals:         8       0       0       0       0
  3270 ;;Total ram usage:        8 bytes
  3271 ;; Hardware stack levels used: 1
  3272 ;; This function calls:
  3273 ;;		Nothing
  3274 ;; This function is called by:
  3275 ;;		_sprintf
  3276 ;; This function uses a non-reentrant model
  3277 ;;
  3278                           
  3279  0802                     ___lwdiv:	
  3280                           ;psect for function ___lwdiv
  3281                           
  3282  0802                     l2716:	
  3283                           ;incstack = 0
  3284                           ; Regs used in ___lwdiv: [wreg+status,2+status,0]
  3285                           
  3286  0802  01F5               	clrf	___lwdiv@quotient
  3287  0803  01F6               	clrf	___lwdiv@quotient+1
  3288  0804                     l2718:
  3289  0804  0870               	movf	___lwdiv@divisor,w
  3290  0805  0471               	iorwf	___lwdiv@divisor+1,w
  3291  0806  1903               	btfsc	3,2
  3292  0807  2809               	goto	u3421
  3293  0808  280A               	goto	u3420
  3294  0809                     u3421:
  3295  0809  2841               	goto	l2738
  3296  080A                     u3420:
  3297  080A                     l2720:
  3298  080A  01F7               	clrf	___lwdiv@counter
  3299  080B  0AF7               	incf	___lwdiv@counter,f
  3300  080C  2818               	goto	l2726
  3301  080D                     l2722:
  3302  080D  3001               	movlw	1
  3303  080E                     u3435:
  3304  080E  1003               	clrc
  3305  080F  0DF0               	rlf	___lwdiv@divisor,f
  3306  0810  0DF1               	rlf	___lwdiv@divisor+1,f
  3307  0811  3EFF               	addlw	-1
  3308  0812  1D03               	skipz
  3309  0813  280E               	goto	u3435
  3310  0814                     l2724:
  3311  0814  3001               	movlw	1
  3312  0815  00F4               	movwf	??___lwdiv
  3313  0816  0874               	movf	??___lwdiv,w
  3314  0817  07F7               	addwf	___lwdiv@counter,f
  3315  0818                     l2726:
  3316  0818  1FF1               	btfss	___lwdiv@divisor+1,7
  3317  0819  281B               	goto	u3441
  3318  081A  281C               	goto	u3440
  3319  081B                     u3441:
  3320  081B  280D               	goto	l2722
  3321  081C                     u3440:
  3322  081C                     l2728:
  3323  081C  3001               	movlw	1
  3324  081D                     u3455:
  3325  081D  1003               	clrc
  3326  081E  0DF5               	rlf	___lwdiv@quotient,f
  3327  081F  0DF6               	rlf	___lwdiv@quotient+1,f
  3328  0820  3EFF               	addlw	-1
  3329  0821  1D03               	skipz
  3330  0822  281D               	goto	u3455
  3331  0823  0871               	movf	___lwdiv@divisor+1,w
  3332  0824  0273               	subwf	___lwdiv@dividend+1,w
  3333  0825  1D03               	skipz
  3334  0826  2829               	goto	u3465
  3335  0827  0870               	movf	___lwdiv@divisor,w
  3336  0828  0272               	subwf	___lwdiv@dividend,w
  3337  0829                     u3465:
  3338  0829  1C03               	skipc
  3339  082A  282C               	goto	u3461
  3340  082B  282D               	goto	u3460
  3341  082C                     u3461:
  3342  082C  2834               	goto	l2734
  3343  082D                     u3460:
  3344  082D                     l2730:
  3345  082D  0870               	movf	___lwdiv@divisor,w
  3346  082E  02F2               	subwf	___lwdiv@dividend,f
  3347  082F  0871               	movf	___lwdiv@divisor+1,w
  3348  0830  1C03               	skipc
  3349  0831  03F3               	decf	___lwdiv@dividend+1,f
  3350  0832  02F3               	subwf	___lwdiv@dividend+1,f
  3351  0833                     l2732:
  3352  0833  1475               	bsf	___lwdiv@quotient,0
  3353  0834                     l2734:
  3354  0834  3001               	movlw	1
  3355  0835                     u3475:
  3356  0835  1003               	clrc
  3357  0836  0CF1               	rrf	___lwdiv@divisor+1,f
  3358  0837  0CF0               	rrf	___lwdiv@divisor,f
  3359  0838  3EFF               	addlw	-1
  3360  0839  1D03               	skipz
  3361  083A  2835               	goto	u3475
  3362  083B                     l2736:
  3363  083B  3001               	movlw	1
  3364  083C  02F7               	subwf	___lwdiv@counter,f
  3365  083D  1D03               	btfss	3,2
  3366  083E  2840               	goto	u3481
  3367  083F  2841               	goto	u3480
  3368  0840                     u3481:
  3369  0840  281C               	goto	l2728
  3370  0841                     u3480:
  3371  0841                     l2738:
  3372  0841  0876               	movf	___lwdiv@quotient+1,w
  3373  0842  00F1               	movwf	?___lwdiv+1
  3374  0843  0875               	movf	___lwdiv@quotient,w
  3375  0844  00F0               	movwf	?___lwdiv
  3376  0845                     l683:
  3377  0845  0008               	return
  3378  0846                     __end_of___lwdiv:
  3379                           
  3380                           	psect	text5
  3381  0A4B                     __ptext5:	
  3382 ;; *************** function _log *****************
  3383 ;; Defined at:
  3384 ;;		line 5 in file "C:\Program Files\Microchip\xc8\v2.36\pic\sources\c90\common\log.c"
  3385 ;; Parameters:    Size  Location     Type
  3386 ;;  x               4   16[BANK1 ] unsigned int 
  3387 ;; Auto vars:     Size  Location     Type
  3388 ;;  exponent        2   20[BANK1 ] int 
  3389 ;; Return value:  Size  Location     Type
  3390 ;;                  4   16[BANK1 ] int 
  3391 ;; Registers used:
  3392 ;;		wreg, fsr0l, fsr0h, status,2, status,0, btemp+1, pclath, cstack
  3393 ;; Tracked objects:
  3394 ;;		On entry : 0/0
  3395 ;;		On exit  : 0/0
  3396 ;;		Unchanged: 0/0
  3397 ;; Data sizes:     COMMON   BANK0   BANK1   BANK3   BANK2
  3398 ;;      Params:         0       0       4       0       0
  3399 ;;      Locals:         0       0       2       0       0
  3400 ;;      Temps:          0       1       0       0       0
  3401 ;;      Totals:         0       1       6       0       0
  3402 ;;Total ram usage:        7 bytes
  3403 ;; Hardware stack levels used: 1
  3404 ;; Hardware stack levels required when called: 3
  3405 ;; This function calls:
  3406 ;;		___fladd
  3407 ;;		___fleq
  3408 ;;		___flge
  3409 ;;		___flmul
  3410 ;;		___xxtofl
  3411 ;;		_eval_poly
  3412 ;;		_frexp
  3413 ;; This function is called by:
  3414 ;;		_main
  3415 ;; This function uses a non-reentrant model
  3416 ;;
  3417                           
  3418  0A4B                     _log:	
  3419                           ;psect for function _log
  3420                           
  3421  0A4B                     l2856:	
  3422                           ;incstack = 0
  3423                           ; Regs used in _log: [wreg-fsr0h+status,2+status,0+btemp+1+pclath+cstack]
  3424                           
  3425  0A4B  1683               	bsf	3,5	;RP0=1, select bank1
  3426  0A4C  1303               	bcf	3,6	;RP1=0, select bank1
  3427  0A4D  0833               	movf	(log@x+3)^(0+128),w
  3428  0A4E  00F3               	movwf	___flge@ff1+3
  3429  0A4F  0832               	movf	(log@x+2)^(0+128),w
  3430  0A50  00F2               	movwf	___flge@ff1+2
  3431  0A51  0831               	movf	(log@x+1)^(0+128),w
  3432  0A52  00F1               	movwf	___flge@ff1+1
  3433  0A53  0830               	movf	log@x^(0+128),w
  3434  0A54  00F0               	movwf	___flge@ff1
  3435  0A55  3000               	movlw	0
  3436  0A56  00F7               	movwf	___flge@ff2+3
  3437  0A57  3000               	movlw	0
  3438  0A58  00F6               	movwf	___flge@ff2+2
  3439  0A59  3000               	movlw	0
  3440  0A5A  00F5               	movwf	___flge@ff2+1
  3441  0A5B  3000               	movlw	0
  3442  0A5C  00F4               	movwf	___flge@ff2
  3443  0A5D  160A  118A  24C8  120A  158A  	fcall	___flge
  3444  0A62  1803               	btfsc	3,0
  3445  0A63  2A65               	goto	u3731
  3446  0A64  2A66               	goto	u3730
  3447  0A65                     u3731:
  3448  0A65  2A77               	goto	l2862
  3449  0A66                     u3730:
  3450  0A66                     l2858:
  3451  0A66  3021               	movlw	33
  3452  0A67  1683               	bsf	3,5	;RP0=1, select bank3
  3453  0A68  1703               	bsf	3,6	;RP1=1, select bank3
  3454  0A69  00B4               	movwf	_errno^(0+384)
  3455  0A6A  3000               	movlw	0
  3456  0A6B  00B5               	movwf	(_errno^(0+384)+1)
  3457  0A6C  3000               	movlw	0
  3458  0A6D  1683               	bsf	3,5	;RP0=1, select bank1
  3459  0A6E  1303               	bcf	3,6	;RP1=0, select bank1
  3460  0A6F  00B3               	movwf	(?_log+3)^(0+128)
  3461  0A70  3000               	movlw	0
  3462  0A71  00B2               	movwf	(?_log+2)^(0+128)
  3463  0A72  3000               	movlw	0
  3464  0A73  00B1               	movwf	(?_log+1)^(0+128)
  3465  0A74  3000               	movlw	0
  3466  0A75  00B0               	movwf	?_log^(0+128)
  3467  0A76  2B9A               	goto	l871
  3468  0A77                     l2862:
  3469  0A77  1683               	bsf	3,5	;RP0=1, select bank1
  3470  0A78  1303               	bcf	3,6	;RP1=0, select bank1
  3471  0A79  0833               	movf	(log@x+3)^(0+128),w
  3472  0A7A  00F3               	movwf	___fleq@ff1+3
  3473  0A7B  0832               	movf	(log@x+2)^(0+128),w
  3474  0A7C  00F2               	movwf	___fleq@ff1+2
  3475  0A7D  0831               	movf	(log@x+1)^(0+128),w
  3476  0A7E  00F1               	movwf	___fleq@ff1+1
  3477  0A7F  0830               	movf	log@x^(0+128),w
  3478  0A80  00F0               	movwf	___fleq@ff1
  3479  0A81  3000               	movlw	0
  3480  0A82  00F7               	movwf	___fleq@ff2+3
  3481  0A83  3000               	movlw	0
  3482  0A84  00F6               	movwf	___fleq@ff2+2
  3483  0A85  3000               	movlw	0
  3484  0A86  00F5               	movwf	___fleq@ff2+1
  3485  0A87  3000               	movlw	0
  3486  0A88  00F4               	movwf	___fleq@ff2
  3487  0A89  160A  118A  233D  120A  158A  	fcall	___fleq
  3488  0A8E  1C03               	btfss	3,0
  3489  0A8F  2A91               	goto	u3741
  3490  0A90  2A92               	goto	u3740
  3491  0A91                     u3741:
  3492  0A91  2AA3               	goto	l2868
  3493  0A92                     u3740:
  3494  0A92                     l2864:
  3495  0A92  3022               	movlw	34
  3496  0A93  1683               	bsf	3,5	;RP0=1, select bank3
  3497  0A94  1703               	bsf	3,6	;RP1=1, select bank3
  3498  0A95  00B4               	movwf	_errno^(0+384)
  3499  0A96  3000               	movlw	0
  3500  0A97  00B5               	movwf	(_errno^(0+384)+1)
  3501  0A98  3000               	movlw	0
  3502  0A99  1683               	bsf	3,5	;RP0=1, select bank1
  3503  0A9A  1303               	bcf	3,6	;RP1=0, select bank1
  3504  0A9B  00B3               	movwf	(?_log+3)^(0+128)
  3505  0A9C  3000               	movlw	0
  3506  0A9D  00B2               	movwf	(?_log+2)^(0+128)
  3507  0A9E  3000               	movlw	0
  3508  0A9F  00B1               	movwf	(?_log+1)^(0+128)
  3509  0AA0  3000               	movlw	0
  3510  0AA1  00B0               	movwf	?_log^(0+128)
  3511  0AA2  2B9A               	goto	l871
  3512  0AA3                     l2868:
  3513  0AA3  30BF               	movlw	191
  3514  0AA4  1283               	bcf	3,5	;RP0=0, select bank0
  3515  0AA5  1303               	bcf	3,6	;RP1=0, select bank0
  3516  0AA6  00DC               	movwf	___fladd@b+3
  3517  0AA7  3080               	movlw	128
  3518  0AA8  00DB               	movwf	___fladd@b+2
  3519  0AA9  3000               	movlw	0
  3520  0AAA  00DA               	movwf	___fladd@b+1
  3521  0AAB  3000               	movlw	0
  3522  0AAC  00D9               	movwf	___fladd@b
  3523  0AAD  3040               	movlw	64
  3524  0AAE  00A8               	movwf	___flmul@b+3
  3525  0AAF  3000               	movlw	0
  3526  0AB0  00A7               	movwf	___flmul@b+2
  3527  0AB1  3000               	movlw	0
  3528  0AB2  00A6               	movwf	___flmul@b+1
  3529  0AB3  3000               	movlw	0
  3530  0AB4  00A5               	movwf	___flmul@b
  3531  0AB5  30B4               	movlw	(low (log@exponent| 0))& (0+255)
  3532  0AB6  00ED               	movwf	??_log
  3533  0AB7  086D               	movf	??_log,w
  3534  0AB8  00A4               	movwf	frexp@eptr
  3535  0AB9  1683               	bsf	3,5	;RP0=1, select bank1
  3536  0ABA  1303               	bcf	3,6	;RP1=0, select bank1
  3537  0ABB  0833               	movf	(log@x+3)^(0+128),w
  3538  0ABC  1283               	bcf	3,5	;RP0=0, select bank0
  3539  0ABD  1303               	bcf	3,6	;RP1=0, select bank0
  3540  0ABE  00A3               	movwf	frexp@value+3
  3541  0ABF  1683               	bsf	3,5	;RP0=1, select bank1
  3542  0AC0  1303               	bcf	3,6	;RP1=0, select bank1
  3543  0AC1  0832               	movf	(log@x+2)^(0+128),w
  3544  0AC2  1283               	bcf	3,5	;RP0=0, select bank0
  3545  0AC3  1303               	bcf	3,6	;RP1=0, select bank0
  3546  0AC4  00A2               	movwf	frexp@value+2
  3547  0AC5  1683               	bsf	3,5	;RP0=1, select bank1
  3548  0AC6  1303               	bcf	3,6	;RP1=0, select bank1
  3549  0AC7  0831               	movf	(log@x+1)^(0+128),w
  3550  0AC8  1283               	bcf	3,5	;RP0=0, select bank0
  3551  0AC9  1303               	bcf	3,6	;RP1=0, select bank0
  3552  0ACA  00A1               	movwf	frexp@value+1
  3553  0ACB  1683               	bsf	3,5	;RP0=1, select bank1
  3554  0ACC  1303               	bcf	3,6	;RP1=0, select bank1
  3555  0ACD  0830               	movf	log@x^(0+128),w
  3556  0ACE  1283               	bcf	3,5	;RP0=0, select bank0
  3557  0ACF  1303               	bcf	3,6	;RP1=0, select bank0
  3558  0AD0  00A0               	movwf	frexp@value
  3559  0AD1  160A  118A  23DA  120A  158A  	fcall	_frexp
  3560  0AD6  1283               	bcf	3,5	;RP0=0, select bank0
  3561  0AD7  1303               	bcf	3,6	;RP1=0, select bank0
  3562  0AD8  0823               	movf	?_frexp+3,w
  3563  0AD9  00AC               	movwf	___flmul@a+3
  3564  0ADA  0822               	movf	?_frexp+2,w
  3565  0ADB  00AB               	movwf	___flmul@a+2
  3566  0ADC  0821               	movf	?_frexp+1,w
  3567  0ADD  00AA               	movwf	___flmul@a+1
  3568  0ADE  0820               	movf	?_frexp,w
  3569  0ADF  00A9               	movwf	___flmul@a
  3570  0AE0  120A  118A  2056  120A  158A  	fcall	___flmul
  3571  0AE5  1283               	bcf	3,5	;RP0=0, select bank0
  3572  0AE6  1303               	bcf	3,6	;RP1=0, select bank0
  3573  0AE7  0828               	movf	?___flmul+3,w
  3574  0AE8  00E0               	movwf	___fladd@a+3
  3575  0AE9  0827               	movf	?___flmul+2,w
  3576  0AEA  00DF               	movwf	___fladd@a+2
  3577  0AEB  0826               	movf	?___flmul+1,w
  3578  0AEC  00DE               	movwf	___fladd@a+1
  3579  0AED  0825               	movf	?___flmul,w
  3580  0AEE  00DD               	movwf	___fladd@a
  3581  0AEF  120A  158A  2578  120A  158A  	fcall	___fladd
  3582  0AF4  1283               	bcf	3,5	;RP0=0, select bank0
  3583  0AF5  1303               	bcf	3,6	;RP1=0, select bank0
  3584  0AF6  085C               	movf	?___fladd+3,w
  3585  0AF7  1683               	bsf	3,5	;RP0=1, select bank1
  3586  0AF8  1303               	bcf	3,6	;RP1=0, select bank1
  3587  0AF9  00B3               	movwf	(log@x+3)^(0+128)
  3588  0AFA  1283               	bcf	3,5	;RP0=0, select bank0
  3589  0AFB  1303               	bcf	3,6	;RP1=0, select bank0
  3590  0AFC  085B               	movf	?___fladd+2,w
  3591  0AFD  1683               	bsf	3,5	;RP0=1, select bank1
  3592  0AFE  1303               	bcf	3,6	;RP1=0, select bank1
  3593  0AFF  00B2               	movwf	(log@x+2)^(0+128)
  3594  0B00  1283               	bcf	3,5	;RP0=0, select bank0
  3595  0B01  1303               	bcf	3,6	;RP1=0, select bank0
  3596  0B02  085A               	movf	?___fladd+1,w
  3597  0B03  1683               	bsf	3,5	;RP0=1, select bank1
  3598  0B04  1303               	bcf	3,6	;RP1=0, select bank1
  3599  0B05  00B1               	movwf	(log@x+1)^(0+128)
  3600  0B06  1283               	bcf	3,5	;RP0=0, select bank0
  3601  0B07  1303               	bcf	3,6	;RP1=0, select bank0
  3602  0B08  0859               	movf	?___fladd,w
  3603  0B09  1683               	bsf	3,5	;RP0=1, select bank1
  3604  0B0A  1303               	bcf	3,6	;RP1=0, select bank1
  3605  0B0B  00B0               	movwf	log@x^(0+128)
  3606  0B0C                     l2870:
  3607  0B0C  30FF               	movlw	255
  3608  0B0D  07B4               	addwf	log@exponent^(0+128),f
  3609  0B0E  1803               	skipnc
  3610  0B0F  0AB5               	incf	(log@exponent+1)^(0+128),f
  3611  0B10  30FF               	movlw	255
  3612  0B11  07B5               	addwf	(log@exponent+1)^(0+128),f
  3613  0B12                     l2872:
  3614  0B12  0833               	movf	(log@x+3)^(0+128),w
  3615  0B13  00A3               	movwf	(eval_poly@x+3)^(0+128)
  3616  0B14  0832               	movf	(log@x+2)^(0+128),w
  3617  0B15  00A2               	movwf	(eval_poly@x+2)^(0+128)
  3618  0B16  0831               	movf	(log@x+1)^(0+128),w
  3619  0B17  00A1               	movwf	(eval_poly@x+1)^(0+128)
  3620  0B18  0830               	movf	log@x^(0+128),w
  3621  0B19  00A0               	movwf	eval_poly@x^(0+128)
  3622  0B1A  300B               	movlw	(low ((log@coeff-__stringbase)| (0+32768)))& (0+255)
  3623  0B1B  1283               	bcf	3,5	;RP0=0, select bank0
  3624  0B1C  1303               	bcf	3,6	;RP1=0, select bank0
  3625  0B1D  00ED               	movwf	??_log
  3626  0B1E  086D               	movf	??_log,w
  3627  0B1F  1683               	bsf	3,5	;RP0=1, select bank1
  3628  0B20  1303               	bcf	3,6	;RP1=0, select bank1
  3629  0B21  00A4               	movwf	eval_poly@d^(0+128)
  3630  0B22  3008               	movlw	8
  3631  0B23  00A5               	movwf	eval_poly@n^(0+128)
  3632  0B24  3000               	movlw	0
  3633  0B25  00A6               	movwf	(eval_poly@n^(0+128)+1)
  3634  0B26  160A  118A  2624  120A  158A  	fcall	_eval_poly
  3635  0B2B  1683               	bsf	3,5	;RP0=1, select bank1
  3636  0B2C  1303               	bcf	3,6	;RP1=0, select bank1
  3637  0B2D  0823               	movf	(?_eval_poly+3)^(0+128),w
  3638  0B2E  00B3               	movwf	(log@x+3)^(0+128)
  3639  0B2F  0822               	movf	(?_eval_poly+2)^(0+128),w
  3640  0B30  00B2               	movwf	(log@x+2)^(0+128)
  3641  0B31  0821               	movf	(?_eval_poly+1)^(0+128),w
  3642  0B32  00B1               	movwf	(log@x+1)^(0+128)
  3643  0B33  0820               	movf	?_eval_poly^(0+128),w
  3644  0B34  00B0               	movwf	log@x^(0+128)
  3645  0B35                     l2874:
  3646  0B35  0833               	movf	(log@x+3)^(0+128),w
  3647  0B36  1283               	bcf	3,5	;RP0=0, select bank0
  3648  0B37  1303               	bcf	3,6	;RP1=0, select bank0
  3649  0B38  00DC               	movwf	___fladd@b+3
  3650  0B39  1683               	bsf	3,5	;RP0=1, select bank1
  3651  0B3A  1303               	bcf	3,6	;RP1=0, select bank1
  3652  0B3B  0832               	movf	(log@x+2)^(0+128),w
  3653  0B3C  1283               	bcf	3,5	;RP0=0, select bank0
  3654  0B3D  1303               	bcf	3,6	;RP1=0, select bank0
  3655  0B3E  00DB               	movwf	___fladd@b+2
  3656  0B3F  1683               	bsf	3,5	;RP0=1, select bank1
  3657  0B40  1303               	bcf	3,6	;RP1=0, select bank1
  3658  0B41  0831               	movf	(log@x+1)^(0+128),w
  3659  0B42  1283               	bcf	3,5	;RP0=0, select bank0
  3660  0B43  1303               	bcf	3,6	;RP1=0, select bank0
  3661  0B44  00DA               	movwf	___fladd@b+1
  3662  0B45  1683               	bsf	3,5	;RP0=1, select bank1
  3663  0B46  1303               	bcf	3,6	;RP1=0, select bank1
  3664  0B47  0830               	movf	log@x^(0+128),w
  3665  0B48  1283               	bcf	3,5	;RP0=0, select bank0
  3666  0B49  1303               	bcf	3,6	;RP1=0, select bank0
  3667  0B4A  00D9               	movwf	___fladd@b
  3668  0B4B  303F               	movlw	63
  3669  0B4C  00A8               	movwf	___flmul@b+3
  3670  0B4D  3031               	movlw	49
  3671  0B4E  00A7               	movwf	___flmul@b+2
  3672  0B4F  3072               	movlw	114
  3673  0B50  00A6               	movwf	___flmul@b+1
  3674  0B51  3018               	movlw	24
  3675  0B52  00A5               	movwf	___flmul@b
  3676  0B53  1683               	bsf	3,5	;RP0=1, select bank1
  3677  0B54  1303               	bcf	3,6	;RP1=0, select bank1
  3678  0B55  0834               	movf	log@exponent^(0+128),w
  3679  0B56  00F0               	movwf	___xxtofl@val
  3680  0B57  0835               	movf	(log@exponent+1)^(0+128),w
  3681  0B58  00F1               	movwf	___xxtofl@val+1
  3682  0B59  3000               	movlw	0
  3683  0B5A  1BF1               	btfsc	___xxtofl@val+1,7
  3684  0B5B  30FF               	movlw	255
  3685  0B5C  00F2               	movwf	___xxtofl@val+2
  3686  0B5D  00F3               	movwf	___xxtofl@val+3
  3687  0B5E  3001               	movlw	1
  3688  0B5F  160A  118A  256A  120A  158A  	fcall	___xxtofl
  3689  0B64  0873               	movf	?___xxtofl+3,w
  3690  0B65  1283               	bcf	3,5	;RP0=0, select bank0
  3691  0B66  1303               	bcf	3,6	;RP1=0, select bank0
  3692  0B67  00AC               	movwf	___flmul@a+3
  3693  0B68  0872               	movf	?___xxtofl+2,w
  3694  0B69  00AB               	movwf	___flmul@a+2
  3695  0B6A  0871               	movf	?___xxtofl+1,w
  3696  0B6B  00AA               	movwf	___flmul@a+1
  3697  0B6C  0870               	movf	?___xxtofl,w
  3698  0B6D  00A9               	movwf	___flmul@a
  3699  0B6E  120A  118A  2056  120A  158A  	fcall	___flmul
  3700  0B73  1283               	bcf	3,5	;RP0=0, select bank0
  3701  0B74  1303               	bcf	3,6	;RP1=0, select bank0
  3702  0B75  0828               	movf	?___flmul+3,w
  3703  0B76  00E0               	movwf	___fladd@a+3
  3704  0B77  0827               	movf	?___flmul+2,w
  3705  0B78  00DF               	movwf	___fladd@a+2
  3706  0B79  0826               	movf	?___flmul+1,w
  3707  0B7A  00DE               	movwf	___fladd@a+1
  3708  0B7B  0825               	movf	?___flmul,w
  3709  0B7C  00DD               	movwf	___fladd@a
  3710  0B7D  120A  158A  2578  120A  158A  	fcall	___fladd
  3711  0B82  1283               	bcf	3,5	;RP0=0, select bank0
  3712  0B83  1303               	bcf	3,6	;RP1=0, select bank0
  3713  0B84  085C               	movf	?___fladd+3,w
  3714  0B85  1683               	bsf	3,5	;RP0=1, select bank1
  3715  0B86  1303               	bcf	3,6	;RP1=0, select bank1
  3716  0B87  00B3               	movwf	(?_log+3)^(0+128)
  3717  0B88  1283               	bcf	3,5	;RP0=0, select bank0
  3718  0B89  1303               	bcf	3,6	;RP1=0, select bank0
  3719  0B8A  085B               	movf	?___fladd+2,w
  3720  0B8B  1683               	bsf	3,5	;RP0=1, select bank1
  3721  0B8C  1303               	bcf	3,6	;RP1=0, select bank1
  3722  0B8D  00B2               	movwf	(?_log+2)^(0+128)
  3723  0B8E  1283               	bcf	3,5	;RP0=0, select bank0
  3724  0B8F  1303               	bcf	3,6	;RP1=0, select bank0
  3725  0B90  085A               	movf	?___fladd+1,w
  3726  0B91  1683               	bsf	3,5	;RP0=1, select bank1
  3727  0B92  1303               	bcf	3,6	;RP1=0, select bank1
  3728  0B93  00B1               	movwf	(?_log+1)^(0+128)
  3729  0B94  1283               	bcf	3,5	;RP0=0, select bank0
  3730  0B95  1303               	bcf	3,6	;RP1=0, select bank0
  3731  0B96  0859               	movf	?___fladd,w
  3732  0B97  1683               	bsf	3,5	;RP0=1, select bank1
  3733  0B98  1303               	bcf	3,6	;RP1=0, select bank1
  3734  0B99  00B0               	movwf	?_log^(0+128)
  3735  0B9A                     l871:
  3736  0B9A  0008               	return
  3737  0B9B                     __end_of_log:
  3738                           
  3739                           	psect	text6
  3740  13DA                     __ptext6:	
  3741 ;; *************** function _frexp *****************
  3742 ;; Defined at:
  3743 ;;		line 254 in file "C:\Program Files\Microchip\xc8\v2.36\pic\sources\c90\common\frexp.c"
  3744 ;; Parameters:    Size  Location     Type
  3745 ;;  value           4    0[BANK0 ] int 
  3746 ;;  eptr            1    4[BANK0 ] PTR int 
  3747 ;;		 -> log@exponent(2), 
  3748 ;; Auto vars:     Size  Location     Type
  3749 ;;		None
  3750 ;; Return value:  Size  Location     Type
  3751 ;;                  4    0[BANK0 ] PTR int 
  3752 ;; Registers used:
  3753 ;;		wreg, fsr0l, fsr0h, status,2, status,0, btemp+1, pclath, cstack
  3754 ;; Tracked objects:
  3755 ;;		On entry : 0/0
  3756 ;;		On exit  : 0/0
  3757 ;;		Unchanged: 0/0
  3758 ;; Data sizes:     COMMON   BANK0   BANK1   BANK3   BANK2
  3759 ;;      Params:         0       5       0       0       0
  3760 ;;      Locals:         0       0       0       0       0
  3761 ;;      Temps:          2       0       0       0       0
  3762 ;;      Totals:         2       5       0       0       0
  3763 ;;Total ram usage:        7 bytes
  3764 ;; Hardware stack levels used: 1
  3765 ;; Hardware stack levels required when called: 1
  3766 ;; This function calls:
  3767 ;;		___fleq
  3768 ;; This function is called by:
  3769 ;;		_log
  3770 ;; This function uses a non-reentrant model
  3771 ;;
  3772                           
  3773  13DA                     _frexp:	
  3774                           ;psect for function _frexp
  3775                           
  3776  13DA                     l2808:	
  3777                           ;incstack = 0
  3778                           ; Regs used in _frexp: [wreg-fsr0h+status,2+status,0+btemp+1+pclath+cstack]
  3779                           
  3780  13DA  1283               	bcf	3,5	;RP0=0, select bank0
  3781  13DB  1303               	bcf	3,6	;RP1=0, select bank0
  3782  13DC  0823               	movf	frexp@value+3,w
  3783  13DD  00F3               	movwf	___fleq@ff1+3
  3784  13DE  0822               	movf	frexp@value+2,w
  3785  13DF  00F2               	movwf	___fleq@ff1+2
  3786  13E0  0821               	movf	frexp@value+1,w
  3787  13E1  00F1               	movwf	___fleq@ff1+1
  3788  13E2  0820               	movf	frexp@value,w
  3789  13E3  00F0               	movwf	___fleq@ff1
  3790  13E4  3000               	movlw	0
  3791  13E5  00F7               	movwf	___fleq@ff2+3
  3792  13E6  3000               	movlw	0
  3793  13E7  00F6               	movwf	___fleq@ff2+2
  3794  13E8  3000               	movlw	0
  3795  13E9  00F5               	movwf	___fleq@ff2+1
  3796  13EA  3000               	movlw	0
  3797  13EB  00F4               	movwf	___fleq@ff2
  3798  13EC  160A  118A  233D  160A  118A  	fcall	___fleq
  3799  13F1  1C03               	btfss	3,0
  3800  13F2  2BF4               	goto	u3691
  3801  13F3  2BF5               	goto	u3690
  3802  13F4                     u3691:
  3803  13F4  2C06               	goto	l2816
  3804  13F5                     u3690:
  3805  13F5                     l2810:
  3806  13F5  1283               	bcf	3,5	;RP0=0, select bank0
  3807  13F6  1303               	bcf	3,6	;RP1=0, select bank0
  3808  13F7  0824               	movf	frexp@eptr,w
  3809  13F8  0084               	movwf	4
  3810  13F9  1383               	bcf	3,7	;select IRP bank0
  3811  13FA  0180               	clrf	0
  3812  13FB  0A84               	incf	4,f
  3813  13FC  0180               	clrf	0
  3814  13FD                     l2812:
  3815  13FD  3000               	movlw	0
  3816  13FE  00A3               	movwf	?_frexp+3
  3817  13FF  3000               	movlw	0
  3818  1400  00A2               	movwf	?_frexp+2
  3819  1401  3000               	movlw	0
  3820  1402  00A1               	movwf	?_frexp+1
  3821  1403  3000               	movlw	0
  3822  1404  00A0               	movwf	?_frexp
  3823  1405  2C35               	goto	l889
  3824  1406                     l2816:
  3825  1406  1283               	bcf	3,5	;RP0=0, select bank0
  3826  1407  1303               	bcf	3,6	;RP1=0, select bank0
  3827  1408  0823               	movf	frexp@value+3,w
  3828  1409  397F               	andlw	127
  3829  140A  00FC               	movwf	??_frexp
  3830  140B  01FD               	clrf	??_frexp+1
  3831  140C  1003               	clrc
  3832  140D  0DFC               	rlf	??_frexp,f
  3833  140E  0DFD               	rlf	??_frexp+1,f
  3834  140F  0824               	movf	frexp@eptr,w
  3835  1410  0084               	movwf	4
  3836  1411  087C               	movf	??_frexp,w
  3837  1412  1383               	bcf	3,7	;select IRP bank0
  3838  1413  0080               	movwf	0
  3839  1414  0A84               	incf	4,f
  3840  1415  087D               	movf	??_frexp+1,w
  3841  1416  0080               	movwf	0
  3842  1417  0D22               	rlf	frexp@value+2,w
  3843  1418  0D22               	rlf	frexp@value+2,w
  3844  1419  3901               	andlw	1
  3845  141A  00FC               	movwf	??_frexp
  3846  141B  01FD               	clrf	??_frexp+1
  3847  141C  0824               	movf	frexp@eptr,w
  3848  141D  0084               	movwf	4
  3849  141E  087C               	movf	??_frexp,w
  3850  141F  0480               	iorwf	0,f
  3851  1420  0A84               	incf	4,f
  3852  1421  087D               	movf	??_frexp+1,w
  3853  1422  0480               	iorwf	0,f
  3854  1423                     l2818:
  3855  1423  0824               	movf	frexp@eptr,w
  3856  1424  0084               	movwf	4
  3857  1425  3082               	movlw	130
  3858  1426  0780               	addwf	0,f
  3859  1427  0F84               	incfsz	4,f
  3860  1428  0800               	movf	0,w
  3861  1429  1803               	skipnc
  3862  142A  0A00               	incf	0,w
  3863  142B  00FF               	movwf	btemp+1
  3864  142C  30FF               	movlw	255
  3865  142D  077F               	addwf	btemp+1,w
  3866  142E  0080               	movwf	0
  3867  142F  0384               	decf	4,f
  3868  1430                     l2820:
  3869  1430  0823               	movf	frexp@value+3,w
  3870  1431  3980               	andlw	-128
  3871  1432  383F               	iorlw	63
  3872  1433  00A3               	movwf	frexp@value+3
  3873  1434                     l2822:
  3874  1434  13A2               	bcf	frexp@value+2,7
  3875  1435                     l2824:
  3876  1435                     l889:
  3877  1435  0008               	return
  3878  1436                     __end_of_frexp:
  3879                           
  3880                           	psect	text7
  3881  133D                     __ptext7:	
  3882 ;; *************** function ___fleq *****************
  3883 ;; Defined at:
  3884 ;;		line 4 in file "C:\Program Files\Microchip\xc8\v2.36\pic\sources\c90\common\fleq.c"
  3885 ;; Parameters:    Size  Location     Type
  3886 ;;  ff1             4    0[COMMON] PTR int 
  3887 ;;  ff2             4    4[COMMON] PTR int 
  3888 ;; Auto vars:     Size  Location     Type
  3889 ;;		None
  3890 ;; Return value:  Size  Location     Type
  3891 ;;		None               void
  3892 ;; Registers used:
  3893 ;;		wreg, status,2, status,0
  3894 ;; Tracked objects:
  3895 ;;		On entry : 0/0
  3896 ;;		On exit  : 0/0
  3897 ;;		Unchanged: 0/0
  3898 ;; Data sizes:     COMMON   BANK0   BANK1   BANK3   BANK2
  3899 ;;      Params:         8       0       0       0       0
  3900 ;;      Locals:         0       0       0       0       0
  3901 ;;      Temps:          4       0       0       0       0
  3902 ;;      Totals:        12       0       0       0       0
  3903 ;;Total ram usage:       12 bytes
  3904 ;; Hardware stack levels used: 1
  3905 ;; This function calls:
  3906 ;;		Nothing
  3907 ;; This function is called by:
  3908 ;;		_log
  3909 ;;		_frexp
  3910 ;; This function uses a non-reentrant model
  3911 ;;
  3912                           
  3913  133D                     ___fleq:	
  3914                           ;psect for function ___fleq
  3915                           
  3916  133D                     l2322:	
  3917                           ;incstack = 0
  3918                           ; Regs used in ___fleq: [wreg+status,2+status,0]
  3919                           
  3920  133D  3000               	movlw	0
  3921  133E  0570               	andwf	___fleq@ff1,w
  3922  133F  00F8               	movwf	??___fleq
  3923  1340  3000               	movlw	0
  3924  1341  0571               	andwf	___fleq@ff1+1,w
  3925  1342  00F9               	movwf	??___fleq+1
  3926  1343  3080               	movlw	128
  3927  1344  0572               	andwf	___fleq@ff1+2,w
  3928  1345  00FA               	movwf	??___fleq+2
  3929  1346  307F               	movlw	127
  3930  1347  0573               	andwf	___fleq@ff1+3,w
  3931  1348  00FB               	movwf	??___fleq+3
  3932  1349  087B               	movf	??___fleq+3,w
  3933  134A  047A               	iorwf	??___fleq+2,w
  3934  134B  0479               	iorwf	??___fleq+1,w
  3935  134C  0478               	iorwf	??___fleq,w
  3936  134D  1D03               	skipz
  3937  134E  2B50               	goto	u2471
  3938  134F  2B51               	goto	u2470
  3939  1350                     u2471:
  3940  1350  2B59               	goto	l580
  3941  1351                     u2470:
  3942  1351                     l2324:
  3943  1351  3000               	movlw	0
  3944  1352  00F3               	movwf	___fleq@ff1+3
  3945  1353  3000               	movlw	0
  3946  1354  00F2               	movwf	___fleq@ff1+2
  3947  1355  3000               	movlw	0
  3948  1356  00F1               	movwf	___fleq@ff1+1
  3949  1357  3000               	movlw	0
  3950  1358  00F0               	movwf	___fleq@ff1
  3951  1359                     l580:
  3952  1359  3000               	movlw	0
  3953  135A  0574               	andwf	___fleq@ff2,w
  3954  135B  00F8               	movwf	??___fleq
  3955  135C  3000               	movlw	0
  3956  135D  0575               	andwf	___fleq@ff2+1,w
  3957  135E  00F9               	movwf	??___fleq+1
  3958  135F  3080               	movlw	128
  3959  1360  0576               	andwf	___fleq@ff2+2,w
  3960  1361  00FA               	movwf	??___fleq+2
  3961  1362  307F               	movlw	127
  3962  1363  0577               	andwf	___fleq@ff2+3,w
  3963  1364  00FB               	movwf	??___fleq+3
  3964  1365  087B               	movf	??___fleq+3,w
  3965  1366  047A               	iorwf	??___fleq+2,w
  3966  1367  0479               	iorwf	??___fleq+1,w
  3967  1368  0478               	iorwf	??___fleq,w
  3968  1369  1D03               	skipz
  3969  136A  2B6C               	goto	u2481
  3970  136B  2B6D               	goto	u2480
  3971  136C                     u2481:
  3972  136C  2B75               	goto	l581
  3973  136D                     u2480:
  3974  136D                     l2326:
  3975  136D  3000               	movlw	0
  3976  136E  00F7               	movwf	___fleq@ff2+3
  3977  136F  3000               	movlw	0
  3978  1370  00F6               	movwf	___fleq@ff2+2
  3979  1371  3000               	movlw	0
  3980  1372  00F5               	movwf	___fleq@ff2+1
  3981  1373  3000               	movlw	0
  3982  1374  00F4               	movwf	___fleq@ff2
  3983  1375                     l581:
  3984  1375  0877               	movf	___fleq@ff2+3,w
  3985  1376  0673               	xorwf	___fleq@ff1+3,w
  3986  1377  1D03               	skipz
  3987  1378  2B83               	goto	u2495
  3988  1379  0876               	movf	___fleq@ff2+2,w
  3989  137A  0672               	xorwf	___fleq@ff1+2,w
  3990  137B  1D03               	skipz
  3991  137C  2B83               	goto	u2495
  3992  137D  0875               	movf	___fleq@ff2+1,w
  3993  137E  0671               	xorwf	___fleq@ff1+1,w
  3994  137F  1D03               	skipz
  3995  1380  2B83               	goto	u2495
  3996  1381  0874               	movf	___fleq@ff2,w
  3997  1382  0670               	xorwf	___fleq@ff1,w
  3998  1383                     u2495:
  3999  1383  1903               	skipnz
  4000  1384  2B86               	goto	u2491
  4001  1385  2B87               	goto	u2490
  4002  1386                     u2491:
  4003  1386  2B89               	goto	l2330
  4004  1387                     u2490:
  4005  1387                     l2328:
  4006  1387  1003               	clrc
  4007  1388  2B8A               	goto	l582
  4008  1389                     l2330:
  4009  1389  1403               	setc
  4010  138A                     l582:
  4011  138A  0008               	return
  4012  138B                     __end_of___fleq:
  4013                           
  4014                           	psect	text8
  4015  1624                     __ptext8:	
  4016 ;; *************** function _eval_poly *****************
  4017 ;; Defined at:
  4018 ;;		line 4 in file "C:\Program Files\Microchip\xc8\v2.36\pic\sources\c90\common\evalpoly.c"
  4019 ;; Parameters:    Size  Location     Type
  4020 ;;  x               4    0[BANK1 ] PTR int 
  4021 ;;  d               1    4[BANK1 ] PTR const 
  4022 ;;		 -> log@coeff(36), 
  4023 ;;  n               2    5[BANK1 ] int 
  4024 ;; Auto vars:     Size  Location     Type
  4025 ;;  res             4   12[BANK1 ] int 
  4026 ;; Return value:  Size  Location     Type
  4027 ;;                  4    0[BANK1 ] int 
  4028 ;; Registers used:
  4029 ;;		wreg, fsr0l, fsr0h, status,2, status,0, btemp+1, pclath, cstack
  4030 ;; Tracked objects:
  4031 ;;		On entry : 0/0
  4032 ;;		On exit  : 0/0
  4033 ;;		Unchanged: 0/0
  4034 ;; Data sizes:     COMMON   BANK0   BANK1   BANK3   BANK2
  4035 ;;      Params:         0       0       7       0       0
  4036 ;;      Locals:         0       0       4       0       0
  4037 ;;      Temps:          0       0       5       0       0
  4038 ;;      Totals:         0       0      16       0       0
  4039 ;;Total ram usage:       16 bytes
  4040 ;; Hardware stack levels used: 1
  4041 ;; Hardware stack levels required when called: 2
  4042 ;; This function calls:
  4043 ;;		___fladd
  4044 ;;		___flmul
  4045 ;; This function is called by:
  4046 ;;		_log
  4047 ;; This function uses a non-reentrant model
  4048 ;;
  4049                           
  4050  1624                     _eval_poly:	
  4051                           ;psect for function _eval_poly
  4052                           
  4053  1624                     l2828:	
  4054                           ;incstack = 0
  4055                           ; Regs used in _eval_poly: [wreg-fsr0h+status,2+status,0+btemp+1+pclath+cstack]
  4056                           
  4057  1624  1683               	bsf	3,5	;RP0=1, select bank1
  4058  1625  1303               	bcf	3,6	;RP1=0, select bank1
  4059  1626  0825               	movf	eval_poly@n^(0+128),w
  4060  1627  00A7               	movwf	??_eval_poly^(0+128)
  4061  1628  3001               	movlw	1
  4062  1629                     u3705:
  4063  1629  1003               	clrc
  4064  162A  0DA7               	rlf	??_eval_poly^(0+128),f
  4065  162B  3EFF               	addlw	-1
  4066  162C  1D03               	skipz
  4067  162D  2E29               	goto	u3705
  4068  162E  1003               	clrc
  4069  162F  0D27               	rlf	??_eval_poly^(0+128),w
  4070  1630  0724               	addwf	eval_poly@d^(0+128),w
  4071  1631  0084               	movwf	4
  4072  1632  160A  118A  200A  160A  118A  	fcall	stringdir
  4073  1637  00A8               	movwf	(??_eval_poly+1)^(0+128)
  4074  1638  160A  118A  200A  160A  118A  	fcall	stringdir
  4075  163D  00A9               	movwf	((??_eval_poly+1)^(0+128)+1)
  4076  163E  160A  118A  200A  160A  118A  	fcall	stringdir
  4077  1643  00AA               	movwf	((??_eval_poly+1)^(0+128)+2)
  4078  1644  160A  118A  200A  160A  118A  	fcall	stringdir
  4079  1649  00AB               	movwf	((??_eval_poly+1)^(0+128)+3)
  4080  164A  082B               	movf	(??_eval_poly+4)^(0+128),w
  4081  164B  00AF               	movwf	(eval_poly@res+3)^(0+128)
  4082  164C  082A               	movf	(??_eval_poly+3)^(0+128),w
  4083  164D  00AE               	movwf	(eval_poly@res+2)^(0+128)
  4084  164E  0829               	movf	(??_eval_poly+2)^(0+128),w
  4085  164F  00AD               	movwf	(eval_poly@res+1)^(0+128)
  4086  1650  0828               	movf	(??_eval_poly+1)^(0+128),w
  4087  1651  00AC               	movwf	eval_poly@res^(0+128)
  4088  1652  2EEF               	goto	l2832
  4089  1653                     l2830:
  4090  1653  30FF               	movlw	255
  4091  1654  07A5               	addwf	eval_poly@n^(0+128),f
  4092  1655  1803               	skipnc
  4093  1656  0AA6               	incf	(eval_poly@n+1)^(0+128),f
  4094  1657  30FF               	movlw	255
  4095  1658  07A6               	addwf	(eval_poly@n+1)^(0+128),f
  4096  1659  0825               	movf	eval_poly@n^(0+128),w
  4097  165A  00A7               	movwf	??_eval_poly^(0+128)
  4098  165B  3001               	movlw	1
  4099  165C                     u3715:
  4100  165C  1003               	clrc
  4101  165D  0DA7               	rlf	??_eval_poly^(0+128),f
  4102  165E  3EFF               	addlw	-1
  4103  165F  1D03               	skipz
  4104  1660  2E5C               	goto	u3715
  4105  1661  1003               	clrc
  4106  1662  0D27               	rlf	??_eval_poly^(0+128),w
  4107  1663  0724               	addwf	eval_poly@d^(0+128),w
  4108  1664  0084               	movwf	4
  4109  1665  160A  118A  200A  160A  118A  	fcall	stringdir
  4110  166A  00A8               	movwf	(??_eval_poly+1)^(0+128)
  4111  166B  160A  118A  200A  160A  118A  	fcall	stringdir
  4112  1670  00A9               	movwf	((??_eval_poly+1)^(0+128)+1)
  4113  1671  160A  118A  200A  160A  118A  	fcall	stringdir
  4114  1676  00AA               	movwf	((??_eval_poly+1)^(0+128)+2)
  4115  1677  160A  118A  200A  160A  118A  	fcall	stringdir
  4116  167C  00AB               	movwf	((??_eval_poly+1)^(0+128)+3)
  4117  167D  082B               	movf	(??_eval_poly+4)^(0+128),w
  4118  167E  1283               	bcf	3,5	;RP0=0, select bank0
  4119  167F  1303               	bcf	3,6	;RP1=0, select bank0
  4120  1680  00DC               	movwf	___fladd@b+3
  4121  1681  1683               	bsf	3,5	;RP0=1, select bank1
  4122  1682  1303               	bcf	3,6	;RP1=0, select bank1
  4123  1683  082A               	movf	(??_eval_poly+3)^(0+128),w
  4124  1684  1283               	bcf	3,5	;RP0=0, select bank0
  4125  1685  1303               	bcf	3,6	;RP1=0, select bank0
  4126  1686  00DB               	movwf	___fladd@b+2
  4127  1687  1683               	bsf	3,5	;RP0=1, select bank1
  4128  1688  1303               	bcf	3,6	;RP1=0, select bank1
  4129  1689  0829               	movf	(??_eval_poly+2)^(0+128),w
  4130  168A  1283               	bcf	3,5	;RP0=0, select bank0
  4131  168B  1303               	bcf	3,6	;RP1=0, select bank0
  4132  168C  00DA               	movwf	___fladd@b+1
  4133  168D  1683               	bsf	3,5	;RP0=1, select bank1
  4134  168E  1303               	bcf	3,6	;RP1=0, select bank1
  4135  168F  0828               	movf	(??_eval_poly+1)^(0+128),w
  4136  1690  1283               	bcf	3,5	;RP0=0, select bank0
  4137  1691  1303               	bcf	3,6	;RP1=0, select bank0
  4138  1692  00D9               	movwf	___fladd@b
  4139  1693  1683               	bsf	3,5	;RP0=1, select bank1
  4140  1694  1303               	bcf	3,6	;RP1=0, select bank1
  4141  1695  082F               	movf	(eval_poly@res+3)^(0+128),w
  4142  1696  1283               	bcf	3,5	;RP0=0, select bank0
  4143  1697  1303               	bcf	3,6	;RP1=0, select bank0
  4144  1698  00A8               	movwf	___flmul@b+3
  4145  1699  1683               	bsf	3,5	;RP0=1, select bank1
  4146  169A  1303               	bcf	3,6	;RP1=0, select bank1
  4147  169B  082E               	movf	(eval_poly@res+2)^(0+128),w
  4148  169C  1283               	bcf	3,5	;RP0=0, select bank0
  4149  169D  1303               	bcf	3,6	;RP1=0, select bank0
  4150  169E  00A7               	movwf	___flmul@b+2
  4151  169F  1683               	bsf	3,5	;RP0=1, select bank1
  4152  16A0  1303               	bcf	3,6	;RP1=0, select bank1
  4153  16A1  082D               	movf	(eval_poly@res+1)^(0+128),w
  4154  16A2  1283               	bcf	3,5	;RP0=0, select bank0
  4155  16A3  1303               	bcf	3,6	;RP1=0, select bank0
  4156  16A4  00A6               	movwf	___flmul@b+1
  4157  16A5  1683               	bsf	3,5	;RP0=1, select bank1
  4158  16A6  1303               	bcf	3,6	;RP1=0, select bank1
  4159  16A7  082C               	movf	eval_poly@res^(0+128),w
  4160  16A8  1283               	bcf	3,5	;RP0=0, select bank0
  4161  16A9  1303               	bcf	3,6	;RP1=0, select bank0
  4162  16AA  00A5               	movwf	___flmul@b
  4163  16AB  1683               	bsf	3,5	;RP0=1, select bank1
  4164  16AC  1303               	bcf	3,6	;RP1=0, select bank1
  4165  16AD  0823               	movf	(eval_poly@x+3)^(0+128),w
  4166  16AE  1283               	bcf	3,5	;RP0=0, select bank0
  4167  16AF  1303               	bcf	3,6	;RP1=0, select bank0
  4168  16B0  00AC               	movwf	___flmul@a+3
  4169  16B1  1683               	bsf	3,5	;RP0=1, select bank1
  4170  16B2  1303               	bcf	3,6	;RP1=0, select bank1
  4171  16B3  0822               	movf	(eval_poly@x+2)^(0+128),w
  4172  16B4  1283               	bcf	3,5	;RP0=0, select bank0
  4173  16B5  1303               	bcf	3,6	;RP1=0, select bank0
  4174  16B6  00AB               	movwf	___flmul@a+2
  4175  16B7  1683               	bsf	3,5	;RP0=1, select bank1
  4176  16B8  1303               	bcf	3,6	;RP1=0, select bank1
  4177  16B9  0821               	movf	(eval_poly@x+1)^(0+128),w
  4178  16BA  1283               	bcf	3,5	;RP0=0, select bank0
  4179  16BB  1303               	bcf	3,6	;RP1=0, select bank0
  4180  16BC  00AA               	movwf	___flmul@a+1
  4181  16BD  1683               	bsf	3,5	;RP0=1, select bank1
  4182  16BE  1303               	bcf	3,6	;RP1=0, select bank1
  4183  16BF  0820               	movf	eval_poly@x^(0+128),w
  4184  16C0  1283               	bcf	3,5	;RP0=0, select bank0
  4185  16C1  1303               	bcf	3,6	;RP1=0, select bank0
  4186  16C2  00A9               	movwf	___flmul@a
  4187  16C3  120A  118A  2056  160A  118A  	fcall	___flmul
  4188  16C8  1283               	bcf	3,5	;RP0=0, select bank0
  4189  16C9  1303               	bcf	3,6	;RP1=0, select bank0
  4190  16CA  0828               	movf	?___flmul+3,w
  4191  16CB  00E0               	movwf	___fladd@a+3
  4192  16CC  0827               	movf	?___flmul+2,w
  4193  16CD  00DF               	movwf	___fladd@a+2
  4194  16CE  0826               	movf	?___flmul+1,w
  4195  16CF  00DE               	movwf	___fladd@a+1
  4196  16D0  0825               	movf	?___flmul,w
  4197  16D1  00DD               	movwf	___fladd@a
  4198  16D2  120A  158A  2578  160A  118A  	fcall	___fladd
  4199  16D7  1283               	bcf	3,5	;RP0=0, select bank0
  4200  16D8  1303               	bcf	3,6	;RP1=0, select bank0
  4201  16D9  085C               	movf	?___fladd+3,w
  4202  16DA  1683               	bsf	3,5	;RP0=1, select bank1
  4203  16DB  1303               	bcf	3,6	;RP1=0, select bank1
  4204  16DC  00AF               	movwf	(eval_poly@res+3)^(0+128)
  4205  16DD  1283               	bcf	3,5	;RP0=0, select bank0
  4206  16DE  1303               	bcf	3,6	;RP1=0, select bank0
  4207  16DF  085B               	movf	?___fladd+2,w
  4208  16E0  1683               	bsf	3,5	;RP0=1, select bank1
  4209  16E1  1303               	bcf	3,6	;RP1=0, select bank1
  4210  16E2  00AE               	movwf	(eval_poly@res+2)^(0+128)
  4211  16E3  1283               	bcf	3,5	;RP0=0, select bank0
  4212  16E4  1303               	bcf	3,6	;RP1=0, select bank0
  4213  16E5  085A               	movf	?___fladd+1,w
  4214  16E6  1683               	bsf	3,5	;RP0=1, select bank1
  4215  16E7  1303               	bcf	3,6	;RP1=0, select bank1
  4216  16E8  00AD               	movwf	(eval_poly@res+1)^(0+128)
  4217  16E9  1283               	bcf	3,5	;RP0=0, select bank0
  4218  16EA  1303               	bcf	3,6	;RP1=0, select bank0
  4219  16EB  0859               	movf	?___fladd,w
  4220  16EC  1683               	bsf	3,5	;RP0=1, select bank1
  4221  16ED  1303               	bcf	3,6	;RP1=0, select bank1
  4222  16EE  00AC               	movwf	eval_poly@res^(0+128)
  4223  16EF                     l2832:
  4224  16EF  0825               	movf	eval_poly@n^(0+128),w
  4225  16F0  0426               	iorwf	(eval_poly@n+1)^(0+128),w
  4226  16F1  1D03               	btfss	3,2
  4227  16F2  2EF4               	goto	u3721
  4228  16F3  2EF5               	goto	u3720
  4229  16F4                     u3721:
  4230  16F4  2E53               	goto	l2830
  4231  16F5                     u3720:
  4232  16F5                     l2834:
  4233  16F5  082F               	movf	(eval_poly@res+3)^(0+128),w
  4234  16F6  00A3               	movwf	(?_eval_poly+3)^(0+128)
  4235  16F7  082E               	movf	(eval_poly@res+2)^(0+128),w
  4236  16F8  00A2               	movwf	(?_eval_poly+2)^(0+128)
  4237  16F9  082D               	movf	(eval_poly@res+1)^(0+128),w
  4238  16FA  00A1               	movwf	(?_eval_poly+1)^(0+128)
  4239  16FB  082C               	movf	eval_poly@res^(0+128),w
  4240  16FC  00A0               	movwf	?_eval_poly^(0+128)
  4241  16FD                     l883:
  4242  16FD  0008               	return
  4243  16FE                     __end_of_eval_poly:
  4244                           
  4245                           	psect	text9
  4246  0056                     __ptext9:	
  4247 ;; *************** function ___flmul *****************
  4248 ;; Defined at:
  4249 ;;		line 8 in file "C:\Program Files\Microchip\xc8\v2.36\pic\sources\c90\common\sprcmul.c"
  4250 ;; Parameters:    Size  Location     Type
  4251 ;;  b               4    5[BANK0 ] int 
  4252 ;;  a               4    9[BANK0 ] int 
  4253 ;; Auto vars:     Size  Location     Type
  4254 ;;  prod            4   25[BANK0 ] struct .
  4255 ;;  grs             4   19[BANK0 ] unsigned long 
  4256 ;;  temp            2   29[BANK0 ] struct .
  4257 ;;  bexp            1   24[BANK0 ] unsigned char 
  4258 ;;  aexp            1   23[BANK0 ] unsigned char 
  4259 ;;  sign            1   18[BANK0 ] unsigned char 
  4260 ;; Return value:  Size  Location     Type
  4261 ;;                  4    5[BANK0 ] unsigned char 
  4262 ;; Registers used:
  4263 ;;		wreg, status,2, status,0, btemp+1, pclath, cstack
  4264 ;; Tracked objects:
  4265 ;;		On entry : 0/0
  4266 ;;		On exit  : 0/0
  4267 ;;		Unchanged: 0/0
  4268 ;; Data sizes:     COMMON   BANK0   BANK1   BANK3   BANK2
  4269 ;;      Params:         0       8       0       0       0
  4270 ;;      Locals:         0      13       0       0       0
  4271 ;;      Temps:          0       5       0       0       0
  4272 ;;      Totals:         0      26       0       0       0
  4273 ;;Total ram usage:       26 bytes
  4274 ;; Hardware stack levels used: 1
  4275 ;; Hardware stack levels required when called: 1
  4276 ;; This function calls:
  4277 ;;		__Umul8_16
  4278 ;; This function is called by:
  4279 ;;		_log
  4280 ;;		_eval_poly
  4281 ;; This function uses a non-reentrant model
  4282 ;;
  4283                           
  4284  0056                     ___flmul:	
  4285                           ;psect for function ___flmul
  4286                           
  4287  0056                     l2528:	
  4288                           ;incstack = 0
  4289                           ; Regs used in ___flmul: [wreg+status,2+status,0+btemp+1+pclath+cstack]
  4290                           
  4291  0056  1283               	bcf	3,5	;RP0=0, select bank0
  4292  0057  1303               	bcf	3,6	;RP1=0, select bank0
  4293  0058  0828               	movf	___flmul@b+3,w
  4294  0059  3980               	andlw	128
  4295  005A  00AD               	movwf	??___flmul
  4296  005B  082D               	movf	??___flmul,w
  4297  005C  00B2               	movwf	___flmul@sign
  4298  005D                     l2530:
  4299  005D  0828               	movf	___flmul@b+3,w
  4300  005E  00AD               	movwf	??___flmul
  4301  005F  072D               	addwf	??___flmul,w
  4302  0060  00AE               	movwf	??___flmul+1
  4303  0061  082E               	movf	??___flmul+1,w
  4304  0062  00B8               	movwf	___flmul@bexp
  4305  0063                     l2532:
  4306  0063  1FA7               	btfss	___flmul@b+2,7
  4307  0064  2866               	goto	u2961
  4308  0065  2867               	goto	u2960
  4309  0066                     u2961:
  4310  0066  2868               	goto	l2536
  4311  0067                     u2960:
  4312  0067                     l2534:
  4313  0067  1438               	bsf	___flmul@bexp,0
  4314  0068                     l2536:
  4315  0068  0838               	movf	___flmul@bexp,w
  4316  0069  1903               	btfsc	3,2
  4317  006A  286C               	goto	u2971
  4318  006B  286D               	goto	u2970
  4319  006C                     u2971:
  4320  006C  287C               	goto	l2544
  4321  006D                     u2970:
  4322  006D                     l2538:
  4323  006D  0A38               	incf	___flmul@bexp,w
  4324  006E  1D03               	btfss	3,2
  4325  006F  2871               	goto	u2981
  4326  0070  2872               	goto	u2980
  4327  0071                     u2981:
  4328  0071  287A               	goto	l2542
  4329  0072                     u2980:
  4330  0072                     l2540:
  4331  0072  3000               	movlw	0
  4332  0073  00A8               	movwf	___flmul@b+3
  4333  0074  3000               	movlw	0
  4334  0075  00A7               	movwf	___flmul@b+2
  4335  0076  3000               	movlw	0
  4336  0077  00A6               	movwf	___flmul@b+1
  4337  0078  3000               	movlw	0
  4338  0079  00A5               	movwf	___flmul@b
  4339  007A                     l2542:
  4340  007A  17A7               	bsf	___flmul@b+2,7
  4341  007B  2884               	goto	l2546
  4342  007C                     l2544:
  4343  007C  3000               	movlw	0
  4344  007D  00A8               	movwf	___flmul@b+3
  4345  007E  3000               	movlw	0
  4346  007F  00A7               	movwf	___flmul@b+2
  4347  0080  3000               	movlw	0
  4348  0081  00A6               	movwf	___flmul@b+1
  4349  0082  3000               	movlw	0
  4350  0083  00A5               	movwf	___flmul@b
  4351  0084                     l2546:
  4352  0084  082C               	movf	___flmul@a+3,w
  4353  0085  3980               	andlw	128
  4354  0086  00AD               	movwf	??___flmul
  4355  0087  082D               	movf	??___flmul,w
  4356  0088  06B2               	xorwf	___flmul@sign,f
  4357  0089                     l2548:
  4358  0089  082C               	movf	___flmul@a+3,w
  4359  008A  00AD               	movwf	??___flmul
  4360  008B  072D               	addwf	??___flmul,w
  4361  008C  00AE               	movwf	??___flmul+1
  4362  008D  082E               	movf	??___flmul+1,w
  4363  008E  00B7               	movwf	___flmul@aexp
  4364  008F                     l2550:
  4365  008F  1FAB               	btfss	___flmul@a+2,7
  4366  0090  2892               	goto	u2991
  4367  0091  2893               	goto	u2990
  4368  0092                     u2991:
  4369  0092  2894               	goto	l2554
  4370  0093                     u2990:
  4371  0093                     l2552:
  4372  0093  1437               	bsf	___flmul@aexp,0
  4373  0094                     l2554:
  4374  0094  0837               	movf	___flmul@aexp,w
  4375  0095  1903               	btfsc	3,2
  4376  0096  2898               	goto	u3001
  4377  0097  2899               	goto	u3000
  4378  0098                     u3001:
  4379  0098  28A8               	goto	l2562
  4380  0099                     u3000:
  4381  0099                     l2556:
  4382  0099  0A37               	incf	___flmul@aexp,w
  4383  009A  1D03               	btfss	3,2
  4384  009B  289D               	goto	u3011
  4385  009C  289E               	goto	u3010
  4386  009D                     u3011:
  4387  009D  28A6               	goto	l2560
  4388  009E                     u3010:
  4389  009E                     l2558:
  4390  009E  3000               	movlw	0
  4391  009F  00AC               	movwf	___flmul@a+3
  4392  00A0  3000               	movlw	0
  4393  00A1  00AB               	movwf	___flmul@a+2
  4394  00A2  3000               	movlw	0
  4395  00A3  00AA               	movwf	___flmul@a+1
  4396  00A4  3000               	movlw	0
  4397  00A5  00A9               	movwf	___flmul@a
  4398  00A6                     l2560:
  4399  00A6  17AB               	bsf	___flmul@a+2,7
  4400  00A7  28B0               	goto	l2564
  4401  00A8                     l2562:
  4402  00A8  3000               	movlw	0
  4403  00A9  00AC               	movwf	___flmul@a+3
  4404  00AA  3000               	movlw	0
  4405  00AB  00AB               	movwf	___flmul@a+2
  4406  00AC  3000               	movlw	0
  4407  00AD  00AA               	movwf	___flmul@a+1
  4408  00AE  3000               	movlw	0
  4409  00AF  00A9               	movwf	___flmul@a
  4410  00B0                     l2564:
  4411  00B0  0837               	movf	___flmul@aexp,w
  4412  00B1  1903               	btfsc	3,2
  4413  00B2  28B4               	goto	u3021
  4414  00B3  28B5               	goto	u3020
  4415  00B4                     u3021:
  4416  00B4  28BA               	goto	l2568
  4417  00B5                     u3020:
  4418  00B5                     l2566:
  4419  00B5  0838               	movf	___flmul@bexp,w
  4420  00B6  1D03               	btfss	3,2
  4421  00B7  28B9               	goto	u3031
  4422  00B8  28BA               	goto	u3030
  4423  00B9                     u3031:
  4424  00B9  28C3               	goto	l2572
  4425  00BA                     u3030:
  4426  00BA                     l2568:
  4427  00BA  3000               	movlw	0
  4428  00BB  00A8               	movwf	?___flmul+3
  4429  00BC  3000               	movlw	0
  4430  00BD  00A7               	movwf	?___flmul+2
  4431  00BE  3000               	movlw	0
  4432  00BF  00A6               	movwf	?___flmul+1
  4433  00C0  3000               	movlw	0
  4434  00C1  00A5               	movwf	?___flmul
  4435  00C2  2BB6               	goto	l800
  4436  00C3                     l2572:
  4437  00C3  0825               	movf	___flmul@b,w
  4438  00C4  00AD               	movwf	??___flmul
  4439  00C5  082D               	movf	??___flmul,w
  4440  00C6  00F0               	movwf	__Umul8_16@multiplicand
  4441  00C7  082B               	movf	___flmul@a+2,w
  4442  00C8  160A  118A  221A  120A  118A  	fcall	__Umul8_16
  4443  00CD  0871               	movf	?__Umul8_16+1,w
  4444  00CE  1283               	bcf	3,5	;RP0=0, select bank0
  4445  00CF  1303               	bcf	3,6	;RP1=0, select bank0
  4446  00D0  00BE               	movwf	___flmul@temp+1
  4447  00D1  0870               	movf	?__Umul8_16,w
  4448  00D2  00BD               	movwf	___flmul@temp
  4449  00D3                     l2574:
  4450  00D3  083D               	movf	___flmul@temp,w
  4451  00D4  00AD               	movwf	??___flmul
  4452  00D5  01AE               	clrf	??___flmul+1
  4453  00D6  01AF               	clrf	??___flmul+2
  4454  00D7  01B0               	clrf	??___flmul+3
  4455  00D8  0830               	movf	??___flmul+3,w
  4456  00D9  00B6               	movwf	___flmul@grs+3
  4457  00DA  082F               	movf	??___flmul+2,w
  4458  00DB  00B5               	movwf	___flmul@grs+2
  4459  00DC  082E               	movf	??___flmul+1,w
  4460  00DD  00B4               	movwf	___flmul@grs+1
  4461  00DE  082D               	movf	??___flmul,w
  4462  00DF  00B3               	movwf	___flmul@grs
  4463  00E0                     l2576:
  4464  00E0  083E               	movf	___flmul@temp+1,w
  4465  00E1  00AD               	movwf	??___flmul
  4466  00E2  01AE               	clrf	??___flmul+1
  4467  00E3  01AF               	clrf	??___flmul+2
  4468  00E4  01B0               	clrf	??___flmul+3
  4469  00E5  0830               	movf	??___flmul+3,w
  4470  00E6  00BC               	movwf	___flmul@prod+3
  4471  00E7  082F               	movf	??___flmul+2,w
  4472  00E8  00BB               	movwf	___flmul@prod+2
  4473  00E9  082E               	movf	??___flmul+1,w
  4474  00EA  00BA               	movwf	___flmul@prod+1
  4475  00EB  082D               	movf	??___flmul,w
  4476  00EC  00B9               	movwf	___flmul@prod
  4477  00ED  0826               	movf	___flmul@b+1,w
  4478  00EE  00AD               	movwf	??___flmul
  4479  00EF  082D               	movf	??___flmul,w
  4480  00F0  00F0               	movwf	__Umul8_16@multiplicand
  4481  00F1  082A               	movf	___flmul@a+1,w
  4482  00F2  160A  118A  221A  120A  118A  	fcall	__Umul8_16
  4483  00F7  0871               	movf	?__Umul8_16+1,w
  4484  00F8  1283               	bcf	3,5	;RP0=0, select bank0
  4485  00F9  1303               	bcf	3,6	;RP1=0, select bank0
  4486  00FA  00BE               	movwf	___flmul@temp+1
  4487  00FB  0870               	movf	?__Umul8_16,w
  4488  00FC  00BD               	movwf	___flmul@temp
  4489  00FD                     l2578:
  4490  00FD  083D               	movf	___flmul@temp,w
  4491  00FE  00AD               	movwf	??___flmul
  4492  00FF  01AE               	clrf	??___flmul+1
  4493  0100  01AF               	clrf	??___flmul+2
  4494  0101  01B0               	clrf	??___flmul+3
  4495  0102  082D               	movf	??___flmul,w
  4496  0103  07B3               	addwf	___flmul@grs,f
  4497  0104  082E               	movf	??___flmul+1,w
  4498  0105  1103               	clrz
  4499  0106  1803               	skipnc
  4500  0107  3E01               	addlw	1
  4501  0108  1903               	skipnz
  4502  0109  290B               	goto	u3041
  4503  010A  07B4               	addwf	___flmul@grs+1,f
  4504  010B                     u3041:
  4505  010B  082F               	movf	??___flmul+2,w
  4506  010C  1103               	clrz
  4507  010D  1803               	skipnc
  4508  010E  3E01               	addlw	1
  4509  010F  1903               	skipnz
  4510  0110  2912               	goto	u3042
  4511  0111  07B5               	addwf	___flmul@grs+2,f
  4512  0112                     u3042:
  4513  0112  0830               	movf	??___flmul+3,w
  4514  0113  1103               	clrz
  4515  0114  1803               	skipnc
  4516  0115  3E01               	addlw	1
  4517  0116  1903               	skipnz
  4518  0117  2919               	goto	u3043
  4519  0118  07B6               	addwf	___flmul@grs+3,f
  4520  0119                     u3043:
  4521  0119                     l2580:
  4522  0119  083E               	movf	___flmul@temp+1,w
  4523  011A  00AD               	movwf	??___flmul
  4524  011B  01AE               	clrf	??___flmul+1
  4525  011C  01AF               	clrf	??___flmul+2
  4526  011D  01B0               	clrf	??___flmul+3
  4527  011E  082D               	movf	??___flmul,w
  4528  011F  07B9               	addwf	___flmul@prod,f
  4529  0120  082E               	movf	??___flmul+1,w
  4530  0121  1103               	clrz
  4531  0122  1803               	skipnc
  4532  0123  3E01               	addlw	1
  4533  0124  1903               	skipnz
  4534  0125  2927               	goto	u3051
  4535  0126  07BA               	addwf	___flmul@prod+1,f
  4536  0127                     u3051:
  4537  0127  082F               	movf	??___flmul+2,w
  4538  0128  1103               	clrz
  4539  0129  1803               	skipnc
  4540  012A  3E01               	addlw	1
  4541  012B  1903               	skipnz
  4542  012C  292E               	goto	u3052
  4543  012D  07BB               	addwf	___flmul@prod+2,f
  4544  012E                     u3052:
  4545  012E  0830               	movf	??___flmul+3,w
  4546  012F  1103               	clrz
  4547  0130  1803               	skipnc
  4548  0131  3E01               	addlw	1
  4549  0132  1903               	skipnz
  4550  0133  2935               	goto	u3053
  4551  0134  07BC               	addwf	___flmul@prod+3,f
  4552  0135                     u3053:
  4553  0135  0827               	movf	___flmul@b+2,w
  4554  0136  00AD               	movwf	??___flmul
  4555  0137  082D               	movf	??___flmul,w
  4556  0138  00F0               	movwf	__Umul8_16@multiplicand
  4557  0139  0829               	movf	___flmul@a,w
  4558  013A  160A  118A  221A  120A  118A  	fcall	__Umul8_16
  4559  013F  0871               	movf	?__Umul8_16+1,w
  4560  0140  1283               	bcf	3,5	;RP0=0, select bank0
  4561  0141  1303               	bcf	3,6	;RP1=0, select bank0
  4562  0142  00BE               	movwf	___flmul@temp+1
  4563  0143  0870               	movf	?__Umul8_16,w
  4564  0144  00BD               	movwf	___flmul@temp
  4565  0145                     l2582:
  4566  0145  083D               	movf	___flmul@temp,w
  4567  0146  00AD               	movwf	??___flmul
  4568  0147  01AE               	clrf	??___flmul+1
  4569  0148  01AF               	clrf	??___flmul+2
  4570  0149  01B0               	clrf	??___flmul+3
  4571  014A  082D               	movf	??___flmul,w
  4572  014B  07B3               	addwf	___flmul@grs,f
  4573  014C  082E               	movf	??___flmul+1,w
  4574  014D  1103               	clrz
  4575  014E  1803               	skipnc
  4576  014F  3E01               	addlw	1
  4577  0150  1903               	skipnz
  4578  0151  2953               	goto	u3061
  4579  0152  07B4               	addwf	___flmul@grs+1,f
  4580  0153                     u3061:
  4581  0153  082F               	movf	??___flmul+2,w
  4582  0154  1103               	clrz
  4583  0155  1803               	skipnc
  4584  0156  3E01               	addlw	1
  4585  0157  1903               	skipnz
  4586  0158  295A               	goto	u3062
  4587  0159  07B5               	addwf	___flmul@grs+2,f
  4588  015A                     u3062:
  4589  015A  0830               	movf	??___flmul+3,w
  4590  015B  1103               	clrz
  4591  015C  1803               	skipnc
  4592  015D  3E01               	addlw	1
  4593  015E  1903               	skipnz
  4594  015F  2961               	goto	u3063
  4595  0160  07B6               	addwf	___flmul@grs+3,f
  4596  0161                     u3063:
  4597  0161                     l2584:
  4598  0161  083E               	movf	___flmul@temp+1,w
  4599  0162  00AD               	movwf	??___flmul
  4600  0163  01AE               	clrf	??___flmul+1
  4601  0164  01AF               	clrf	??___flmul+2
  4602  0165  01B0               	clrf	??___flmul+3
  4603  0166  082D               	movf	??___flmul,w
  4604  0167  07B9               	addwf	___flmul@prod,f
  4605  0168  082E               	movf	??___flmul+1,w
  4606  0169  1103               	clrz
  4607  016A  1803               	skipnc
  4608  016B  3E01               	addlw	1
  4609  016C  1903               	skipnz
  4610  016D  296F               	goto	u3071
  4611  016E  07BA               	addwf	___flmul@prod+1,f
  4612  016F                     u3071:
  4613  016F  082F               	movf	??___flmul+2,w
  4614  0170  1103               	clrz
  4615  0171  1803               	skipnc
  4616  0172  3E01               	addlw	1
  4617  0173  1903               	skipnz
  4618  0174  2976               	goto	u3072
  4619  0175  07BB               	addwf	___flmul@prod+2,f
  4620  0176                     u3072:
  4621  0176  0830               	movf	??___flmul+3,w
  4622  0177  1103               	clrz
  4623  0178  1803               	skipnc
  4624  0179  3E01               	addlw	1
  4625  017A  1903               	skipnz
  4626  017B  297D               	goto	u3073
  4627  017C  07BC               	addwf	___flmul@prod+3,f
  4628  017D                     u3073:
  4629  017D                     l2586:
  4630  017D  3008               	movlw	8
  4631  017E  00AD               	movwf	??___flmul
  4632  017F                     u3085:
  4633  017F  1003               	clrc
  4634  0180  0DB3               	rlf	___flmul@grs,f
  4635  0181  0DB4               	rlf	___flmul@grs+1,f
  4636  0182  0DB5               	rlf	___flmul@grs+2,f
  4637  0183  0DB6               	rlf	___flmul@grs+3,f
  4638  0184  0BAD               	decfsz	??___flmul,f
  4639  0185  297F               	goto	u3085
  4640  0186                     l2588:
  4641  0186  0826               	movf	___flmul@b+1,w
  4642  0187  00AD               	movwf	??___flmul
  4643  0188  082D               	movf	??___flmul,w
  4644  0189  00F0               	movwf	__Umul8_16@multiplicand
  4645  018A  0829               	movf	___flmul@a,w
  4646  018B  160A  118A  221A  120A  118A  	fcall	__Umul8_16
  4647  0190  0871               	movf	?__Umul8_16+1,w
  4648  0191  1283               	bcf	3,5	;RP0=0, select bank0
  4649  0192  1303               	bcf	3,6	;RP1=0, select bank0
  4650  0193  00BE               	movwf	___flmul@temp+1
  4651  0194  0870               	movf	?__Umul8_16,w
  4652  0195  00BD               	movwf	___flmul@temp
  4653  0196                     l2590:
  4654  0196  083D               	movf	___flmul@temp,w
  4655  0197  00AD               	movwf	??___flmul
  4656  0198  083E               	movf	___flmul@temp+1,w
  4657  0199  00AE               	movwf	??___flmul+1
  4658  019A  01AF               	clrf	??___flmul+2
  4659  019B  01B0               	clrf	??___flmul+3
  4660  019C  082D               	movf	??___flmul,w
  4661  019D  07B3               	addwf	___flmul@grs,f
  4662  019E  082E               	movf	??___flmul+1,w
  4663  019F  1103               	clrz
  4664  01A0  1803               	skipnc
  4665  01A1  3E01               	addlw	1
  4666  01A2  1903               	skipnz
  4667  01A3  29A5               	goto	u3091
  4668  01A4  07B4               	addwf	___flmul@grs+1,f
  4669  01A5                     u3091:
  4670  01A5  082F               	movf	??___flmul+2,w
  4671  01A6  1103               	clrz
  4672  01A7  1803               	skipnc
  4673  01A8  3E01               	addlw	1
  4674  01A9  1903               	skipnz
  4675  01AA  29AC               	goto	u3092
  4676  01AB  07B5               	addwf	___flmul@grs+2,f
  4677  01AC                     u3092:
  4678  01AC  0830               	movf	??___flmul+3,w
  4679  01AD  1103               	clrz
  4680  01AE  1803               	skipnc
  4681  01AF  3E01               	addlw	1
  4682  01B0  1903               	skipnz
  4683  01B1  29B3               	goto	u3093
  4684  01B2  07B6               	addwf	___flmul@grs+3,f
  4685  01B3                     u3093:
  4686  01B3                     l2592:
  4687  01B3  0825               	movf	___flmul@b,w
  4688  01B4  00AD               	movwf	??___flmul
  4689  01B5  082D               	movf	??___flmul,w
  4690  01B6  00F0               	movwf	__Umul8_16@multiplicand
  4691  01B7  082A               	movf	___flmul@a+1,w
  4692  01B8  160A  118A  221A  120A  118A  	fcall	__Umul8_16
  4693  01BD  0871               	movf	?__Umul8_16+1,w
  4694  01BE  1283               	bcf	3,5	;RP0=0, select bank0
  4695  01BF  1303               	bcf	3,6	;RP1=0, select bank0
  4696  01C0  00BE               	movwf	___flmul@temp+1
  4697  01C1  0870               	movf	?__Umul8_16,w
  4698  01C2  00BD               	movwf	___flmul@temp
  4699  01C3                     l2594:
  4700  01C3  083D               	movf	___flmul@temp,w
  4701  01C4  00AD               	movwf	??___flmul
  4702  01C5  083E               	movf	___flmul@temp+1,w
  4703  01C6  00AE               	movwf	??___flmul+1
  4704  01C7  01AF               	clrf	??___flmul+2
  4705  01C8  01B0               	clrf	??___flmul+3
  4706  01C9  082D               	movf	??___flmul,w
  4707  01CA  07B3               	addwf	___flmul@grs,f
  4708  01CB  082E               	movf	??___flmul+1,w
  4709  01CC  1103               	clrz
  4710  01CD  1803               	skipnc
  4711  01CE  3E01               	addlw	1
  4712  01CF  1903               	skipnz
  4713  01D0  29D2               	goto	u3101
  4714  01D1  07B4               	addwf	___flmul@grs+1,f
  4715  01D2                     u3101:
  4716  01D2  082F               	movf	??___flmul+2,w
  4717  01D3  1103               	clrz
  4718  01D4  1803               	skipnc
  4719  01D5  3E01               	addlw	1
  4720  01D6  1903               	skipnz
  4721  01D7  29D9               	goto	u3102
  4722  01D8  07B5               	addwf	___flmul@grs+2,f
  4723  01D9                     u3102:
  4724  01D9  0830               	movf	??___flmul+3,w
  4725  01DA  1103               	clrz
  4726  01DB  1803               	skipnc
  4727  01DC  3E01               	addlw	1
  4728  01DD  1903               	skipnz
  4729  01DE  29E0               	goto	u3103
  4730  01DF  07B6               	addwf	___flmul@grs+3,f
  4731  01E0                     u3103:
  4732  01E0                     l2596:
  4733  01E0  3008               	movlw	8
  4734  01E1  00AD               	movwf	??___flmul
  4735  01E2                     u3115:
  4736  01E2  1003               	clrc
  4737  01E3  0DB3               	rlf	___flmul@grs,f
  4738  01E4  0DB4               	rlf	___flmul@grs+1,f
  4739  01E5  0DB5               	rlf	___flmul@grs+2,f
  4740  01E6  0DB6               	rlf	___flmul@grs+3,f
  4741  01E7  0BAD               	decfsz	??___flmul,f
  4742  01E8  29E2               	goto	u3115
  4743  01E9  0825               	movf	___flmul@b,w
  4744  01EA  00AD               	movwf	??___flmul
  4745  01EB  082D               	movf	??___flmul,w
  4746  01EC  00F0               	movwf	__Umul8_16@multiplicand
  4747  01ED  0829               	movf	___flmul@a,w
  4748  01EE  160A  118A  221A  120A  118A  	fcall	__Umul8_16
  4749  01F3  0871               	movf	?__Umul8_16+1,w
  4750  01F4  1283               	bcf	3,5	;RP0=0, select bank0
  4751  01F5  1303               	bcf	3,6	;RP1=0, select bank0
  4752  01F6  00BE               	movwf	___flmul@temp+1
  4753  01F7  0870               	movf	?__Umul8_16,w
  4754  01F8  00BD               	movwf	___flmul@temp
  4755  01F9                     l2598:
  4756  01F9  083D               	movf	___flmul@temp,w
  4757  01FA  00AD               	movwf	??___flmul
  4758  01FB  083E               	movf	___flmul@temp+1,w
  4759  01FC  00AE               	movwf	??___flmul+1
  4760  01FD  01AF               	clrf	??___flmul+2
  4761  01FE  01B0               	clrf	??___flmul+3
  4762  01FF  082D               	movf	??___flmul,w
  4763  0200  07B3               	addwf	___flmul@grs,f
  4764  0201  082E               	movf	??___flmul+1,w
  4765  0202  1103               	clrz
  4766  0203  1803               	skipnc
  4767  0204  3E01               	addlw	1
  4768  0205  1903               	skipnz
  4769  0206  2A08               	goto	u3121
  4770  0207  07B4               	addwf	___flmul@grs+1,f
  4771  0208                     u3121:
  4772  0208  082F               	movf	??___flmul+2,w
  4773  0209  1103               	clrz
  4774  020A  1803               	skipnc
  4775  020B  3E01               	addlw	1
  4776  020C  1903               	skipnz
  4777  020D  2A0F               	goto	u3122
  4778  020E  07B5               	addwf	___flmul@grs+2,f
  4779  020F                     u3122:
  4780  020F  0830               	movf	??___flmul+3,w
  4781  0210  1103               	clrz
  4782  0211  1803               	skipnc
  4783  0212  3E01               	addlw	1
  4784  0213  1903               	skipnz
  4785  0214  2A16               	goto	u3123
  4786  0215  07B6               	addwf	___flmul@grs+3,f
  4787  0216                     u3123:
  4788  0216                     l2600:
  4789  0216  0826               	movf	___flmul@b+1,w
  4790  0217  00AD               	movwf	??___flmul
  4791  0218  082D               	movf	??___flmul,w
  4792  0219  00F0               	movwf	__Umul8_16@multiplicand
  4793  021A  082B               	movf	___flmul@a+2,w
  4794  021B  160A  118A  221A  120A  118A  	fcall	__Umul8_16
  4795  0220  0871               	movf	?__Umul8_16+1,w
  4796  0221  1283               	bcf	3,5	;RP0=0, select bank0
  4797  0222  1303               	bcf	3,6	;RP1=0, select bank0
  4798  0223  00BE               	movwf	___flmul@temp+1
  4799  0224  0870               	movf	?__Umul8_16,w
  4800  0225  00BD               	movwf	___flmul@temp
  4801  0226  083D               	movf	___flmul@temp,w
  4802  0227  00AD               	movwf	??___flmul
  4803  0228  083E               	movf	___flmul@temp+1,w
  4804  0229  00AE               	movwf	??___flmul+1
  4805  022A  01AF               	clrf	??___flmul+2
  4806  022B  01B0               	clrf	??___flmul+3
  4807  022C  082D               	movf	??___flmul,w
  4808  022D  07B9               	addwf	___flmul@prod,f
  4809  022E  082E               	movf	??___flmul+1,w
  4810  022F  1103               	clrz
  4811  0230  1803               	skipnc
  4812  0231  3E01               	addlw	1
  4813  0232  1903               	skipnz
  4814  0233  2A35               	goto	u3131
  4815  0234  07BA               	addwf	___flmul@prod+1,f
  4816  0235                     u3131:
  4817  0235  082F               	movf	??___flmul+2,w
  4818  0236  1103               	clrz
  4819  0237  1803               	skipnc
  4820  0238  3E01               	addlw	1
  4821  0239  1903               	skipnz
  4822  023A  2A3C               	goto	u3132
  4823  023B  07BB               	addwf	___flmul@prod+2,f
  4824  023C                     u3132:
  4825  023C  0830               	movf	??___flmul+3,w
  4826  023D  1103               	clrz
  4827  023E  1803               	skipnc
  4828  023F  3E01               	addlw	1
  4829  0240  1903               	skipnz
  4830  0241  2A43               	goto	u3133
  4831  0242  07BC               	addwf	___flmul@prod+3,f
  4832  0243                     u3133:
  4833  0243                     l2602:
  4834  0243  0827               	movf	___flmul@b+2,w
  4835  0244  00AD               	movwf	??___flmul
  4836  0245  082D               	movf	??___flmul,w
  4837  0246  00F0               	movwf	__Umul8_16@multiplicand
  4838  0247  082A               	movf	___flmul@a+1,w
  4839  0248  160A  118A  221A  120A  118A  	fcall	__Umul8_16
  4840  024D  0871               	movf	?__Umul8_16+1,w
  4841  024E  1283               	bcf	3,5	;RP0=0, select bank0
  4842  024F  1303               	bcf	3,6	;RP1=0, select bank0
  4843  0250  00BE               	movwf	___flmul@temp+1
  4844  0251  0870               	movf	?__Umul8_16,w
  4845  0252  00BD               	movwf	___flmul@temp
  4846  0253                     l2604:
  4847  0253  083D               	movf	___flmul@temp,w
  4848  0254  00AD               	movwf	??___flmul
  4849  0255  083E               	movf	___flmul@temp+1,w
  4850  0256  00AE               	movwf	??___flmul+1
  4851  0257  01AF               	clrf	??___flmul+2
  4852  0258  01B0               	clrf	??___flmul+3
  4853  0259  082D               	movf	??___flmul,w
  4854  025A  07B9               	addwf	___flmul@prod,f
  4855  025B  082E               	movf	??___flmul+1,w
  4856  025C  1103               	clrz
  4857  025D  1803               	skipnc
  4858  025E  3E01               	addlw	1
  4859  025F  1903               	skipnz
  4860  0260  2A62               	goto	u3141
  4861  0261  07BA               	addwf	___flmul@prod+1,f
  4862  0262                     u3141:
  4863  0262  082F               	movf	??___flmul+2,w
  4864  0263  1103               	clrz
  4865  0264  1803               	skipnc
  4866  0265  3E01               	addlw	1
  4867  0266  1903               	skipnz
  4868  0267  2A69               	goto	u3142
  4869  0268  07BB               	addwf	___flmul@prod+2,f
  4870  0269                     u3142:
  4871  0269  0830               	movf	??___flmul+3,w
  4872  026A  1103               	clrz
  4873  026B  1803               	skipnc
  4874  026C  3E01               	addlw	1
  4875  026D  1903               	skipnz
  4876  026E  2A70               	goto	u3143
  4877  026F  07BC               	addwf	___flmul@prod+3,f
  4878  0270                     u3143:
  4879  0270  0827               	movf	___flmul@b+2,w
  4880  0271  00AD               	movwf	??___flmul
  4881  0272  082D               	movf	??___flmul,w
  4882  0273  00F0               	movwf	__Umul8_16@multiplicand
  4883  0274  082B               	movf	___flmul@a+2,w
  4884  0275  160A  118A  221A  120A  118A  	fcall	__Umul8_16
  4885  027A  0871               	movf	?__Umul8_16+1,w
  4886  027B  1283               	bcf	3,5	;RP0=0, select bank0
  4887  027C  1303               	bcf	3,6	;RP1=0, select bank0
  4888  027D  00BE               	movwf	___flmul@temp+1
  4889  027E  0870               	movf	?__Umul8_16,w
  4890  027F  00BD               	movwf	___flmul@temp
  4891  0280                     l2606:
  4892  0280  083D               	movf	___flmul@temp,w
  4893  0281  00AD               	movwf	??___flmul
  4894  0282  083E               	movf	___flmul@temp+1,w
  4895  0283  00AE               	movwf	??___flmul+1
  4896  0284  01AF               	clrf	??___flmul+2
  4897  0285  01B0               	clrf	??___flmul+3
  4898  0286  3008               	movlw	8
  4899  0287                     u3155:
  4900  0287  1003               	clrc
  4901  0288  0DAD               	rlf	??___flmul,f
  4902  0289  0DAE               	rlf	??___flmul+1,f
  4903  028A  0DAF               	rlf	??___flmul+2,f
  4904  028B  0DB0               	rlf	??___flmul+3,f
  4905  028C                     u3150:
  4906  028C  3EFF               	addlw	-1
  4907  028D  1D03               	skipz
  4908  028E  2A87               	goto	u3155
  4909  028F  082D               	movf	??___flmul,w
  4910  0290  07B9               	addwf	___flmul@prod,f
  4911  0291  082E               	movf	??___flmul+1,w
  4912  0292  1103               	clrz
  4913  0293  1803               	skipnc
  4914  0294  3E01               	addlw	1
  4915  0295  1903               	skipnz
  4916  0296  2A98               	goto	u3161
  4917  0297  07BA               	addwf	___flmul@prod+1,f
  4918  0298                     u3161:
  4919  0298  082F               	movf	??___flmul+2,w
  4920  0299  1103               	clrz
  4921  029A  1803               	skipnc
  4922  029B  3E01               	addlw	1
  4923  029C  1903               	skipnz
  4924  029D  2A9F               	goto	u3162
  4925  029E  07BB               	addwf	___flmul@prod+2,f
  4926  029F                     u3162:
  4927  029F  0830               	movf	??___flmul+3,w
  4928  02A0  1103               	clrz
  4929  02A1  1803               	skipnc
  4930  02A2  3E01               	addlw	1
  4931  02A3  1903               	skipnz
  4932  02A4  2AA6               	goto	u3163
  4933  02A5  07BC               	addwf	___flmul@prod+3,f
  4934  02A6                     u3163:
  4935  02A6                     l2608:
  4936  02A6  0833               	movf	___flmul@grs,w
  4937  02A7  00AD               	movwf	??___flmul
  4938  02A8  0834               	movf	___flmul@grs+1,w
  4939  02A9  00AE               	movwf	??___flmul+1
  4940  02AA  0835               	movf	___flmul@grs+2,w
  4941  02AB  00AF               	movwf	??___flmul+2
  4942  02AC  0836               	movf	___flmul@grs+3,w
  4943  02AD  00B0               	movwf	??___flmul+3
  4944  02AE  3018               	movlw	24
  4945  02AF                     u3175:
  4946  02AF  1003               	clrc
  4947  02B0  0CB0               	rrf	??___flmul+3,f
  4948  02B1  0CAF               	rrf	??___flmul+2,f
  4949  02B2  0CAE               	rrf	??___flmul+1,f
  4950  02B3  0CAD               	rrf	??___flmul,f
  4951  02B4                     u3170:
  4952  02B4  3EFF               	addlw	-1
  4953  02B5  1D03               	skipz
  4954  02B6  2AAF               	goto	u3175
  4955  02B7  082D               	movf	??___flmul,w
  4956  02B8  07B9               	addwf	___flmul@prod,f
  4957  02B9  082E               	movf	??___flmul+1,w
  4958  02BA  1103               	clrz
  4959  02BB  1803               	skipnc
  4960  02BC  3E01               	addlw	1
  4961  02BD  1903               	skipnz
  4962  02BE  2AC0               	goto	u3181
  4963  02BF  07BA               	addwf	___flmul@prod+1,f
  4964  02C0                     u3181:
  4965  02C0  082F               	movf	??___flmul+2,w
  4966  02C1  1103               	clrz
  4967  02C2  1803               	skipnc
  4968  02C3  3E01               	addlw	1
  4969  02C4  1903               	skipnz
  4970  02C5  2AC7               	goto	u3182
  4971  02C6  07BB               	addwf	___flmul@prod+2,f
  4972  02C7                     u3182:
  4973  02C7  0830               	movf	??___flmul+3,w
  4974  02C8  1103               	clrz
  4975  02C9  1803               	skipnc
  4976  02CA  3E01               	addlw	1
  4977  02CB  1903               	skipnz
  4978  02CC  2ACE               	goto	u3183
  4979  02CD  07BC               	addwf	___flmul@prod+3,f
  4980  02CE                     u3183:
  4981  02CE                     l2610:
  4982  02CE  3008               	movlw	8
  4983  02CF  00AD               	movwf	??___flmul
  4984  02D0                     u3195:
  4985  02D0  1003               	clrc
  4986  02D1  0DB3               	rlf	___flmul@grs,f
  4987  02D2  0DB4               	rlf	___flmul@grs+1,f
  4988  02D3  0DB5               	rlf	___flmul@grs+2,f
  4989  02D4  0DB6               	rlf	___flmul@grs+3,f
  4990  02D5  0BAD               	decfsz	??___flmul,f
  4991  02D6  2AD0               	goto	u3195
  4992  02D7                     l2612:
  4993  02D7  0838               	movf	___flmul@bexp,w
  4994  02D8  0737               	addwf	___flmul@aexp,w
  4995  02D9  00AD               	movwf	??___flmul
  4996  02DA  01AE               	clrf	??___flmul+1
  4997  02DB  0DAE               	rlf	??___flmul+1,f
  4998  02DC  082D               	movf	??___flmul,w
  4999  02DD  3E82               	addlw	130
  5000  02DE  00BD               	movwf	___flmul@temp
  5001  02DF  082E               	movf	??___flmul+1,w
  5002  02E0  1803               	skipnc
  5003  02E1  3E01               	addlw	1
  5004  02E2  3EFF               	addlw	255
  5005  02E3  00BE               	movwf	___flmul@temp+1
  5006  02E4  2B02               	goto	l2624
  5007  02E5                     l2614:
  5008  02E5  3001               	movlw	1
  5009  02E6  00AD               	movwf	??___flmul
  5010  02E7                     u3205:
  5011  02E7  1003               	clrc
  5012  02E8  0DB9               	rlf	___flmul@prod,f
  5013  02E9  0DBA               	rlf	___flmul@prod+1,f
  5014  02EA  0DBB               	rlf	___flmul@prod+2,f
  5015  02EB  0DBC               	rlf	___flmul@prod+3,f
  5016  02EC  0BAD               	decfsz	??___flmul,f
  5017  02ED  2AE7               	goto	u3205
  5018  02EE                     l2616:
  5019  02EE  1FB6               	btfss	___flmul@grs+3,7
  5020  02EF  2AF1               	goto	u3211
  5021  02F0  2AF2               	goto	u3210
  5022  02F1                     u3211:
  5023  02F1  2AF3               	goto	l2620
  5024  02F2                     u3210:
  5025  02F2                     l2618:
  5026  02F2  1439               	bsf	___flmul@prod,0
  5027  02F3                     l2620:
  5028  02F3  3001               	movlw	1
  5029  02F4  00AD               	movwf	??___flmul
  5030  02F5                     u3225:
  5031  02F5  1003               	clrc
  5032  02F6  0DB3               	rlf	___flmul@grs,f
  5033  02F7  0DB4               	rlf	___flmul@grs+1,f
  5034  02F8  0DB5               	rlf	___flmul@grs+2,f
  5035  02F9  0DB6               	rlf	___flmul@grs+3,f
  5036  02FA  0BAD               	decfsz	??___flmul,f
  5037  02FB  2AF5               	goto	u3225
  5038  02FC                     l2622:
  5039  02FC  30FF               	movlw	255
  5040  02FD  07BD               	addwf	___flmul@temp,f
  5041  02FE  1803               	skipnc
  5042  02FF  0ABE               	incf	___flmul@temp+1,f
  5043  0300  30FF               	movlw	255
  5044  0301  07BE               	addwf	___flmul@temp+1,f
  5045  0302                     l2624:
  5046  0302  1FBB               	btfss	___flmul@prod+2,7
  5047  0303  2B05               	goto	u3231
  5048  0304  2B06               	goto	u3230
  5049  0305                     u3231:
  5050  0305  2AE5               	goto	l2614
  5051  0306                     u3230:
  5052  0306                     l2626:
  5053  0306  01B7               	clrf	___flmul@aexp
  5054  0307                     l2628:
  5055  0307  1FB6               	btfss	___flmul@grs+3,7
  5056  0308  2B0A               	goto	u3241
  5057  0309  2B0B               	goto	u3240
  5058  030A                     u3241:
  5059  030A  2B27               	goto	l2636
  5060  030B                     u3240:
  5061  030B                     l2630:
  5062  030B  30FF               	movlw	255
  5063  030C  0533               	andwf	___flmul@grs,w
  5064  030D  00AD               	movwf	??___flmul
  5065  030E  30FF               	movlw	255
  5066  030F  0534               	andwf	___flmul@grs+1,w
  5067  0310  00AE               	movwf	??___flmul+1
  5068  0311  30FF               	movlw	255
  5069  0312  0535               	andwf	___flmul@grs+2,w
  5070  0313  00AF               	movwf	??___flmul+2
  5071  0314  307F               	movlw	127
  5072  0315  0536               	andwf	___flmul@grs+3,w
  5073  0316  00B0               	movwf	??___flmul+3
  5074  0317  0830               	movf	??___flmul+3,w
  5075  0318  042F               	iorwf	??___flmul+2,w
  5076  0319  042E               	iorwf	??___flmul+1,w
  5077  031A  042D               	iorwf	??___flmul,w
  5078  031B  1903               	skipnz
  5079  031C  2B1E               	goto	u3251
  5080  031D  2B1F               	goto	u3250
  5081  031E                     u3251:
  5082  031E  2B22               	goto	l806
  5083  031F                     u3250:
  5084  031F                     l2632:
  5085  031F  01B7               	clrf	___flmul@aexp
  5086  0320  0AB7               	incf	___flmul@aexp,f
  5087  0321  2B27               	goto	l2636
  5088  0322                     l806:
  5089  0322  1C39               	btfss	___flmul@prod,0
  5090  0323  2B25               	goto	u3261
  5091  0324  2B26               	goto	u3260
  5092  0325                     u3261:
  5093  0325  2B27               	goto	l2636
  5094  0326                     u3260:
  5095  0326  2B1F               	goto	l2632
  5096  0327                     l2636:
  5097  0327  0837               	movf	___flmul@aexp,w
  5098  0328  1903               	btfsc	3,2
  5099  0329  2B2B               	goto	u3271
  5100  032A  2B2C               	goto	u3270
  5101  032B                     u3271:
  5102  032B  2B5D               	goto	l2646
  5103  032C                     u3270:
  5104  032C                     l2638:
  5105  032C  3001               	movlw	1
  5106  032D  07B9               	addwf	___flmul@prod,f
  5107  032E  3000               	movlw	0
  5108  032F  1803               	skipnc
  5109  0330  3001               	movlw	1
  5110  0331  07BA               	addwf	___flmul@prod+1,f
  5111  0332  3000               	movlw	0
  5112  0333  1803               	skipnc
  5113  0334  3001               	movlw	1
  5114  0335  07BB               	addwf	___flmul@prod+2,f
  5115  0336  3000               	movlw	0
  5116  0337  1803               	skipnc
  5117  0338  3001               	movlw	1
  5118  0339  07BC               	addwf	___flmul@prod+3,f
  5119  033A                     l2640:
  5120  033A  1C3C               	btfss	___flmul@prod+3,0
  5121  033B  2B3D               	goto	u3281
  5122  033C  2B3E               	goto	u3280
  5123  033D                     u3281:
  5124  033D  2B5D               	goto	l2646
  5125  033E                     u3280:
  5126  033E                     l2642:
  5127  033E  0839               	movf	___flmul@prod,w
  5128  033F  00AD               	movwf	??___flmul
  5129  0340  083A               	movf	___flmul@prod+1,w
  5130  0341  00AE               	movwf	??___flmul+1
  5131  0342  083B               	movf	___flmul@prod+2,w
  5132  0343  00AF               	movwf	??___flmul+2
  5133  0344  083C               	movf	___flmul@prod+3,w
  5134  0345  00B0               	movwf	??___flmul+3
  5135  0346  3001               	movlw	1
  5136  0347  00B1               	movwf	??___flmul+4
  5137  0348                     u3295:
  5138  0348  0D30               	rlf	??___flmul+3,w
  5139  0349  0CB0               	rrf	??___flmul+3,f
  5140  034A  0CAF               	rrf	??___flmul+2,f
  5141  034B  0CAE               	rrf	??___flmul+1,f
  5142  034C  0CAD               	rrf	??___flmul,f
  5143  034D                     u3290:
  5144  034D  0BB1               	decfsz	??___flmul+4,f
  5145  034E  2B48               	goto	u3295
  5146  034F  0830               	movf	??___flmul+3,w
  5147  0350  00BC               	movwf	___flmul@prod+3
  5148  0351  082F               	movf	??___flmul+2,w
  5149  0352  00BB               	movwf	___flmul@prod+2
  5150  0353  082E               	movf	??___flmul+1,w
  5151  0354  00BA               	movwf	___flmul@prod+1
  5152  0355  082D               	movf	??___flmul,w
  5153  0356  00B9               	movwf	___flmul@prod
  5154  0357                     l2644:
  5155  0357  3001               	movlw	1
  5156  0358  07BD               	addwf	___flmul@temp,f
  5157  0359  1803               	skipnc
  5158  035A  0ABE               	incf	___flmul@temp+1,f
  5159  035B  3000               	movlw	0
  5160  035C  07BE               	addwf	___flmul@temp+1,f
  5161  035D                     l2646:
  5162  035D  083E               	movf	___flmul@temp+1,w
  5163  035E  3A80               	xorlw	128
  5164  035F  00FF               	movwf	btemp+1
  5165  0360  3080               	movlw	128
  5166  0361  027F               	subwf	btemp+1,w
  5167  0362  1D03               	skipz
  5168  0363  2B66               	goto	u3305
  5169  0364  30FF               	movlw	255
  5170  0365  023D               	subwf	___flmul@temp,w
  5171  0366                     u3305:
  5172  0366  1C03               	skipc
  5173  0367  2B69               	goto	u3301
  5174  0368  2B6A               	goto	u3300
  5175  0369                     u3301:
  5176  0369  2B75               	goto	l2650
  5177  036A                     u3300:
  5178  036A                     l2648:
  5179  036A  307F               	movlw	127
  5180  036B  1283               	bcf	3,5	;RP0=0, select bank0
  5181  036C  1303               	bcf	3,6	;RP1=0, select bank0
  5182  036D  00BC               	movwf	___flmul@prod+3
  5183  036E  3080               	movlw	128
  5184  036F  00BB               	movwf	___flmul@prod+2
  5185  0370  3000               	movlw	0
  5186  0371  00BA               	movwf	___flmul@prod+1
  5187  0372  3000               	movlw	0
  5188  0373  00B9               	movwf	___flmul@prod
  5189  0374  2BAA               	goto	l812
  5190  0375                     l2650:
  5191  0375  1283               	bcf	3,5	;RP0=0, select bank0
  5192  0376  1303               	bcf	3,6	;RP1=0, select bank0
  5193  0377  083E               	movf	___flmul@temp+1,w
  5194  0378  3A80               	xorlw	128
  5195  0379  00FF               	movwf	btemp+1
  5196  037A  3080               	movlw	128
  5197  037B  027F               	subwf	btemp+1,w
  5198  037C  1D03               	skipz
  5199  037D  2B80               	goto	u3315
  5200  037E  3001               	movlw	1
  5201  037F  023D               	subwf	___flmul@temp,w
  5202  0380                     u3315:
  5203  0380  1803               	skipnc
  5204  0381  2B83               	goto	u3311
  5205  0382  2B84               	goto	u3310
  5206  0383                     u3311:
  5207  0383  2B90               	goto	l2656
  5208  0384                     u3310:
  5209  0384                     l2652:
  5210  0384  3000               	movlw	0
  5211  0385  1283               	bcf	3,5	;RP0=0, select bank0
  5212  0386  1303               	bcf	3,6	;RP1=0, select bank0
  5213  0387  00BC               	movwf	___flmul@prod+3
  5214  0388  3000               	movlw	0
  5215  0389  00BB               	movwf	___flmul@prod+2
  5216  038A  3000               	movlw	0
  5217  038B  00BA               	movwf	___flmul@prod+1
  5218  038C  3000               	movlw	0
  5219  038D  00B9               	movwf	___flmul@prod
  5220  038E                     l2654:
  5221  038E  01B2               	clrf	___flmul@sign
  5222  038F  2BAA               	goto	l812
  5223  0390                     l2656:
  5224  0390  1283               	bcf	3,5	;RP0=0, select bank0
  5225  0391  1303               	bcf	3,6	;RP1=0, select bank0
  5226  0392  083D               	movf	___flmul@temp,w
  5227  0393  00AD               	movwf	??___flmul
  5228  0394  082D               	movf	??___flmul,w
  5229  0395  00B8               	movwf	___flmul@bexp
  5230  0396  30FF               	movlw	255
  5231  0397  05B9               	andwf	___flmul@prod,f
  5232  0398  30FF               	movlw	255
  5233  0399  05BA               	andwf	___flmul@prod+1,f
  5234  039A  307F               	movlw	127
  5235  039B  05BB               	andwf	___flmul@prod+2,f
  5236  039C  3000               	movlw	0
  5237  039D  05BC               	andwf	___flmul@prod+3,f
  5238  039E                     l2658:
  5239  039E  1C38               	btfss	___flmul@bexp,0
  5240  039F  2BA1               	goto	u3321
  5241  03A0  2BA2               	goto	u3320
  5242  03A1                     u3321:
  5243  03A1  2BA3               	goto	l2662
  5244  03A2                     u3320:
  5245  03A2                     l2660:
  5246  03A2  17BB               	bsf	___flmul@prod+2,7
  5247  03A3                     l2662:
  5248  03A3  0838               	movf	___flmul@bexp,w
  5249  03A4  00AD               	movwf	??___flmul
  5250  03A5  1003               	clrc
  5251  03A6  0C2D               	rrf	??___flmul,w
  5252  03A7  00AE               	movwf	??___flmul+1
  5253  03A8  082E               	movf	??___flmul+1,w
  5254  03A9  00BC               	movwf	___flmul@prod+3
  5255  03AA                     l812:
  5256  03AA  0832               	movf	___flmul@sign,w
  5257  03AB  00AD               	movwf	??___flmul
  5258  03AC  082D               	movf	??___flmul,w
  5259  03AD  04BC               	iorwf	___flmul@prod+3,f
  5260  03AE                     l2664:
  5261  03AE  083C               	movf	___flmul@prod+3,w
  5262  03AF  00A8               	movwf	?___flmul+3
  5263  03B0  083B               	movf	___flmul@prod+2,w
  5264  03B1  00A7               	movwf	?___flmul+2
  5265  03B2  083A               	movf	___flmul@prod+1,w
  5266  03B3  00A6               	movwf	?___flmul+1
  5267  03B4  0839               	movf	___flmul@prod,w
  5268  03B5  00A5               	movwf	?___flmul
  5269  03B6                     l800:
  5270  03B6  0008               	return
  5271  03B7                     __end_of___flmul:
  5272                           
  5273                           	psect	text10
  5274  121A                     __ptext10:	
  5275 ;; *************** function __Umul8_16 *****************
  5276 ;; Defined at:
  5277 ;;		line 4 in file "C:\Program Files\Microchip\xc8\v2.36\pic\sources\c90\common\Umul8_16.c"
  5278 ;; Parameters:    Size  Location     Type
  5279 ;;  multiplier      1    wreg     unsigned char 
  5280 ;;  multiplicand    1    0[COMMON] unsigned char 
  5281 ;; Auto vars:     Size  Location     Type
  5282 ;;  multiplier      1    8[COMMON] unsigned char 
  5283 ;;  word_mpld       2    6[COMMON] unsigned int 
  5284 ;;  product         2    4[COMMON] unsigned int 
  5285 ;; Return value:  Size  Location     Type
  5286 ;;                  2    0[COMMON] unsigned int 
  5287 ;; Registers used:
  5288 ;;		wreg, status,2, status,0
  5289 ;; Tracked objects:
  5290 ;;		On entry : 0/0
  5291 ;;		On exit  : 0/0
  5292 ;;		Unchanged: 0/0
  5293 ;; Data sizes:     COMMON   BANK0   BANK1   BANK3   BANK2
  5294 ;;      Params:         2       0       0       0       0
  5295 ;;      Locals:         5       0       0       0       0
  5296 ;;      Temps:          2       0       0       0       0
  5297 ;;      Totals:         9       0       0       0       0
  5298 ;;Total ram usage:        9 bytes
  5299 ;; Hardware stack levels used: 1
  5300 ;; This function calls:
  5301 ;;		Nothing
  5302 ;; This function is called by:
  5303 ;;		___flmul
  5304 ;; This function uses a non-reentrant model
  5305 ;;
  5306                           
  5307  121A                     __Umul8_16:	
  5308                           ;psect for function __Umul8_16
  5309                           
  5310                           
  5311                           ;incstack = 0
  5312                           ; Regs used in __Umul8_16: [wreg+status,2+status,0]
  5313                           ;__Umul8_16@multiplier stored from wreg
  5314  121A  00F8               	movwf	__Umul8_16@multiplier
  5315  121B                     l2288:
  5316  121B  01F4               	clrf	__Umul8_16@product
  5317  121C  01F5               	clrf	__Umul8_16@product+1
  5318  121D                     l2290:
  5319  121D  0870               	movf	__Umul8_16@multiplicand,w
  5320  121E  00F2               	movwf	??__Umul8_16
  5321  121F  01F3               	clrf	??__Umul8_16+1
  5322  1220  0872               	movf	??__Umul8_16,w
  5323  1221  00F6               	movwf	__Umul8_16@word_mpld
  5324  1222  0873               	movf	??__Umul8_16+1,w
  5325  1223  00F7               	movwf	__Umul8_16@word_mpld+1
  5326  1224                     l2292:
  5327  1224  1C78               	btfss	__Umul8_16@multiplier,0
  5328  1225  2A27               	goto	u2431
  5329  1226  2A28               	goto	u2430
  5330  1227                     u2431:
  5331  1227  2A2E               	goto	l819
  5332  1228                     u2430:
  5333  1228                     l2294:
  5334  1228  0876               	movf	__Umul8_16@word_mpld,w
  5335  1229  07F4               	addwf	__Umul8_16@product,f
  5336  122A  1803               	skipnc
  5337  122B  0AF5               	incf	__Umul8_16@product+1,f
  5338  122C  0877               	movf	__Umul8_16@word_mpld+1,w
  5339  122D  07F5               	addwf	__Umul8_16@product+1,f
  5340  122E                     l819:
  5341  122E  3001               	movlw	1
  5342  122F                     u2445:
  5343  122F  1003               	clrc
  5344  1230  0DF6               	rlf	__Umul8_16@word_mpld,f
  5345  1231  0DF7               	rlf	__Umul8_16@word_mpld+1,f
  5346  1232  3EFF               	addlw	-1
  5347  1233  1D03               	skipz
  5348  1234  2A2F               	goto	u2445
  5349  1235  1003               	clrc
  5350  1236  0CF8               	rrf	__Umul8_16@multiplier,f
  5351  1237                     l2296:
  5352  1237  0878               	movf	__Umul8_16@multiplier,w
  5353  1238  1D03               	btfss	3,2
  5354  1239  2A3B               	goto	u2451
  5355  123A  2A3C               	goto	u2450
  5356  123B                     u2451:
  5357  123B  2A24               	goto	l2292
  5358  123C                     u2450:
  5359  123C                     l2298:
  5360  123C  0875               	movf	__Umul8_16@product+1,w
  5361  123D  00F1               	movwf	?__Umul8_16+1
  5362  123E  0874               	movf	__Umul8_16@product,w
  5363  123F  00F0               	movwf	?__Umul8_16
  5364  1240                     l821:
  5365  1240  0008               	return
  5366  1241                     __end_of__Umul8_16:
  5367                           
  5368                           	psect	text11
  5369  156A                     __ptext11:	
  5370 ;; *************** function ___xxtofl *****************
  5371 ;; Defined at:
  5372 ;;		line 10 in file "C:\Program Files\Microchip\xc8\v2.36\pic\sources\c90\common\xxtofl.c"
  5373 ;; Parameters:    Size  Location     Type
  5374 ;;  sign            1    wreg     unsigned char 
  5375 ;;  val             4    0[COMMON] long 
  5376 ;; Auto vars:     Size  Location     Type
  5377 ;;  sign            1    8[COMMON] unsigned char 
  5378 ;;  arg             4   10[COMMON] unsigned long 
  5379 ;;  exp             1    9[COMMON] unsigned char 
  5380 ;; Return value:  Size  Location     Type
  5381 ;;                  4    0[COMMON] unsigned char 
  5382 ;; Registers used:
  5383 ;;		wreg, status,2, status,0
  5384 ;; Tracked objects:
  5385 ;;		On entry : 0/0
  5386 ;;		On exit  : 0/0
  5387 ;;		Unchanged: 0/0
  5388 ;; Data sizes:     COMMON   BANK0   BANK1   BANK3   BANK2
  5389 ;;      Params:         4       0       0       0       0
  5390 ;;      Locals:         6       0       0       0       0
  5391 ;;      Temps:          4       0       0       0       0
  5392 ;;      Totals:        14       0       0       0       0
  5393 ;;Total ram usage:       14 bytes
  5394 ;; Hardware stack levels used: 1
  5395 ;; This function calls:
  5396 ;;		Nothing
  5397 ;; This function is called by:
  5398 ;;		_main
  5399 ;;		_log
  5400 ;; This function uses a non-reentrant model
  5401 ;;
  5402                           
  5403  156A                     ___xxtofl:	
  5404                           ;psect for function ___xxtofl
  5405                           
  5406                           
  5407                           ;incstack = 0
  5408                           ; Regs used in ___xxtofl: [wreg+status,2+status,0]
  5409                           ;___xxtofl@sign stored from wreg
  5410  156A  00F8               	movwf	___xxtofl@sign
  5411  156B                     l2764:
  5412  156B  0878               	movf	___xxtofl@sign,w
  5413  156C  1903               	btfsc	3,2
  5414  156D  2D6F               	goto	u3551
  5415  156E  2D70               	goto	u3550
  5416  156F                     u3551:
  5417  156F  2D84               	goto	l2770
  5418  1570                     u3550:
  5419  1570                     l2766:
  5420  1570  1FF3               	btfss	___xxtofl@val+3,7
  5421  1571  2D73               	goto	u3561
  5422  1572  2D74               	goto	u3560
  5423  1573                     u3561:
  5424  1573  2D84               	goto	l2770
  5425  1574                     u3560:
  5426  1574                     l2768:
  5427  1574  0970               	comf	___xxtofl@val,w
  5428  1575  00FA               	movwf	___xxtofl@arg
  5429  1576  0971               	comf	___xxtofl@val+1,w
  5430  1577  00FB               	movwf	___xxtofl@arg+1
  5431  1578  0972               	comf	___xxtofl@val+2,w
  5432  1579  00FC               	movwf	___xxtofl@arg+2
  5433  157A  0973               	comf	___xxtofl@val+3,w
  5434  157B  00FD               	movwf	___xxtofl@arg+3
  5435  157C  0AFA               	incf	___xxtofl@arg,f
  5436  157D  1903               	skipnz
  5437  157E  0AFB               	incf	___xxtofl@arg+1,f
  5438  157F  1903               	skipnz
  5439  1580  0AFC               	incf	___xxtofl@arg+2,f
  5440  1581  1903               	skipnz
  5441  1582  0AFD               	incf	___xxtofl@arg+3,f
  5442  1583  2D8C               	goto	l844
  5443  1584                     l2770:
  5444  1584  0873               	movf	___xxtofl@val+3,w
  5445  1585  00FD               	movwf	___xxtofl@arg+3
  5446  1586  0872               	movf	___xxtofl@val+2,w
  5447  1587  00FC               	movwf	___xxtofl@arg+2
  5448  1588  0871               	movf	___xxtofl@val+1,w
  5449  1589  00FB               	movwf	___xxtofl@arg+1
  5450  158A  0870               	movf	___xxtofl@val,w
  5451  158B  00FA               	movwf	___xxtofl@arg
  5452  158C                     l844:
  5453  158C  0873               	movf	___xxtofl@val+3,w
  5454  158D  0472               	iorwf	___xxtofl@val+2,w
  5455  158E  0471               	iorwf	___xxtofl@val+1,w
  5456  158F  0470               	iorwf	___xxtofl@val,w
  5457  1590  1D03               	skipz
  5458  1591  2D93               	goto	u3571
  5459  1592  2D94               	goto	u3570
  5460  1593                     u3571:
  5461  1593  2D9D               	goto	l2776
  5462  1594                     u3570:
  5463  1594                     l2772:
  5464  1594  3000               	movlw	0
  5465  1595  00F3               	movwf	?___xxtofl+3
  5466  1596  3000               	movlw	0
  5467  1597  00F2               	movwf	?___xxtofl+2
  5468  1598  3000               	movlw	0
  5469  1599  00F1               	movwf	?___xxtofl+1
  5470  159A  3000               	movlw	0
  5471  159B  00F0               	movwf	?___xxtofl
  5472  159C  2E23               	goto	l846
  5473  159D                     l2776:
  5474  159D  3096               	movlw	150
  5475  159E  00F4               	movwf	??___xxtofl
  5476  159F  0874               	movf	??___xxtofl,w
  5477  15A0  00F9               	movwf	___xxtofl@exp
  5478  15A1  2DAF               	goto	l2780
  5479  15A2                     l2778:
  5480  15A2  3001               	movlw	1
  5481  15A3  00F4               	movwf	??___xxtofl
  5482  15A4  0874               	movf	??___xxtofl,w
  5483  15A5  07F9               	addwf	___xxtofl@exp,f
  5484  15A6  3001               	movlw	1
  5485  15A7                     u3585:
  5486  15A7  1003               	clrc
  5487  15A8  0CFD               	rrf	___xxtofl@arg+3,f
  5488  15A9  0CFC               	rrf	___xxtofl@arg+2,f
  5489  15AA  0CFB               	rrf	___xxtofl@arg+1,f
  5490  15AB  0CFA               	rrf	___xxtofl@arg,f
  5491  15AC  3EFF               	addlw	-1
  5492  15AD  1D03               	skipz
  5493  15AE  2DA7               	goto	u3585
  5494  15AF                     l2780:
  5495  15AF  30FE               	movlw	254
  5496  15B0  057D               	andwf	___xxtofl@arg+3,w
  5497  15B1  1D03               	btfss	3,2
  5498  15B2  2DB4               	goto	u3591
  5499  15B3  2DB5               	goto	u3590
  5500  15B4                     u3591:
  5501  15B4  2DA2               	goto	l2778
  5502  15B5                     u3590:
  5503  15B5  2DD1               	goto	l850
  5504  15B6                     l2782:
  5505  15B6  3001               	movlw	1
  5506  15B7  00F4               	movwf	??___xxtofl
  5507  15B8  0874               	movf	??___xxtofl,w
  5508  15B9  07F9               	addwf	___xxtofl@exp,f
  5509  15BA                     l2784:
  5510  15BA  3001               	movlw	1
  5511  15BB  07FA               	addwf	___xxtofl@arg,f
  5512  15BC  3000               	movlw	0
  5513  15BD  1803               	skipnc
  5514  15BE  3001               	movlw	1
  5515  15BF  07FB               	addwf	___xxtofl@arg+1,f
  5516  15C0  3000               	movlw	0
  5517  15C1  1803               	skipnc
  5518  15C2  3001               	movlw	1
  5519  15C3  07FC               	addwf	___xxtofl@arg+2,f
  5520  15C4  3000               	movlw	0
  5521  15C5  1803               	skipnc
  5522  15C6  3001               	movlw	1
  5523  15C7  07FD               	addwf	___xxtofl@arg+3,f
  5524  15C8                     l2786:
  5525  15C8  3001               	movlw	1
  5526  15C9                     u3605:
  5527  15C9  1003               	clrc
  5528  15CA  0CFD               	rrf	___xxtofl@arg+3,f
  5529  15CB  0CFC               	rrf	___xxtofl@arg+2,f
  5530  15CC  0CFB               	rrf	___xxtofl@arg+1,f
  5531  15CD  0CFA               	rrf	___xxtofl@arg,f
  5532  15CE  3EFF               	addlw	-1
  5533  15CF  1D03               	skipz
  5534  15D0  2DC9               	goto	u3605
  5535  15D1                     l850:
  5536  15D1  30FF               	movlw	255
  5537  15D2  057D               	andwf	___xxtofl@arg+3,w
  5538  15D3  1D03               	btfss	3,2
  5539  15D4  2DD6               	goto	u3611
  5540  15D5  2DD7               	goto	u3610
  5541  15D6                     u3611:
  5542  15D6  2DB6               	goto	l2782
  5543  15D7                     u3610:
  5544  15D7  2DE3               	goto	l2790
  5545  15D8                     l2788:
  5546  15D8  3001               	movlw	1
  5547  15D9  02F9               	subwf	___xxtofl@exp,f
  5548  15DA  3001               	movlw	1
  5549  15DB  00F4               	movwf	??___xxtofl
  5550  15DC                     u3625:
  5551  15DC  1003               	clrc
  5552  15DD  0DFA               	rlf	___xxtofl@arg,f
  5553  15DE  0DFB               	rlf	___xxtofl@arg+1,f
  5554  15DF  0DFC               	rlf	___xxtofl@arg+2,f
  5555  15E0  0DFD               	rlf	___xxtofl@arg+3,f
  5556  15E1  0BF4               	decfsz	??___xxtofl,f
  5557  15E2  2DDC               	goto	u3625
  5558  15E3                     l2790:
  5559  15E3  1BFC               	btfsc	___xxtofl@arg+2,7
  5560  15E4  2DE6               	goto	u3631
  5561  15E5  2DE7               	goto	u3630
  5562  15E6                     u3631:
  5563  15E6  2DED               	goto	l857
  5564  15E7                     u3630:
  5565  15E7                     l2792:
  5566  15E7  3002               	movlw	2
  5567  15E8  0279               	subwf	___xxtofl@exp,w
  5568  15E9  1803               	skipnc
  5569  15EA  2DEC               	goto	u3641
  5570  15EB  2DED               	goto	u3640
  5571  15EC                     u3641:
  5572  15EC  2DD8               	goto	l2788
  5573  15ED                     u3640:
  5574  15ED                     l857:
  5575  15ED  1879               	btfsc	___xxtofl@exp,0
  5576  15EE  2DF0               	goto	u3651
  5577  15EF  2DF1               	goto	u3650
  5578  15F0                     u3651:
  5579  15F0  2DF9               	goto	l858
  5580  15F1                     u3650:
  5581  15F1                     l2794:
  5582  15F1  30FF               	movlw	255
  5583  15F2  05FA               	andwf	___xxtofl@arg,f
  5584  15F3  30FF               	movlw	255
  5585  15F4  05FB               	andwf	___xxtofl@arg+1,f
  5586  15F5  307F               	movlw	127
  5587  15F6  05FC               	andwf	___xxtofl@arg+2,f
  5588  15F7  30FF               	movlw	255
  5589  15F8  05FD               	andwf	___xxtofl@arg+3,f
  5590  15F9                     l858:
  5591  15F9  1003               	clrc
  5592  15FA  0CF9               	rrf	___xxtofl@exp,f
  5593  15FB                     l2796:
  5594  15FB  0879               	movf	___xxtofl@exp,w
  5595  15FC  00F4               	movwf	??___xxtofl
  5596  15FD  01F5               	clrf	??___xxtofl+1
  5597  15FE  01F6               	clrf	??___xxtofl+2
  5598  15FF  01F7               	clrf	??___xxtofl+3
  5599  1600  3018               	movlw	24
  5600  1601                     u3665:
  5601  1601  1003               	clrc
  5602  1602  0DF4               	rlf	??___xxtofl,f
  5603  1603  0DF5               	rlf	??___xxtofl+1,f
  5604  1604  0DF6               	rlf	??___xxtofl+2,f
  5605  1605  0DF7               	rlf	??___xxtofl+3,f
  5606  1606                     u3660:
  5607  1606  3EFF               	addlw	-1
  5608  1607  1D03               	skipz
  5609  1608  2E01               	goto	u3665
  5610  1609  0874               	movf	??___xxtofl,w
  5611  160A  04FA               	iorwf	___xxtofl@arg,f
  5612  160B  0875               	movf	??___xxtofl+1,w
  5613  160C  04FB               	iorwf	___xxtofl@arg+1,f
  5614  160D  0876               	movf	??___xxtofl+2,w
  5615  160E  04FC               	iorwf	___xxtofl@arg+2,f
  5616  160F  0877               	movf	??___xxtofl+3,w
  5617  1610  04FD               	iorwf	___xxtofl@arg+3,f
  5618  1611                     l2798:
  5619  1611  0878               	movf	___xxtofl@sign,w
  5620  1612  1903               	btfsc	3,2
  5621  1613  2E15               	goto	u3671
  5622  1614  2E16               	goto	u3670
  5623  1615                     u3671:
  5624  1615  2E1B               	goto	l2804
  5625  1616                     u3670:
  5626  1616                     l2800:
  5627  1616  1FF3               	btfss	___xxtofl@val+3,7
  5628  1617  2E19               	goto	u3681
  5629  1618  2E1A               	goto	u3680
  5630  1619                     u3681:
  5631  1619  2E1B               	goto	l2804
  5632  161A                     u3680:
  5633  161A                     l2802:
  5634  161A  17FD               	bsf	___xxtofl@arg+3,7
  5635  161B                     l2804:
  5636  161B  087D               	movf	___xxtofl@arg+3,w
  5637  161C  00F3               	movwf	?___xxtofl+3
  5638  161D  087C               	movf	___xxtofl@arg+2,w
  5639  161E  00F2               	movwf	?___xxtofl+2
  5640  161F  087B               	movf	___xxtofl@arg+1,w
  5641  1620  00F1               	movwf	?___xxtofl+1
  5642  1621  087A               	movf	___xxtofl@arg,w
  5643  1622  00F0               	movwf	?___xxtofl
  5644  1623                     l846:
  5645  1623  0008               	return
  5646  1624                     __end_of___xxtofl:
  5647                           
  5648                           	psect	text12
  5649  14C8                     __ptext12:	
  5650 ;; *************** function ___flge *****************
  5651 ;; Defined at:
  5652 ;;		line 4 in file "C:\Program Files\Microchip\xc8\v2.36\pic\sources\c90\common\flge.c"
  5653 ;; Parameters:    Size  Location     Type
  5654 ;;  ff1             4    0[COMMON] unsigned char 
  5655 ;;  ff2             4    4[COMMON] unsigned char 
  5656 ;; Auto vars:     Size  Location     Type
  5657 ;;		None
  5658 ;; Return value:  Size  Location     Type
  5659 ;;		None               void
  5660 ;; Registers used:
  5661 ;;		wreg, status,2, status,0
  5662 ;; Tracked objects:
  5663 ;;		On entry : 0/0
  5664 ;;		On exit  : 0/0
  5665 ;;		Unchanged: 0/0
  5666 ;; Data sizes:     COMMON   BANK0   BANK1   BANK3   BANK2
  5667 ;;      Params:         8       0       0       0       0
  5668 ;;      Locals:         0       0       0       0       0
  5669 ;;      Temps:          4       0       0       0       0
  5670 ;;      Totals:        12       0       0       0       0
  5671 ;;Total ram usage:       12 bytes
  5672 ;; Hardware stack levels used: 1
  5673 ;; This function calls:
  5674 ;;		Nothing
  5675 ;; This function is called by:
  5676 ;;		_log
  5677 ;; This function uses a non-reentrant model
  5678 ;;
  5679                           
  5680  14C8                     ___flge:	
  5681                           ;psect for function ___flge
  5682                           
  5683  14C8                     l2696:	
  5684                           ;incstack = 0
  5685                           ; Regs used in ___flge: [wreg+status,2+status,0]
  5686                           
  5687  14C8  3000               	movlw	0
  5688  14C9  0570               	andwf	___flge@ff1,w
  5689  14CA  00F8               	movwf	??___flge
  5690  14CB  3000               	movlw	0
  5691  14CC  0571               	andwf	___flge@ff1+1,w
  5692  14CD  00F9               	movwf	??___flge+1
  5693  14CE  3080               	movlw	128
  5694  14CF  0572               	andwf	___flge@ff1+2,w
  5695  14D0  00FA               	movwf	??___flge+2
  5696  14D1  307F               	movlw	127
  5697  14D2  0573               	andwf	___flge@ff1+3,w
  5698  14D3  00FB               	movwf	??___flge+3
  5699  14D4  087B               	movf	??___flge+3,w
  5700  14D5  047A               	iorwf	??___flge+2,w
  5701  14D6  0479               	iorwf	??___flge+1,w
  5702  14D7  0478               	iorwf	??___flge,w
  5703  14D8  1D03               	skipz
  5704  14D9  2CDB               	goto	u3351
  5705  14DA  2CDC               	goto	u3350
  5706  14DB                     u3351:
  5707  14DB  2CE4               	goto	l585
  5708  14DC                     u3350:
  5709  14DC                     l2698:
  5710  14DC  3000               	movlw	0
  5711  14DD  00F3               	movwf	___flge@ff1+3
  5712  14DE  3000               	movlw	0
  5713  14DF  00F2               	movwf	___flge@ff1+2
  5714  14E0  3000               	movlw	0
  5715  14E1  00F1               	movwf	___flge@ff1+1
  5716  14E2  3000               	movlw	0
  5717  14E3  00F0               	movwf	___flge@ff1
  5718  14E4                     l585:
  5719  14E4  3000               	movlw	0
  5720  14E5  0574               	andwf	___flge@ff2,w
  5721  14E6  00F8               	movwf	??___flge
  5722  14E7  3000               	movlw	0
  5723  14E8  0575               	andwf	___flge@ff2+1,w
  5724  14E9  00F9               	movwf	??___flge+1
  5725  14EA  3080               	movlw	128
  5726  14EB  0576               	andwf	___flge@ff2+2,w
  5727  14EC  00FA               	movwf	??___flge+2
  5728  14ED  307F               	movlw	127
  5729  14EE  0577               	andwf	___flge@ff2+3,w
  5730  14EF  00FB               	movwf	??___flge+3
  5731  14F0  087B               	movf	??___flge+3,w
  5732  14F1  047A               	iorwf	??___flge+2,w
  5733  14F2  0479               	iorwf	??___flge+1,w
  5734  14F3  0478               	iorwf	??___flge,w
  5735  14F4  1D03               	skipz
  5736  14F5  2CF7               	goto	u3361
  5737  14F6  2CF8               	goto	u3360
  5738  14F7                     u3361:
  5739  14F7  2D00               	goto	l2702
  5740  14F8                     u3360:
  5741  14F8                     l2700:
  5742  14F8  3000               	movlw	0
  5743  14F9  00F7               	movwf	___flge@ff2+3
  5744  14FA  3000               	movlw	0
  5745  14FB  00F6               	movwf	___flge@ff2+2
  5746  14FC  3000               	movlw	0
  5747  14FD  00F5               	movwf	___flge@ff2+1
  5748  14FE  3000               	movlw	0
  5749  14FF  00F4               	movwf	___flge@ff2
  5750  1500                     l2702:
  5751  1500  1FF3               	btfss	___flge@ff1+3,7
  5752  1501  2D03               	goto	u3371
  5753  1502  2D04               	goto	u3370
  5754  1503                     u3371:
  5755  1503  2D28               	goto	l2706
  5756  1504                     u3370:
  5757  1504                     l2704:
  5758  1504  3000               	movlw	0
  5759  1505  00F8               	movwf	??___flge
  5760  1506  3000               	movlw	0
  5761  1507  00F9               	movwf	??___flge+1
  5762  1508  3000               	movlw	0
  5763  1509  00FA               	movwf	??___flge+2
  5764  150A  3080               	movlw	128
  5765  150B  00FB               	movwf	??___flge+3
  5766  150C  0870               	movf	___flge@ff1,w
  5767  150D  02F8               	subwf	??___flge,f
  5768  150E  0871               	movf	___flge@ff1+1,w
  5769  150F  1C03               	skipc
  5770  1510  0F71               	incfsz	___flge@ff1+1,w
  5771  1511  2D13               	goto	u3381
  5772  1512  2D14               	goto	u3382
  5773  1513                     u3381:
  5774  1513  02F9               	subwf	??___flge+1,f
  5775  1514                     u3382:
  5776  1514  0872               	movf	___flge@ff1+2,w
  5777  1515  1C03               	skipc
  5778  1516  0F72               	incfsz	___flge@ff1+2,w
  5779  1517  2D19               	goto	u3383
  5780  1518  2D1A               	goto	u3384
  5781  1519                     u3383:
  5782  1519  02FA               	subwf	??___flge+2,f
  5783  151A                     u3384:
  5784  151A  0873               	movf	___flge@ff1+3,w
  5785  151B  1C03               	skipc
  5786  151C  0F73               	incfsz	___flge@ff1+3,w
  5787  151D  2D1F               	goto	u3385
  5788  151E  2D20               	goto	u3386
  5789  151F                     u3385:
  5790  151F  02FB               	subwf	??___flge+3,f
  5791  1520                     u3386:
  5792  1520  087B               	movf	??___flge+3,w
  5793  1521  00F3               	movwf	___flge@ff1+3
  5794  1522  087A               	movf	??___flge+2,w
  5795  1523  00F2               	movwf	___flge@ff1+2
  5796  1524  0879               	movf	??___flge+1,w
  5797  1525  00F1               	movwf	___flge@ff1+1
  5798  1526  0878               	movf	??___flge,w
  5799  1527  00F0               	movwf	___flge@ff1
  5800  1528                     l2706:
  5801  1528  1FF7               	btfss	___flge@ff2+3,7
  5802  1529  2D2B               	goto	u3391
  5803  152A  2D2C               	goto	u3390
  5804  152B                     u3391:
  5805  152B  2D50               	goto	l588
  5806  152C                     u3390:
  5807  152C                     l2708:
  5808  152C  3000               	movlw	0
  5809  152D  00F8               	movwf	??___flge
  5810  152E  3000               	movlw	0
  5811  152F  00F9               	movwf	??___flge+1
  5812  1530  3000               	movlw	0
  5813  1531  00FA               	movwf	??___flge+2
  5814  1532  3080               	movlw	128
  5815  1533  00FB               	movwf	??___flge+3
  5816  1534  0874               	movf	___flge@ff2,w
  5817  1535  02F8               	subwf	??___flge,f
  5818  1536  0875               	movf	___flge@ff2+1,w
  5819  1537  1C03               	skipc
  5820  1538  0F75               	incfsz	___flge@ff2+1,w
  5821  1539  2D3B               	goto	u3401
  5822  153A  2D3C               	goto	u3402
  5823  153B                     u3401:
  5824  153B  02F9               	subwf	??___flge+1,f
  5825  153C                     u3402:
  5826  153C  0876               	movf	___flge@ff2+2,w
  5827  153D  1C03               	skipc
  5828  153E  0F76               	incfsz	___flge@ff2+2,w
  5829  153F  2D41               	goto	u3403
  5830  1540  2D42               	goto	u3404
  5831  1541                     u3403:
  5832  1541  02FA               	subwf	??___flge+2,f
  5833  1542                     u3404:
  5834  1542  0877               	movf	___flge@ff2+3,w
  5835  1543  1C03               	skipc
  5836  1544  0F77               	incfsz	___flge@ff2+3,w
  5837  1545  2D47               	goto	u3405
  5838  1546  2D48               	goto	u3406
  5839  1547                     u3405:
  5840  1547  02FB               	subwf	??___flge+3,f
  5841  1548                     u3406:
  5842  1548  087B               	movf	??___flge+3,w
  5843  1549  00F7               	movwf	___flge@ff2+3
  5844  154A  087A               	movf	??___flge+2,w
  5845  154B  00F6               	movwf	___flge@ff2+2
  5846  154C  0879               	movf	??___flge+1,w
  5847  154D  00F5               	movwf	___flge@ff2+1
  5848  154E  0878               	movf	??___flge,w
  5849  154F  00F4               	movwf	___flge@ff2
  5850  1550                     l588:
  5851  1550  3080               	movlw	128
  5852  1551  06F3               	xorwf	___flge@ff1+3,f
  5853  1552  3080               	movlw	128
  5854  1553  06F7               	xorwf	___flge@ff2+3,f
  5855  1554  0877               	movf	___flge@ff2+3,w
  5856  1555  0273               	subwf	___flge@ff1+3,w
  5857  1556  1D03               	skipz
  5858  1557  2D62               	goto	u3415
  5859  1558  0876               	movf	___flge@ff2+2,w
  5860  1559  0272               	subwf	___flge@ff1+2,w
  5861  155A  1D03               	skipz
  5862  155B  2D62               	goto	u3415
  5863  155C  0875               	movf	___flge@ff2+1,w
  5864  155D  0271               	subwf	___flge@ff1+1,w
  5865  155E  1D03               	skipz
  5866  155F  2D62               	goto	u3415
  5867  1560  0874               	movf	___flge@ff2,w
  5868  1561  0270               	subwf	___flge@ff1,w
  5869  1562                     u3415:
  5870  1562  1803               	skipnc
  5871  1563  2D65               	goto	u3411
  5872  1564  2D66               	goto	u3410
  5873  1565                     u3411:
  5874  1565  2D68               	goto	l2712
  5875  1566                     u3410:
  5876  1566                     l2710:
  5877  1566  1003               	clrc
  5878  1567  2D69               	goto	l589
  5879  1568                     l2712:
  5880  1568  1403               	setc
  5881  1569                     l589:
  5882  1569  0008               	return
  5883  156A                     __end_of___flge:
  5884                           
  5885                           	psect	text13
  5886  11A5                     __ptext13:	
  5887 ;; *************** function _keypad_init *****************
  5888 ;; Defined at:
  5889 ;;		line 38 in file "KEYPAD.c"
  5890 ;; Parameters:    Size  Location     Type
  5891 ;;		None
  5892 ;; Auto vars:     Size  Location     Type
  5893 ;;		None
  5894 ;; Return value:  Size  Location     Type
  5895 ;;                  1    wreg      void 
  5896 ;; Registers used:
  5897 ;;		wreg, status,2, status,0
  5898 ;; Tracked objects:
  5899 ;;		On entry : 0/0
  5900 ;;		On exit  : 0/0
  5901 ;;		Unchanged: 0/0
  5902 ;; Data sizes:     COMMON   BANK0   BANK1   BANK3   BANK2
  5903 ;;      Params:         0       0       0       0       0
  5904 ;;      Locals:         0       0       0       0       0
  5905 ;;      Temps:          1       0       0       0       0
  5906 ;;      Totals:         1       0       0       0       0
  5907 ;;Total ram usage:        1 bytes
  5908 ;; Hardware stack levels used: 1
  5909 ;; This function calls:
  5910 ;;		Nothing
  5911 ;; This function is called by:
  5912 ;;		_main
  5913 ;; This function uses a non-reentrant model
  5914 ;;
  5915                           
  5916  11A5                     _keypad_init:	
  5917                           ;psect for function _keypad_init
  5918                           
  5919  11A5                     l2838:	
  5920                           ;incstack = 0
  5921                           ; Regs used in _keypad_init: [wreg+status,2+status,0]
  5922                           
  5923                           
  5924                           ;KEYPAD.c: 40:     TRISB &= ~(1<<0) & ~(1<<1) & ~(1<<2) & ~(1<<3);
  5925  11A5  30F0               	movlw	240
  5926  11A6  00F0               	movwf	??_keypad_init
  5927  11A7  0870               	movf	??_keypad_init,w
  5928  11A8  1683               	bsf	3,5	;RP0=1, select bank1
  5929  11A9  1303               	bcf	3,6	;RP1=0, select bank1
  5930  11AA  0586               	andwf	6,f	;volatile
  5931                           
  5932                           ;KEYPAD.c: 41:     TRISB |= (1<<4) | (1<<5) | (1<<6) | (1<<7);
  5933  11AB  30F0               	movlw	240
  5934  11AC  00F0               	movwf	??_keypad_init
  5935  11AD  0870               	movf	??_keypad_init,w
  5936  11AE  0486               	iorwf	6,f	;volatile
  5937  11AF                     l2840:
  5938                           
  5939                           ;KEYPAD.c: 42:     OPTION_REGbits.nRBPU = 0;
  5940  11AF  1381               	bcf	1,7	;volatile
  5941  11B0                     l143:
  5942  11B0  0008               	return
  5943  11B1                     __end_of_keypad_init:
  5944                           
  5945                           	psect	text14
  5946  0846                     __ptext14:	
  5947 ;; *************** function _keypad_getkey2 *****************
  5948 ;; Defined at:
  5949 ;;		line 109 in file "KEYPAD.c"
  5950 ;; Parameters:    Size  Location     Type
  5951 ;;		None
  5952 ;; Auto vars:     Size  Location     Type
  5953 ;;  letras         16    0[BANK0 ] unsigned char [4][4]
  5954 ;;  i               2   17[BANK0 ] int 
  5955 ;;  valor           1   16[BANK0 ] unsigned char 
  5956 ;; Return value:  Size  Location     Type
  5957 ;;                  1    wreg      unsigned char 
  5958 ;; Registers used:
  5959 ;;		wreg, fsr0l, fsr0h, status,2, status,0, btemp+1
  5960 ;; Tracked objects:
  5961 ;;		On entry : 0/0
  5962 ;;		On exit  : 0/0
  5963 ;;		Unchanged: 0/0
  5964 ;; Data sizes:     COMMON   BANK0   BANK1   BANK3   BANK2
  5965 ;;      Params:         0       0       0       0       0
  5966 ;;      Locals:         0      19       0       0       0
  5967 ;;      Temps:          4       0       0       0       0
  5968 ;;      Totals:         4      19       0       0       0
  5969 ;;Total ram usage:       23 bytes
  5970 ;; Hardware stack levels used: 1
  5971 ;; This function calls:
  5972 ;;		Nothing
  5973 ;; This function is called by:
  5974 ;;		_main
  5975 ;; This function uses a non-reentrant model
  5976 ;;
  5977                           
  5978  0846                     _keypad_getkey2:	
  5979                           ;psect for function _keypad_getkey2
  5980                           
  5981  0846                     l3064:	
  5982                           ;incstack = 0
  5983                           ; Regs used in _keypad_getkey2: [wreg-fsr0h+status,2+status,0+btemp+1]
  5984                           
  5985                           
  5986                           ;KEYPAD.c: 111: char letras[4][4]={ {'1','2','3','A'},
  5987  0846  3020               	movlw	keypad_getkey2@letras& (0+255)
  5988  0847  0084               	movwf	4
  5989  0848  3090               	movlw	low keypad_getkey2@F1320
  5990  0849  00F0               	movwf	??_keypad_getkey2
  5991  084A  0804               	movf	4,w
  5992  084B  00F1               	movwf	??_keypad_getkey2+1
  5993  084C  3010               	movlw	16
  5994  084D  00F2               	movwf	??_keypad_getkey2+2
  5995  084E                     u4050:
  5996  084E  0870               	movf	??_keypad_getkey2,w
  5997  084F  0084               	movwf	4
  5998  0850  1783               	bsf	3,7	;select IRP bank3
  5999  0851  0800               	movf	0,w
  6000  0852  00F3               	movwf	??_keypad_getkey2+3
  6001  0853  0AF0               	incf	??_keypad_getkey2,f
  6002  0854  0871               	movf	??_keypad_getkey2+1,w
  6003  0855  0084               	movwf	4
  6004  0856  1383               	bcf	3,7	;select IRP bank0
  6005  0857  0873               	movf	??_keypad_getkey2+3,w
  6006  0858  0080               	movwf	0
  6007  0859  0AF1               	incf	??_keypad_getkey2+1,f
  6008  085A  0BF2               	decfsz	??_keypad_getkey2+2,f
  6009  085B  284E               	goto	u4050
  6010  085C                     l3066:
  6011  085C                     l3068:
  6012                           
  6013                           ;KEYPAD.c: 116: char valor=0;
  6014  085C  1283               	bcf	3,5	;RP0=0, select bank0
  6015  085D  1303               	bcf	3,6	;RP1=0, select bank0
  6016  085E  01B0               	clrf	keypad_getkey2@valor
  6017  085F                     l3070:
  6018                           
  6019                           ;KEYPAD.c: 118: for(i=0;i<4;i++){
  6020  085F  01B1               	clrf	keypad_getkey2@i
  6021  0860  01B2               	clrf	keypad_getkey2@i+1
  6022  0861                     l3076:
  6023                           
  6024                           ;KEYPAD.c: 120:    if(i==0){
  6025  0861  1283               	bcf	3,5	;RP0=0, select bank0
  6026  0862  1303               	bcf	3,6	;RP1=0, select bank0
  6027  0863  0831               	movf	keypad_getkey2@i,w
  6028  0864  0432               	iorwf	keypad_getkey2@i+1,w
  6029  0865  1D03               	btfss	3,2
  6030  0866  2868               	goto	u4061
  6031  0867  2869               	goto	u4060
  6032  0868                     u4061:
  6033  0868  2896               	goto	l3096
  6034  0869                     u4060:
  6035  0869                     l3078:
  6036                           
  6037                           ;KEYPAD.c: 122:       PORTB = (1<<7)|(1<<6)|(1<<5)|(1<<4)|(1<<3)|(1<<2)|(1<<1)|(0<<0);
  6038  0869  30FE               	movlw	254
  6039  086A  0086               	movwf	6	;volatile
  6040                           
  6041                           ;KEYPAD.c: 123:       _delay((unsigned long)((100)*(8000000/4000000.0)));
  6042  086B  3042               	movlw	66
  6043  086C  00F0               	movwf	??_keypad_getkey2
  6044  086D                     u5097:
  6045  086D  0BF0               	decfsz	??_keypad_getkey2,f
  6046  086E  286D               	goto	u5097
  6047  086F  0000               	nop
  6048                           
  6049                           ;KEYPAD.c: 124:       while (!(PORTB & (1<<4))){valor=letras[0][0];}
  6050  0870  2875               	goto	l3082
  6051  0871                     l3080:
  6052  0871  0820               	movf	keypad_getkey2@letras,w
  6053  0872  00F0               	movwf	??_keypad_getkey2
  6054  0873  0870               	movf	??_keypad_getkey2,w
  6055  0874  00B0               	movwf	keypad_getkey2@valor
  6056  0875                     l3082:
  6057  0875  1283               	bcf	3,5	;RP0=0, select bank0
  6058  0876  1303               	bcf	3,6	;RP1=0, select bank0
  6059  0877  1E06               	btfss	6,4	;volatile
  6060  0878  287A               	goto	u4071
  6061  0879  287B               	goto	u4070
  6062  087A                     u4071:
  6063  087A  2871               	goto	l3080
  6064  087B                     u4070:
  6065  087B  2880               	goto	l3086
  6066  087C                     l3084:
  6067  087C  0821               	movf	keypad_getkey2@letras+1,w
  6068  087D  00F0               	movwf	??_keypad_getkey2
  6069  087E  0870               	movf	??_keypad_getkey2,w
  6070  087F  00B0               	movwf	keypad_getkey2@valor
  6071  0880                     l3086:
  6072  0880  1E86               	btfss	6,5	;volatile
  6073  0881  2883               	goto	u4081
  6074  0882  2884               	goto	u4080
  6075  0883                     u4081:
  6076  0883  287C               	goto	l3084
  6077  0884                     u4080:
  6078  0884  2889               	goto	l3090
  6079  0885                     l3088:
  6080  0885  0822               	movf	keypad_getkey2@letras+2,w
  6081  0886  00F0               	movwf	??_keypad_getkey2
  6082  0887  0870               	movf	??_keypad_getkey2,w
  6083  0888  00B0               	movwf	keypad_getkey2@valor
  6084  0889                     l3090:
  6085  0889  1F06               	btfss	6,6	;volatile
  6086  088A  288C               	goto	u4091
  6087  088B  288D               	goto	u4090
  6088  088C                     u4091:
  6089  088C  2885               	goto	l3088
  6090  088D                     u4090:
  6091  088D  2892               	goto	l3094
  6092  088E                     l3092:
  6093  088E  0823               	movf	keypad_getkey2@letras+3,w
  6094  088F  00F0               	movwf	??_keypad_getkey2
  6095  0890  0870               	movf	??_keypad_getkey2,w
  6096  0891  00B0               	movwf	keypad_getkey2@valor
  6097  0892                     l3094:
  6098  0892  1F86               	btfss	6,7	;volatile
  6099  0893  2895               	goto	u4101
  6100  0894  2896               	goto	u4100
  6101  0895                     u4101:
  6102  0895  288E               	goto	l3092
  6103  0896                     u4100:
  6104  0896                     l3096:
  6105                           
  6106                           ;KEYPAD.c: 130:    if(i==1){
  6107  0896  0331               	decf	keypad_getkey2@i,w
  6108  0897  0432               	iorwf	keypad_getkey2@i+1,w
  6109  0898  1D03               	btfss	3,2
  6110  0899  289B               	goto	u4111
  6111  089A  289C               	goto	u4110
  6112  089B                     u4111:
  6113  089B  28C9               	goto	l3116
  6114  089C                     u4110:
  6115  089C                     l3098:
  6116                           
  6117                           ;KEYPAD.c: 131:       PORTB = (1<<7)|(1<<6)|(1<<5)|(1<<4)|(1<<3)|(1<<2)|(0<<1)|(1<<0);
  6118  089C  30FD               	movlw	253
  6119  089D  0086               	movwf	6	;volatile
  6120                           
  6121                           ;KEYPAD.c: 132:       _delay((unsigned long)((100)*(8000000/4000000.0)));
  6122  089E  3042               	movlw	66
  6123  089F  00F0               	movwf	??_keypad_getkey2
  6124  08A0                     u5107:
  6125  08A0  0BF0               	decfsz	??_keypad_getkey2,f
  6126  08A1  28A0               	goto	u5107
  6127  08A2  0000               	nop
  6128                           
  6129                           ;KEYPAD.c: 133:       while (!(PORTB & (1<<4))){valor=letras[1][0];}
  6130  08A3  28A8               	goto	l3102
  6131  08A4                     l3100:
  6132  08A4  0824               	movf	keypad_getkey2@letras+4,w
  6133  08A5  00F0               	movwf	??_keypad_getkey2
  6134  08A6  0870               	movf	??_keypad_getkey2,w
  6135  08A7  00B0               	movwf	keypad_getkey2@valor
  6136  08A8                     l3102:
  6137  08A8  1283               	bcf	3,5	;RP0=0, select bank0
  6138  08A9  1303               	bcf	3,6	;RP1=0, select bank0
  6139  08AA  1E06               	btfss	6,4	;volatile
  6140  08AB  28AD               	goto	u4121
  6141  08AC  28AE               	goto	u4120
  6142  08AD                     u4121:
  6143  08AD  28A4               	goto	l3100
  6144  08AE                     u4120:
  6145  08AE  28B3               	goto	l3106
  6146  08AF                     l3104:
  6147  08AF  0825               	movf	keypad_getkey2@letras+5,w
  6148  08B0  00F0               	movwf	??_keypad_getkey2
  6149  08B1  0870               	movf	??_keypad_getkey2,w
  6150  08B2  00B0               	movwf	keypad_getkey2@valor
  6151  08B3                     l3106:
  6152  08B3  1E86               	btfss	6,5	;volatile
  6153  08B4  28B6               	goto	u4131
  6154  08B5  28B7               	goto	u4130
  6155  08B6                     u4131:
  6156  08B6  28AF               	goto	l3104
  6157  08B7                     u4130:
  6158  08B7  28BC               	goto	l3110
  6159  08B8                     l3108:
  6160  08B8  0826               	movf	keypad_getkey2@letras+6,w
  6161  08B9  00F0               	movwf	??_keypad_getkey2
  6162  08BA  0870               	movf	??_keypad_getkey2,w
  6163  08BB  00B0               	movwf	keypad_getkey2@valor
  6164  08BC                     l3110:
  6165  08BC  1F06               	btfss	6,6	;volatile
  6166  08BD  28BF               	goto	u4141
  6167  08BE  28C0               	goto	u4140
  6168  08BF                     u4141:
  6169  08BF  28B8               	goto	l3108
  6170  08C0                     u4140:
  6171  08C0  28C5               	goto	l3114
  6172  08C1                     l3112:
  6173  08C1  0827               	movf	keypad_getkey2@letras+7,w
  6174  08C2  00F0               	movwf	??_keypad_getkey2
  6175  08C3  0870               	movf	??_keypad_getkey2,w
  6176  08C4  00B0               	movwf	keypad_getkey2@valor
  6177  08C5                     l3114:
  6178  08C5  1F86               	btfss	6,7	;volatile
  6179  08C6  28C8               	goto	u4151
  6180  08C7  28C9               	goto	u4150
  6181  08C8                     u4151:
  6182  08C8  28C1               	goto	l3112
  6183  08C9                     u4150:
  6184  08C9                     l3116:
  6185                           
  6186                           ;KEYPAD.c: 139:    if(i==2){
  6187  08C9  3002               	movlw	2
  6188  08CA  0631               	xorwf	keypad_getkey2@i,w
  6189  08CB  0432               	iorwf	keypad_getkey2@i+1,w
  6190  08CC  1D03               	btfss	3,2
  6191  08CD  28CF               	goto	u4161
  6192  08CE  28D0               	goto	u4160
  6193  08CF                     u4161:
  6194  08CF  28FD               	goto	l3136
  6195  08D0                     u4160:
  6196  08D0                     l3118:
  6197                           
  6198                           ;KEYPAD.c: 140:       PORTB = (1<<7)|(1<<6)|(1<<5)|(1<<4)|(1<<3)|(0<<2)|(1<<1)|(1<<0);
  6199  08D0  30FB               	movlw	251
  6200  08D1  0086               	movwf	6	;volatile
  6201                           
  6202                           ;KEYPAD.c: 141:       _delay((unsigned long)((100)*(8000000/4000000.0)));
  6203  08D2  3042               	movlw	66
  6204  08D3  00F0               	movwf	??_keypad_getkey2
  6205  08D4                     u5117:
  6206  08D4  0BF0               	decfsz	??_keypad_getkey2,f
  6207  08D5  28D4               	goto	u5117
  6208  08D6  0000               	nop
  6209                           
  6210                           ;KEYPAD.c: 142:       while (!(PORTB & (1<<4))){valor=letras[2][0];}
  6211  08D7  28DC               	goto	l3122
  6212  08D8                     l3120:
  6213  08D8  0828               	movf	keypad_getkey2@letras+8,w
  6214  08D9  00F0               	movwf	??_keypad_getkey2
  6215  08DA  0870               	movf	??_keypad_getkey2,w
  6216  08DB  00B0               	movwf	keypad_getkey2@valor
  6217  08DC                     l3122:
  6218  08DC  1283               	bcf	3,5	;RP0=0, select bank0
  6219  08DD  1303               	bcf	3,6	;RP1=0, select bank0
  6220  08DE  1E06               	btfss	6,4	;volatile
  6221  08DF  28E1               	goto	u4171
  6222  08E0  28E2               	goto	u4170
  6223  08E1                     u4171:
  6224  08E1  28D8               	goto	l3120
  6225  08E2                     u4170:
  6226  08E2  28E7               	goto	l3126
  6227  08E3                     l3124:
  6228  08E3  0829               	movf	keypad_getkey2@letras+9,w
  6229  08E4  00F0               	movwf	??_keypad_getkey2
  6230  08E5  0870               	movf	??_keypad_getkey2,w
  6231  08E6  00B0               	movwf	keypad_getkey2@valor
  6232  08E7                     l3126:
  6233  08E7  1E86               	btfss	6,5	;volatile
  6234  08E8  28EA               	goto	u4181
  6235  08E9  28EB               	goto	u4180
  6236  08EA                     u4181:
  6237  08EA  28E3               	goto	l3124
  6238  08EB                     u4180:
  6239  08EB  28F0               	goto	l3130
  6240  08EC                     l3128:
  6241  08EC  082A               	movf	keypad_getkey2@letras+10,w
  6242  08ED  00F0               	movwf	??_keypad_getkey2
  6243  08EE  0870               	movf	??_keypad_getkey2,w
  6244  08EF  00B0               	movwf	keypad_getkey2@valor
  6245  08F0                     l3130:
  6246  08F0  1F06               	btfss	6,6	;volatile
  6247  08F1  28F3               	goto	u4191
  6248  08F2  28F4               	goto	u4190
  6249  08F3                     u4191:
  6250  08F3  28EC               	goto	l3128
  6251  08F4                     u4190:
  6252  08F4  28F9               	goto	l3134
  6253  08F5                     l3132:
  6254  08F5  082B               	movf	keypad_getkey2@letras+11,w
  6255  08F6  00F0               	movwf	??_keypad_getkey2
  6256  08F7  0870               	movf	??_keypad_getkey2,w
  6257  08F8  00B0               	movwf	keypad_getkey2@valor
  6258  08F9                     l3134:
  6259  08F9  1F86               	btfss	6,7	;volatile
  6260  08FA  28FC               	goto	u4201
  6261  08FB  28FD               	goto	u4200
  6262  08FC                     u4201:
  6263  08FC  28F5               	goto	l3132
  6264  08FD                     u4200:
  6265  08FD                     l3136:
  6266                           
  6267                           ;KEYPAD.c: 148:    if(i==3){
  6268  08FD  3003               	movlw	3
  6269  08FE  0631               	xorwf	keypad_getkey2@i,w
  6270  08FF  0432               	iorwf	keypad_getkey2@i+1,w
  6271  0900  1D03               	btfss	3,2
  6272  0901  2903               	goto	u4211
  6273  0902  2904               	goto	u4210
  6274  0903                     u4211:
  6275  0903  2931               	goto	l3156
  6276  0904                     u4210:
  6277  0904                     l3138:
  6278                           
  6279                           ;KEYPAD.c: 149:       PORTB = (1<<7)|(1<<6)|(1<<5)|(1<<4)|(0<<3)|(1<<2)|(1<<1)|(1<<0);
  6280  0904  30F7               	movlw	247
  6281  0905  0086               	movwf	6	;volatile
  6282                           
  6283                           ;KEYPAD.c: 150:       _delay((unsigned long)((100)*(8000000/4000000.0)));
  6284  0906  3042               	movlw	66
  6285  0907  00F0               	movwf	??_keypad_getkey2
  6286  0908                     u5127:
  6287  0908  0BF0               	decfsz	??_keypad_getkey2,f
  6288  0909  2908               	goto	u5127
  6289  090A  0000               	nop
  6290                           
  6291                           ;KEYPAD.c: 151:       while (!(PORTB & (1<<4))){valor=letras[3][0];}
  6292  090B  2910               	goto	l3142
  6293  090C                     l3140:
  6294  090C  082C               	movf	keypad_getkey2@letras+12,w
  6295  090D  00F0               	movwf	??_keypad_getkey2
  6296  090E  0870               	movf	??_keypad_getkey2,w
  6297  090F  00B0               	movwf	keypad_getkey2@valor
  6298  0910                     l3142:
  6299  0910  1283               	bcf	3,5	;RP0=0, select bank0
  6300  0911  1303               	bcf	3,6	;RP1=0, select bank0
  6301  0912  1E06               	btfss	6,4	;volatile
  6302  0913  2915               	goto	u4221
  6303  0914  2916               	goto	u4220
  6304  0915                     u4221:
  6305  0915  290C               	goto	l3140
  6306  0916                     u4220:
  6307  0916  291B               	goto	l3146
  6308  0917                     l3144:
  6309  0917  082D               	movf	keypad_getkey2@letras+13,w
  6310  0918  00F0               	movwf	??_keypad_getkey2
  6311  0919  0870               	movf	??_keypad_getkey2,w
  6312  091A  00B0               	movwf	keypad_getkey2@valor
  6313  091B                     l3146:
  6314  091B  1E86               	btfss	6,5	;volatile
  6315  091C  291E               	goto	u4231
  6316  091D  291F               	goto	u4230
  6317  091E                     u4231:
  6318  091E  2917               	goto	l3144
  6319  091F                     u4230:
  6320  091F  2924               	goto	l3150
  6321  0920                     l3148:
  6322  0920  082E               	movf	keypad_getkey2@letras+14,w
  6323  0921  00F0               	movwf	??_keypad_getkey2
  6324  0922  0870               	movf	??_keypad_getkey2,w
  6325  0923  00B0               	movwf	keypad_getkey2@valor
  6326  0924                     l3150:
  6327  0924  1F06               	btfss	6,6	;volatile
  6328  0925  2927               	goto	u4241
  6329  0926  2928               	goto	u4240
  6330  0927                     u4241:
  6331  0927  2920               	goto	l3148
  6332  0928                     u4240:
  6333  0928  292D               	goto	l3154
  6334  0929                     l3152:
  6335  0929  082F               	movf	keypad_getkey2@letras+15,w
  6336  092A  00F0               	movwf	??_keypad_getkey2
  6337  092B  0870               	movf	??_keypad_getkey2,w
  6338  092C  00B0               	movwf	keypad_getkey2@valor
  6339  092D                     l3154:
  6340  092D  1F86               	btfss	6,7	;volatile
  6341  092E  2930               	goto	u4251
  6342  092F  2931               	goto	u4250
  6343  0930                     u4251:
  6344  0930  2929               	goto	l3152
  6345  0931                     u4250:
  6346  0931                     l3156:
  6347                           
  6348                           ;KEYPAD.c: 156:    }
  6349  0931  3001               	movlw	1
  6350  0932  07B1               	addwf	keypad_getkey2@i,f
  6351  0933  1803               	skipnc
  6352  0934  0AB2               	incf	keypad_getkey2@i+1,f
  6353  0935  3000               	movlw	0
  6354  0936  07B2               	addwf	keypad_getkey2@i+1,f
  6355  0937                     l3158:
  6356  0937  0832               	movf	keypad_getkey2@i+1,w
  6357  0938  3A80               	xorlw	128
  6358  0939  00FF               	movwf	btemp+1
  6359  093A  3080               	movlw	128
  6360  093B  027F               	subwf	btemp+1,w
  6361  093C  1D03               	skipz
  6362  093D  2940               	goto	u4265
  6363  093E  3004               	movlw	4
  6364  093F  0231               	subwf	keypad_getkey2@i,w
  6365  0940                     u4265:
  6366  0940  1C03               	skipc
  6367  0941  2943               	goto	u4261
  6368  0942  2944               	goto	u4260
  6369  0943                     u4261:
  6370  0943  2861               	goto	l3076
  6371  0944                     u4260:
  6372  0944                     l3160:
  6373                           
  6374                           ;KEYPAD.c: 158:    return valor;
  6375  0944  1283               	bcf	3,5	;RP0=0, select bank0
  6376  0945  1303               	bcf	3,6	;RP1=0, select bank0
  6377  0946  0830               	movf	keypad_getkey2@valor,w
  6378  0947                     l261:
  6379  0947  0008               	return
  6380  0948                     __end_of_keypad_getkey2:
  6381                           
  6382                           	psect	text15
  6383  16FE                     __ptext15:	
  6384 ;; *************** function _keypad_getkey *****************
  6385 ;; Defined at:
  6386 ;;		line 57 in file "KEYPAD.c"
  6387 ;; Parameters:    Size  Location     Type
  6388 ;;		None
  6389 ;; Auto vars:     Size  Location     Type
  6390 ;;  letras         16    0[BANK0 ] unsigned char [4][4]
  6391 ;;  i               2   17[BANK0 ] int 
  6392 ;;  valor           1   16[BANK0 ] unsigned char 
  6393 ;; Return value:  Size  Location     Type
  6394 ;;                  1    wreg      unsigned char 
  6395 ;; Registers used:
  6396 ;;		wreg, fsr0l, fsr0h, status,2, status,0, btemp+1
  6397 ;; Tracked objects:
  6398 ;;		On entry : 0/0
  6399 ;;		On exit  : 0/0
  6400 ;;		Unchanged: 0/0
  6401 ;; Data sizes:     COMMON   BANK0   BANK1   BANK3   BANK2
  6402 ;;      Params:         0       0       0       0       0
  6403 ;;      Locals:         0      19       0       0       0
  6404 ;;      Temps:          4       0       0       0       0
  6405 ;;      Totals:         4      19       0       0       0
  6406 ;;Total ram usage:       23 bytes
  6407 ;; Hardware stack levels used: 1
  6408 ;; This function calls:
  6409 ;;		Nothing
  6410 ;; This function is called by:
  6411 ;;		_main
  6412 ;; This function uses a non-reentrant model
  6413 ;;
  6414                           
  6415  16FE                     _keypad_getkey:	
  6416                           ;psect for function _keypad_getkey
  6417                           
  6418  16FE                     l2960:	
  6419                           ;incstack = 0
  6420                           ; Regs used in _keypad_getkey: [wreg-fsr0h+status,2+status,0+btemp+1]
  6421                           
  6422                           
  6423                           ;KEYPAD.c: 59: char letras[4][4]={ {'1','2','3','A'},
  6424  16FE  3020               	movlw	keypad_getkey@letras& (0+255)
  6425  16FF  0084               	movwf	4
  6426  1700  30A0               	movlw	low keypad_getkey@F1297
  6427  1701  00F0               	movwf	??_keypad_getkey
  6428  1702  0804               	movf	4,w
  6429  1703  00F1               	movwf	??_keypad_getkey+1
  6430  1704  3010               	movlw	16
  6431  1705  00F2               	movwf	??_keypad_getkey+2
  6432  1706                     u3830:
  6433  1706  0870               	movf	??_keypad_getkey,w
  6434  1707  0084               	movwf	4
  6435  1708  1783               	bsf	3,7	;select IRP bank3
  6436  1709  0800               	movf	0,w
  6437  170A  00F3               	movwf	??_keypad_getkey+3
  6438  170B  0AF0               	incf	??_keypad_getkey,f
  6439  170C  0871               	movf	??_keypad_getkey+1,w
  6440  170D  0084               	movwf	4
  6441  170E  1383               	bcf	3,7	;select IRP bank0
  6442  170F  0873               	movf	??_keypad_getkey+3,w
  6443  1710  0080               	movwf	0
  6444  1711  0AF1               	incf	??_keypad_getkey+1,f
  6445  1712  0BF2               	decfsz	??_keypad_getkey+2,f
  6446  1713  2F06               	goto	u3830
  6447  1714                     l2962:
  6448  1714                     l2964:
  6449                           
  6450                           ;KEYPAD.c: 64: char valor=0;
  6451  1714  1283               	bcf	3,5	;RP0=0, select bank0
  6452  1715  1303               	bcf	3,6	;RP1=0, select bank0
  6453  1716  01B0               	clrf	keypad_getkey@valor
  6454  1717                     l2966:
  6455                           
  6456                           ;KEYPAD.c: 66: for(i=0;i<4;i++){
  6457  1717  01B1               	clrf	keypad_getkey@i
  6458  1718  01B2               	clrf	keypad_getkey@i+1
  6459  1719                     l2972:
  6460                           
  6461                           ;KEYPAD.c: 68:    if(i==0){
  6462  1719  1283               	bcf	3,5	;RP0=0, select bank0
  6463  171A  1303               	bcf	3,6	;RP1=0, select bank0
  6464  171B  0831               	movf	keypad_getkey@i,w
  6465  171C  0432               	iorwf	keypad_getkey@i+1,w
  6466  171D  1D03               	btfss	3,2
  6467  171E  2F20               	goto	u3841
  6468  171F  2F21               	goto	u3840
  6469  1720                     u3841:
  6470  1720  2F4E               	goto	l2992
  6471  1721                     u3840:
  6472  1721                     l2974:
  6473                           
  6474                           ;KEYPAD.c: 70:       PORTB = (1<<7)|(1<<6)|(1<<5)|(1<<4)|(1<<3)|(1<<2)|(1<<1)|(0<<0);
  6475  1721  30FE               	movlw	254
  6476  1722  0086               	movwf	6	;volatile
  6477                           
  6478                           ;KEYPAD.c: 71:       _delay((unsigned long)((100)*(8000000/4000000.0)));
  6479  1723  3042               	movlw	66
  6480  1724  00F0               	movwf	??_keypad_getkey
  6481  1725                     u5137:
  6482  1725  0BF0               	decfsz	??_keypad_getkey,f
  6483  1726  2F25               	goto	u5137
  6484  1727  0000               	nop
  6485                           
  6486                           ;KEYPAD.c: 72:       while (!(PORTB & (1<<4))){valor=letras[0][0];}
  6487  1728  2F2D               	goto	l2978
  6488  1729                     l2976:
  6489  1729  0820               	movf	keypad_getkey@letras,w
  6490  172A  00F0               	movwf	??_keypad_getkey
  6491  172B  0870               	movf	??_keypad_getkey,w
  6492  172C  00B0               	movwf	keypad_getkey@valor
  6493  172D                     l2978:
  6494  172D  1283               	bcf	3,5	;RP0=0, select bank0
  6495  172E  1303               	bcf	3,6	;RP1=0, select bank0
  6496  172F  1E06               	btfss	6,4	;volatile
  6497  1730  2F32               	goto	u3851
  6498  1731  2F33               	goto	u3850
  6499  1732                     u3851:
  6500  1732  2F29               	goto	l2976
  6501  1733                     u3850:
  6502  1733  2F38               	goto	l2982
  6503  1734                     l2980:
  6504  1734  0821               	movf	keypad_getkey@letras+1,w
  6505  1735  00F0               	movwf	??_keypad_getkey
  6506  1736  0870               	movf	??_keypad_getkey,w
  6507  1737  00B0               	movwf	keypad_getkey@valor
  6508  1738                     l2982:
  6509  1738  1E86               	btfss	6,5	;volatile
  6510  1739  2F3B               	goto	u3861
  6511  173A  2F3C               	goto	u3860
  6512  173B                     u3861:
  6513  173B  2F34               	goto	l2980
  6514  173C                     u3860:
  6515  173C  2F41               	goto	l2986
  6516  173D                     l2984:
  6517  173D  0822               	movf	keypad_getkey@letras+2,w
  6518  173E  00F0               	movwf	??_keypad_getkey
  6519  173F  0870               	movf	??_keypad_getkey,w
  6520  1740  00B0               	movwf	keypad_getkey@valor
  6521  1741                     l2986:
  6522  1741  1F06               	btfss	6,6	;volatile
  6523  1742  2F44               	goto	u3871
  6524  1743  2F45               	goto	u3870
  6525  1744                     u3871:
  6526  1744  2F3D               	goto	l2984
  6527  1745                     u3870:
  6528  1745  2F4A               	goto	l2990
  6529  1746                     l2988:
  6530  1746  0823               	movf	keypad_getkey@letras+3,w
  6531  1747  00F0               	movwf	??_keypad_getkey
  6532  1748  0870               	movf	??_keypad_getkey,w
  6533  1749  00B0               	movwf	keypad_getkey@valor
  6534  174A                     l2990:
  6535  174A  1F86               	btfss	6,7	;volatile
  6536  174B  2F4D               	goto	u3881
  6537  174C  2F4E               	goto	u3880
  6538  174D                     u3881:
  6539  174D  2F46               	goto	l2988
  6540  174E                     u3880:
  6541  174E                     l2992:
  6542                           
  6543                           ;KEYPAD.c: 78:    if(i==1){
  6544  174E  0331               	decf	keypad_getkey@i,w
  6545  174F  0432               	iorwf	keypad_getkey@i+1,w
  6546  1750  1D03               	btfss	3,2
  6547  1751  2F53               	goto	u3891
  6548  1752  2F54               	goto	u3890
  6549  1753                     u3891:
  6550  1753  2F81               	goto	l3012
  6551  1754                     u3890:
  6552  1754                     l2994:
  6553                           
  6554                           ;KEYPAD.c: 79:       PORTB = (1<<7)|(1<<6)|(1<<5)|(1<<4)|(1<<3)|(1<<2)|(0<<1)|(1<<0);
  6555  1754  30FD               	movlw	253
  6556  1755  0086               	movwf	6	;volatile
  6557                           
  6558                           ;KEYPAD.c: 80:       _delay((unsigned long)((100)*(8000000/4000000.0)));
  6559  1756  3042               	movlw	66
  6560  1757  00F0               	movwf	??_keypad_getkey
  6561  1758                     u5147:
  6562  1758  0BF0               	decfsz	??_keypad_getkey,f
  6563  1759  2F58               	goto	u5147
  6564  175A  0000               	nop
  6565                           
  6566                           ;KEYPAD.c: 81:       while (!(PORTB & (1<<4))){valor=letras[1][0];}
  6567  175B  2F60               	goto	l2998
  6568  175C                     l2996:
  6569  175C  0824               	movf	keypad_getkey@letras+4,w
  6570  175D  00F0               	movwf	??_keypad_getkey
  6571  175E  0870               	movf	??_keypad_getkey,w
  6572  175F  00B0               	movwf	keypad_getkey@valor
  6573  1760                     l2998:
  6574  1760  1283               	bcf	3,5	;RP0=0, select bank0
  6575  1761  1303               	bcf	3,6	;RP1=0, select bank0
  6576  1762  1E06               	btfss	6,4	;volatile
  6577  1763  2F65               	goto	u3901
  6578  1764  2F66               	goto	u3900
  6579  1765                     u3901:
  6580  1765  2F5C               	goto	l2996
  6581  1766                     u3900:
  6582  1766  2F6B               	goto	l3002
  6583  1767                     l3000:
  6584  1767  0825               	movf	keypad_getkey@letras+5,w
  6585  1768  00F0               	movwf	??_keypad_getkey
  6586  1769  0870               	movf	??_keypad_getkey,w
  6587  176A  00B0               	movwf	keypad_getkey@valor
  6588  176B                     l3002:
  6589  176B  1E86               	btfss	6,5	;volatile
  6590  176C  2F6E               	goto	u3911
  6591  176D  2F6F               	goto	u3910
  6592  176E                     u3911:
  6593  176E  2F67               	goto	l3000
  6594  176F                     u3910:
  6595  176F  2F74               	goto	l3006
  6596  1770                     l3004:
  6597  1770  0826               	movf	keypad_getkey@letras+6,w
  6598  1771  00F0               	movwf	??_keypad_getkey
  6599  1772  0870               	movf	??_keypad_getkey,w
  6600  1773  00B0               	movwf	keypad_getkey@valor
  6601  1774                     l3006:
  6602  1774  1F06               	btfss	6,6	;volatile
  6603  1775  2F77               	goto	u3921
  6604  1776  2F78               	goto	u3920
  6605  1777                     u3921:
  6606  1777  2F70               	goto	l3004
  6607  1778                     u3920:
  6608  1778  2F7D               	goto	l3010
  6609  1779                     l3008:
  6610  1779  0827               	movf	keypad_getkey@letras+7,w
  6611  177A  00F0               	movwf	??_keypad_getkey
  6612  177B  0870               	movf	??_keypad_getkey,w
  6613  177C  00B0               	movwf	keypad_getkey@valor
  6614  177D                     l3010:
  6615  177D  1F86               	btfss	6,7	;volatile
  6616  177E  2F80               	goto	u3931
  6617  177F  2F81               	goto	u3930
  6618  1780                     u3931:
  6619  1780  2F79               	goto	l3008
  6620  1781                     u3930:
  6621  1781                     l3012:
  6622                           
  6623                           ;KEYPAD.c: 87:    if(i==2){
  6624  1781  3002               	movlw	2
  6625  1782  0631               	xorwf	keypad_getkey@i,w
  6626  1783  0432               	iorwf	keypad_getkey@i+1,w
  6627  1784  1D03               	btfss	3,2
  6628  1785  2F87               	goto	u3941
  6629  1786  2F88               	goto	u3940
  6630  1787                     u3941:
  6631  1787  2FB5               	goto	l3032
  6632  1788                     u3940:
  6633  1788                     l3014:
  6634                           
  6635                           ;KEYPAD.c: 88:       PORTB = (1<<7)|(1<<6)|(1<<5)|(1<<4)|(1<<3)|(0<<2)|(1<<1)|(1<<0);
  6636  1788  30FB               	movlw	251
  6637  1789  0086               	movwf	6	;volatile
  6638                           
  6639                           ;KEYPAD.c: 89:       _delay((unsigned long)((100)*(8000000/4000000.0)));
  6640  178A  3042               	movlw	66
  6641  178B  00F0               	movwf	??_keypad_getkey
  6642  178C                     u5157:
  6643  178C  0BF0               	decfsz	??_keypad_getkey,f
  6644  178D  2F8C               	goto	u5157
  6645  178E  0000               	nop
  6646                           
  6647                           ;KEYPAD.c: 90:       while (!(PORTB & (1<<4))){valor=letras[2][0];}
  6648  178F  2F94               	goto	l3018
  6649  1790                     l3016:
  6650  1790  0828               	movf	keypad_getkey@letras+8,w
  6651  1791  00F0               	movwf	??_keypad_getkey
  6652  1792  0870               	movf	??_keypad_getkey,w
  6653  1793  00B0               	movwf	keypad_getkey@valor
  6654  1794                     l3018:
  6655  1794  1283               	bcf	3,5	;RP0=0, select bank0
  6656  1795  1303               	bcf	3,6	;RP1=0, select bank0
  6657  1796  1E06               	btfss	6,4	;volatile
  6658  1797  2F99               	goto	u3951
  6659  1798  2F9A               	goto	u3950
  6660  1799                     u3951:
  6661  1799  2F90               	goto	l3016
  6662  179A                     u3950:
  6663  179A  2F9F               	goto	l3022
  6664  179B                     l3020:
  6665  179B  0829               	movf	keypad_getkey@letras+9,w
  6666  179C  00F0               	movwf	??_keypad_getkey
  6667  179D  0870               	movf	??_keypad_getkey,w
  6668  179E  00B0               	movwf	keypad_getkey@valor
  6669  179F                     l3022:
  6670  179F  1E86               	btfss	6,5	;volatile
  6671  17A0  2FA2               	goto	u3961
  6672  17A1  2FA3               	goto	u3960
  6673  17A2                     u3961:
  6674  17A2  2F9B               	goto	l3020
  6675  17A3                     u3960:
  6676  17A3  2FA8               	goto	l3026
  6677  17A4                     l3024:
  6678  17A4  082A               	movf	keypad_getkey@letras+10,w
  6679  17A5  00F0               	movwf	??_keypad_getkey
  6680  17A6  0870               	movf	??_keypad_getkey,w
  6681  17A7  00B0               	movwf	keypad_getkey@valor
  6682  17A8                     l3026:
  6683  17A8  1F06               	btfss	6,6	;volatile
  6684  17A9  2FAB               	goto	u3971
  6685  17AA  2FAC               	goto	u3970
  6686  17AB                     u3971:
  6687  17AB  2FA4               	goto	l3024
  6688  17AC                     u3970:
  6689  17AC  2FB1               	goto	l3030
  6690  17AD                     l3028:
  6691  17AD  082B               	movf	keypad_getkey@letras+11,w
  6692  17AE  00F0               	movwf	??_keypad_getkey
  6693  17AF  0870               	movf	??_keypad_getkey,w
  6694  17B0  00B0               	movwf	keypad_getkey@valor
  6695  17B1                     l3030:
  6696  17B1  1F86               	btfss	6,7	;volatile
  6697  17B2  2FB4               	goto	u3981
  6698  17B3  2FB5               	goto	u3980
  6699  17B4                     u3981:
  6700  17B4  2FAD               	goto	l3028
  6701  17B5                     u3980:
  6702  17B5                     l3032:
  6703                           
  6704                           ;KEYPAD.c: 96:    if(i==3){
  6705  17B5  3003               	movlw	3
  6706  17B6  0631               	xorwf	keypad_getkey@i,w
  6707  17B7  0432               	iorwf	keypad_getkey@i+1,w
  6708  17B8  1D03               	btfss	3,2
  6709  17B9  2FBB               	goto	u3991
  6710  17BA  2FBC               	goto	u3990
  6711  17BB                     u3991:
  6712  17BB  2FE9               	goto	l3052
  6713  17BC                     u3990:
  6714  17BC                     l3034:
  6715                           
  6716                           ;KEYPAD.c: 97:       PORTB = (1<<7)|(1<<6)|(1<<5)|(1<<4)|(0<<3)|(1<<2)|(1<<1)|(1<<0);
  6717  17BC  30F7               	movlw	247
  6718  17BD  0086               	movwf	6	;volatile
  6719                           
  6720                           ;KEYPAD.c: 98:       _delay((unsigned long)((100)*(8000000/4000000.0)));
  6721  17BE  3042               	movlw	66
  6722  17BF  00F0               	movwf	??_keypad_getkey
  6723  17C0                     u5167:
  6724  17C0  0BF0               	decfsz	??_keypad_getkey,f
  6725  17C1  2FC0               	goto	u5167
  6726  17C2  0000               	nop
  6727                           
  6728                           ;KEYPAD.c: 99:       while (!(PORTB & (1<<4))){valor=letras[3][0];}
  6729  17C3  2FC8               	goto	l3038
  6730  17C4                     l3036:
  6731  17C4  082C               	movf	keypad_getkey@letras+12,w
  6732  17C5  00F0               	movwf	??_keypad_getkey
  6733  17C6  0870               	movf	??_keypad_getkey,w
  6734  17C7  00B0               	movwf	keypad_getkey@valor
  6735  17C8                     l3038:
  6736  17C8  1283               	bcf	3,5	;RP0=0, select bank0
  6737  17C9  1303               	bcf	3,6	;RP1=0, select bank0
  6738  17CA  1E06               	btfss	6,4	;volatile
  6739  17CB  2FCD               	goto	u4001
  6740  17CC  2FCE               	goto	u4000
  6741  17CD                     u4001:
  6742  17CD  2FC4               	goto	l3036
  6743  17CE                     u4000:
  6744  17CE  2FD3               	goto	l3042
  6745  17CF                     l3040:
  6746  17CF  082D               	movf	keypad_getkey@letras+13,w
  6747  17D0  00F0               	movwf	??_keypad_getkey
  6748  17D1  0870               	movf	??_keypad_getkey,w
  6749  17D2  00B0               	movwf	keypad_getkey@valor
  6750  17D3                     l3042:
  6751  17D3  1E86               	btfss	6,5	;volatile
  6752  17D4  2FD6               	goto	u4011
  6753  17D5  2FD7               	goto	u4010
  6754  17D6                     u4011:
  6755  17D6  2FCF               	goto	l3040
  6756  17D7                     u4010:
  6757  17D7  2FDC               	goto	l3046
  6758  17D8                     l3044:
  6759  17D8  082E               	movf	keypad_getkey@letras+14,w
  6760  17D9  00F0               	movwf	??_keypad_getkey
  6761  17DA  0870               	movf	??_keypad_getkey,w
  6762  17DB  00B0               	movwf	keypad_getkey@valor
  6763  17DC                     l3046:
  6764  17DC  1F06               	btfss	6,6	;volatile
  6765  17DD  2FDF               	goto	u4021
  6766  17DE  2FE0               	goto	u4020
  6767  17DF                     u4021:
  6768  17DF  2FD8               	goto	l3044
  6769  17E0                     u4020:
  6770  17E0  2FE5               	goto	l3050
  6771  17E1                     l3048:
  6772  17E1  082F               	movf	keypad_getkey@letras+15,w
  6773  17E2  00F0               	movwf	??_keypad_getkey
  6774  17E3  0870               	movf	??_keypad_getkey,w
  6775  17E4  00B0               	movwf	keypad_getkey@valor
  6776  17E5                     l3050:
  6777  17E5  1F86               	btfss	6,7	;volatile
  6778  17E6  2FE8               	goto	u4031
  6779  17E7  2FE9               	goto	u4030
  6780  17E8                     u4031:
  6781  17E8  2FE1               	goto	l3048
  6782  17E9                     u4030:
  6783  17E9                     l3052:
  6784                           
  6785                           ;KEYPAD.c: 104:    }
  6786  17E9  3001               	movlw	1
  6787  17EA  07B1               	addwf	keypad_getkey@i,f
  6788  17EB  1803               	skipnc
  6789  17EC  0AB2               	incf	keypad_getkey@i+1,f
  6790  17ED  3000               	movlw	0
  6791  17EE  07B2               	addwf	keypad_getkey@i+1,f
  6792  17EF                     l3054:
  6793  17EF  0832               	movf	keypad_getkey@i+1,w
  6794  17F0  3A80               	xorlw	128
  6795  17F1  00FF               	movwf	btemp+1
  6796  17F2  3080               	movlw	128
  6797  17F3  027F               	subwf	btemp+1,w
  6798  17F4  1D03               	skipz
  6799  17F5  2FF8               	goto	u4045
  6800  17F6  3004               	movlw	4
  6801  17F7  0231               	subwf	keypad_getkey@i,w
  6802  17F8                     u4045:
  6803  17F8  1C03               	skipc
  6804  17F9  2FFB               	goto	u4041
  6805  17FA  2FFC               	goto	u4040
  6806  17FB                     u4041:
  6807  17FB  2F19               	goto	l2972
  6808  17FC                     u4040:
  6809  17FC                     l3056:
  6810                           
  6811                           ;KEYPAD.c: 106:    return valor;
  6812  17FC  1283               	bcf	3,5	;RP0=0, select bank0
  6813  17FD  1303               	bcf	3,6	;RP1=0, select bank0
  6814  17FE  0830               	movf	keypad_getkey@valor,w
  6815  17FF                     l202:
  6816  17FF  0008               	return
  6817  1800                     __end_of_keypad_getkey:
  6818                           
  6819                           	psect	text16
  6820  1436                     __ptext16:	
  6821 ;; *************** function ___fltol *****************
  6822 ;; Defined at:
  6823 ;;		line 43 in file "C:\Program Files\Microchip\xc8\v2.36\pic\sources\c90\common\fltol.c"
  6824 ;; Parameters:    Size  Location     Type
  6825 ;;  f1              4    8[BANK1 ] unsigned char 
  6826 ;; Auto vars:     Size  Location     Type
  6827 ;;  exp1            1   78[BANK0 ] unsigned char 
  6828 ;;  sign1           1   77[BANK0 ] unsigned char 
  6829 ;; Return value:  Size  Location     Type
  6830 ;;                  4    8[BANK1 ] long 
  6831 ;; Registers used:
  6832 ;;		wreg, status,2, status,0
  6833 ;; Tracked objects:
  6834 ;;		On entry : 0/0
  6835 ;;		On exit  : 0/0
  6836 ;;		Unchanged: 0/0
  6837 ;; Data sizes:     COMMON   BANK0   BANK1   BANK3   BANK2
  6838 ;;      Params:         0       0       4       0       0
  6839 ;;      Locals:         0       2       0       0       0
  6840 ;;      Temps:          0       0       5       0       0
  6841 ;;      Totals:         0       2       9       0       0
  6842 ;;Total ram usage:       11 bytes
  6843 ;; Hardware stack levels used: 1
  6844 ;; This function calls:
  6845 ;;		Nothing
  6846 ;; This function is called by:
  6847 ;;		_main
  6848 ;; This function uses a non-reentrant model
  6849 ;;
  6850                           
  6851  1436                     ___fltol:	
  6852                           ;psect for function ___fltol
  6853                           
  6854  1436                     l3184:	
  6855                           ;incstack = 0
  6856                           ; Regs used in ___fltol: [wreg+status,2+status,0]
  6857                           
  6858  1436  1003               	clrc
  6859  1437  1683               	bsf	3,5	;RP0=1, select bank1
  6860  1438  1303               	bcf	3,6	;RP1=0, select bank1
  6861  1439  0D2A               	rlf	(___fltol@f1+2)^(0+128),w
  6862  143A  0D2B               	rlf	(___fltol@f1+3)^(0+128),w
  6863  143B  00AC               	movwf	??___fltol^(0+128)
  6864  143C  082C               	movf	??___fltol^(0+128),w
  6865  143D  1283               	bcf	3,5	;RP0=0, select bank0
  6866  143E  1303               	bcf	3,6	;RP1=0, select bank0
  6867  143F  00EE               	movwf	___fltol@exp1
  6868  1440  086E               	movf	___fltol@exp1,w
  6869  1441  1D03               	btfss	3,2
  6870  1442  2C44               	goto	u4301
  6871  1443  2C45               	goto	u4300
  6872  1444                     u4301:
  6873  1444  2C50               	goto	l3190
  6874  1445                     u4300:
  6875  1445                     l3186:
  6876  1445  3000               	movlw	0
  6877  1446  1683               	bsf	3,5	;RP0=1, select bank1
  6878  1447  1303               	bcf	3,6	;RP1=0, select bank1
  6879  1448  00AB               	movwf	(?___fltol+3)^(0+128)
  6880  1449  3000               	movlw	0
  6881  144A  00AA               	movwf	(?___fltol+2)^(0+128)
  6882  144B  3000               	movlw	0
  6883  144C  00A9               	movwf	(?___fltol+1)^(0+128)
  6884  144D  3000               	movlw	0
  6885  144E  00A8               	movwf	?___fltol^(0+128)
  6886  144F  2CC7               	goto	l597
  6887  1450                     l3190:
  6888  1450  1683               	bsf	3,5	;RP0=1, select bank1
  6889  1451  1303               	bcf	3,6	;RP1=0, select bank1
  6890  1452  0828               	movf	___fltol@f1^(0+128),w
  6891  1453  00AC               	movwf	??___fltol^(0+128)
  6892  1454  0829               	movf	(___fltol@f1+1)^(0+128),w
  6893  1455  00AD               	movwf	(??___fltol^(0+128)+1)
  6894  1456  082A               	movf	(___fltol@f1+2)^(0+128),w
  6895  1457  00AE               	movwf	(??___fltol^(0+128)+2)
  6896  1458  082B               	movf	(___fltol@f1+3)^(0+128),w
  6897  1459  00AF               	movwf	(??___fltol^(0+128)+3)
  6898  145A  301F               	movlw	31
  6899  145B                     u4315:
  6900  145B  1003               	clrc
  6901  145C  0CAF               	rrf	(??___fltol^(0+128)+3),f
  6902  145D  0CAE               	rrf	(??___fltol^(0+128)+2),f
  6903  145E  0CAD               	rrf	(??___fltol^(0+128)+1),f
  6904  145F  0CAC               	rrf	??___fltol^(0+128),f
  6905  1460                     u4310:
  6906  1460  3EFF               	addlw	-1
  6907  1461  1D03               	skipz
  6908  1462  2C5B               	goto	u4315
  6909  1463  082C               	movf	??___fltol^(0+128),w
  6910  1464  00B0               	movwf	(??___fltol+4)^(0+128)
  6911  1465  0830               	movf	(??___fltol+4)^(0+128),w
  6912  1466  1283               	bcf	3,5	;RP0=0, select bank0
  6913  1467  1303               	bcf	3,6	;RP1=0, select bank0
  6914  1468  00ED               	movwf	___fltol@sign1
  6915  1469                     l3192:
  6916  1469  1683               	bsf	3,5	;RP0=1, select bank1
  6917  146A  1303               	bcf	3,6	;RP1=0, select bank1
  6918  146B  17AA               	bsf	(___fltol@f1^(0+128)+2),7
  6919  146C                     l3194:
  6920  146C  30FF               	movlw	255
  6921  146D  05A8               	andwf	___fltol@f1^(0+128),f
  6922  146E  30FF               	movlw	255
  6923  146F  05A9               	andwf	(___fltol@f1+1)^(0+128),f
  6924  1470  30FF               	movlw	255
  6925  1471  05AA               	andwf	(___fltol@f1+2)^(0+128),f
  6926  1472  3000               	movlw	0
  6927  1473  05AB               	andwf	(___fltol@f1+3)^(0+128),f
  6928  1474                     l3196:
  6929  1474  3096               	movlw	150
  6930  1475  1283               	bcf	3,5	;RP0=0, select bank0
  6931  1476  1303               	bcf	3,6	;RP1=0, select bank0
  6932  1477  02EE               	subwf	___fltol@exp1,f
  6933  1478                     l3198:
  6934  1478  1FEE               	btfss	___fltol@exp1,7
  6935  1479  2C7B               	goto	u4321
  6936  147A  2C7C               	goto	u4320
  6937  147B                     u4321:
  6938  147B  2C9A               	goto	l3208
  6939  147C                     u4320:
  6940  147C                     l3200:
  6941  147C  086E               	movf	___fltol@exp1,w
  6942  147D  3A80               	xorlw	128
  6943  147E  3E97               	addlw	151
  6944  147F  1803               	skipnc
  6945  1480  2C82               	goto	u4331
  6946  1481  2C83               	goto	u4330
  6947  1482                     u4331:
  6948  1482  2C84               	goto	l3206
  6949  1483                     u4330:
  6950  1483  2C45               	goto	l3186
  6951  1484                     l3206:
  6952  1484  3001               	movlw	1
  6953  1485                     u4345:
  6954  1485  1003               	clrc
  6955  1486  1683               	bsf	3,5	;RP0=1, select bank1
  6956  1487  1303               	bcf	3,6	;RP1=0, select bank1
  6957  1488  0CAB               	rrf	(___fltol@f1+3)^(0+128),f
  6958  1489  0CAA               	rrf	(___fltol@f1+2)^(0+128),f
  6959  148A  0CA9               	rrf	(___fltol@f1+1)^(0+128),f
  6960  148B  0CA8               	rrf	___fltol@f1^(0+128),f
  6961  148C  3EFF               	addlw	-1
  6962  148D  1D03               	skipz
  6963  148E  2C85               	goto	u4345
  6964  148F  3001               	movlw	1
  6965  1490  00AC               	movwf	??___fltol^(0+128)
  6966  1491  082C               	movf	??___fltol^(0+128),w
  6967  1492  1283               	bcf	3,5	;RP0=0, select bank0
  6968  1493  1303               	bcf	3,6	;RP1=0, select bank0
  6969  1494  07EE               	addwf	___fltol@exp1,f
  6970  1495  1D03               	btfss	3,2
  6971  1496  2C98               	goto	u4351
  6972  1497  2C99               	goto	u4350
  6973  1498                     u4351:
  6974  1498  2C84               	goto	l3206
  6975  1499                     u4350:
  6976  1499  2CB5               	goto	l3216
  6977  149A                     l3208:
  6978  149A  3020               	movlw	32
  6979  149B  026E               	subwf	___fltol@exp1,w
  6980  149C  1C03               	skipc
  6981  149D  2C9F               	goto	u4361
  6982  149E  2CA0               	goto	u4360
  6983  149F                     u4361:
  6984  149F  2CB0               	goto	l604
  6985  14A0                     u4360:
  6986  14A0  2C45               	goto	l3186
  6987  14A1                     l3214:
  6988  14A1  3001               	movlw	1
  6989  14A2  1683               	bsf	3,5	;RP0=1, select bank1
  6990  14A3  1303               	bcf	3,6	;RP1=0, select bank1
  6991  14A4  00AC               	movwf	??___fltol^(0+128)
  6992  14A5                     u4375:
  6993  14A5  1003               	clrc
  6994  14A6  0DA8               	rlf	___fltol@f1^(0+128),f
  6995  14A7  0DA9               	rlf	(___fltol@f1+1)^(0+128),f
  6996  14A8  0DAA               	rlf	(___fltol@f1+2)^(0+128),f
  6997  14A9  0DAB               	rlf	(___fltol@f1+3)^(0+128),f
  6998  14AA  0BAC               	decfsz	??___fltol^(0+128),f
  6999  14AB  2CA5               	goto	u4375
  7000  14AC  3001               	movlw	1
  7001  14AD  1283               	bcf	3,5	;RP0=0, select bank0
  7002  14AE  1303               	bcf	3,6	;RP1=0, select bank0
  7003  14AF  02EE               	subwf	___fltol@exp1,f
  7004  14B0                     l604:
  7005  14B0  086E               	movf	___fltol@exp1,w
  7006  14B1  1D03               	btfss	3,2
  7007  14B2  2CB4               	goto	u4381
  7008  14B3  2CB5               	goto	u4380
  7009  14B4                     u4381:
  7010  14B4  2CA1               	goto	l3214
  7011  14B5                     u4380:
  7012  14B5                     l3216:
  7013  14B5  086D               	movf	___fltol@sign1,w
  7014  14B6  1903               	btfsc	3,2
  7015  14B7  2CB9               	goto	u4391
  7016  14B8  2CBA               	goto	u4390
  7017  14B9                     u4391:
  7018  14B9  2CC7               	goto	l607
  7019  14BA                     u4390:
  7020  14BA                     l3218:
  7021  14BA  1683               	bsf	3,5	;RP0=1, select bank1
  7022  14BB  1303               	bcf	3,6	;RP1=0, select bank1
  7023  14BC  09A8               	comf	___fltol@f1^(0+128),f
  7024  14BD  09A9               	comf	(___fltol@f1+1)^(0+128),f
  7025  14BE  09AA               	comf	(___fltol@f1+2)^(0+128),f
  7026  14BF  09AB               	comf	(___fltol@f1+3)^(0+128),f
  7027  14C0  0AA8               	incf	___fltol@f1^(0+128),f
  7028  14C1  1903               	skipnz
  7029  14C2  0AA9               	incf	(___fltol@f1+1)^(0+128),f
  7030  14C3  1903               	skipnz
  7031  14C4  0AAA               	incf	(___fltol@f1+2)^(0+128),f
  7032  14C5  1903               	skipnz
  7033  14C6  0AAB               	incf	(___fltol@f1+3)^(0+128),f
  7034  14C7                     l607:
  7035  14C7                     l597:
  7036  14C7  0008               	return
  7037  14C8                     __end_of___fltol:
  7038                           
  7039                           	psect	text17
  7040  0006                     __ptext17:	
  7041 ;; *************** function ___flsub *****************
  7042 ;; Defined at:
  7043 ;;		line 242 in file "C:\Program Files\Microchip\xc8\v2.36\pic\sources\c90\common\sprcadd.c"
  7044 ;; Parameters:    Size  Location     Type
  7045 ;;  a               4    0[BANK1 ] long 
  7046 ;;  b               4    4[BANK1 ] long 
  7047 ;; Auto vars:     Size  Location     Type
  7048 ;;		None
  7049 ;; Return value:  Size  Location     Type
  7050 ;;                  4    0[BANK1 ] long 
  7051 ;; Registers used:
  7052 ;;		wreg, status,2, status,0, btemp+1, pclath, cstack
  7053 ;; Tracked objects:
  7054 ;;		On entry : 0/0
  7055 ;;		On exit  : 0/0
  7056 ;;		Unchanged: 0/0
  7057 ;; Data sizes:     COMMON   BANK0   BANK1   BANK3   BANK2
  7058 ;;      Params:         0       0       8       0       0
  7059 ;;      Locals:         0       0       0       0       0
  7060 ;;      Temps:          0       0       0       0       0
  7061 ;;      Totals:         0       0       8       0       0
  7062 ;;Total ram usage:        8 bytes
  7063 ;; Hardware stack levels used: 1
  7064 ;; Hardware stack levels required when called: 1
  7065 ;; This function calls:
  7066 ;;		___fladd
  7067 ;; This function is called by:
  7068 ;;		_main
  7069 ;; This function uses a non-reentrant model
  7070 ;;
  7071                           
  7072  0006                     ___flsub:	
  7073                           ;psect for function ___flsub
  7074                           
  7075  0006                     l3220:	
  7076                           ;incstack = 0
  7077                           ; Regs used in ___flsub: [wreg+status,2+status,0+btemp+1+pclath+cstack]
  7078                           
  7079  0006  3080               	movlw	128
  7080  0007  1683               	bsf	3,5	;RP0=1, select bank1
  7081  0008  1303               	bcf	3,6	;RP1=0, select bank1
  7082  0009  06A3               	xorwf	(___flsub@a+3)^(0+128),f
  7083  000A                     l3222:
  7084  000A  0827               	movf	(___flsub@b+3)^(0+128),w
  7085  000B  1283               	bcf	3,5	;RP0=0, select bank0
  7086  000C  1303               	bcf	3,6	;RP1=0, select bank0
  7087  000D  00DC               	movwf	___fladd@b+3
  7088  000E  1683               	bsf	3,5	;RP0=1, select bank1
  7089  000F  1303               	bcf	3,6	;RP1=0, select bank1
  7090  0010  0826               	movf	(___flsub@b+2)^(0+128),w
  7091  0011  1283               	bcf	3,5	;RP0=0, select bank0
  7092  0012  1303               	bcf	3,6	;RP1=0, select bank0
  7093  0013  00DB               	movwf	___fladd@b+2
  7094  0014  1683               	bsf	3,5	;RP0=1, select bank1
  7095  0015  1303               	bcf	3,6	;RP1=0, select bank1
  7096  0016  0825               	movf	(___flsub@b+1)^(0+128),w
  7097  0017  1283               	bcf	3,5	;RP0=0, select bank0
  7098  0018  1303               	bcf	3,6	;RP1=0, select bank0
  7099  0019  00DA               	movwf	___fladd@b+1
  7100  001A  1683               	bsf	3,5	;RP0=1, select bank1
  7101  001B  1303               	bcf	3,6	;RP1=0, select bank1
  7102  001C  0824               	movf	___flsub@b^(0+128),w
  7103  001D  1283               	bcf	3,5	;RP0=0, select bank0
  7104  001E  1303               	bcf	3,6	;RP1=0, select bank0
  7105  001F  00D9               	movwf	___fladd@b
  7106  0020  1683               	bsf	3,5	;RP0=1, select bank1
  7107  0021  1303               	bcf	3,6	;RP1=0, select bank1
  7108  0022  0823               	movf	(___flsub@a+3)^(0+128),w
  7109  0023  1283               	bcf	3,5	;RP0=0, select bank0
  7110  0024  1303               	bcf	3,6	;RP1=0, select bank0
  7111  0025  00E0               	movwf	___fladd@a+3
  7112  0026  1683               	bsf	3,5	;RP0=1, select bank1
  7113  0027  1303               	bcf	3,6	;RP1=0, select bank1
  7114  0028  0822               	movf	(___flsub@a+2)^(0+128),w
  7115  0029  1283               	bcf	3,5	;RP0=0, select bank0
  7116  002A  1303               	bcf	3,6	;RP1=0, select bank0
  7117  002B  00DF               	movwf	___fladd@a+2
  7118  002C  1683               	bsf	3,5	;RP0=1, select bank1
  7119  002D  1303               	bcf	3,6	;RP1=0, select bank1
  7120  002E  0821               	movf	(___flsub@a+1)^(0+128),w
  7121  002F  1283               	bcf	3,5	;RP0=0, select bank0
  7122  0030  1303               	bcf	3,6	;RP1=0, select bank0
  7123  0031  00DE               	movwf	___fladd@a+1
  7124  0032  1683               	bsf	3,5	;RP0=1, select bank1
  7125  0033  1303               	bcf	3,6	;RP1=0, select bank1
  7126  0034  0820               	movf	___flsub@a^(0+128),w
  7127  0035  1283               	bcf	3,5	;RP0=0, select bank0
  7128  0036  1303               	bcf	3,6	;RP1=0, select bank0
  7129  0037  00DD               	movwf	___fladd@a
  7130  0038  120A  158A  2578  120A  118A  	fcall	___fladd
  7131  003D  1283               	bcf	3,5	;RP0=0, select bank0
  7132  003E  1303               	bcf	3,6	;RP1=0, select bank0
  7133  003F  085C               	movf	?___fladd+3,w
  7134  0040  1683               	bsf	3,5	;RP0=1, select bank1
  7135  0041  1303               	bcf	3,6	;RP1=0, select bank1
  7136  0042  00A3               	movwf	(?___flsub+3)^(0+128)
  7137  0043  1283               	bcf	3,5	;RP0=0, select bank0
  7138  0044  1303               	bcf	3,6	;RP1=0, select bank0
  7139  0045  085B               	movf	?___fladd+2,w
  7140  0046  1683               	bsf	3,5	;RP0=1, select bank1
  7141  0047  1303               	bcf	3,6	;RP1=0, select bank1
  7142  0048  00A2               	movwf	(?___flsub+2)^(0+128)
  7143  0049  1283               	bcf	3,5	;RP0=0, select bank0
  7144  004A  1303               	bcf	3,6	;RP1=0, select bank0
  7145  004B  085A               	movf	?___fladd+1,w
  7146  004C  1683               	bsf	3,5	;RP0=1, select bank1
  7147  004D  1303               	bcf	3,6	;RP1=0, select bank1
  7148  004E  00A1               	movwf	(?___flsub+1)^(0+128)
  7149  004F  1283               	bcf	3,5	;RP0=0, select bank0
  7150  0050  1303               	bcf	3,6	;RP1=0, select bank0
  7151  0051  0859               	movf	?___fladd,w
  7152  0052  1683               	bsf	3,5	;RP0=1, select bank1
  7153  0053  1303               	bcf	3,6	;RP1=0, select bank1
  7154  0054  00A0               	movwf	?___flsub^(0+128)
  7155  0055                     l750:
  7156  0055  0008               	return
  7157  0056                     __end_of___flsub:
  7158                           
  7159                           	psect	text18
  7160  0D78                     __ptext18:	
  7161 ;; *************** function ___fladd *****************
  7162 ;; Defined at:
  7163 ;;		line 10 in file "C:\Program Files\Microchip\xc8\v2.36\pic\sources\c90\common\sprcadd.c"
  7164 ;; Parameters:    Size  Location     Type
  7165 ;;  b               4   57[BANK0 ] long 
  7166 ;;  a               4   61[BANK0 ] long 
  7167 ;; Auto vars:     Size  Location     Type
  7168 ;;  grs             1   76[BANK0 ] unsigned char 
  7169 ;;  bexp            1   75[BANK0 ] unsigned char 
  7170 ;;  aexp            1   74[BANK0 ] unsigned char 
  7171 ;;  signs           1   73[BANK0 ] unsigned char 
  7172 ;; Return value:  Size  Location     Type
  7173 ;;                  4   57[BANK0 ] unsigned char 
  7174 ;; Registers used:
  7175 ;;		wreg, status,2, status,0, btemp+1
  7176 ;; Tracked objects:
  7177 ;;		On entry : 0/0
  7178 ;;		On exit  : 0/0
  7179 ;;		Unchanged: 0/0
  7180 ;; Data sizes:     COMMON   BANK0   BANK1   BANK3   BANK2
  7181 ;;      Params:         0       8       0       0       0
  7182 ;;      Locals:         0       4       0       0       0
  7183 ;;      Temps:          0       8       0       0       0
  7184 ;;      Totals:         0      20       0       0       0
  7185 ;;Total ram usage:       20 bytes
  7186 ;; Hardware stack levels used: 1
  7187 ;; This function calls:
  7188 ;;		Nothing
  7189 ;; This function is called by:
  7190 ;;		_main
  7191 ;;		___flsub
  7192 ;;		_log
  7193 ;;		_eval_poly
  7194 ;; This function uses a non-reentrant model
  7195 ;;
  7196                           
  7197  0D78                     ___fladd:	
  7198                           ;psect for function ___fladd
  7199                           
  7200  0D78                     l2334:	
  7201                           ;incstack = 0
  7202                           ; Regs used in ___fladd: [wreg+status,2+status,0+btemp+1]
  7203                           
  7204  0D78  1283               	bcf	3,5	;RP0=0, select bank0
  7205  0D79  1303               	bcf	3,6	;RP1=0, select bank0
  7206  0D7A  085C               	movf	___fladd@b+3,w
  7207  0D7B  3980               	andlw	128
  7208  0D7C  00E1               	movwf	??___fladd
  7209  0D7D  0861               	movf	??___fladd,w
  7210  0D7E  00E9               	movwf	___fladd@signs
  7211  0D7F                     l2336:
  7212  0D7F  085C               	movf	___fladd@b+3,w
  7213  0D80  00E1               	movwf	??___fladd
  7214  0D81  0761               	addwf	??___fladd,w
  7215  0D82  00E2               	movwf	??___fladd+1
  7216  0D83  0862               	movf	??___fladd+1,w
  7217  0D84  00EB               	movwf	___fladd@bexp
  7218  0D85                     l2338:
  7219  0D85  1FDB               	btfss	___fladd@b+2,7
  7220  0D86  2D88               	goto	u2501
  7221  0D87  2D89               	goto	u2500
  7222  0D88                     u2501:
  7223  0D88  2D8A               	goto	l2342
  7224  0D89                     u2500:
  7225  0D89                     l2340:
  7226  0D89  146B               	bsf	___fladd@bexp,0
  7227  0D8A                     l2342:
  7228  0D8A  086B               	movf	___fladd@bexp,w
  7229  0D8B  1903               	btfsc	3,2
  7230  0D8C  2D8E               	goto	u2511
  7231  0D8D  2D8F               	goto	u2510
  7232  0D8E                     u2511:
  7233  0D8E  2D9F               	goto	l2352
  7234  0D8F                     u2510:
  7235  0D8F                     l2344:
  7236  0D8F  0A6B               	incf	___fladd@bexp,w
  7237  0D90  1D03               	btfss	3,2
  7238  0D91  2D93               	goto	u2521
  7239  0D92  2D94               	goto	u2520
  7240  0D93                     u2521:
  7241  0D93  2D9C               	goto	l2348
  7242  0D94                     u2520:
  7243  0D94                     l2346:
  7244  0D94  3000               	movlw	0
  7245  0D95  00DC               	movwf	___fladd@b+3
  7246  0D96  3000               	movlw	0
  7247  0D97  00DB               	movwf	___fladd@b+2
  7248  0D98  3000               	movlw	0
  7249  0D99  00DA               	movwf	___fladd@b+1
  7250  0D9A  3000               	movlw	0
  7251  0D9B  00D9               	movwf	___fladd@b
  7252  0D9C                     l2348:
  7253  0D9C  17DB               	bsf	___fladd@b+2,7
  7254  0D9D                     l2350:
  7255  0D9D  01DC               	clrf	___fladd@b+3
  7256  0D9E  2DA7               	goto	l2354
  7257  0D9F                     l2352:
  7258  0D9F  3000               	movlw	0
  7259  0DA0  00DC               	movwf	___fladd@b+3
  7260  0DA1  3000               	movlw	0
  7261  0DA2  00DB               	movwf	___fladd@b+2
  7262  0DA3  3000               	movlw	0
  7263  0DA4  00DA               	movwf	___fladd@b+1
  7264  0DA5  3000               	movlw	0
  7265  0DA6  00D9               	movwf	___fladd@b
  7266  0DA7                     l2354:
  7267  0DA7  0860               	movf	___fladd@a+3,w
  7268  0DA8  3980               	andlw	128
  7269  0DA9  00E1               	movwf	??___fladd
  7270  0DAA  0861               	movf	??___fladd,w
  7271  0DAB  00EA               	movwf	___fladd@aexp
  7272  0DAC                     l2356:
  7273  0DAC  086A               	movf	___fladd@aexp,w
  7274  0DAD  0669               	xorwf	___fladd@signs,w
  7275  0DAE  1903               	skipnz
  7276  0DAF  2DB1               	goto	u2531
  7277  0DB0  2DB2               	goto	u2530
  7278  0DB1                     u2531:
  7279  0DB1  2DB3               	goto	l2360
  7280  0DB2                     u2530:
  7281  0DB2                     l2358:
  7282  0DB2  1769               	bsf	___fladd@signs,6
  7283  0DB3                     l2360:
  7284  0DB3  0860               	movf	___fladd@a+3,w
  7285  0DB4  00E1               	movwf	??___fladd
  7286  0DB5  0761               	addwf	??___fladd,w
  7287  0DB6  00E2               	movwf	??___fladd+1
  7288  0DB7  0862               	movf	??___fladd+1,w
  7289  0DB8  00EA               	movwf	___fladd@aexp
  7290  0DB9                     l2362:
  7291  0DB9  1FDF               	btfss	___fladd@a+2,7
  7292  0DBA  2DBC               	goto	u2541
  7293  0DBB  2DBD               	goto	u2540
  7294  0DBC                     u2541:
  7295  0DBC  2DBE               	goto	l2366
  7296  0DBD                     u2540:
  7297  0DBD                     l2364:
  7298  0DBD  146A               	bsf	___fladd@aexp,0
  7299  0DBE                     l2366:
  7300  0DBE  086A               	movf	___fladd@aexp,w
  7301  0DBF  1903               	btfsc	3,2
  7302  0DC0  2DC2               	goto	u2551
  7303  0DC1  2DC3               	goto	u2550
  7304  0DC2                     u2551:
  7305  0DC2  2DD3               	goto	l2376
  7306  0DC3                     u2550:
  7307  0DC3                     l2368:
  7308  0DC3  0A6A               	incf	___fladd@aexp,w
  7309  0DC4  1D03               	btfss	3,2
  7310  0DC5  2DC7               	goto	u2561
  7311  0DC6  2DC8               	goto	u2560
  7312  0DC7                     u2561:
  7313  0DC7  2DD0               	goto	l2372
  7314  0DC8                     u2560:
  7315  0DC8                     l2370:
  7316  0DC8  3000               	movlw	0
  7317  0DC9  00E0               	movwf	___fladd@a+3
  7318  0DCA  3000               	movlw	0
  7319  0DCB  00DF               	movwf	___fladd@a+2
  7320  0DCC  3000               	movlw	0
  7321  0DCD  00DE               	movwf	___fladd@a+1
  7322  0DCE  3000               	movlw	0
  7323  0DCF  00DD               	movwf	___fladd@a
  7324  0DD0                     l2372:
  7325  0DD0  17DF               	bsf	___fladd@a+2,7
  7326  0DD1                     l2374:
  7327  0DD1  01E0               	clrf	___fladd@a+3
  7328  0DD2  2DDB               	goto	l704
  7329  0DD3                     l2376:
  7330  0DD3  3000               	movlw	0
  7331  0DD4  00E0               	movwf	___fladd@a+3
  7332  0DD5  3000               	movlw	0
  7333  0DD6  00DF               	movwf	___fladd@a+2
  7334  0DD7  3000               	movlw	0
  7335  0DD8  00DE               	movwf	___fladd@a+1
  7336  0DD9  3000               	movlw	0
  7337  0DDA  00DD               	movwf	___fladd@a
  7338  0DDB                     l704:
  7339  0DDB  086B               	movf	___fladd@bexp,w
  7340  0DDC  026A               	subwf	___fladd@aexp,w
  7341  0DDD  1803               	skipnc
  7342  0DDE  2DE0               	goto	u2571
  7343  0DDF  2DE1               	goto	u2570
  7344  0DE0                     u2571:
  7345  0DE0  2E25               	goto	l2412
  7346  0DE1                     u2570:
  7347  0DE1                     l2378:
  7348  0DE1  1F69               	btfss	___fladd@signs,6
  7349  0DE2  2DE4               	goto	u2581
  7350  0DE3  2DE5               	goto	u2580
  7351  0DE4                     u2581:
  7352  0DE4  2DE9               	goto	l2382
  7353  0DE5                     u2580:
  7354  0DE5                     l2380:
  7355  0DE5  3080               	movlw	128
  7356  0DE6  00E1               	movwf	??___fladd
  7357  0DE7  0861               	movf	??___fladd,w
  7358  0DE8  06E9               	xorwf	___fladd@signs,f
  7359  0DE9                     l2382:
  7360  0DE9  086B               	movf	___fladd@bexp,w
  7361  0DEA  00E1               	movwf	??___fladd
  7362  0DEB  0861               	movf	??___fladd,w
  7363  0DEC  00EC               	movwf	___fladd@grs
  7364  0DED                     l2384:
  7365  0DED  086A               	movf	___fladd@aexp,w
  7366  0DEE  00E1               	movwf	??___fladd
  7367  0DEF  0861               	movf	??___fladd,w
  7368  0DF0  00EB               	movwf	___fladd@bexp
  7369  0DF1                     l2386:
  7370  0DF1  086C               	movf	___fladd@grs,w
  7371  0DF2  00E1               	movwf	??___fladd
  7372  0DF3  0861               	movf	??___fladd,w
  7373  0DF4  00EA               	movwf	___fladd@aexp
  7374  0DF5                     l2388:
  7375  0DF5  0859               	movf	___fladd@b,w
  7376  0DF6  00E1               	movwf	??___fladd
  7377  0DF7  0861               	movf	??___fladd,w
  7378  0DF8  00EC               	movwf	___fladd@grs
  7379  0DF9                     l2390:
  7380  0DF9  085D               	movf	___fladd@a,w
  7381  0DFA  00E1               	movwf	??___fladd
  7382  0DFB  0861               	movf	??___fladd,w
  7383  0DFC  00D9               	movwf	___fladd@b
  7384  0DFD                     l2392:
  7385  0DFD  086C               	movf	___fladd@grs,w
  7386  0DFE  00E1               	movwf	??___fladd
  7387  0DFF  0861               	movf	??___fladd,w
  7388  0E00  00DD               	movwf	___fladd@a
  7389  0E01                     l2394:
  7390  0E01  085A               	movf	___fladd@b+1,w
  7391  0E02  00E1               	movwf	??___fladd
  7392  0E03  0861               	movf	??___fladd,w
  7393  0E04  00EC               	movwf	___fladd@grs
  7394  0E05                     l2396:
  7395  0E05  085E               	movf	___fladd@a+1,w
  7396  0E06  00E1               	movwf	??___fladd
  7397  0E07  0861               	movf	??___fladd,w
  7398  0E08  00DA               	movwf	___fladd@b+1
  7399  0E09                     l2398:
  7400  0E09  086C               	movf	___fladd@grs,w
  7401  0E0A  00E1               	movwf	??___fladd
  7402  0E0B  0861               	movf	??___fladd,w
  7403  0E0C  00DE               	movwf	___fladd@a+1
  7404  0E0D                     l2400:
  7405  0E0D  085B               	movf	___fladd@b+2,w
  7406  0E0E  00E1               	movwf	??___fladd
  7407  0E0F  0861               	movf	??___fladd,w
  7408  0E10  00EC               	movwf	___fladd@grs
  7409  0E11                     l2402:
  7410  0E11  085F               	movf	___fladd@a+2,w
  7411  0E12  00E1               	movwf	??___fladd
  7412  0E13  0861               	movf	??___fladd,w
  7413  0E14  00DB               	movwf	___fladd@b+2
  7414  0E15                     l2404:
  7415  0E15  086C               	movf	___fladd@grs,w
  7416  0E16  00E1               	movwf	??___fladd
  7417  0E17  0861               	movf	??___fladd,w
  7418  0E18  00DF               	movwf	___fladd@a+2
  7419  0E19                     l2406:
  7420  0E19  085C               	movf	___fladd@b+3,w
  7421  0E1A  00E1               	movwf	??___fladd
  7422  0E1B  0861               	movf	??___fladd,w
  7423  0E1C  00EC               	movwf	___fladd@grs
  7424  0E1D                     l2408:
  7425  0E1D  0860               	movf	___fladd@a+3,w
  7426  0E1E  00E1               	movwf	??___fladd
  7427  0E1F  0861               	movf	??___fladd,w
  7428  0E20  00DC               	movwf	___fladd@b+3
  7429  0E21                     l2410:
  7430  0E21  086C               	movf	___fladd@grs,w
  7431  0E22  00E1               	movwf	??___fladd
  7432  0E23  0861               	movf	??___fladd,w
  7433  0E24  00E0               	movwf	___fladd@a+3
  7434  0E25                     l2412:
  7435  0E25  01EC               	clrf	___fladd@grs
  7436  0E26                     l2414:
  7437  0E26  086A               	movf	___fladd@aexp,w
  7438  0E27  00E1               	movwf	??___fladd
  7439  0E28  01E2               	clrf	??___fladd+1
  7440  0E29  0862               	movf	??___fladd+1,w
  7441  0E2A  00E4               	movwf	??___fladd+3
  7442  0E2B  086B               	movf	___fladd@bexp,w
  7443  0E2C  0261               	subwf	??___fladd,w
  7444  0E2D  00E3               	movwf	??___fladd+2
  7445  0E2E  1C03               	skipc
  7446  0E2F  03E4               	decf	??___fladd+3,f
  7447  0E30  0864               	movf	??___fladd+3,w
  7448  0E31  3A80               	xorlw	128
  7449  0E32  00FF               	movwf	btemp+1
  7450  0E33  3080               	movlw	128
  7451  0E34  027F               	subwf	btemp+1,w
  7452  0E35  1D03               	skipz
  7453  0E36  2E39               	goto	u2595
  7454  0E37  301A               	movlw	26
  7455  0E38  0263               	subwf	??___fladd+2,w
  7456  0E39                     u2595:
  7457  0E39  1C03               	skipc
  7458  0E3A  2E3C               	goto	u2591
  7459  0E3B  2E3D               	goto	u2590
  7460  0E3C                     u2591:
  7461  0E3C  2E7A               	goto	l2430
  7462  0E3D                     u2590:
  7463  0E3D                     l2416:
  7464  0E3D  1283               	bcf	3,5	;RP0=0, select bank0
  7465  0E3E  1303               	bcf	3,6	;RP1=0, select bank0
  7466  0E3F  085C               	movf	___fladd@b+3,w
  7467  0E40  045B               	iorwf	___fladd@b+2,w
  7468  0E41  045A               	iorwf	___fladd@b+1,w
  7469  0E42  0459               	iorwf	___fladd@b,w
  7470  0E43  1D03               	skipz
  7471  0E44  2E46               	goto	u2601
  7472  0E45  2E48               	goto	u2600
  7473  0E46                     u2601:
  7474  0E46  3001               	movlw	1
  7475  0E47  2E49               	goto	u2610
  7476  0E48                     u2600:
  7477  0E48  3000               	movlw	0
  7478  0E49                     u2610:
  7479  0E49  00E1               	movwf	??___fladd
  7480  0E4A  0861               	movf	??___fladd,w
  7481  0E4B  00EC               	movwf	___fladd@grs
  7482  0E4C  3000               	movlw	0
  7483  0E4D  00DC               	movwf	___fladd@b+3
  7484  0E4E  3000               	movlw	0
  7485  0E4F  00DB               	movwf	___fladd@b+2
  7486  0E50  3000               	movlw	0
  7487  0E51  00DA               	movwf	___fladd@b+1
  7488  0E52  3000               	movlw	0
  7489  0E53  00D9               	movwf	___fladd@b
  7490  0E54  086A               	movf	___fladd@aexp,w
  7491  0E55  00E1               	movwf	??___fladd
  7492  0E56  0861               	movf	??___fladd,w
  7493  0E57  00EB               	movwf	___fladd@bexp
  7494  0E58  2E82               	goto	l708
  7495  0E59                     l710:
  7496  0E59  1C6C               	btfss	___fladd@grs,0
  7497  0E5A  2E5C               	goto	u2621
  7498  0E5B  2E5D               	goto	u2620
  7499  0E5C                     u2621:
  7500  0E5C  2E66               	goto	l2420
  7501  0E5D                     u2620:
  7502  0E5D                     l2418:
  7503  0E5D  086C               	movf	___fladd@grs,w
  7504  0E5E  00E1               	movwf	??___fladd
  7505  0E5F  1003               	clrc
  7506  0E60  0C61               	rrf	??___fladd,w
  7507  0E61  3801               	iorlw	1
  7508  0E62  00E2               	movwf	??___fladd+1
  7509  0E63  0862               	movf	??___fladd+1,w
  7510  0E64  00EC               	movwf	___fladd@grs
  7511  0E65  2E68               	goto	l2422
  7512  0E66                     l2420:
  7513  0E66  1003               	clrc
  7514  0E67  0CEC               	rrf	___fladd@grs,f
  7515  0E68                     l2422:
  7516  0E68  1C59               	btfss	___fladd@b,0
  7517  0E69  2E6B               	goto	u2631
  7518  0E6A  2E6C               	goto	u2630
  7519  0E6B                     u2631:
  7520  0E6B  2E6D               	goto	l2426
  7521  0E6C                     u2630:
  7522  0E6C                     l2424:
  7523  0E6C  17EC               	bsf	___fladd@grs,7
  7524  0E6D                     l2426:
  7525  0E6D  3001               	movlw	1
  7526  0E6E  00E1               	movwf	??___fladd
  7527  0E6F                     u2645:
  7528  0E6F  0D5C               	rlf	___fladd@b+3,w
  7529  0E70  0CDC               	rrf	___fladd@b+3,f
  7530  0E71  0CDB               	rrf	___fladd@b+2,f
  7531  0E72  0CDA               	rrf	___fladd@b+1,f
  7532  0E73  0CD9               	rrf	___fladd@b,f
  7533  0E74  0BE1               	decfsz	??___fladd& (0+127),f
  7534  0E75  2E6F               	goto	u2645
  7535  0E76                     l2428:
  7536  0E76  3001               	movlw	1
  7537  0E77  00E1               	movwf	??___fladd
  7538  0E78  0861               	movf	??___fladd,w
  7539  0E79  07EB               	addwf	___fladd@bexp,f
  7540  0E7A                     l2430:
  7541  0E7A  1283               	bcf	3,5	;RP0=0, select bank0
  7542  0E7B  1303               	bcf	3,6	;RP1=0, select bank0
  7543  0E7C  086A               	movf	___fladd@aexp,w
  7544  0E7D  026B               	subwf	___fladd@bexp,w
  7545  0E7E  1C03               	skipc
  7546  0E7F  2E81               	goto	u2651
  7547  0E80  2E82               	goto	u2650
  7548  0E81                     u2651:
  7549  0E81  2E59               	goto	l710
  7550  0E82                     u2650:
  7551  0E82                     l708:
  7552  0E82  1B69               	btfsc	___fladd@signs,6
  7553  0E83  2E85               	goto	u2661
  7554  0E84  2E86               	goto	u2660
  7555  0E85                     u2661:
  7556  0E85  2ED1               	goto	l2456
  7557  0E86                     u2660:
  7558  0E86                     l2432:
  7559  0E86  086B               	movf	___fladd@bexp,w
  7560  0E87  1D03               	btfss	3,2
  7561  0E88  2E8A               	goto	u2671
  7562  0E89  2E8B               	goto	u2670
  7563  0E8A                     u2671:
  7564  0E8A  2E94               	goto	l2438
  7565  0E8B                     u2670:
  7566  0E8B                     l2434:
  7567  0E8B  3000               	movlw	0
  7568  0E8C  00DC               	movwf	?___fladd+3
  7569  0E8D  3000               	movlw	0
  7570  0E8E  00DB               	movwf	?___fladd+2
  7571  0E8F  3000               	movlw	0
  7572  0E90  00DA               	movwf	?___fladd+1
  7573  0E91  3000               	movlw	0
  7574  0E92  00D9               	movwf	?___fladd
  7575  0E93  2FFF               	goto	l717
  7576  0E94                     l2438:
  7577  0E94  085D               	movf	___fladd@a,w
  7578  0E95  07D9               	addwf	___fladd@b,f
  7579  0E96  085E               	movf	___fladd@a+1,w
  7580  0E97  1103               	clrz
  7581  0E98  1803               	skipnc
  7582  0E99  3E01               	addlw	1
  7583  0E9A  1903               	skipnz
  7584  0E9B  2E9D               	goto	u2681
  7585  0E9C  07DA               	addwf	___fladd@b+1,f
  7586  0E9D                     u2681:
  7587  0E9D  085F               	movf	___fladd@a+2,w
  7588  0E9E  1103               	clrz
  7589  0E9F  1803               	skipnc
  7590  0EA0  3E01               	addlw	1
  7591  0EA1  1903               	skipnz
  7592  0EA2  2EA4               	goto	u2682
  7593  0EA3  07DB               	addwf	___fladd@b+2,f
  7594  0EA4                     u2682:
  7595  0EA4  0860               	movf	___fladd@a+3,w
  7596  0EA5  1103               	clrz
  7597  0EA6  1803               	skipnc
  7598  0EA7  3E01               	addlw	1
  7599  0EA8  1903               	skipnz
  7600  0EA9  2EAB               	goto	u2683
  7601  0EAA  07DC               	addwf	___fladd@b+3,f
  7602  0EAB                     u2683:
  7603  0EAB                     l2440:
  7604  0EAB  1C5C               	btfss	___fladd@b+3,0
  7605  0EAC  2EAE               	goto	u2691
  7606  0EAD  2EAF               	goto	u2690
  7607  0EAE                     u2691:
  7608  0EAE  2F85               	goto	l2490
  7609  0EAF                     u2690:
  7610  0EAF                     l2442:
  7611  0EAF  1C6C               	btfss	___fladd@grs,0
  7612  0EB0  2EB2               	goto	u2701
  7613  0EB1  2EB3               	goto	u2700
  7614  0EB2                     u2701:
  7615  0EB2  2EBC               	goto	l2446
  7616  0EB3                     u2700:
  7617  0EB3                     l2444:
  7618  0EB3  086C               	movf	___fladd@grs,w
  7619  0EB4  00E1               	movwf	??___fladd
  7620  0EB5  1003               	clrc
  7621  0EB6  0C61               	rrf	??___fladd,w
  7622  0EB7  3801               	iorlw	1
  7623  0EB8  00E2               	movwf	??___fladd+1
  7624  0EB9  0862               	movf	??___fladd+1,w
  7625  0EBA  00EC               	movwf	___fladd@grs
  7626  0EBB  2EBE               	goto	l2448
  7627  0EBC                     l2446:
  7628  0EBC  1003               	clrc
  7629  0EBD  0CEC               	rrf	___fladd@grs,f
  7630  0EBE                     l2448:
  7631  0EBE  1C59               	btfss	___fladd@b,0
  7632  0EBF  2EC1               	goto	u2711
  7633  0EC0  2EC2               	goto	u2710
  7634  0EC1                     u2711:
  7635  0EC1  2EC3               	goto	l2452
  7636  0EC2                     u2710:
  7637  0EC2                     l2450:
  7638  0EC2  17EC               	bsf	___fladd@grs,7
  7639  0EC3                     l2452:
  7640  0EC3  3001               	movlw	1
  7641  0EC4  00E1               	movwf	??___fladd
  7642  0EC5                     u2725:
  7643  0EC5  0D5C               	rlf	___fladd@b+3,w
  7644  0EC6  0CDC               	rrf	___fladd@b+3,f
  7645  0EC7  0CDB               	rrf	___fladd@b+2,f
  7646  0EC8  0CDA               	rrf	___fladd@b+1,f
  7647  0EC9  0CD9               	rrf	___fladd@b,f
  7648  0ECA  0BE1               	decfsz	??___fladd& (0+127),f
  7649  0ECB  2EC5               	goto	u2725
  7650  0ECC                     l2454:
  7651  0ECC  3001               	movlw	1
  7652  0ECD  00E1               	movwf	??___fladd
  7653  0ECE  0861               	movf	??___fladd,w
  7654  0ECF  07EB               	addwf	___fladd@bexp,f
  7655  0ED0  2F85               	goto	l2490
  7656  0ED1                     l2456:
  7657  0ED1  085C               	movf	___fladd@b+3,w
  7658  0ED2  3A80               	xorlw	128
  7659  0ED3  00FF               	movwf	btemp+1
  7660  0ED4  0860               	movf	___fladd@a+3,w
  7661  0ED5  3A80               	xorlw	128
  7662  0ED6  027F               	subwf	btemp+1,w
  7663  0ED7  1D03               	skipz
  7664  0ED8  2EE3               	goto	u2733
  7665  0ED9  085F               	movf	___fladd@a+2,w
  7666  0EDA  025B               	subwf	___fladd@b+2,w
  7667  0EDB  1D03               	skipz
  7668  0EDC  2EE3               	goto	u2733
  7669  0EDD  085E               	movf	___fladd@a+1,w
  7670  0EDE  025A               	subwf	___fladd@b+1,w
  7671  0EDF  1D03               	skipz
  7672  0EE0  2EE3               	goto	u2733
  7673  0EE1  085D               	movf	___fladd@a,w
  7674  0EE2  0259               	subwf	___fladd@b,w
  7675  0EE3                     u2733:
  7676  0EE3  1803               	skipnc
  7677  0EE4  2EE6               	goto	u2731
  7678  0EE5  2EE7               	goto	u2730
  7679  0EE6                     u2731:
  7680  0EE6  2F3F               	goto	l2466
  7681  0EE7                     u2730:
  7682  0EE7                     l2458:
  7683  0EE7  30FF               	movlw	255
  7684  0EE8  00E1               	movwf	??___fladd
  7685  0EE9  30FF               	movlw	255
  7686  0EEA  00E2               	movwf	??___fladd+1
  7687  0EEB  30FF               	movlw	255
  7688  0EEC  00E3               	movwf	??___fladd+2
  7689  0EED  30FF               	movlw	255
  7690  0EEE  00E4               	movwf	??___fladd+3
  7691  0EEF  085D               	movf	___fladd@a,w
  7692  0EF0  00E5               	movwf	??___fladd+4
  7693  0EF1  085E               	movf	___fladd@a+1,w
  7694  0EF2  00E6               	movwf	??___fladd+5
  7695  0EF3  085F               	movf	___fladd@a+2,w
  7696  0EF4  00E7               	movwf	??___fladd+6
  7697  0EF5  0860               	movf	___fladd@a+3,w
  7698  0EF6  00E8               	movwf	??___fladd+7
  7699  0EF7  0859               	movf	___fladd@b,w
  7700  0EF8  02E5               	subwf	??___fladd+4,f
  7701  0EF9  085A               	movf	___fladd@b+1,w
  7702  0EFA  1C03               	skipc
  7703  0EFB  0F5A               	incfsz	___fladd@b+1,w
  7704  0EFC  2EFE               	goto	u2741
  7705  0EFD  2EFF               	goto	u2742
  7706  0EFE                     u2741:
  7707  0EFE  02E6               	subwf	??___fladd+5,f
  7708  0EFF                     u2742:
  7709  0EFF  085B               	movf	___fladd@b+2,w
  7710  0F00  1C03               	skipc
  7711  0F01  0F5B               	incfsz	___fladd@b+2,w
  7712  0F02  2F04               	goto	u2743
  7713  0F03  2F05               	goto	u2744
  7714  0F04                     u2743:
  7715  0F04  02E7               	subwf	??___fladd+6,f
  7716  0F05                     u2744:
  7717  0F05  085C               	movf	___fladd@b+3,w
  7718  0F06  1C03               	skipc
  7719  0F07  0F5C               	incfsz	___fladd@b+3,w
  7720  0F08  2F0A               	goto	u2745
  7721  0F09  2F0B               	goto	u2746
  7722  0F0A                     u2745:
  7723  0F0A  02E8               	subwf	??___fladd+7,f
  7724  0F0B                     u2746:
  7725  0F0B  0865               	movf	??___fladd+4,w
  7726  0F0C  07E1               	addwf	??___fladd,f
  7727  0F0D  0866               	movf	??___fladd+5,w
  7728  0F0E  1803               	skipnc
  7729  0F0F  0F66               	incfsz	??___fladd+5,w
  7730  0F10  2F12               	goto	u2750
  7731  0F11  2F13               	goto	u2751
  7732  0F12                     u2750:
  7733  0F12  07E2               	addwf	??___fladd+1,f
  7734  0F13                     u2751:
  7735  0F13  0867               	movf	??___fladd+6,w
  7736  0F14  1803               	skipnc
  7737  0F15  0F67               	incfsz	??___fladd+6,w
  7738  0F16  2F18               	goto	u2752
  7739  0F17  2F19               	goto	u2753
  7740  0F18                     u2752:
  7741  0F18  07E3               	addwf	??___fladd+2,f
  7742  0F19                     u2753:
  7743  0F19  0868               	movf	??___fladd+7,w
  7744  0F1A  1803               	skipnc
  7745  0F1B  0A68               	incf	??___fladd+7,w
  7746  0F1C  07E4               	addwf	??___fladd+3,f
  7747  0F1D  0864               	movf	??___fladd+3,w
  7748  0F1E  00DC               	movwf	___fladd@b+3
  7749  0F1F  0863               	movf	??___fladd+2,w
  7750  0F20  00DB               	movwf	___fladd@b+2
  7751  0F21  0862               	movf	??___fladd+1,w
  7752  0F22  00DA               	movwf	___fladd@b+1
  7753  0F23  0861               	movf	??___fladd,w
  7754  0F24  00D9               	movwf	___fladd@b
  7755  0F25                     l2460:
  7756  0F25  3080               	movlw	128
  7757  0F26  00E1               	movwf	??___fladd
  7758  0F27  0861               	movf	??___fladd,w
  7759  0F28  06E9               	xorwf	___fladd@signs,f
  7760  0F29  09EC               	comf	___fladd@grs,f
  7761  0F2A  0AEC               	incf	___fladd@grs,f
  7762  0F2B                     l2462:
  7763  0F2B  086C               	movf	___fladd@grs,w
  7764  0F2C  1D03               	btfss	3,2
  7765  0F2D  2F2F               	goto	u2761
  7766  0F2E  2F30               	goto	u2760
  7767  0F2F                     u2761:
  7768  0F2F  2F4D               	goto	l725
  7769  0F30                     u2760:
  7770  0F30                     l2464:
  7771  0F30  3001               	movlw	1
  7772  0F31  07D9               	addwf	___fladd@b,f
  7773  0F32  3000               	movlw	0
  7774  0F33  1803               	skipnc
  7775  0F34  3001               	movlw	1
  7776  0F35  07DA               	addwf	___fladd@b+1,f
  7777  0F36  3000               	movlw	0
  7778  0F37  1803               	skipnc
  7779  0F38  3001               	movlw	1
  7780  0F39  07DB               	addwf	___fladd@b+2,f
  7781  0F3A  3000               	movlw	0
  7782  0F3B  1803               	skipnc
  7783  0F3C  3001               	movlw	1
  7784  0F3D  07DC               	addwf	___fladd@b+3,f
  7785  0F3E  2F4D               	goto	l725
  7786  0F3F                     l2466:
  7787  0F3F  085D               	movf	___fladd@a,w
  7788  0F40  02D9               	subwf	___fladd@b,f
  7789  0F41  085E               	movf	___fladd@a+1,w
  7790  0F42  1C03               	skipc
  7791  0F43  0F5E               	incfsz	___fladd@a+1,w
  7792  0F44  02DA               	subwf	___fladd@b+1,f
  7793  0F45  085F               	movf	___fladd@a+2,w
  7794  0F46  1C03               	skipc
  7795  0F47  0F5F               	incfsz	___fladd@a+2,w
  7796  0F48  02DB               	subwf	___fladd@b+2,f
  7797  0F49  0860               	movf	___fladd@a+3,w
  7798  0F4A  1C03               	skipc
  7799  0F4B  0F60               	incfsz	___fladd@a+3,w
  7800  0F4C  02DC               	subwf	___fladd@b+3,f
  7801  0F4D                     l725:
  7802  0F4D  085C               	movf	___fladd@b+3,w
  7803  0F4E  045B               	iorwf	___fladd@b+2,w
  7804  0F4F  045A               	iorwf	___fladd@b+1,w
  7805  0F50  0459               	iorwf	___fladd@b,w
  7806  0F51  1D03               	skipz
  7807  0F52  2F54               	goto	u2771
  7808  0F53  2F55               	goto	u2770
  7809  0F54                     u2771:
  7810  0F54  2F81               	goto	l2488
  7811  0F55                     u2770:
  7812  0F55                     l2468:
  7813  0F55  086C               	movf	___fladd@grs,w
  7814  0F56  1D03               	btfss	3,2
  7815  0F57  2F59               	goto	u2781
  7816  0F58  2F5A               	goto	u2780
  7817  0F59                     u2781:
  7818  0F59  2F81               	goto	l2488
  7819  0F5A                     u2780:
  7820  0F5A                     l2470:
  7821  0F5A  3000               	movlw	0
  7822  0F5B  00DC               	movwf	?___fladd+3
  7823  0F5C  3000               	movlw	0
  7824  0F5D  00DB               	movwf	?___fladd+2
  7825  0F5E  3000               	movlw	0
  7826  0F5F  00DA               	movwf	?___fladd+1
  7827  0F60  3000               	movlw	0
  7828  0F61  00D9               	movwf	?___fladd
  7829  0F62  2FFF               	goto	l717
  7830  0F63                     l2474:
  7831  0F63  3001               	movlw	1
  7832  0F64  00E1               	movwf	??___fladd
  7833  0F65                     u2795:
  7834  0F65  1003               	clrc
  7835  0F66  0DD9               	rlf	___fladd@b,f
  7836  0F67  0DDA               	rlf	___fladd@b+1,f
  7837  0F68  0DDB               	rlf	___fladd@b+2,f
  7838  0F69  0DDC               	rlf	___fladd@b+3,f
  7839  0F6A  0BE1               	decfsz	??___fladd,f
  7840  0F6B  2F65               	goto	u2795
  7841  0F6C                     l2476:
  7842  0F6C  1FEC               	btfss	___fladd@grs,7
  7843  0F6D  2F6F               	goto	u2801
  7844  0F6E  2F70               	goto	u2800
  7845  0F6F                     u2801:
  7846  0F6F  2F71               	goto	l729
  7847  0F70                     u2800:
  7848  0F70                     l2478:
  7849  0F70  1459               	bsf	___fladd@b,0
  7850  0F71                     l729:
  7851  0F71  1C6C               	btfss	___fladd@grs,0
  7852  0F72  2F74               	goto	u2811
  7853  0F73  2F75               	goto	u2810
  7854  0F74                     u2811:
  7855  0F74  2F78               	goto	l2482
  7856  0F75                     u2810:
  7857  0F75                     l2480:
  7858  0F75  1403               	setc
  7859  0F76  0DEC               	rlf	___fladd@grs,f
  7860  0F77  2F7A               	goto	l2484
  7861  0F78                     l2482:
  7862  0F78  1003               	clrc
  7863  0F79  0DEC               	rlf	___fladd@grs,f
  7864  0F7A                     l2484:
  7865  0F7A  086B               	movf	___fladd@bexp,w
  7866  0F7B  1903               	btfsc	3,2
  7867  0F7C  2F7E               	goto	u2821
  7868  0F7D  2F7F               	goto	u2820
  7869  0F7E                     u2821:
  7870  0F7E  2F81               	goto	l2488
  7871  0F7F                     u2820:
  7872  0F7F                     l2486:
  7873  0F7F  3001               	movlw	1
  7874  0F80  02EB               	subwf	___fladd@bexp,f
  7875  0F81                     l2488:
  7876  0F81  1FDB               	btfss	___fladd@b+2,7
  7877  0F82  2F84               	goto	u2831
  7878  0F83  2F85               	goto	u2830
  7879  0F84                     u2831:
  7880  0F84  2F63               	goto	l2474
  7881  0F85                     u2830:
  7882  0F85                     l2490:
  7883  0F85  01EA               	clrf	___fladd@aexp
  7884  0F86                     l2492:
  7885  0F86  1FEC               	btfss	___fladd@grs,7
  7886  0F87  2F89               	goto	u2841
  7887  0F88  2F8A               	goto	u2840
  7888  0F89                     u2841:
  7889  0F89  2F98               	goto	l2500
  7890  0F8A                     u2840:
  7891  0F8A                     l2494:
  7892  0F8A  086C               	movf	___fladd@grs,w
  7893  0F8B  397F               	andlw	127
  7894  0F8C  1903               	btfsc	3,2
  7895  0F8D  2F8F               	goto	u2851
  7896  0F8E  2F90               	goto	u2850
  7897  0F8F                     u2851:
  7898  0F8F  2F93               	goto	l735
  7899  0F90                     u2850:
  7900  0F90                     l2496:
  7901  0F90  01EA               	clrf	___fladd@aexp
  7902  0F91  0AEA               	incf	___fladd@aexp,f
  7903  0F92  2F98               	goto	l2500
  7904  0F93                     l735:
  7905  0F93  1C59               	btfss	___fladd@b,0
  7906  0F94  2F96               	goto	u2861
  7907  0F95  2F97               	goto	u2860
  7908  0F96                     u2861:
  7909  0F96  2F98               	goto	l2500
  7910  0F97                     u2860:
  7911  0F97  2F90               	goto	l2496
  7912  0F98                     l2500:
  7913  0F98  086A               	movf	___fladd@aexp,w
  7914  0F99  1903               	btfsc	3,2
  7915  0F9A  2F9C               	goto	u2871
  7916  0F9B  2F9D               	goto	u2870
  7917  0F9C                     u2871:
  7918  0F9C  2FD1               	goto	l738
  7919  0F9D                     u2870:
  7920  0F9D                     l2502:
  7921  0F9D  3001               	movlw	1
  7922  0F9E  07D9               	addwf	___fladd@b,f
  7923  0F9F  3000               	movlw	0
  7924  0FA0  1803               	skipnc
  7925  0FA1  3001               	movlw	1
  7926  0FA2  07DA               	addwf	___fladd@b+1,f
  7927  0FA3  3000               	movlw	0
  7928  0FA4  1803               	skipnc
  7929  0FA5  3001               	movlw	1
  7930  0FA6  07DB               	addwf	___fladd@b+2,f
  7931  0FA7  3000               	movlw	0
  7932  0FA8  1803               	skipnc
  7933  0FA9  3001               	movlw	1
  7934  0FAA  07DC               	addwf	___fladd@b+3,f
  7935  0FAB                     l2504:
  7936  0FAB  1C5C               	btfss	___fladd@b+3,0
  7937  0FAC  2FAE               	goto	u2881
  7938  0FAD  2FAF               	goto	u2880
  7939  0FAE                     u2881:
  7940  0FAE  2FD1               	goto	l738
  7941  0FAF                     u2880:
  7942  0FAF                     l2506:
  7943  0FAF  0859               	movf	___fladd@b,w
  7944  0FB0  00E1               	movwf	??___fladd
  7945  0FB1  085A               	movf	___fladd@b+1,w
  7946  0FB2  00E2               	movwf	??___fladd+1
  7947  0FB3  085B               	movf	___fladd@b+2,w
  7948  0FB4  00E3               	movwf	??___fladd+2
  7949  0FB5  085C               	movf	___fladd@b+3,w
  7950  0FB6  00E4               	movwf	??___fladd+3
  7951  0FB7  3001               	movlw	1
  7952  0FB8  00E5               	movwf	??___fladd+4
  7953  0FB9                     u2895:
  7954  0FB9  0D64               	rlf	??___fladd+3,w
  7955  0FBA  0CE4               	rrf	??___fladd+3,f
  7956  0FBB  0CE3               	rrf	??___fladd+2,f
  7957  0FBC  0CE2               	rrf	??___fladd+1,f
  7958  0FBD  0CE1               	rrf	??___fladd,f
  7959  0FBE                     u2890:
  7960  0FBE  0BE5               	decfsz	??___fladd+4,f
  7961  0FBF  2FB9               	goto	u2895
  7962  0FC0  0864               	movf	??___fladd+3,w
  7963  0FC1  00DC               	movwf	___fladd@b+3
  7964  0FC2  0863               	movf	??___fladd+2,w
  7965  0FC3  00DB               	movwf	___fladd@b+2
  7966  0FC4  0862               	movf	??___fladd+1,w
  7967  0FC5  00DA               	movwf	___fladd@b+1
  7968  0FC6  0861               	movf	??___fladd,w
  7969  0FC7  00D9               	movwf	___fladd@b
  7970  0FC8  0A6B               	incf	___fladd@bexp,w
  7971  0FC9  1903               	btfsc	3,2
  7972  0FCA  2FCC               	goto	u2901
  7973  0FCB  2FCD               	goto	u2900
  7974  0FCC                     u2901:
  7975  0FCC  2FD1               	goto	l738
  7976  0FCD                     u2900:
  7977  0FCD                     l2508:
  7978  0FCD  3001               	movlw	1
  7979  0FCE  00E1               	movwf	??___fladd
  7980  0FCF  0861               	movf	??___fladd,w
  7981  0FD0  07EB               	addwf	___fladd@bexp,f
  7982  0FD1                     l738:
  7983  0FD1  0A6B               	incf	___fladd@bexp,w
  7984  0FD2  1903               	btfsc	3,2
  7985  0FD3  2FD5               	goto	u2911
  7986  0FD4  2FD6               	goto	u2910
  7987  0FD5                     u2911:
  7988  0FD5  2FDB               	goto	l2512
  7989  0FD6                     u2910:
  7990  0FD6                     l2510:
  7991  0FD6  086B               	movf	___fladd@bexp,w
  7992  0FD7  1D03               	btfss	3,2
  7993  0FD8  2FDA               	goto	u2921
  7994  0FD9  2FDB               	goto	u2920
  7995  0FDA                     u2921:
  7996  0FDA  2FE9               	goto	l2518
  7997  0FDB                     u2920:
  7998  0FDB                     l2512:
  7999  0FDB  3000               	movlw	0
  8000  0FDC  00DC               	movwf	___fladd@b+3
  8001  0FDD  3000               	movlw	0
  8002  0FDE  00DB               	movwf	___fladd@b+2
  8003  0FDF  3000               	movlw	0
  8004  0FE0  00DA               	movwf	___fladd@b+1
  8005  0FE1  3000               	movlw	0
  8006  0FE2  00D9               	movwf	___fladd@b
  8007  0FE3                     l2514:
  8008  0FE3  086B               	movf	___fladd@bexp,w
  8009  0FE4  1D03               	btfss	3,2
  8010  0FE5  2FE7               	goto	u2931
  8011  0FE6  2FE8               	goto	u2930
  8012  0FE7                     u2931:
  8013  0FE7  2FE9               	goto	l2518
  8014  0FE8                     u2930:
  8015  0FE8                     l2516:
  8016  0FE8  01E9               	clrf	___fladd@signs
  8017  0FE9                     l2518:
  8018  0FE9  1C6B               	btfss	___fladd@bexp,0
  8019  0FEA  2FEC               	goto	u2941
  8020  0FEB  2FED               	goto	u2940
  8021  0FEC                     u2941:
  8022  0FEC  2FEF               	goto	l2522
  8023  0FED                     u2940:
  8024  0FED                     l2520:
  8025  0FED  17DB               	bsf	___fladd@b+2,7
  8026  0FEE  2FF3               	goto	l746
  8027  0FEF                     l2522:
  8028  0FEF  307F               	movlw	127
  8029  0FF0  00E1               	movwf	??___fladd
  8030  0FF1  0861               	movf	??___fladd,w
  8031  0FF2  05DB               	andwf	___fladd@b+2,f
  8032  0FF3                     l746:
  8033  0FF3  086B               	movf	___fladd@bexp,w
  8034  0FF4  00E1               	movwf	??___fladd
  8035  0FF5  1003               	clrc
  8036  0FF6  0C61               	rrf	??___fladd,w
  8037  0FF7  00E2               	movwf	??___fladd+1
  8038  0FF8  0862               	movf	??___fladd+1,w
  8039  0FF9  00DC               	movwf	___fladd@b+3
  8040  0FFA                     l2524:
  8041  0FFA  1FE9               	btfss	___fladd@signs,7
  8042  0FFB  2FFD               	goto	u2951
  8043  0FFC  2FFE               	goto	u2950
  8044  0FFD                     u2951:
  8045  0FFD  2FFF               	goto	l747
  8046  0FFE                     u2950:
  8047  0FFE                     l2526:
  8048  0FFE  17DC               	bsf	___fladd@b+3,7
  8049  0FFF                     l747:
  8050  0FFF                     l717:
  8051  0FFF  0008               	return
  8052  1000                     __end_of___fladd:
  8053                           
  8054                           	psect	text19
  8055  0B9B                     __ptext19:	
  8056 ;; *************** function ___fldiv *****************
  8057 ;; Defined at:
  8058 ;;		line 8 in file "C:\Program Files\Microchip\xc8\v2.36\pic\sources\c90\common\sprcdiv.c"
  8059 ;; Parameters:    Size  Location     Type
  8060 ;;  a               4   31[BANK0 ] unsigned char 
  8061 ;;  b               4   35[BANK0 ] unsigned char 
  8062 ;; Auto vars:     Size  Location     Type
  8063 ;;  grs             4   51[BANK0 ] unsigned long 
  8064 ;;  rem             4   44[BANK0 ] unsigned long 
  8065 ;;  new_exp         2   49[BANK0 ] int 
  8066 ;;  aexp            1   56[BANK0 ] unsigned char 
  8067 ;;  bexp            1   55[BANK0 ] unsigned char 
  8068 ;;  sign            1   48[BANK0 ] unsigned char 
  8069 ;; Return value:  Size  Location     Type
  8070 ;;                  4   31[BANK0 ] unsigned char 
  8071 ;; Registers used:
  8072 ;;		wreg, status,2, status,0, btemp+1
  8073 ;; Tracked objects:
  8074 ;;		On entry : 0/0
  8075 ;;		On exit  : 0/0
  8076 ;;		Unchanged: 0/0
  8077 ;; Data sizes:     COMMON   BANK0   BANK1   BANK3   BANK2
  8078 ;;      Params:         0       8       0       0       0
  8079 ;;      Locals:         0      13       0       0       0
  8080 ;;      Temps:          0       5       0       0       0
  8081 ;;      Totals:         0      26       0       0       0
  8082 ;;Total ram usage:       26 bytes
  8083 ;; Hardware stack levels used: 1
  8084 ;; This function calls:
  8085 ;;		Nothing
  8086 ;; This function is called by:
  8087 ;;		_main
  8088 ;; This function uses a non-reentrant model
  8089 ;;
  8090                           
  8091  0B9B                     ___fldiv:	
  8092                           ;psect for function ___fldiv
  8093                           
  8094  0B9B                     l3226:	
  8095                           ;incstack = 0
  8096                           ; Regs used in ___fldiv: [wreg+status,2+status,0+btemp+1]
  8097                           
  8098  0B9B  1283               	bcf	3,5	;RP0=0, select bank0
  8099  0B9C  1303               	bcf	3,6	;RP1=0, select bank0
  8100  0B9D  0846               	movf	___fldiv@b+3,w
  8101  0B9E  3980               	andlw	128
  8102  0B9F  00C7               	movwf	??___fldiv
  8103  0BA0  0847               	movf	??___fldiv,w
  8104  0BA1  00D0               	movwf	___fldiv@sign
  8105  0BA2                     l3228:
  8106  0BA2  0846               	movf	___fldiv@b+3,w
  8107  0BA3  00C7               	movwf	??___fldiv
  8108  0BA4  0747               	addwf	??___fldiv,w
  8109  0BA5  00C8               	movwf	??___fldiv+1
  8110  0BA6  0848               	movf	??___fldiv+1,w
  8111  0BA7  00D7               	movwf	___fldiv@bexp
  8112  0BA8                     l3230:
  8113  0BA8  1FC5               	btfss	___fldiv@b+2,7
  8114  0BA9  2BAB               	goto	u4401
  8115  0BAA  2BAC               	goto	u4400
  8116  0BAB                     u4401:
  8117  0BAB  2BAD               	goto	l3234
  8118  0BAC                     u4400:
  8119  0BAC                     l3232:
  8120  0BAC  1457               	bsf	___fldiv@bexp,0
  8121  0BAD                     l3234:
  8122  0BAD  0857               	movf	___fldiv@bexp,w
  8123  0BAE  1903               	btfsc	3,2
  8124  0BAF  2BB1               	goto	u4411
  8125  0BB0  2BB2               	goto	u4410
  8126  0BB1                     u4411:
  8127  0BB1  2BC2               	goto	l3244
  8128  0BB2                     u4410:
  8129  0BB2                     l3236:
  8130  0BB2  0A57               	incf	___fldiv@bexp,w
  8131  0BB3  1D03               	btfss	3,2
  8132  0BB4  2BB6               	goto	u4421
  8133  0BB5  2BB7               	goto	u4420
  8134  0BB6                     u4421:
  8135  0BB6  2BBF               	goto	l3240
  8136  0BB7                     u4420:
  8137  0BB7                     l3238:
  8138  0BB7  3000               	movlw	0
  8139  0BB8  00C6               	movwf	___fldiv@b+3
  8140  0BB9  3000               	movlw	0
  8141  0BBA  00C5               	movwf	___fldiv@b+2
  8142  0BBB  3000               	movlw	0
  8143  0BBC  00C4               	movwf	___fldiv@b+1
  8144  0BBD  3000               	movlw	0
  8145  0BBE  00C3               	movwf	___fldiv@b
  8146  0BBF                     l3240:
  8147  0BBF  17C5               	bsf	___fldiv@b+2,7
  8148  0BC0                     l3242:
  8149  0BC0  01C6               	clrf	___fldiv@b+3
  8150  0BC1  2BCA               	goto	l3246
  8151  0BC2                     l3244:
  8152  0BC2  3000               	movlw	0
  8153  0BC3  00C6               	movwf	___fldiv@b+3
  8154  0BC4  3000               	movlw	0
  8155  0BC5  00C5               	movwf	___fldiv@b+2
  8156  0BC6  3000               	movlw	0
  8157  0BC7  00C4               	movwf	___fldiv@b+1
  8158  0BC8  3000               	movlw	0
  8159  0BC9  00C3               	movwf	___fldiv@b
  8160  0BCA                     l3246:
  8161  0BCA  0842               	movf	___fldiv@a+3,w
  8162  0BCB  3980               	andlw	128
  8163  0BCC  00C7               	movwf	??___fldiv
  8164  0BCD  0847               	movf	??___fldiv,w
  8165  0BCE  06D0               	xorwf	___fldiv@sign,f
  8166  0BCF                     l3248:
  8167  0BCF  0842               	movf	___fldiv@a+3,w
  8168  0BD0  00C7               	movwf	??___fldiv
  8169  0BD1  0747               	addwf	??___fldiv,w
  8170  0BD2  00C8               	movwf	??___fldiv+1
  8171  0BD3  0848               	movf	??___fldiv+1,w
  8172  0BD4  00D8               	movwf	___fldiv@aexp
  8173  0BD5                     l3250:
  8174  0BD5  1FC1               	btfss	___fldiv@a+2,7
  8175  0BD6  2BD8               	goto	u4431
  8176  0BD7  2BD9               	goto	u4430
  8177  0BD8                     u4431:
  8178  0BD8  2BDA               	goto	l3254
  8179  0BD9                     u4430:
  8180  0BD9                     l3252:
  8181  0BD9  1458               	bsf	___fldiv@aexp,0
  8182  0BDA                     l3254:
  8183  0BDA  0858               	movf	___fldiv@aexp,w
  8184  0BDB  1903               	btfsc	3,2
  8185  0BDC  2BDE               	goto	u4441
  8186  0BDD  2BDF               	goto	u4440
  8187  0BDE                     u4441:
  8188  0BDE  2BEF               	goto	l3264
  8189  0BDF                     u4440:
  8190  0BDF                     l3256:
  8191  0BDF  0A58               	incf	___fldiv@aexp,w
  8192  0BE0  1D03               	btfss	3,2
  8193  0BE1  2BE3               	goto	u4451
  8194  0BE2  2BE4               	goto	u4450
  8195  0BE3                     u4451:
  8196  0BE3  2BEC               	goto	l3260
  8197  0BE4                     u4450:
  8198  0BE4                     l3258:
  8199  0BE4  3000               	movlw	0
  8200  0BE5  00C2               	movwf	___fldiv@a+3
  8201  0BE6  3000               	movlw	0
  8202  0BE7  00C1               	movwf	___fldiv@a+2
  8203  0BE8  3000               	movlw	0
  8204  0BE9  00C0               	movwf	___fldiv@a+1
  8205  0BEA  3000               	movlw	0
  8206  0BEB  00BF               	movwf	___fldiv@a
  8207  0BEC                     l3260:
  8208  0BEC  17C1               	bsf	___fldiv@a+2,7
  8209  0BED                     l3262:
  8210  0BED  01C2               	clrf	___fldiv@a+3
  8211  0BEE  2BF7               	goto	l760
  8212  0BEF                     l3264:
  8213  0BEF  3000               	movlw	0
  8214  0BF0  00C2               	movwf	___fldiv@a+3
  8215  0BF1  3000               	movlw	0
  8216  0BF2  00C1               	movwf	___fldiv@a+2
  8217  0BF3  3000               	movlw	0
  8218  0BF4  00C0               	movwf	___fldiv@a+1
  8219  0BF5  3000               	movlw	0
  8220  0BF6  00BF               	movwf	___fldiv@a
  8221  0BF7                     l760:
  8222  0BF7  0842               	movf	___fldiv@a+3,w
  8223  0BF8  0441               	iorwf	___fldiv@a+2,w
  8224  0BF9  0440               	iorwf	___fldiv@a+1,w
  8225  0BFA  043F               	iorwf	___fldiv@a,w
  8226  0BFB  1D03               	skipz
  8227  0BFC  2BFE               	goto	u4461
  8228  0BFD  2BFF               	goto	u4460
  8229  0BFE                     u4461:
  8230  0BFE  2C18               	goto	l3274
  8231  0BFF                     u4460:
  8232  0BFF                     l3266:
  8233  0BFF  3000               	movlw	0
  8234  0C00  00C6               	movwf	___fldiv@b+3
  8235  0C01  3000               	movlw	0
  8236  0C02  00C5               	movwf	___fldiv@b+2
  8237  0C03  3000               	movlw	0
  8238  0C04  00C4               	movwf	___fldiv@b+1
  8239  0C05  3000               	movlw	0
  8240  0C06  00C3               	movwf	___fldiv@b
  8241  0C07  3080               	movlw	128
  8242  0C08  04C5               	iorwf	___fldiv@b+2,f
  8243  0C09  307F               	movlw	127
  8244  0C0A  04C6               	iorwf	___fldiv@b+3,f
  8245  0C0B                     l3268:
  8246  0C0B  0850               	movf	___fldiv@sign,w
  8247  0C0C  00C7               	movwf	??___fldiv
  8248  0C0D  0847               	movf	??___fldiv,w
  8249  0C0E  04C6               	iorwf	___fldiv@b+3,f
  8250  0C0F                     l3270:
  8251  0C0F  0846               	movf	___fldiv@b+3,w
  8252  0C10  00C2               	movwf	?___fldiv+3
  8253  0C11  0845               	movf	___fldiv@b+2,w
  8254  0C12  00C1               	movwf	?___fldiv+2
  8255  0C13  0844               	movf	___fldiv@b+1,w
  8256  0C14  00C0               	movwf	?___fldiv+1
  8257  0C15  0843               	movf	___fldiv@b,w
  8258  0C16  00BF               	movwf	?___fldiv
  8259  0C17  2D77               	goto	l762
  8260  0C18                     l3274:
  8261  0C18  0857               	movf	___fldiv@bexp,w
  8262  0C19  1D03               	btfss	3,2
  8263  0C1A  2C1C               	goto	u4471
  8264  0C1B  2C1D               	goto	u4470
  8265  0C1C                     u4471:
  8266  0C1C  2C26               	goto	l3280
  8267  0C1D                     u4470:
  8268  0C1D                     l3276:
  8269  0C1D  3000               	movlw	0
  8270  0C1E  00C2               	movwf	?___fldiv+3
  8271  0C1F  3000               	movlw	0
  8272  0C20  00C1               	movwf	?___fldiv+2
  8273  0C21  3000               	movlw	0
  8274  0C22  00C0               	movwf	?___fldiv+1
  8275  0C23  3000               	movlw	0
  8276  0C24  00BF               	movwf	?___fldiv
  8277  0C25  2D77               	goto	l762
  8278  0C26                     l3280:
  8279  0C26  0857               	movf	___fldiv@bexp,w
  8280  0C27  00C7               	movwf	??___fldiv
  8281  0C28  01C8               	clrf	??___fldiv+1
  8282  0C29  0848               	movf	??___fldiv+1,w
  8283  0C2A  00CA               	movwf	??___fldiv+3
  8284  0C2B  0858               	movf	___fldiv@aexp,w
  8285  0C2C  0247               	subwf	??___fldiv,w
  8286  0C2D  00C9               	movwf	??___fldiv+2
  8287  0C2E  1C03               	skipc
  8288  0C2F  03CA               	decf	??___fldiv+3,f
  8289  0C30  0849               	movf	??___fldiv+2,w
  8290  0C31  3E7F               	addlw	127
  8291  0C32  00D1               	movwf	___fldiv@new_exp
  8292  0C33  084A               	movf	??___fldiv+3,w
  8293  0C34  1803               	skipnc
  8294  0C35  3E01               	addlw	1
  8295  0C36  3E00               	addlw	0
  8296  0C37  00D2               	movwf	___fldiv@new_exp+1
  8297  0C38                     l3282:
  8298  0C38  0846               	movf	___fldiv@b+3,w
  8299  0C39  00CF               	movwf	___fldiv@rem+3
  8300  0C3A  0845               	movf	___fldiv@b+2,w
  8301  0C3B  00CE               	movwf	___fldiv@rem+2
  8302  0C3C  0844               	movf	___fldiv@b+1,w
  8303  0C3D  00CD               	movwf	___fldiv@rem+1
  8304  0C3E  0843               	movf	___fldiv@b,w
  8305  0C3F  00CC               	movwf	___fldiv@rem
  8306  0C40                     l3284:
  8307  0C40  3000               	movlw	0
  8308  0C41  00C6               	movwf	___fldiv@b+3
  8309  0C42  3000               	movlw	0
  8310  0C43  00C5               	movwf	___fldiv@b+2
  8311  0C44  3000               	movlw	0
  8312  0C45  00C4               	movwf	___fldiv@b+1
  8313  0C46  3000               	movlw	0
  8314  0C47  00C3               	movwf	___fldiv@b
  8315  0C48                     l3286:
  8316  0C48  3000               	movlw	0
  8317  0C49  00D6               	movwf	___fldiv@grs+3
  8318  0C4A  3000               	movlw	0
  8319  0C4B  00D5               	movwf	___fldiv@grs+2
  8320  0C4C  3000               	movlw	0
  8321  0C4D  00D4               	movwf	___fldiv@grs+1
  8322  0C4E  3000               	movlw	0
  8323  0C4F  00D3               	movwf	___fldiv@grs
  8324  0C50                     l3288:
  8325  0C50  01D8               	clrf	___fldiv@aexp
  8326  0C51  2C9C               	goto	l3308
  8327  0C52                     l3290:
  8328  0C52  0858               	movf	___fldiv@aexp,w
  8329  0C53  1903               	btfsc	3,2
  8330  0C54  2C56               	goto	u4481
  8331  0C55  2C57               	goto	u4480
  8332  0C56                     u4481:
  8333  0C56  2C77               	goto	l3300
  8334  0C57                     u4480:
  8335  0C57                     l3292:
  8336  0C57  3001               	movlw	1
  8337  0C58  00C7               	movwf	??___fldiv
  8338  0C59                     u4495:
  8339  0C59  1003               	clrc
  8340  0C5A  0DCC               	rlf	___fldiv@rem,f
  8341  0C5B  0DCD               	rlf	___fldiv@rem+1,f
  8342  0C5C  0DCE               	rlf	___fldiv@rem+2,f
  8343  0C5D  0DCF               	rlf	___fldiv@rem+3,f
  8344  0C5E  0BC7               	decfsz	??___fldiv,f
  8345  0C5F  2C59               	goto	u4495
  8346  0C60  3001               	movlw	1
  8347  0C61  00C7               	movwf	??___fldiv
  8348  0C62                     u4505:
  8349  0C62  1003               	clrc
  8350  0C63  0DC3               	rlf	___fldiv@b,f
  8351  0C64  0DC4               	rlf	___fldiv@b+1,f
  8352  0C65  0DC5               	rlf	___fldiv@b+2,f
  8353  0C66  0DC6               	rlf	___fldiv@b+3,f
  8354  0C67  0BC7               	decfsz	??___fldiv,f
  8355  0C68  2C62               	goto	u4505
  8356  0C69                     l3294:
  8357  0C69  1FD6               	btfss	___fldiv@grs+3,7
  8358  0C6A  2C6C               	goto	u4511
  8359  0C6B  2C6D               	goto	u4510
  8360  0C6C                     u4511:
  8361  0C6C  2C6E               	goto	l3298
  8362  0C6D                     u4510:
  8363  0C6D                     l3296:
  8364  0C6D  1443               	bsf	___fldiv@b,0
  8365  0C6E                     l3298:
  8366  0C6E  3001               	movlw	1
  8367  0C6F  00C7               	movwf	??___fldiv
  8368  0C70                     u4525:
  8369  0C70  1003               	clrc
  8370  0C71  0DD3               	rlf	___fldiv@grs,f
  8371  0C72  0DD4               	rlf	___fldiv@grs+1,f
  8372  0C73  0DD5               	rlf	___fldiv@grs+2,f
  8373  0C74  0DD6               	rlf	___fldiv@grs+3,f
  8374  0C75  0BC7               	decfsz	??___fldiv,f
  8375  0C76  2C70               	goto	u4525
  8376  0C77                     l3300:
  8377  0C77  0842               	movf	___fldiv@a+3,w
  8378  0C78  024F               	subwf	___fldiv@rem+3,w
  8379  0C79  1D03               	skipz
  8380  0C7A  2C85               	goto	u4535
  8381  0C7B  0841               	movf	___fldiv@a+2,w
  8382  0C7C  024E               	subwf	___fldiv@rem+2,w
  8383  0C7D  1D03               	skipz
  8384  0C7E  2C85               	goto	u4535
  8385  0C7F  0840               	movf	___fldiv@a+1,w
  8386  0C80  024D               	subwf	___fldiv@rem+1,w
  8387  0C81  1D03               	skipz
  8388  0C82  2C85               	goto	u4535
  8389  0C83  083F               	movf	___fldiv@a,w
  8390  0C84  024C               	subwf	___fldiv@rem,w
  8391  0C85                     u4535:
  8392  0C85  1C03               	skipc
  8393  0C86  2C88               	goto	u4531
  8394  0C87  2C89               	goto	u4530
  8395  0C88                     u4531:
  8396  0C88  2C98               	goto	l3306
  8397  0C89                     u4530:
  8398  0C89                     l3302:
  8399  0C89  1756               	bsf	___fldiv@grs+3,6
  8400  0C8A                     l3304:
  8401  0C8A  083F               	movf	___fldiv@a,w
  8402  0C8B  02CC               	subwf	___fldiv@rem,f
  8403  0C8C  0840               	movf	___fldiv@a+1,w
  8404  0C8D  1C03               	skipc
  8405  0C8E  0F40               	incfsz	___fldiv@a+1,w
  8406  0C8F  02CD               	subwf	___fldiv@rem+1,f
  8407  0C90  0841               	movf	___fldiv@a+2,w
  8408  0C91  1C03               	skipc
  8409  0C92  0F41               	incfsz	___fldiv@a+2,w
  8410  0C93  02CE               	subwf	___fldiv@rem+2,f
  8411  0C94  0842               	movf	___fldiv@a+3,w
  8412  0C95  1C03               	skipc
  8413  0C96  0F42               	incfsz	___fldiv@a+3,w
  8414  0C97  02CF               	subwf	___fldiv@rem+3,f
  8415  0C98                     l3306:
  8416  0C98  3001               	movlw	1
  8417  0C99  00C7               	movwf	??___fldiv
  8418  0C9A  0847               	movf	??___fldiv,w
  8419  0C9B  07D8               	addwf	___fldiv@aexp,f
  8420  0C9C                     l3308:
  8421  0C9C  301A               	movlw	26
  8422  0C9D  0258               	subwf	___fldiv@aexp,w
  8423  0C9E  1C03               	skipc
  8424  0C9F  2CA1               	goto	u4541
  8425  0CA0  2CA2               	goto	u4540
  8426  0CA1                     u4541:
  8427  0CA1  2C52               	goto	l3290
  8428  0CA2                     u4540:
  8429  0CA2                     l3310:
  8430  0CA2  084F               	movf	___fldiv@rem+3,w
  8431  0CA3  044E               	iorwf	___fldiv@rem+2,w
  8432  0CA4  044D               	iorwf	___fldiv@rem+1,w
  8433  0CA5  044C               	iorwf	___fldiv@rem,w
  8434  0CA6  1903               	skipnz
  8435  0CA7  2CA9               	goto	u4551
  8436  0CA8  2CAA               	goto	u4550
  8437  0CA9                     u4551:
  8438  0CA9  2CC9               	goto	l3324
  8439  0CAA                     u4550:
  8440  0CAA                     l3312:
  8441  0CAA  1453               	bsf	___fldiv@grs,0
  8442  0CAB  2CC9               	goto	l3324
  8443  0CAC                     l3314:
  8444  0CAC  3001               	movlw	1
  8445  0CAD  00C7               	movwf	??___fldiv
  8446  0CAE                     u4565:
  8447  0CAE  1003               	clrc
  8448  0CAF  0DC3               	rlf	___fldiv@b,f
  8449  0CB0  0DC4               	rlf	___fldiv@b+1,f
  8450  0CB1  0DC5               	rlf	___fldiv@b+2,f
  8451  0CB2  0DC6               	rlf	___fldiv@b+3,f
  8452  0CB3  0BC7               	decfsz	??___fldiv,f
  8453  0CB4  2CAE               	goto	u4565
  8454  0CB5                     l3316:
  8455  0CB5  1FD6               	btfss	___fldiv@grs+3,7
  8456  0CB6  2CB8               	goto	u4571
  8457  0CB7  2CB9               	goto	u4570
  8458  0CB8                     u4571:
  8459  0CB8  2CBA               	goto	l3320
  8460  0CB9                     u4570:
  8461  0CB9                     l3318:
  8462  0CB9  1443               	bsf	___fldiv@b,0
  8463  0CBA                     l3320:
  8464  0CBA  3001               	movlw	1
  8465  0CBB  00C7               	movwf	??___fldiv
  8466  0CBC                     u4585:
  8467  0CBC  1003               	clrc
  8468  0CBD  0DD3               	rlf	___fldiv@grs,f
  8469  0CBE  0DD4               	rlf	___fldiv@grs+1,f
  8470  0CBF  0DD5               	rlf	___fldiv@grs+2,f
  8471  0CC0  0DD6               	rlf	___fldiv@grs+3,f
  8472  0CC1  0BC7               	decfsz	??___fldiv,f
  8473  0CC2  2CBC               	goto	u4585
  8474  0CC3                     l3322:
  8475  0CC3  30FF               	movlw	255
  8476  0CC4  07D1               	addwf	___fldiv@new_exp,f
  8477  0CC5  1803               	skipnc
  8478  0CC6  0AD2               	incf	___fldiv@new_exp+1,f
  8479  0CC7  30FF               	movlw	255
  8480  0CC8  07D2               	addwf	___fldiv@new_exp+1,f
  8481  0CC9                     l3324:
  8482  0CC9  1FC5               	btfss	___fldiv@b+2,7
  8483  0CCA  2CCC               	goto	u4591
  8484  0CCB  2CCD               	goto	u4590
  8485  0CCC                     u4591:
  8486  0CCC  2CAC               	goto	l3314
  8487  0CCD                     u4590:
  8488  0CCD                     l3326:
  8489  0CCD  01D8               	clrf	___fldiv@aexp
  8490  0CCE                     l3328:
  8491  0CCE  1FD6               	btfss	___fldiv@grs+3,7
  8492  0CCF  2CD1               	goto	u4601
  8493  0CD0  2CD2               	goto	u4600
  8494  0CD1                     u4601:
  8495  0CD1  2CEE               	goto	l3336
  8496  0CD2                     u4600:
  8497  0CD2                     l3330:
  8498  0CD2  30FF               	movlw	255
  8499  0CD3  0553               	andwf	___fldiv@grs,w
  8500  0CD4  00C7               	movwf	??___fldiv
  8501  0CD5  30FF               	movlw	255
  8502  0CD6  0554               	andwf	___fldiv@grs+1,w
  8503  0CD7  00C8               	movwf	??___fldiv+1
  8504  0CD8  30FF               	movlw	255
  8505  0CD9  0555               	andwf	___fldiv@grs+2,w
  8506  0CDA  00C9               	movwf	??___fldiv+2
  8507  0CDB  307F               	movlw	127
  8508  0CDC  0556               	andwf	___fldiv@grs+3,w
  8509  0CDD  00CA               	movwf	??___fldiv+3
  8510  0CDE  084A               	movf	??___fldiv+3,w
  8511  0CDF  0449               	iorwf	??___fldiv+2,w
  8512  0CE0  0448               	iorwf	??___fldiv+1,w
  8513  0CE1  0447               	iorwf	??___fldiv,w
  8514  0CE2  1903               	skipnz
  8515  0CE3  2CE5               	goto	u4611
  8516  0CE4  2CE6               	goto	u4610
  8517  0CE5                     u4611:
  8518  0CE5  2CE9               	goto	l776
  8519  0CE6                     u4610:
  8520  0CE6                     l3332:
  8521  0CE6  01D8               	clrf	___fldiv@aexp
  8522  0CE7  0AD8               	incf	___fldiv@aexp,f
  8523  0CE8  2CEE               	goto	l3336
  8524  0CE9                     l776:
  8525  0CE9  1C43               	btfss	___fldiv@b,0
  8526  0CEA  2CEC               	goto	u4621
  8527  0CEB  2CED               	goto	u4620
  8528  0CEC                     u4621:
  8529  0CEC  2CEE               	goto	l3336
  8530  0CED                     u4620:
  8531  0CED  2CE6               	goto	l3332
  8532  0CEE                     l3336:
  8533  0CEE  0858               	movf	___fldiv@aexp,w
  8534  0CEF  1903               	btfsc	3,2
  8535  0CF0  2CF2               	goto	u4631
  8536  0CF1  2CF3               	goto	u4630
  8537  0CF2                     u4631:
  8538  0CF2  2D24               	goto	l3346
  8539  0CF3                     u4630:
  8540  0CF3                     l3338:
  8541  0CF3  3001               	movlw	1
  8542  0CF4  07C3               	addwf	___fldiv@b,f
  8543  0CF5  3000               	movlw	0
  8544  0CF6  1803               	skipnc
  8545  0CF7  3001               	movlw	1
  8546  0CF8  07C4               	addwf	___fldiv@b+1,f
  8547  0CF9  3000               	movlw	0
  8548  0CFA  1803               	skipnc
  8549  0CFB  3001               	movlw	1
  8550  0CFC  07C5               	addwf	___fldiv@b+2,f
  8551  0CFD  3000               	movlw	0
  8552  0CFE  1803               	skipnc
  8553  0CFF  3001               	movlw	1
  8554  0D00  07C6               	addwf	___fldiv@b+3,f
  8555  0D01                     l3340:
  8556  0D01  1C46               	btfss	___fldiv@b+3,0
  8557  0D02  2D04               	goto	u4641
  8558  0D03  2D05               	goto	u4640
  8559  0D04                     u4641:
  8560  0D04  2D24               	goto	l3346
  8561  0D05                     u4640:
  8562  0D05                     l3342:
  8563  0D05  0843               	movf	___fldiv@b,w
  8564  0D06  00C7               	movwf	??___fldiv
  8565  0D07  0844               	movf	___fldiv@b+1,w
  8566  0D08  00C8               	movwf	??___fldiv+1
  8567  0D09  0845               	movf	___fldiv@b+2,w
  8568  0D0A  00C9               	movwf	??___fldiv+2
  8569  0D0B  0846               	movf	___fldiv@b+3,w
  8570  0D0C  00CA               	movwf	??___fldiv+3
  8571  0D0D  3001               	movlw	1
  8572  0D0E  00CB               	movwf	??___fldiv+4
  8573  0D0F                     u4655:
  8574  0D0F  0D4A               	rlf	??___fldiv+3,w
  8575  0D10  0CCA               	rrf	??___fldiv+3,f
  8576  0D11  0CC9               	rrf	??___fldiv+2,f
  8577  0D12  0CC8               	rrf	??___fldiv+1,f
  8578  0D13  0CC7               	rrf	??___fldiv,f
  8579  0D14                     u4650:
  8580  0D14  0BCB               	decfsz	??___fldiv+4,f
  8581  0D15  2D0F               	goto	u4655
  8582  0D16  084A               	movf	??___fldiv+3,w
  8583  0D17  00C6               	movwf	___fldiv@b+3
  8584  0D18  0849               	movf	??___fldiv+2,w
  8585  0D19  00C5               	movwf	___fldiv@b+2
  8586  0D1A  0848               	movf	??___fldiv+1,w
  8587  0D1B  00C4               	movwf	___fldiv@b+1
  8588  0D1C  0847               	movf	??___fldiv,w
  8589  0D1D  00C3               	movwf	___fldiv@b
  8590  0D1E                     l3344:
  8591  0D1E  3001               	movlw	1
  8592  0D1F  07D1               	addwf	___fldiv@new_exp,f
  8593  0D20  1803               	skipnc
  8594  0D21  0AD2               	incf	___fldiv@new_exp+1,f
  8595  0D22  3000               	movlw	0
  8596  0D23  07D2               	addwf	___fldiv@new_exp+1,f
  8597  0D24                     l3346:
  8598  0D24  0852               	movf	___fldiv@new_exp+1,w
  8599  0D25  3A80               	xorlw	128
  8600  0D26  00FF               	movwf	btemp+1
  8601  0D27  3080               	movlw	128
  8602  0D28  027F               	subwf	btemp+1,w
  8603  0D29  1D03               	skipz
  8604  0D2A  2D2D               	goto	u4665
  8605  0D2B  30FF               	movlw	255
  8606  0D2C  0251               	subwf	___fldiv@new_exp,w
  8607  0D2D                     u4665:
  8608  0D2D  1C03               	skipc
  8609  0D2E  2D30               	goto	u4661
  8610  0D2F  2D31               	goto	u4660
  8611  0D30                     u4661:
  8612  0D30  2D3F               	goto	l3350
  8613  0D31                     u4660:
  8614  0D31                     l3348:
  8615  0D31  30FF               	movlw	255
  8616  0D32  1283               	bcf	3,5	;RP0=0, select bank0
  8617  0D33  1303               	bcf	3,6	;RP1=0, select bank0
  8618  0D34  00D1               	movwf	___fldiv@new_exp
  8619  0D35  3000               	movlw	0
  8620  0D36  00D2               	movwf	___fldiv@new_exp+1
  8621  0D37  3000               	movlw	0
  8622  0D38  00C6               	movwf	___fldiv@b+3
  8623  0D39  3000               	movlw	0
  8624  0D3A  00C5               	movwf	___fldiv@b+2
  8625  0D3B  3000               	movlw	0
  8626  0D3C  00C4               	movwf	___fldiv@b+1
  8627  0D3D  3000               	movlw	0
  8628  0D3E  00C3               	movwf	___fldiv@b
  8629  0D3F                     l3350:
  8630  0D3F  1283               	bcf	3,5	;RP0=0, select bank0
  8631  0D40  1303               	bcf	3,6	;RP1=0, select bank0
  8632  0D41  0852               	movf	___fldiv@new_exp+1,w
  8633  0D42  3A80               	xorlw	128
  8634  0D43  00FF               	movwf	btemp+1
  8635  0D44  3080               	movlw	128
  8636  0D45  027F               	subwf	btemp+1,w
  8637  0D46  1D03               	skipz
  8638  0D47  2D4A               	goto	u4675
  8639  0D48  3001               	movlw	1
  8640  0D49  0251               	subwf	___fldiv@new_exp,w
  8641  0D4A                     u4675:
  8642  0D4A  1803               	skipnc
  8643  0D4B  2D4D               	goto	u4671
  8644  0D4C  2D4E               	goto	u4670
  8645  0D4D                     u4671:
  8646  0D4D  2D5B               	goto	l782
  8647  0D4E                     u4670:
  8648  0D4E                     l3352:
  8649  0D4E  1283               	bcf	3,5	;RP0=0, select bank0
  8650  0D4F  1303               	bcf	3,6	;RP1=0, select bank0
  8651  0D50  01D1               	clrf	___fldiv@new_exp
  8652  0D51  01D2               	clrf	___fldiv@new_exp+1
  8653  0D52                     l3354:
  8654  0D52  3000               	movlw	0
  8655  0D53  00C6               	movwf	___fldiv@b+3
  8656  0D54  3000               	movlw	0
  8657  0D55  00C5               	movwf	___fldiv@b+2
  8658  0D56  3000               	movlw	0
  8659  0D57  00C4               	movwf	___fldiv@b+1
  8660  0D58  3000               	movlw	0
  8661  0D59  00C3               	movwf	___fldiv@b
  8662  0D5A                     l3356:
  8663  0D5A  01D0               	clrf	___fldiv@sign
  8664  0D5B                     l782:
  8665  0D5B  1283               	bcf	3,5	;RP0=0, select bank0
  8666  0D5C  1303               	bcf	3,6	;RP1=0, select bank0
  8667  0D5D  0851               	movf	___fldiv@new_exp,w
  8668  0D5E  00C7               	movwf	??___fldiv
  8669  0D5F  0847               	movf	??___fldiv,w
  8670  0D60  00D7               	movwf	___fldiv@bexp
  8671  0D61                     l3358:
  8672  0D61  1C57               	btfss	___fldiv@bexp,0
  8673  0D62  2D64               	goto	u4681
  8674  0D63  2D65               	goto	u4680
  8675  0D64                     u4681:
  8676  0D64  2D67               	goto	l3362
  8677  0D65                     u4680:
  8678  0D65                     l3360:
  8679  0D65  17C5               	bsf	___fldiv@b+2,7
  8680  0D66  2D6B               	goto	l784
  8681  0D67                     l3362:
  8682  0D67  307F               	movlw	127
  8683  0D68  00C7               	movwf	??___fldiv
  8684  0D69  0847               	movf	??___fldiv,w
  8685  0D6A  05C5               	andwf	___fldiv@b+2,f
  8686  0D6B                     l784:
  8687  0D6B  0857               	movf	___fldiv@bexp,w
  8688  0D6C  00C7               	movwf	??___fldiv
  8689  0D6D  1003               	clrc
  8690  0D6E  0C47               	rrf	??___fldiv,w
  8691  0D6F  00C8               	movwf	??___fldiv+1
  8692  0D70  0848               	movf	??___fldiv+1,w
  8693  0D71  00C6               	movwf	___fldiv@b+3
  8694  0D72  0850               	movf	___fldiv@sign,w
  8695  0D73  00C7               	movwf	??___fldiv
  8696  0D74  0847               	movf	??___fldiv,w
  8697  0D75  04C6               	iorwf	___fldiv@b+3,f
  8698  0D76  2C0F               	goto	l3270
  8699  0D77                     l762:
  8700  0D77  0008               	return
  8701  0D78                     __end_of___fldiv:
  8702                           
  8703                           	psect	text20
  8704  126B                     __ptext20:	
  8705 ;; *************** function _LCD_String_xy *****************
  8706 ;; Defined at:
  8707 ;;		line 113 in file "LCD.c"
  8708 ;; Parameters:    Size  Location     Type
  8709 ;;  row             1    wreg     unsigned char 
  8710 ;;  pos             1    5[COMMON] unsigned char 
  8711 ;;  msg             1    6[COMMON] PTR const unsigned char 
  8712 ;;		 -> STR_12(17), STR_11(17), STR_10(18), STR_9(15), 
  8713 ;;		 -> STR_8(17), STR_7(21), STR_6(15), STR_5(16), 
  8714 ;;		 -> STR_4(15), STR_2(13), 
  8715 ;; Auto vars:     Size  Location     Type
  8716 ;;  row             1    8[COMMON] unsigned char 
  8717 ;;  location        1    9[COMMON] unsigned char 
  8718 ;; Return value:  Size  Location     Type
  8719 ;;                  1    wreg      void 
  8720 ;; Registers used:
  8721 ;;		wreg, fsr0l, fsr0h, status,2, status,0, btemp+1, pclath, cstack
  8722 ;; Tracked objects:
  8723 ;;		On entry : 0/0
  8724 ;;		On exit  : 0/0
  8725 ;;		Unchanged: 0/0
  8726 ;; Data sizes:     COMMON   BANK0   BANK1   BANK3   BANK2
  8727 ;;      Params:         2       0       0       0       0
  8728 ;;      Locals:         2       0       0       0       0
  8729 ;;      Temps:          1       0       0       0       0
  8730 ;;      Totals:         5       0       0       0       0
  8731 ;;Total ram usage:        5 bytes
  8732 ;; Hardware stack levels used: 1
  8733 ;; Hardware stack levels required when called: 2
  8734 ;; This function calls:
  8735 ;;		_LCD_Command
  8736 ;;		_LCD_String
  8737 ;; This function is called by:
  8738 ;;		_main
  8739 ;; This function uses a non-reentrant model
  8740 ;;
  8741                           
  8742  126B                     _LCD_String_xy:	
  8743                           ;psect for function _LCD_String_xy
  8744                           
  8745                           
  8746                           ;incstack = 0
  8747                           ; Regs used in _LCD_String_xy: [wreg-fsr0h+status,2+status,0+btemp+1+pclath+cstack]
  8748                           ;LCD_String_xy@row stored from wreg
  8749  126B  00F8               	movwf	LCD_String_xy@row
  8750  126C                     l2946:
  8751  126C                     l2948:
  8752                           
  8753                           ;LCD.c: 116:     if(row<=1)
  8754  126C  3002               	movlw	2
  8755  126D  0278               	subwf	LCD_String_xy@row,w
  8756  126E  1803               	skipnc
  8757  126F  2A71               	goto	u3821
  8758  1270  2A72               	goto	u3820
  8759  1271                     u3821:
  8760  1271  2A7F               	goto	l2954
  8761  1272                     u3820:
  8762  1272                     l2950:
  8763                           
  8764                           ;LCD.c: 117:     {;LCD.c: 118:         location=(0x80) | ((pos) & 0x0f);
  8765  1272  0875               	movf	LCD_String_xy@pos,w
  8766  1273  390F               	andlw	15
  8767  1274  3880               	iorlw	128
  8768  1275  00F7               	movwf	??_LCD_String_xy
  8769  1276  0877               	movf	??_LCD_String_xy,w
  8770  1277  00F9               	movwf	LCD_String_xy@location
  8771  1278                     l2952:
  8772                           
  8773                           ;LCD.c: 119:         LCD_Command(location);
  8774  1278  0879               	movf	LCD_String_xy@location,w
  8775  1279  160A  118A  2297  160A  118A  	fcall	_LCD_Command
  8776                           
  8777                           ;LCD.c: 120:     }
  8778  127E  2A8B               	goto	l2958
  8779  127F                     l2954:
  8780                           
  8781                           ;LCD.c: 122:     {;LCD.c: 123:         location=(0xC0) | ((pos) & 0x0f);
  8782  127F  0875               	movf	LCD_String_xy@pos,w
  8783  1280  390F               	andlw	15
  8784  1281  38C0               	iorlw	192
  8785  1282  00F7               	movwf	??_LCD_String_xy
  8786  1283  0877               	movf	??_LCD_String_xy,w
  8787  1284  00F9               	movwf	LCD_String_xy@location
  8788  1285                     l2956:
  8789                           
  8790                           ;LCD.c: 124:         LCD_Command(location);
  8791  1285  0879               	movf	LCD_String_xy@location,w
  8792  1286  160A  118A  2297  160A  118A  	fcall	_LCD_Command
  8793  128B                     l2958:
  8794                           
  8795                           ;LCD.c: 128:     LCD_String(msg);
  8796  128B  0876               	movf	LCD_String_xy@msg,w
  8797  128C  00F3               	movwf	LCD_String@msg
  8798  128D  3000               	movlw	0
  8799  128E  1D03               	btfss	3,2
  8800  128F  3080               	movlw	128
  8801  1290  00F4               	movwf	LCD_String@msg+1
  8802  1291  160A  118A  21F4  160A  118A  	fcall	_LCD_String
  8803  1296                     l293:
  8804  1296  0008               	return
  8805  1297                     __end_of_LCD_String_xy:
  8806                           
  8807                           	psect	text21
  8808  11F4                     __ptext21:	
  8809 ;; *************** function _LCD_String *****************
  8810 ;; Defined at:
  8811 ;;		line 103 in file "LCD.c"
  8812 ;; Parameters:    Size  Location     Type
  8813 ;;  msg             2    3[COMMON] PTR const unsigned char 
  8814 ;;		 -> STR_12(17), STR_11(17), STR_10(18), STR_9(15), 
  8815 ;;		 -> STR_8(17), STR_7(21), STR_6(15), STR_5(16), 
  8816 ;;		 -> STR_4(15), STR_3(3), STR_2(13), main@Temperature(10), 
  8817 ;; Auto vars:     Size  Location     Type
  8818 ;;		None
  8819 ;; Return value:  Size  Location     Type
  8820 ;;                  1    wreg      void 
  8821 ;; Registers used:
  8822 ;;		wreg, fsr0l, fsr0h, status,2, status,0, btemp+1, pclath, cstack
  8823 ;; Tracked objects:
  8824 ;;		On entry : 0/0
  8825 ;;		On exit  : 0/0
  8826 ;;		Unchanged: 0/0
  8827 ;; Data sizes:     COMMON   BANK0   BANK1   BANK3   BANK2
  8828 ;;      Params:         2       0       0       0       0
  8829 ;;      Locals:         0       0       0       0       0
  8830 ;;      Temps:          0       0       0       0       0
  8831 ;;      Totals:         2       0       0       0       0
  8832 ;;Total ram usage:        2 bytes
  8833 ;; Hardware stack levels used: 1
  8834 ;; Hardware stack levels required when called: 1
  8835 ;; This function calls:
  8836 ;;		_LCD_Char
  8837 ;; This function is called by:
  8838 ;;		_main
  8839 ;;		_LCD_String_xy
  8840 ;; This function uses a non-reentrant model
  8841 ;;
  8842                           
  8843  11F4                     _LCD_String:	
  8844                           ;psect for function _LCD_String
  8845                           
  8846  11F4                     l2668:	
  8847                           ;incstack = 0
  8848                           ; Regs used in _LCD_String: [wreg-fsr0h+status,2+status,0+btemp+1+pclath+cstack]
  8849                           
  8850                           
  8851                           ;LCD.c: 103: void LCD_String(const char *msg);LCD.c: 104: {;LCD.c: 105:  while((*msg)!=0
      +                          )
  8852  11F4  2A09               	goto	l2674
  8853  11F5                     l2670:
  8854                           
  8855                           ;LCD.c: 106:  {;LCD.c: 107:    LCD_Char(*msg);
  8856  11F5  0874               	movf	LCD_String@msg+1,w
  8857  11F6  00FF               	movwf	btemp+1
  8858  11F7  0873               	movf	LCD_String@msg,w
  8859  11F8  0084               	movwf	4
  8860  11F9  160A  118A  2000  160A  118A  	fcall	stringtab
  8861  11FE  160A  118A  22CD  160A  118A  	fcall	_LCD_Char
  8862  1203                     l2672:
  8863                           
  8864                           ;LCD.c: 108:    msg++;
  8865  1203  3001               	movlw	1
  8866  1204  07F3               	addwf	LCD_String@msg,f
  8867  1205  1803               	skipnc
  8868  1206  0AF4               	incf	LCD_String@msg+1,f
  8869  1207  3000               	movlw	0
  8870  1208  07F4               	addwf	LCD_String@msg+1,f
  8871  1209                     l2674:
  8872                           
  8873                           ;LCD.c: 105:  while((*msg)!=0)
  8874  1209  0874               	movf	LCD_String@msg+1,w
  8875  120A  1283               	bcf	3,5	;RP0=0, select bank0
  8876  120B  1303               	bcf	3,6	;RP1=0, select bank0
  8877  120C  00FF               	movwf	btemp+1
  8878  120D  0873               	movf	LCD_String@msg,w
  8879  120E  0084               	movwf	4
  8880  120F  160A  118A  2000  160A  118A  	fcall	stringtab
  8881  1214  3A00               	xorlw	0
  8882  1215  1D03               	skipz
  8883  1216  2A18               	goto	u3331
  8884  1217  2A19               	goto	u3330
  8885  1218                     u3331:
  8886  1218  29F5               	goto	l2670
  8887  1219                     u3330:
  8888  1219                     l288:
  8889  1219  0008               	return
  8890  121A                     __end_of_LCD_String:
  8891                           
  8892                           	psect	text22
  8893  12CD                     __ptext22:	
  8894 ;; *************** function _LCD_Char *****************
  8895 ;; Defined at:
  8896 ;;		line 88 in file "LCD.c"
  8897 ;; Parameters:    Size  Location     Type
  8898 ;;  dat             1    wreg     unsigned char 
  8899 ;; Auto vars:     Size  Location     Type
  8900 ;;  dat             1    2[COMMON] unsigned char 
  8901 ;; Return value:  Size  Location     Type
  8902 ;;                  1    wreg      void 
  8903 ;; Registers used:
  8904 ;;		wreg, status,2, status,0
  8905 ;; Tracked objects:
  8906 ;;		On entry : 0/0
  8907 ;;		On exit  : 0/0
  8908 ;;		Unchanged: 0/0
  8909 ;; Data sizes:     COMMON   BANK0   BANK1   BANK3   BANK2
  8910 ;;      Params:         0       0       0       0       0
  8911 ;;      Locals:         1       0       0       0       0
  8912 ;;      Temps:          2       0       0       0       0
  8913 ;;      Totals:         3       0       0       0       0
  8914 ;;Total ram usage:        3 bytes
  8915 ;; Hardware stack levels used: 1
  8916 ;; This function calls:
  8917 ;;		Nothing
  8918 ;; This function is called by:
  8919 ;;		_main
  8920 ;;		_LCD_String
  8921 ;; This function uses a non-reentrant model
  8922 ;;
  8923                           
  8924  12CD                     _LCD_Char:	
  8925                           ;psect for function _LCD_Char
  8926                           
  8927                           
  8928                           ;incstack = 0
  8929                           ; Regs used in _LCD_Char: [wreg+status,2+status,0]
  8930                           ;LCD_Char@dat stored from wreg
  8931  12CD  00F2               	movwf	LCD_Char@dat
  8932  12CE                     l2302:
  8933                           
  8934                           ;LCD.c: 88: void LCD_Char(unsigned char dat);LCD.c: 89: {;LCD.c: 90:  PORTD = (PORTD & 0
      +                          x0f) | (0xF0 & dat);
  8935  12CE  30F0               	movlw	240
  8936  12CF  0572               	andwf	LCD_Char@dat,w
  8937  12D0  00F0               	movwf	??_LCD_Char
  8938  12D1  1283               	bcf	3,5	;RP0=0, select bank0
  8939  12D2  1303               	bcf	3,6	;RP1=0, select bank0
  8940  12D3  0808               	movf	8,w	;volatile
  8941  12D4  390F               	andlw	15
  8942  12D5  0470               	iorwf	??_LCD_Char,w
  8943  12D6  0088               	movwf	8	;volatile
  8944  12D7                     l2304:
  8945                           
  8946                           ;LCD.c: 91:  PORTDbits.RD0 = 1;
  8947  12D7  1408               	bsf	8,0	;volatile
  8948  12D8                     l2306:
  8949                           
  8950                           ;LCD.c: 92:  PORTDbits.RD1 = 1;
  8951  12D8  1488               	bsf	8,1	;volatile
  8952  12D9                     l2308:
  8953                           
  8954                           ;LCD.c: 93:  __nop();
  8955  12D9  0000               	nop
  8956  12DA                     l2310:
  8957                           
  8958                           ;LCD.c: 94:  PORTDbits.RD1 = 0;
  8959  12DA  1283               	bcf	3,5	;RP0=0, select bank0
  8960  12DB  1303               	bcf	3,6	;RP1=0, select bank0
  8961  12DC  1088               	bcf	8,1	;volatile
  8962  12DD                     l2312:
  8963                           
  8964                           ;LCD.c: 95:  _delay((unsigned long)((1)*(8000000/4000.0)));
  8965  12DD  3003               	movlw	3
  8966  12DE  00F1               	movwf	??_LCD_Char+1
  8967  12DF  3097               	movlw	151
  8968  12E0  00F0               	movwf	??_LCD_Char
  8969  12E1                     u5177:
  8970  12E1  0BF0               	decfsz	??_LCD_Char,f
  8971  12E2  2AE1               	goto	u5177
  8972  12E3  0BF1               	decfsz	??_LCD_Char+1,f
  8973  12E4  2AE1               	goto	u5177
  8974  12E5  2AE6               	nop2
  8975  12E6                     l2314:
  8976                           
  8977                           ;LCD.c: 96:     PORTD = (unsigned char)((PORTD & 0x0f) | (dat<<4));
  8978  12E6  0872               	movf	LCD_Char@dat,w
  8979  12E7  00F0               	movwf	??_LCD_Char
  8980  12E8  3004               	movlw	4
  8981  12E9                     u2465:
  8982  12E9  1003               	clrc
  8983  12EA  0DF0               	rlf	??_LCD_Char,f
  8984  12EB  3EFF               	addlw	-1
  8985  12EC  1D03               	skipz
  8986  12ED  2AE9               	goto	u2465
  8987  12EE  1283               	bcf	3,5	;RP0=0, select bank0
  8988  12EF  1303               	bcf	3,6	;RP1=0, select bank0
  8989  12F0  0808               	movf	8,w	;volatile
  8990  12F1  390F               	andlw	15
  8991  12F2  0470               	iorwf	??_LCD_Char,w
  8992  12F3  0088               	movwf	8	;volatile
  8993  12F4                     l2316:
  8994                           
  8995                           ;LCD.c: 97:  PORTDbits.RD1 = 1;
  8996  12F4  1488               	bsf	8,1	;volatile
  8997  12F5                     l2318:
  8998                           
  8999                           ;LCD.c: 98:  __nop();
  9000  12F5  0000               	nop
  9001  12F6                     l2320:
  9002                           
  9003                           ;LCD.c: 99:  PORTDbits.RD1 = 0;
  9004  12F6  1283               	bcf	3,5	;RP0=0, select bank0
  9005  12F7  1303               	bcf	3,6	;RP1=0, select bank0
  9006  12F8  1088               	bcf	8,1	;volatile
  9007                           
  9008                           ;LCD.c: 100:  _delay((unsigned long)((3)*(8000000/4000.0)));
  9009  12F9  3008               	movlw	8
  9010  12FA  00F1               	movwf	??_LCD_Char+1
  9011  12FB  30C9               	movlw	201
  9012  12FC  00F0               	movwf	??_LCD_Char
  9013  12FD                     u5187:
  9014  12FD  0BF0               	decfsz	??_LCD_Char,f
  9015  12FE  2AFD               	goto	u5187
  9016  12FF  0BF1               	decfsz	??_LCD_Char+1,f
  9017  1300  2AFD               	goto	u5187
  9018  1301  2B02               	nop2
  9019  1302                     l282:
  9020  1302  0008               	return
  9021  1303                     __end_of_LCD_Char:
  9022                           
  9023                           	psect	text23
  9024  1241                     __ptext23:	
  9025 ;; *************** function _LCD_Init *****************
  9026 ;; Defined at:
  9027 ;;		line 35 in file "LCD.c"
  9028 ;; Parameters:    Size  Location     Type
  9029 ;;		None
  9030 ;; Auto vars:     Size  Location     Type
  9031 ;;		None
  9032 ;; Return value:  Size  Location     Type
  9033 ;;                  1    wreg      void 
  9034 ;; Registers used:
  9035 ;;		wreg, status,2, status,0, pclath, cstack
  9036 ;; Tracked objects:
  9037 ;;		On entry : 0/0
  9038 ;;		On exit  : 0/0
  9039 ;;		Unchanged: 0/0
  9040 ;; Data sizes:     COMMON   BANK0   BANK1   BANK3   BANK2
  9041 ;;      Params:         0       0       0       0       0
  9042 ;;      Locals:         0       0       0       0       0
  9043 ;;      Temps:          2       0       0       0       0
  9044 ;;      Totals:         2       0       0       0       0
  9045 ;;Total ram usage:        2 bytes
  9046 ;; Hardware stack levels used: 1
  9047 ;; Hardware stack levels required when called: 1
  9048 ;; This function calls:
  9049 ;;		_LCD_Command
  9050 ;; This function is called by:
  9051 ;;		_main
  9052 ;; This function uses a non-reentrant model
  9053 ;;
  9054                           
  9055  1241                     _LCD_Init:	
  9056                           ;psect for function _LCD_Init
  9057                           
  9058  1241                     l2842:	
  9059                           ;incstack = 0
  9060                           ; Regs used in _LCD_Init: [wreg+status,2+status,0+pclath+cstack]
  9061                           
  9062                           
  9063                           ;LCD.c: 37:     TRISD = 0;
  9064  1241  1683               	bsf	3,5	;RP0=1, select bank1
  9065  1242  1303               	bcf	3,6	;RP1=0, select bank1
  9066  1243  0188               	clrf	8	;volatile
  9067  1244                     l2844:
  9068                           
  9069                           ;LCD.c: 38:     _delay((unsigned long)((15)*(8000000/4000.0)));
  9070  1244  3027               	movlw	39
  9071  1245  00F4               	movwf	??_LCD_Init+1
  9072  1246  30F5               	movlw	245
  9073  1247  00F3               	movwf	??_LCD_Init
  9074  1248                     u5197:
  9075  1248  0BF3               	decfsz	??_LCD_Init,f
  9076  1249  2A48               	goto	u5197
  9077  124A  0BF4               	decfsz	??_LCD_Init+1,f
  9078  124B  2A48               	goto	u5197
  9079  124C                     l2846:
  9080                           
  9081                           ;LCD.c: 39:     LCD_Command(0x02);
  9082  124C  3002               	movlw	2
  9083  124D  160A  118A  2297  160A  118A  	fcall	_LCD_Command
  9084  1252                     l2848:
  9085                           
  9086                           ;LCD.c: 40:     LCD_Command(0x28);
  9087  1252  3028               	movlw	40
  9088  1253  160A  118A  2297  160A  118A  	fcall	_LCD_Command
  9089  1258                     l2850:
  9090                           
  9091                           ;LCD.c: 41:     LCD_Command(0x01);
  9092  1258  3001               	movlw	1
  9093  1259  160A  118A  2297  160A  118A  	fcall	_LCD_Command
  9094  125E                     l2852:
  9095                           
  9096                           ;LCD.c: 42:     LCD_Command(0x0c);
  9097  125E  300C               	movlw	12
  9098  125F  160A  118A  2297  160A  118A  	fcall	_LCD_Command
  9099  1264                     l2854:
  9100                           
  9101                           ;LCD.c: 43:     LCD_Command(0x06);
  9102  1264  3006               	movlw	6
  9103  1265  160A  118A  2297  160A  118A  	fcall	_LCD_Command
  9104  126A                     l276:
  9105  126A  0008               	return
  9106  126B                     __end_of_LCD_Init:
  9107                           
  9108                           	psect	text24
  9109  11B1                     __ptext24:	
  9110 ;; *************** function _LCD_Clear *****************
  9111 ;; Defined at:
  9112 ;;		line 144 in file "LCD.c"
  9113 ;; Parameters:    Size  Location     Type
  9114 ;;		None
  9115 ;; Auto vars:     Size  Location     Type
  9116 ;;		None
  9117 ;; Return value:  Size  Location     Type
  9118 ;;                  1    wreg      void 
  9119 ;; Registers used:
  9120 ;;		wreg, status,2, status,0, pclath, cstack
  9121 ;; Tracked objects:
  9122 ;;		On entry : 0/0
  9123 ;;		On exit  : 0/0
  9124 ;;		Unchanged: 0/0
  9125 ;; Data sizes:     COMMON   BANK0   BANK1   BANK3   BANK2
  9126 ;;      Params:         0       0       0       0       0
  9127 ;;      Locals:         0       0       0       0       0
  9128 ;;      Temps:          2       0       0       0       0
  9129 ;;      Totals:         2       0       0       0       0
  9130 ;;Total ram usage:        2 bytes
  9131 ;; Hardware stack levels used: 1
  9132 ;; Hardware stack levels required when called: 1
  9133 ;; This function calls:
  9134 ;;		_LCD_Command
  9135 ;; This function is called by:
  9136 ;;		_main
  9137 ;; This function uses a non-reentrant model
  9138 ;;
  9139                           
  9140  11B1                     _LCD_Clear:	
  9141                           ;psect for function _LCD_Clear
  9142                           
  9143  11B1                     l3060:	
  9144                           ;incstack = 0
  9145                           ; Regs used in _LCD_Clear: [wreg+status,2+status,0+pclath+cstack]
  9146                           
  9147                           
  9148                           ;LCD.c: 146:     LCD_Command(0x01);
  9149  11B1  3001               	movlw	1
  9150  11B2  160A  118A  2297  160A  118A  	fcall	_LCD_Command
  9151  11B7                     l3062:
  9152                           
  9153                           ;LCD.c: 147:     _delay((unsigned long)((3)*(8000000/4000.0)));
  9154  11B7  3008               	movlw	8
  9155  11B8  00F4               	movwf	??_LCD_Clear+1
  9156  11B9  30C9               	movlw	201
  9157  11BA  00F3               	movwf	??_LCD_Clear
  9158  11BB                     u5207:
  9159  11BB  0BF3               	decfsz	??_LCD_Clear,f
  9160  11BC  29BB               	goto	u5207
  9161  11BD  0BF4               	decfsz	??_LCD_Clear+1,f
  9162  11BE  29BB               	goto	u5207
  9163  11BF  29C0               	nop2
  9164  11C0                     l296:
  9165  11C0  0008               	return
  9166  11C1                     __end_of_LCD_Clear:
  9167                           
  9168                           	psect	text25
  9169  1297                     __ptext25:	
  9170 ;; *************** function _LCD_Command *****************
  9171 ;; Defined at:
  9172 ;;		line 59 in file "LCD.c"
  9173 ;; Parameters:    Size  Location     Type
  9174 ;;  cmd             1    wreg     unsigned char 
  9175 ;; Auto vars:     Size  Location     Type
  9176 ;;  cmd             1    2[COMMON] unsigned char 
  9177 ;; Return value:  Size  Location     Type
  9178 ;;                  1    wreg      void 
  9179 ;; Registers used:
  9180 ;;		wreg, status,2, status,0
  9181 ;; Tracked objects:
  9182 ;;		On entry : 0/0
  9183 ;;		On exit  : 0/0
  9184 ;;		Unchanged: 0/0
  9185 ;; Data sizes:     COMMON   BANK0   BANK1   BANK3   BANK2
  9186 ;;      Params:         0       0       0       0       0
  9187 ;;      Locals:         1       0       0       0       0
  9188 ;;      Temps:          2       0       0       0       0
  9189 ;;      Totals:         3       0       0       0       0
  9190 ;;Total ram usage:        3 bytes
  9191 ;; Hardware stack levels used: 1
  9192 ;; This function calls:
  9193 ;;		Nothing
  9194 ;; This function is called by:
  9195 ;;		_main
  9196 ;;		_LCD_Init
  9197 ;;		_LCD_String_xy
  9198 ;;		_LCD_Clear
  9199 ;; This function uses a non-reentrant model
  9200 ;;
  9201                           
  9202  1297                     _LCD_Command:	
  9203                           ;psect for function _LCD_Command
  9204                           
  9205                           
  9206                           ;incstack = 0
  9207                           ; Regs used in _LCD_Command: [wreg+status,2+status,0]
  9208                           ;LCD_Command@cmd stored from wreg
  9209  1297  00F2               	movwf	LCD_Command@cmd
  9210  1298                     l2676:
  9211                           
  9212                           ;LCD.c: 59: void LCD_Command(unsigned char cmd );LCD.c: 60: {;LCD.c: 61:  PORTD = (PORTD
      +                           & 0x0f) |(0xF0 & cmd);
  9213  1298  30F0               	movlw	240
  9214  1299  0572               	andwf	LCD_Command@cmd,w
  9215  129A  00F0               	movwf	??_LCD_Command
  9216  129B  1283               	bcf	3,5	;RP0=0, select bank0
  9217  129C  1303               	bcf	3,6	;RP1=0, select bank0
  9218  129D  0808               	movf	8,w	;volatile
  9219  129E  390F               	andlw	15
  9220  129F  0470               	iorwf	??_LCD_Command,w
  9221  12A0  0088               	movwf	8	;volatile
  9222  12A1                     l2678:
  9223                           
  9224                           ;LCD.c: 62:  PORTDbits.RD0 = 0;
  9225  12A1  1008               	bcf	8,0	;volatile
  9226  12A2                     l2680:
  9227                           
  9228                           ;LCD.c: 63:  PORTDbits.RD1 = 1;
  9229  12A2  1488               	bsf	8,1	;volatile
  9230  12A3                     l2682:
  9231                           
  9232                           ;LCD.c: 64:  __nop();
  9233  12A3  0000               	nop
  9234  12A4                     l2684:
  9235                           
  9236                           ;LCD.c: 65:  PORTDbits.RD1 = 0;
  9237  12A4  1283               	bcf	3,5	;RP0=0, select bank0
  9238  12A5  1303               	bcf	3,6	;RP1=0, select bank0
  9239  12A6  1088               	bcf	8,1	;volatile
  9240  12A7                     l2686:
  9241                           
  9242                           ;LCD.c: 66:  _delay((unsigned long)((1)*(8000000/4000.0)));
  9243  12A7  3003               	movlw	3
  9244  12A8  00F1               	movwf	??_LCD_Command+1
  9245  12A9  3097               	movlw	151
  9246  12AA  00F0               	movwf	??_LCD_Command
  9247  12AB                     u5217:
  9248  12AB  0BF0               	decfsz	??_LCD_Command,f
  9249  12AC  2AAB               	goto	u5217
  9250  12AD  0BF1               	decfsz	??_LCD_Command+1,f
  9251  12AE  2AAB               	goto	u5217
  9252  12AF  2AB0               	nop2
  9253  12B0                     l2688:
  9254                           
  9255                           ;LCD.c: 67:     PORTD = (unsigned char)((PORTD & 0x0f) | (cmd<<4));
  9256  12B0  0872               	movf	LCD_Command@cmd,w
  9257  12B1  00F0               	movwf	??_LCD_Command
  9258  12B2  3004               	movlw	4
  9259  12B3                     u3345:
  9260  12B3  1003               	clrc
  9261  12B4  0DF0               	rlf	??_LCD_Command,f
  9262  12B5  3EFF               	addlw	-1
  9263  12B6  1D03               	skipz
  9264  12B7  2AB3               	goto	u3345
  9265  12B8  1283               	bcf	3,5	;RP0=0, select bank0
  9266  12B9  1303               	bcf	3,6	;RP1=0, select bank0
  9267  12BA  0808               	movf	8,w	;volatile
  9268  12BB  390F               	andlw	15
  9269  12BC  0470               	iorwf	??_LCD_Command,w
  9270  12BD  0088               	movwf	8	;volatile
  9271  12BE                     l2690:
  9272                           
  9273                           ;LCD.c: 68:  PORTDbits.RD1 = 1;
  9274  12BE  1488               	bsf	8,1	;volatile
  9275  12BF                     l2692:
  9276                           
  9277                           ;LCD.c: 69:  __nop();
  9278  12BF  0000               	nop
  9279  12C0                     l2694:
  9280                           
  9281                           ;LCD.c: 70:  PORTDbits.RD1 = 0;
  9282  12C0  1283               	bcf	3,5	;RP0=0, select bank0
  9283  12C1  1303               	bcf	3,6	;RP1=0, select bank0
  9284  12C2  1088               	bcf	8,1	;volatile
  9285                           
  9286                           ;LCD.c: 71:  _delay((unsigned long)((3)*(8000000/4000.0)));
  9287  12C3  3008               	movlw	8
  9288  12C4  00F1               	movwf	??_LCD_Command+1
  9289  12C5  30C9               	movlw	201
  9290  12C6  00F0               	movwf	??_LCD_Command
  9291  12C7                     u5227:
  9292  12C7  0BF0               	decfsz	??_LCD_Command,f
  9293  12C8  2AC7               	goto	u5227
  9294  12C9  0BF1               	decfsz	??_LCD_Command+1,f
  9295  12CA  2AC7               	goto	u5227
  9296  12CB  2ACC               	nop2
  9297  12CC                     l279:
  9298  12CC  0008               	return
  9299  12CD                     __end_of_LCD_Command:
  9300  007E                     btemp	set	126	;btemp
  9301  007E                     wtemp0	set	126
  9302                           
  9303                           	psect	idloc
  9304                           
  9305                           ;Config register IDLOC0 @ 0x2000
  9306                           ;	unspecified, using default values
  9307  2000                     	org	8192
  9308  2000  3FFF               	dw	16383
  9309                           
  9310                           ;Config register IDLOC1 @ 0x2001
  9311                           ;	unspecified, using default values
  9312  2001                     	org	8193
  9313  2001  3FFF               	dw	16383
  9314                           
  9315                           ;Config register IDLOC2 @ 0x2002
  9316                           ;	unspecified, using default values
  9317  2002                     	org	8194
  9318  2002  3FFF               	dw	16383
  9319                           
  9320                           ;Config register IDLOC3 @ 0x2003
  9321                           ;	unspecified, using default values
  9322  2003                     	org	8195
  9323  2003  3FFF               	dw	16383
  9324                           
  9325                           	psect	config
  9326                           
  9327                           ;Config register CONFIG1 @ 0x2007
  9328                           ;	Oscillator Selection bits
  9329                           ;	FOSC = INTRC_CLKOUT, INTOSC oscillator: CLKOUT function on RA6/OSC2/CLKOUT pin, I/O fu
      +                          nction on RA7/OSC1/CLKIN
  9330                           ;	Watchdog Timer Enable bit
  9331                           ;	WDTE = OFF, WDT disabled and can be enabled by SWDTEN bit of the WDTCON register
  9332                           ;	Power-up Timer Enable bit
  9333                           ;	PWRTE = OFF, PWRT disabled
  9334                           ;	RE3/MCLR pin function select bit
  9335                           ;	MCLRE = OFF, RE3/MCLR pin function is digital input, MCLR internally tied to VDD
  9336                           ;	Code Protection bit
  9337                           ;	CP = OFF, Program memory code protection is disabled
  9338                           ;	Data Code Protection bit
  9339                           ;	CPD = OFF, Data memory code protection is disabled
  9340                           ;	Brown Out Reset Selection bits
  9341                           ;	BOREN = OFF, BOR disabled
  9342                           ;	Internal External Switchover bit
  9343                           ;	IESO = OFF, Internal/External Switchover mode is disabled
  9344                           ;	Fail-Safe Clock Monitor Enabled bit
  9345                           ;	FCMEN = OFF, Fail-Safe Clock Monitor is disabled
  9346                           ;	Low Voltage Programming Enable bit
  9347                           ;	LVP = OFF, RB3 pin has digital I/O, HV on MCLR must be used for programming
  9348                           ;	In-Circuit Debugger Mode bit
  9349                           ;	DEBUG = 0x1, unprogrammed default
  9350  2007                     	org	8199
  9351  2007  20D5               	dw	8405
  9352                           
  9353                           ;Config register CONFIG2 @ 0x2008
  9354                           ;	Brown-out Reset Selection bit
  9355                           ;	BOR4V = BOR40V, Brown-out Reset set to 4.0V
  9356                           ;	Flash Program Memory Self Write Enable bits
  9357                           ;	WRT = OFF, Write protection off
  9358  2008                     	org	8200
  9359  2008  3FFF               	dw	16383

Data Sizes:
    Strings     141
    Constant    53
    Data        34
    BSS         23
    Persistent  0
    Stack       0

Auto Spaces:
    Space          Size  Autos    Used
    COMMON           14     14      14
    BANK0            80     79      80
    BANK1            80     66      79
    BANK3            96      0      43
    BANK2            96      0       0

Pointer List with Targets:

    strncmp@s2	PTR const unsigned char  size(1) Largest target is 5
		 -> exitPassword(CODE[2]), inputPassword(CODE[5]), 

    strncmp@s1	PTR const unsigned char  size(2) Largest target is 5
		 -> pass_user2(BANK1[2]), pass_user(BANK3[5]), 

    frexp@eptr	PTR int  size(1) Largest target is 2
		 -> log@exponent(BANK1[2]), 

    eval_poly@d	PTR const  size(1) Largest target is 36
		 -> log@coeff(CODE[36]), 

    sprintf@f	PTR const unsigned char  size(1) Largest target is 6
		 -> STR_1(CODE[6]), 

    sprintf@sp	PTR unsigned char  size(1) Largest target is 10
		 -> main@Temperature(BANK1[10]), 

    sprintf@ap	PTR void [1] size(1) Largest target is 2
		 -> ?_sprintf(BANK1[2]), 

    LCD_String_xy@msg	PTR const unsigned char  size(1) Largest target is 21
		 -> STR_12(CODE[17]), STR_11(CODE[17]), STR_10(CODE[18]), STR_9(CODE[15]), 
		 -> STR_8(CODE[17]), STR_7(CODE[21]), STR_6(CODE[15]), STR_5(CODE[16]), 
		 -> STR_4(CODE[15]), STR_2(CODE[13]), 

    LCD_String@msg	PTR const unsigned char  size(2) Largest target is 21
		 -> STR_12(CODE[17]), STR_11(CODE[17]), STR_10(CODE[18]), STR_9(CODE[15]), 
		 -> STR_8(CODE[17]), STR_7(CODE[21]), STR_6(CODE[15]), STR_5(CODE[16]), 
		 -> STR_4(CODE[15]), STR_3(CODE[3]), STR_2(CODE[13]), main@Temperature(BANK1[10]), 


Critical Paths under _main in COMMON

    _main->___xxtofl
    _sprintf->___lwmod
    ___lwmod->___lwdiv
    _log->___xxtofl
    _log->_frexp
    _frexp->___fleq
    ___flmul->___xxtofl
    ___flmul->_frexp
    ___fladd->___xxtofl
    ___fladd->_frexp
    ___fldiv->___xxtofl
    ___fldiv->_frexp
    _LCD_String_xy->_LCD_String
    _LCD_String->_LCD_Char
    _LCD_Init->_LCD_Command
    _LCD_Clear->_LCD_Command

Critical Paths under _main in BANK0

    _main->___fltol
    _sprintf->___fltol
    _log->___fladd
    _eval_poly->___fladd
    ___flmul->_frexp
    ___flsub->___fladd
    ___fladd->___fldiv
    ___fldiv->___flmul

Critical Paths under _main in BANK1

    _main->_sprintf
    _sprintf->___fltol
    _log->_eval_poly
    ___fltol->___flsub

Critical Paths under _main in BANK3

    None.

Critical Paths under _main in BANK2

    None.

Call Graph Tables:

 ---------------------------------------------------------------------------------
 (Depth) Function   	        Calls       Base Space   Used Autos Params    Refs
 ---------------------------------------------------------------------------------
 (0) _main                                                34    34      0   29500
                                             32 BANK1     34    34      0
                           _LCD_Char
                          _LCD_Clear
                        _LCD_Command
                           _LCD_Init
                         _LCD_String
                      _LCD_String_xy
                            ___fladd
                            ___fldiv
                            ___flsub
                            ___fltol
                           ___xxtofl
                      _keypad_getkey
                     _keypad_getkey2
                        _keypad_init
                                _log
                            _sprintf
                            _strncmp
 ---------------------------------------------------------------------------------
 (2) _strncmp                                              7     2      5     632
                                              0 COMMON     7     2      5
 ---------------------------------------------------------------------------------
 (1) _sprintf                                             23    18      5    1280
                                             17 BANK1     15    10      5
                            ___fltol (ARG)
                            ___lwdiv
                            ___lwmod
 ---------------------------------------------------------------------------------
 (2) ___lwmod                                              6     2      4     311
                                              8 COMMON     6     2      4
                            ___lwdiv (ARG)
 ---------------------------------------------------------------------------------
 (2) ___lwdiv                                              8     4      4     314
                                              0 COMMON     8     4      4
 ---------------------------------------------------------------------------------
 (1) _log                                                  7     3      4   14926
                                             77 BANK0      1     1      0
                                             16 BANK1      6     2      4
                            ___fladd
                            ___fldiv (ARG)
                             ___fleq
                             ___flge
                            ___flmul
                           ___xxtofl
                          _eval_poly
                              _frexp
 ---------------------------------------------------------------------------------
 (2) _frexp                                                7     2      5     896
                                             12 COMMON     2     2      0
                                              0 BANK0      5     0      5
                             ___fleq
 ---------------------------------------------------------------------------------
 (3) ___fleq                                              12     4      8     520
                                              0 COMMON    12     4      8
 ---------------------------------------------------------------------------------
 (2) _eval_poly                                           16     9      7    6301
                                              0 BANK1     16     9      7
                            ___fladd
                            ___fldiv (ARG)
                            ___flmul
 ---------------------------------------------------------------------------------
 (3) ___flmul                                             26    18      8    2847
                                              5 BANK0     26    18      8
                          __Umul8_16
                           ___xxtofl (ARG)
                              _frexp (ARG)
 ---------------------------------------------------------------------------------
 (4) __Umul8_16                                            9     7      2     799
                                              0 COMMON     9     7      2
 ---------------------------------------------------------------------------------
 (2) ___xxtofl                                            14    10      4     550
                                              0 COMMON    14    10      4
 ---------------------------------------------------------------------------------
 (2) ___flge                                              12     4      8     460
                                              0 COMMON    12     4      8
 ---------------------------------------------------------------------------------
 (1) _keypad_init                                          1     1      0       0
                                              0 COMMON     1     1      0
 ---------------------------------------------------------------------------------
 (1) _keypad_getkey2                                      23    23      0     542
                                              0 COMMON     4     4      0
                                              0 BANK0     19    19      0
 ---------------------------------------------------------------------------------
 (1) _keypad_getkey                                       23    23      0     542
                                              0 COMMON     4     4      0
                                              0 BANK0     19    19      0
 ---------------------------------------------------------------------------------
 (1) ___fltol                                             11     7      4     381
                                             77 BANK0      2     2      0
                                              8 BANK1      9     5      4
                            ___flsub (ARG)
 ---------------------------------------------------------------------------------
 (1) ___flsub                                              8     0      8    3245
                                              0 BANK1      8     0      8
                            ___fladd
 ---------------------------------------------------------------------------------
 (3) ___fladd                                             20    12      8    3048
                                             57 BANK0     20    12      8
                            ___fldiv (ARG)
                            ___flmul (ARG)
                           ___xxtofl (ARG)
                              _frexp (ARG)
 ---------------------------------------------------------------------------------
 (1) ___fldiv                                             26    18      8    1577
                                             31 BANK0     26    18      8
                          __Umul8_16 (ARG)
                             ___fleq (ARG)
                             ___flge (ARG)
                            ___flmul (ARG)
                           ___xxtofl (ARG)
                              _frexp (ARG)
 ---------------------------------------------------------------------------------
 (1) _LCD_String_xy                                        5     3      2    2016
                                              5 COMMON     5     3      2
                        _LCD_Command
                         _LCD_String
 ---------------------------------------------------------------------------------
 (2) _LCD_String                                           2     0      2     317
                                              3 COMMON     2     0      2
                           _LCD_Char
 ---------------------------------------------------------------------------------
 (3) _LCD_Char                                             3     3      0      44
                                              0 COMMON     3     3      0
 ---------------------------------------------------------------------------------
 (1) _LCD_Init                                             2     2      0      44
                                              3 COMMON     2     2      0
                        _LCD_Command
 ---------------------------------------------------------------------------------
 (1) _LCD_Clear                                            2     2      0      44
                                              3 COMMON     2     2      0
                        _LCD_Command
 ---------------------------------------------------------------------------------
 (2) _LCD_Command                                          3     3      0      44
                                              0 COMMON     3     3      0
 ---------------------------------------------------------------------------------
 Estimated maximum stack depth 4
 ---------------------------------------------------------------------------------

 Call Graph Graphs:

 _main (ROOT)
   _LCD_Char
   _LCD_Clear
     _LCD_Command
   _LCD_Command
   _LCD_Init
     _LCD_Command
   _LCD_String
     _LCD_Char
   _LCD_String_xy
     _LCD_Command
     _LCD_String
   ___fladd
     ___fldiv (ARG)
       __Umul8_16 (ARG)
       ___fleq (ARG)
       ___flge (ARG)
       ___flmul (ARG)
         __Umul8_16
         ___xxtofl (ARG)
         _frexp (ARG)
           ___fleq
       ___xxtofl (ARG)
       _frexp (ARG)
     ___flmul (ARG)
     ___xxtofl (ARG)
     _frexp (ARG)
   ___fldiv
   ___flsub
     ___fladd
   ___fltol
     ___flsub (ARG)
   ___xxtofl
   _keypad_getkey
   _keypad_getkey2
   _keypad_init
   _log
     ___fladd
     ___fldiv (ARG)
     ___fleq (ARG)
     ___flge (ARG)
     ___flmul (ARG)
     ___xxtofl (ARG)
     _eval_poly (ARG)
       ___fladd
       ___fldiv (ARG)
       ___flmul (ARG)
     _frexp (ARG)
   _sprintf
     ___fltol (ARG)
     ___lwdiv (ARG)
     ___lwmod (ARG)
       ___lwdiv (ARG)
   _strncmp

 Address spaces:
Name               Size   Autos  Total    Cost      Usage
BANK3               60      0      2B       9       44.8%
BITBANK3            60      0       0       8        0.0%
SFR3                 0      0       0       4        0.0%
BITSFR3              0      0       0       4        0.0%
BANK2               60      0       0      11        0.0%
BITBANK2            60      0       0      10        0.0%
SFR2                 0      0       0       5        0.0%
BITSFR2              0      0       0       5        0.0%
BANK1               50     42      4F       7       98.8%
BITBANK1            50      0       0       6        0.0%
SFR1                 0      0       0       2        0.0%
BITSFR1              0      0       0       2        0.0%
BANK0               50     4F      50       5      100.0%
BITBANK0            50      0       0       4        0.0%
SFR0                 0      0       0       1        0.0%
BITSFR0              0      0       0       1        0.0%
COMMON               E      E       E       1      100.0%
BITCOMMON            E      0       0       0        0.0%
CODE                 0      0       0       0        0.0%
DATA                 0      0      D8      12        0.0%
ABS                  0      0      D8       3        0.0%
NULL                 0      0       0       0        0.0%
STACK                0      0       0       2        0.0%
EEDATA             100      0       0       0        0.0%


Microchip Technology PIC Macro Assembler V2.36 build 20220127204148 
Symbol Table                                                                                   Wed Aug 10 19:35:29 2022

           ___fldiv@aexp 0058             ___fldiv@bexp 0057                        pc 0002  
           ___fldiv@sign 0050             ?_LCD_Command 0070                       fsr 0004  
            ?_LCD_String 0073      __Umul8_16@word_mpld 0076                      l110 0424  
                    l104 0408                      l202 17FF                      l106 041C  
                    l108 0423                      l143 11B0                      l119 0692  
                    l261 0947                      l407 0A4A                      l282 1302  
                    l276 126A                      l604 14B0                      l293 1296  
                    l710 0E59                      l279 12CC                      l607 14C7  
                    l296 11C0                      l288 1219                      l704 0DDB  
                    l800 03B6                      l708 0E82                      l812 03AA  
                    l580 1359                      l725 0F4D                      l717 0FFF  
                    l821 1240                      l581 1375                      l750 0055  
                    l806 0322                      l582 138A                      l735 0F93  
                    l760 0BF7                      l729 0F71                      l585 14E4  
                    l762 0D77                      l746 0FF3                      l738 0FD1  
                    l850 15D1                      l747 0FFF                      l819 122E  
                    l683 0845                      l907 13D9                      l588 1550  
                    l844 158C                      l597 14C7                      l589 1569  
                    l693 133C                      l782 0D5B                      l846 1623  
                    l871 0B9A                      l784 0D6B                      l776 0CE9  
                    l857 15ED                      l858 15F9                      l883 16FD  
                    l889 1435                      _idx 00EA                      _key 00EE  
                    _log 0A4B                      fsr0 0004                      indf 0000  
           ___flmul@aexp 0037             ___flmul@bexp 0038             ___flmul@sign 0032  
           ___flmul@temp 003D             ___flmul@prod 0039              LCD_Char@dat 0072  
           ___fltol@exp1 006E                     l3000 1767                     l3010 177D  
                   l3002 176B                     l3020 179B                     l3004 1770  
                   l3012 1781                     l3100 08A4                     l2310 12DA  
                   l2302 12CE                     l3030 17B1                     l3022 179F  
                   l3014 1788                     l3006 1774                     l3110 08BC  
                   l3102 08A8                     l2320 12F6                     l2312 12DD  
                   l2304 12D7                     l2400 0E0D                     l3200 147C  
                   l3040 17CF                     l3024 17A4                     l3016 1790  
                   l3032 17B5                     l3008 1779                     l3120 08D8  
                   l3112 08C1                     l3104 08AF                     l2314 12E6  
                   l2306 12D8                     l2410 0E21                     l2402 0E11  
                   l3050 17E5                     l3042 17D3                     l3034 17BC  
                   l3026 17A8                     l3018 1794                     l3130 08F0  
                   l3122 08DC                     l3114 08C5                     l3106 08B3  
                   l2330 1389                     l2322 133D                     l3060 11B1  
                   l2316 12F4                     l2308 12D9                     l3300 0C77  
                   l2500 0F98                     l2420 0E66                     l2404 0E15  
                   l2412 0E25                     l2340 0D89                     l3220 0006  
                   l3044 17D8                     l3036 17C4                     l3052 17E9  
                   l3028 17AD                     l3140 090C                     l3132 08F5  
                   l3124 08E3                     l3108 08B8                     l3116 08C9  
                   l2324 1351                     l3062 11B7                     l2318 12F5  
                   l3310 0CA2                     l3302 0C89                     l3230 0BA8  
                   l2510 0FD6                     l2502 0F9D                     l2422 0E68  
                   l2430 0E7A                     l2414 0E26                     l2406 0E19  
                   l2350 0D9D                     l2342 0D8A                     l2334 0D78  
                   l3222 000A                     l3214 14A1                     l3206 1484  
                   l3054 17EF                     l3046 17DC                     l3038 17C8  
                   l3150 0924                     l3142 0910                     l3134 08F9  
                   l3126 08E7                     l3118 08D0                     l3070 085F  
                   l2326 136D                     l3320 0CBA                     l3312 0CAA  
                   l3304 0C8A                     l3240 0BBF                     l3232 0BAC  
                   l2520 0FED                     l2512 0FDB                     l2504 0FAB  
                   l2440 0EAB                     l2432 0E86                     l2424 0E6C  
                   l2416 0E3D                     l2408 0E1D                     l2360 0DB3  
                   l2344 0D8F                     l2352 0D9F                     l2336 0D7F  
                   l3216 14B5                     l3208 149A                     l3056 17FC  
                   l3048 17E1                     l3160 0944                     l3152 0929  
                   l3144 0917                     l3128 08EC                     l3136 08FD  
                   l3080 0871                     l3064 0846                     l2600 0216  
                   l2328 1387                     l3330 0CD2                     l3322 0CC3  
                   l3314 0CAC                     l3306 0C98                     l3250 0BD5  
                   l3242 0BC0                     l3234 0BAD                     l3226 0B9B  
                   l2522 0FEF                     l2514 0FE3                     l2506 0FAF  
                   l2450 0EC2                     l2442 0EAF                     l2434 0E8B  
                   l2426 0E6D                     l2418 0E5D                     l2370 0DC8  
                   l2362 0DB9                     l2354 0DA7                     l2346 0D94  
                   l2338 0D85                     l3218 14BA                     l3154 092D  
                   l3146 091B                     l3138 0904                     l3090 0889  
                   l3082 0875                     l3066 085C                     l2290 121D  
                   l2610 02CE                     l2602 0243                     l2530 005D  
                   l3340 0D01                     l3332 0CE6                     l3316 0CB5  
                   l3324 0CC9                     l3308 0C9C                     l3260 0BEC  
                   l3252 0BD9                     l3236 0BB2                     l3244 0BC2  
                   l3228 0BA2                     l2524 0FFA                     l2516 0FE8  
                   l2508 0FCD                     l2460 0F25                     l2452 0EC3  
                   l2444 0EB3                     l2428 0E76                     l2380 0DE5  
                   l2372 0DD0                     l2364 0DBD                     l2356 0DAC  
                   l2348 0D9C                     l3148 0920                     l3156 0931  
                   l3092 088E                     l3084 087C                     l3076 0861  
                   l3068 085C                     l2700 14F8                     l2292 1224  
                   l2620 02F3                     l2612 02D7                     l2604 0253  
                   l2540 0072                     l2532 0063                     l3350 0D3F  
                   l3342 0D05                     l3326 0CCD                     l3318 0CB9  
                   l3270 0C0F                     l3262 0BED                     l3254 0BDA  
                   l3246 0BCA                     l3238 0BB7                     l2526 0FFE  
                   l2518 0FE9                     l2470 0F5A                     l2462 0F2B  
                   l2454 0ECC                     l2446 0EBC                     l2438 0E94  
                   l2390 0DF9                     l2382 0DE9                     l2374 0DD1  
                   l2366 0DBE                     l2358 0DB2                     l3190 1450  
                   l3158 0937                     l3094 0892                     l3086 0880  
                   l3078 0869                     l2710 1566                     l2702 1500  
                   l2294 1228                     l2630 030B                     l2622 02FC  
                   l2614 02E5                     l2606 0280                     l2550 008F  
                   l2542 007A                     l2534 0067                     l3360 0D65  
                   l3352 0D4E                     l3344 0D1E                     l3336 0CEE  
                   l3328 0CCE                     l3280 0C26                     l3256 0BDF  
                   l3264 0BEF                     l3248 0BCF                     l2480 0F75  
                   l2464 0F30                     l2448 0EBE                     l2456 0ED1  
                   l2392 0DFD                     l2384 0DED                     l2368 0DC3  
                   l2376 0DD3                     l3192 1469                     l3184 1436  
                   l3088 0885                     l3096 0896                     l2712 1568  
                   l2704 1504                     l2800 1616                     l2296 1237  
                   l2288 121B                     l2640 033A                     l2632 031F  
                   l2616 02EE                     l2624 0302                     l2608 02A6  
                   l2560 00A6                     l2552 0093                     l2544 007C  
                   l2536 0068                     l2528 0056                     l2720 080A  
                   l3600 03BB                     l3362 0D67                     l3354 0D52  
                   l3338 0CF3                     l3346 0D24                     l3290 0C52  
                   l3282 0C38                     l3266 0BFF                     l3274 0C18  
                   l3258 0BE4                     l2482 0F78                     l2474 0F63  
                   l2458 0EE7                     l2466 0F3F                     l2490 0F85  
                   l2394 0E01                     l2386 0DF1                     l2378 0DE1  
                   l3194 146C                     l3186 1445                     l3098 089C  
                   l2706 1528                     l2802 161A                     l2298 123C  
                   l2650 0375                     l2642 033E                     l2626 0306  
                   l2618 02F2                     l2562 00A8                     l2554 0094  
                   l2546 0084                     l2538 006D                     l2810 13F5  
                   l2730 082D                     l2722 080D                     l3610 03CC  
                   l3602 03BE                     l3356 0D5A                     l3348 0D31  
                   l3292 0C57                     l3284 0C40                     l3276 0C1D  
                   l3268 0C0B                     l2492 0F86                     l2484 0F7A  
                   l2476 0F6C                     l2468 0F55                     l2396 0E05  
                   l2388 0DF5                     l3196 1474                     l2708 152C  
                   l2804 161B                     l2660 03A2                     l2652 0384  
                   l2644 0357                     l2636 0327                     l2628 0307  
                   l2580 0119                     l2572 00C3                     l2564 00B0  
                   l2556 0099                     l2548 0089                     l2820 1430  
                   l2812 13FD                     l2732 0833                     l2724 0814  
                   l2716 0802                     l2900 09A3                     l3700 062E  
                   l3620 03D1                     l3612 03CD                     l3604 03C1  
                   l2670 11F5                     l3358 0D61                     l3294 0C69  
                   l3286 0C48                     l2494 0F8A                     l2486 0F7F  
                   l2478 0F70                     l2398 0E09                     l3198 1478  
                   l2662 03A3                     l2654 038E                     l2638 032C  
                   l2646 035D                     l2590 0196                     l2582 0145  
                   l2574 00D3                     l2566 00B5                     l2558 009E  
                   l2830 1653                     l2822 1434                     l2734 0834  
                   l2726 0818                     l2718 0804                     l2750 1317  
                   l2742 1303                     l2902 09A7                     l3710 0653  
                   l3702 0633                     l3630 03DE                     l3622 03D2  
                   l3614 03CE                     l3606 03C2                     l2680 12A2  
                   l2672 1203                     l3296 0C6D                     l3288 0C50  
                   l2496 0F90                     l2488 0F81                     l2840 11AF  
                   l2664 03AE                     l2656 0390                     l2648 036A  
                   l2592 01B3                     l2584 0161                     l2576 00E0  
                   l2568 00BA                     l2832 16EF                     l2824 1435  
                   l2816 1406                     l2808 13DA                     l2736 083B  
                   l2728 081C                     l2752 131B                     l2744 1309  
                   l2760 1338                     l2920 09DC                     l2904 09AB  
                   l3720 067A                     l3712 0660                     l3704 063E  
                   l3640 03E5                     l3632 03DF                     l3624 03D6  
                   l3616 03CF                     l3608 03C9                     l2690 12BE  
                   l2682 12A3                     l2850 1258                     l2842 1241  
                   l2674 1209                     l3298 0C6E                     l2770 1584  
                   l2658 039E                     l2594 01C3                     l2586 017D  
                   l2578 00FD                     l2834 16F5                     l2818 1423  
                   l2738 0841                     l2754 1325                     l2746 130C  
                   l2930 0A20                     l2922 09E2                     l2914 09B6  
                   l2906 09AF                     l3730 06A7                     l3722 067F  
                   l3714 066A                     l3706 0644                     l3650 03F0  
                   l3642 03E8                     l3634 03E0                     l3626 03DA  
                   l3618 03D0                     l2692 12BF                     l2684 12A4  
                   l2676 1298                     l2852 125E                     l2844 1244  
                   l2668 11F4                     l2780 15AF                     l2772 1594  
                   l2764 156B                     l2596 01E0                     l2588 0186  
                   l2828 1624                     l2756 132B                     l2748 1313  
                   l2932 0A27                     l2924 09E9                     l2908 09B4  
                   l3580 138C                     l3740 06D7                     l3732 06B1  
                   l3724 068C                     l3716 066E                     l3708 064E  
                   l3660 03FF                     l3652 03F1                     l3644 03E9  
                   l3636 03E3                     l3628 03DB                     l2694 12C0  
                   l2686 12A7                     l2678 12A1                     l2854 1264  
                   l2846 124C                     l2950 1272                     l2838 11A5  
                   l2790 15E3                     l2782 15B6                     l2766 1570  
                   l2598 01F9                     l2870 0B0C                     l2862 0A77  
                   l2758 1332                     l2934 0A2B                     l2926 09ED  
                   l2918 09D2                     l3590 13C5                     l3582 1396  
                   l3750 0706                     l3742 06DA                     l3726 069C  
                   l3734 06B5                     l3718 0675                     l3670 0422  
                   l3662 0405                     l3654 03F4                     l3646 03EC  
                   l3638 03E4                     l2688 12B0                     l2848 1252  
                   l2952 1278                     l2960 16FE                     l2696 14C8  
                   l2792 15E7                     l2784 15BA                     l2776 159D  
                   l2768 1574                     l2872 0B12                     l2864 0A92  
                   l2856 0A4B                     l2928 09F2                     l3808 098D  
                   l2880 0950                     l2936 0A34                     l3584 13A9  
                   l3592 13C9                     l3760 072F                     l3752 070B  
                   l3744 06E7                     l3736 06BB                     l3728 06A1  
                   l3680 049D                     l3672 0428                     l3664 040B  
                   l3656 03F5                     l3648 03ED                     l2954 127F  
                   l2946 126C                     l2962 1714                     l2698 14DC  
                   l2794 15F1                     l2786 15C8                     l2778 15A2  
                   l2874 0B35                     l2858 0A66                     l2938 0A46  
                   l2890 096B                     l2882 0956                     l3594 13D7  
                   l3578 138B                     l3770 0758                     l3762 0737  
                   l3754 0718                     l3746 06F6                     l3738 06D2  
                   l3690 05F9                     l3682 04F5                     l3674 0431  
                   l3666 0413                     l3658 03FA                     l2956 1285  
                   l2948 126C                     l2980 1734                     l2972 1719  
                   l2964 1714                     l2796 15FB                     l2788 15D8  
                   l2868 0AA3                     l2892 096F                     l2884 095D  
                   l3588 13BF                     l3780 0794                     l3772 076F  
                   l3764 0742                     l3756 0726                     l3748 06FD  
                   l3692 0606                     l3684 0543                     l3676 0444  
                   l3668 0419                     l2958 128B                     l2990 174A  
                   l2982 1738                     l2974 1721                     l2966 1717  
                   l2798 1611                     l2886 0962                     l2878 094B  
                   l3782 07A1                     l3774 0774                     l3758 072A  
                   l3694 060F                     l3686 0599                     l3678 045D  
                   l3598 03B7                     l2984 173D                     l2976 1729  
                   l2992 174E                     l2888 0964                     l2896 097B  
                   l3784 07AE                     l3776 0781                     l3768 0752  
                   l3696 0618                     l3688 05D8                     l2994 1754  
                   l2986 1741                     l2978 172D                     l2898 099B  
                   l3778 078F                     l3786 07B1                     l3698 0626  
                   l2996 175C                     l2988 1746                     ?_log 00B0  
                   l2998 1760                     STR_1 10C9                     STR_2 10BC  
                   STR_3 10CF                     STR_4 109E                     STR_5 108E  
                   STR_6 10AD                     STR_7 1045                     STR_8 106C  
                   STR_9 10AD                     u3000 0099                     u3001 0098  
                   u3010 009E                     u3011 009D                     u3020 00B5  
                   u3101 01D2                     u3021 00B4                     u3102 01D9  
                   u3030 00BA                     u3103 01E0                     u3031 00B9  
                   u4000 17CE                     u4001 17CD                     u3121 0208  
                   u3041 010B                     u4010 17D7                     u3210 02F2  
                   u3122 020F                     u3042 0112                     u4011 17D6  
                   u3211 02F1                     u3131 0235                     u3123 0216  
                   u3115 01E2                     u3051 0127                     u3043 0119  
                   u2500 0D89                     u4020 17E0                     u4100 0896  
                   u3300 036A                     u3132 023C                     u3052 012E  
                   u2501 0D88                     u4021 17DF                     u4101 0895  
                   u3301 0369                     u3205 02E7                     u3141 0262  
                   u3133 0243                     u3061 0153                     u3053 0135  
                   u2510 0D8F                     u4030 17E9                     u4110 089C  
                   u2430 1228                     u3310 0384                     u3230 0306  
                   u3150 028C                     u3142 0269                     u3062 015A  
                   u2511 0D8E                     u4031 17E8                     u4111 089B  
                   u2431 1227                     u3311 0383                     u3231 0305  
                   u3143 0270                     u3071 016F                     u3063 0161  
                   u2600 0E48                     u2520 0D94                     u4040 17FC  
                   u4200 08FD                     u4120 08AE                     u3320 03A2  
                   u3240 030B                     u3072 0176                     u5000 06D2  
                   u2601 0E46                     u2521 0D93                     u4041 17FB  
                   u4201 08FC                     u4121 08AD                     u3401 153B  
                   u3321 03A1                     u3305 0366                     u3241 030A  
                   u3225 02F5                     u3161 0298                     u3073 017D  
                   u5001 06D1                     u3330 1219                     u2610 0E49  
                   u2530 0DB2                     u4210 0904                     u4130 08B7  
                   u4050 084E                     u3410 1566                     u3402 153C  
                   u2450 123C                     u3250 031F                     u3170 02B4  
                   u3162 029F                     u5010 0706                     u3331 1218  
                   u2531 0DB1                     u4211 0903                     u4131 08B6  
                   u3411 1565                     u3403 1541                     u2451 123B  
                   u3315 0380                     u3251 031E                     u3163 02A6  
                   u3155 0287                     u3091 01A5                     u5011 0705  
                   u2700 0EB3                     u2620 0E5D                     u2540 0DBD  
                   u4300 1445                     u4220 0916                     u4140 08C0  
                   u4060 0869                     u3404 1542                     u3260 0326  
                   u3092 01AC                     u3420 080A                     u5020 0758  
                   u2701 0EB2                     u2621 0E5C                     u2541 0DBC  
                   u4301 1444                     u4045 17F8                     u4221 0915  
                   u4141 08BF                     u4061 0868                     u3405 1547  
                   u2445 122F                     u3261 0325                     u3181 02C0  
                   u3093 01B3                     u3085 017F                     u3421 0809  
                   u5021 0757                     u2710 0EC2                     u2630 0E6C  
                   u2550 0DC3                     u4310 1460                     u4230 091F  
                   u4150 08C9                     u4070 087B                     u3406 1548  
                   u3350 14DC                     u3270 032C                     u3182 02C7  
                   u2470 1351                     u3510 131B                     u5030 076F  
                   u2711 0EC1                     u2631 0E6B                     u2551 0DC2  
                   u4231 091E                     u4151 08C8                     u4071 087A  
                   u3415 1562                     u3351 14DB                     u3271 032B  
                   u3183 02CE                     u3175 02AF                     u2471 1350  
                   u3511 131A                     u5031 076E                     u4400 0BAC  
                   u2800 0F70                     u2560 0DC8                     u4320 147C  
                   u4240 0928                     u4160 08D0                     u4080 0884  
                   u3360 14F8                     u3280 033E                     u2480 136D  
                   u3440 081C                     u3520 1325                     u3345 12B3  
                   u2465 12E9                     u4401 0BAB                     u2801 0F6F  
                   u2561 0DC7                     u4321 147B                     u4241 0927  
                   u4161 08CF                     u4081 0883                     u3361 14F7  
                   u3281 033D                     u2481 136C                     u3441 081B  
                   u3521 1324                     u3505 130D                     u4410 0BB2  
                   u2810 0F75                     u2730 0EE7                     u2650 0E82  
                   u2570 0DE1                     u4330 1483                     u4250 0931  
                   u4170 08E2                     u4090 088D                     u3370 1504  
                   u3610 15D7                     u3290 034D                     u2490 1387  
                   u4411 0BB1                     u2811 0F74                     u2731 0EE6  
                   u2651 0E81                     u2571 0DE0                     u4331 1482  
                   u4315 145B                     u4251 0930                     u4171 08E1  
                   u5107 08A0                     u4091 088C                     u3371 1503  
                   u3611 15D6                     u3195 02D0                     u2491 1386  
                   u3435 080E                     u4420 0BB7                     u2900 0FCD  
                   u2820 0F7F                     u2660 0E86                     u2580 0DE5  
                   u4260 0944                     u4180 08EB                     u3460 082D  
                   u3540 1338                     u4421 0BB6                     u2901 0FCC  
                   u2821 0F7E                     u2741 0EFE                     u2733 0EE3  
                   u2725 0EC5                     u2661 0E85                     u2645 0E6F  
                   u2581 0DE4                     u4261 0943                     u4181 08EA  
                   u5117 08D4                     u3381 1513                     u3605 15C9  
                   u3461 082C                     u3541 1337                     u3525 1321  
                   u4510 0C6D                     u4430 0BD9                     u2910 0FD6  
                   u2830 0F85                     u2750 0F12                     u2742 0EFF  
                   u2670 0E8B                     u2590 0E3D                     u4350 1499  
                   u4190 08F4                     u3390 152C                     u3382 1514  
                   u3630 15E7                     u3550 1570                     u5207 11BB  
                   u4511 0C6C                     u4431 0BD8                     u2911 0FD5  
                   u2831 0F84                     u2751 0F13                     u2743 0F04  
                   u2671 0E8A                     u2591 0E3C                     u4351 1498  
                   u5127 0908                     u4191 08F3                     u3391 152B  
                   u3383 1519                     u3631 15E6                     u3551 156F  
                   u3295 0348                     u2495 1383                     u3455 081D  
                   u3535 132C                     u5047 0620                     u4600 0CD2  
                   u4440 0BDF                     u2920 0FDB                     u2840 0F8A  
                   u2760 0F30                     u2752 0F18                     u2744 0F05  
                   u4360 14A0                     u3384 151A                     u3640 15ED  
                   u3560 1574                     u3720 16F5                     u3480 0841  
                   u3800 0A34                     u5217 12AB                     u4601 0CD1  
                   u4505 0C62                     u4441 0BDE                     u2921 0FDA  
                   u2841 0F89                     u2761 0F2F                     u2753 0F19  
                   u2745 0F0A                     u2681 0E9D                     u4361 149F  
                   u4345 1485                     u5137 1725                     u4265 0940  
                   u3385 151F                     u3641 15EC                     u3625 15DC  
                   u3561 1573                     u3721 16F4                     u3705 1629  
                   u3481 0840                     u3465 0829                     u3801 0A33  
                   u5057 06EF                     u4610 0CE6                     u4530 0C89  
                   u4450 0BE4                     u2930 0FE8                     u2850 0F90  
                   u2770 0F55                     u2746 0F0B                     u2690 0EAF  
                   u2682 0EA4                     u3386 1520                     u3650 15F1  
                   u3570 1594                     u3730 0A66                     u3490 1309  
                   u3810 0A46                     u5227 12C7                     u4611 0CE5  
                   u4531 0C88                     u4451 0BE3                     u2931 0FE7  
                   u2851 0F8F                     u2771 0F54                     u2691 0EAE  
                   u2683 0EAB                     u2595 0E39                     u5147 1758  
                   u3651 15F0                     u3571 1593                     u3715 165C  
                   u3731 0A65                     u3475 0835                     u3491 1308  
                   u3811 0A45                     u5067 0720                     u3820 1272  
                   u4620 0CED                     u4540 0CA2                     u4460 0BFF  
                   u2940 0FED                     u2860 0F97                     u2780 0F5A  
                   u4380 14B5                     u3900 1766                     u3660 1606  
                   u3740 0A92                     u3821 1271                     u4621 0CEC  
                   u4541 0CA1                     u4525 0C70                     u4461 0BFE  
                   u2941 0FEC                     u2861 0F96                     u2781 0F59  
                   u4381 14B4                     u5157 178C                     u3901 1765  
                   u3741 0A91                     u5077 074A                     u4630 0CF3  
                   u4550 0CAA                     u4470 0C1D                     u2950 0FFE  
                   u2870 0F9D                     u4390 14BA                     u3910 176F  
                   u3830 1706                     u3670 1616                     u3590 15B5  
                   u3750 0956                     u4631 0CF2                     u4551 0CA9  
                   u4535 0C85                     u4471 0C1C                     u2951 0FFD  
                   u2871 0F9C                     u4391 14B9                     u4375 14A5  
                   u5167 17C0                     u3911 176E                     u3671 1615  
                   u3591 15B4                     u3751 0955                     u5087 07B9  
                   u4640 0D05                     u4480 0C57                     u2880 0FAF  
                   u3920 1778                     u3840 1721                     u3680 161A  
                   u2960 0067                     u3760 09AB                     u5177 12E1  
                   u4641 0D04                     u4481 0C56                     u2881 0FAE  
                   u3921 1777                     u3841 1720                     u5097 086D  
                   u3681 1619                     u3665 1601                     u3585 15A7  
                   u2961 0066                     u3761 09AA                     u4650 0D14  
                   u4570 0CB9                     u2890 0FBE                     u3930 1781  
                   u3850 1733                     u2970 006D                     u3690 13F5  
                   u3770 09D1                     u5187 12FD                     u4571 0CB8  
                   u2795 0F65                     u3931 1780                     u3851 1732  
                   u2971 006C                     u3691 13F4                     u3771 09D0  
                   u4660 0D31                     u3940 1788                     u3860 173C  
                   u2980 0072                     u3780 09DC                     u4900 0419  
                   u5197 1248                     u4661 0D30                     u4565 0CAE  
                   u3941 1787                     u3861 173B                     u2981 0071  
                   u3781 09DB                     u4901 0418                     u4670 0D4E  
                   u4590 0CCD                     u3950 179A                     u3870 1745  
                   u2990 0093                     u3790 09E2                     u4910 0422  
                   u4671 0D4D                     u4655 0D0F                     u4591 0CCC  
                   u4495 0C59                     u2895 0FB9                     u3951 1799  
                   u3871 1744                     u2991 0092                     u3791 09E1  
                   u3775 09CD                     u4911 0421                     u4680 0D65  
                   u3960 17A3                     u3880 174E                     u4920 0428  
                   u4681 0D64                     u4665 0D2D                     u4585 0CBC  
                   u3961 17A2                     u3881 174D                     u4921 0427  
                   u3970 17AC                     u3890 1754                     u4850 1396  
                   u4930 062E                     u4675 0D4A                     u3971 17AB  
                   u3891 1753                     u4851 1395                     u4931 062D  
                   u3980 17B5                     u4860 13A9                     u4940 0633  
                   u3981 17B4                     u4861 13A8                     u4941 0632  
                   u3990 17BC                     u4870 13D7                     u4950 0653  
                   u3991 17BB                     u4871 13D6                     u4951 0652  
                   u4960 0674                     u4880 0405                     u4961 0673  
                   u4881 0404                     u4970 067A                     u4890 0413  
                   u4971 0679                     u4891 0412                     u4980 06A1  
                   u4981 06A0                     u4990 06BB                     u4991 06BA  
                   _lm35 00E8                     _idx2 00E9                     _flag 00E2  
                   _key2 00ED                     _main 03B7                     _temp 01B0  
                   btemp 007E                     log@x 00B0                     start 0000  
        ___fldiv@new_exp 0051            _LCD_String_xy 126B                    ??_log 006D  
       __end_of_LCD_Char 1303         __end_of_LCD_Init 126B            ___fltol@sign1 006D  
        __end_of___fladd 1000                    ?_main 0070          __end_of___fldiv 0D78  
                  STR_10 105A                    STR_11 106C                    STR_12 107D  
        __end_of___flmul 03B7          __end_of___flsub 0056          __end_of___fltol 14C8  
                  _ANSEL 0188          __end_of___lwdiv 0846          __end_of___lwmod 133D  
                  _PORTA 0005                    _PORTB 0006                    _PORTD 0008  
                  _TRISA 0085                    _TRISB 0086                    _TRISC 0087  
                  _TRISD 0088         ??_keypad_getkey2 0070          __end_of_dpowers 101A  
           ?_keypad_init 0070                    _frexp 13DA                    _errno 01B4  
    keypad_getkey2@F1320 0190                    main@a 00CE                    pclath 000A  
                  status 0003                    wtemp0 007E          __end_of_sprintf 0A4B  
        __end_of_strncmp 13DA           ?_LCD_String_xy 0075          __initialization 07C3  
    keypad_getkey2@valor 0030              log@exponent 00B4             __end_of_main 07C3  
                 ??_main 00C0        __end_of_LCD_Clear 11C1      keypad_getkey@letras 0020  
                 ?_frexp 0020                   _ADRESH 001E                   _ADRESL 009E  
                 _ANSELH 0189         LCD_String_xy@msg 0076         LCD_String_xy@pos 0075  
       LCD_String_xy@row 0078                   _OSCCON 008F                   _TRISA0 0428  
                 _TRISA1 0429                   _TRISA2 042A                   _TRISA3 042B  
                 _TRISC0 0438                   _TRISC1 0439                   _TRISC2 043A  
                 _TRISC3 043B                   _TRISC4 043C                   _TRISC5 043D  
                 _TRISC6 043E         __end_of___xxtofl 1624                   ___flge 14C8  
                 ___fleq 133D                ??___fladd 0061                ??___fldiv 0047  
              ??___flmul 002D                ??___flsub 007E                ??___fltol 00AC  
              ??___lwdiv 0074                ??___lwmod 007C                ??_sprintf 00B6  
              ??_strncmp 0075               ___flge@ff1 0070               ___flge@ff2 0074  
           ___xxtofl@arg 007A             ___xxtofl@exp 0079             ___xxtofl@val 0070  
             ___fleq@ff1 0070               ___fleq@ff2 0074         __end_oflog@coeff 103E  
              ?_LCD_Char 0070  __end_of__initialization 07FC                ?_LCD_Init 0070  
        ??_LCD_String_xy 0077             eval_poly@res 00AC               ___fltol@f1 00A8  
   keypad_getkey2@letras 0020           __pcstackCOMMON 0070             __pidataBANK1 0004  
           __pidataBANK3 11D4            __end_of_frexp 1436             ??_LCD_String 0075  
         _OPTION_REGbits 0081                  ??_frexp 007C               __pbssBANK0 006F  
             __pbssBANK1 00E2               __pbssBANK3 01B0               ??_LCD_Char 0070  
             ??_LCD_Init 0073       __end_of_LCD_String 121A        __end_of__Umul8_16 1241  
             __pmaintext 03B7           _counter_digito 006F                  ?___flge 0070  
                ?___fleq 0070          main@Temperature 00C4            _keypad_getkey 16FE  
              ?___xxtofl 0070               __stringtab 1000            LCD_String@msg 0073  
                ___fladd 0D78                  ___fldiv 0B9B                  ___flmul 0056  
                ___flsub 0006                  ___fltol 1436                  ___lwdiv 0802  
                ___lwmod 1303        __end_of_eval_poly 16FE                  __ptext1 138B  
                __ptext2 0948                  __ptext3 1303                  __ptext4 0802  
                __ptext5 0A4B                  __ptext6 13DA                  __ptext7 133D  
                __ptext8 1624                  __ptext9 0056     __end_of_exitPassword 1045  
         ?_keypad_getkey 0070                  _dpowers 1010               ??___xxtofl 0074  
              _LCD_Clear 11B1                  _sprintf 0948               _pass_user2 00EB  
                _strncmp 138B     end_of_initialization 07FC           LCD_Command@cmd 0072  
          _inputPassword 103E                _PORTCbits 0007                _PORTDbits 0008  
            ___fladd@grs 006C            ___xxtofl@sign 0078               ?_LCD_Clear 0070  
            ___fldiv@grs 0053              ___fldiv@rem 004C              ___flmul@grs 0033  
          ??_LCD_Command 0070           __end_of___flge 156A           __end_of___fleq 138B  
        ??_keypad_getkey 0070       keypad_getkey@F1297 01A0      start_initialization 07C3  
             eval_poly@d 00A4               eval_poly@n 00A5               eval_poly@x 00A0  
            __end_of_log 0B9B               frexp@value 0020       keypad_getkey@valor 0030  
  __end_of_LCD_String_xy 1297                 ??___flge 0078                 ??___fleq 0078  
             init_fetch0 11C1                __Umul8_16 121A              __pdataBANK1 00ED  
            __pdataBANK3 0190                ___fladd@a 005D                ___fladd@b 0059  
              ___fldiv@a 003F                ___fldiv@b 0043      __end_of_LCD_Command 12CD  
              ___flmul@a 0029                ___flmul@b 0025                ___flsub@a 00A0  
              ___flsub@b 00A4                ___latbits 0002            __pcstackBANK0 0020  
          __pcstackBANK1 00A0              ??_LCD_Clear 0073            ??_keypad_init 0070  
            sprintf@flag 00B9              sprintf@prec 00BA             _exitPassword 1043  
              _main$1032 00D6                _main$1033 00DA                _main$1034 00DE  
       ___lwdiv@dividend 0072                 ?___fladd 0059                 ?___fldiv 003F  
               ?___flmul 0025                 ?___flsub 00A0                 ?___fltol 00A8  
             ?__Umul8_16 0070                 ?___lwdiv 0070                 ?___lwmod 0078  
              __pstrings 1000                _eval_poly 1624         ___lwdiv@quotient 0075  
  LCD_String_xy@location 0079                 ?_sprintf 00B1                 ?_strncmp 0070  
         _keypad_getkey2 0846                 _LCD_Char 12CD                 _LCD_Init 1241  
              _pass_user 01B6      __end_of_keypad_init 11B1                _value_adc 00E4  
            _LCD_Command 1297               _ADCON0bits 001F              __stringbase 100F  
             _ADCON1bits 009F               ?_eval_poly 00A0                main@tempC 00D2  
 __end_of_keypad_getkey2 0948                frexp@eptr 0024              _counter_try 00E6  
            ??__Umul8_16 0072       __end_of__stringtab 1010               sprintf@val 00BC  
               ___xxtofl 156A          ___lwdiv@divisor 0070          ___lwdiv@counter 0077  
               __ptext10 121A                 __ptext11 156A                 __ptext20 126B  
               __ptext12 14C8                 __ptext21 11F4                 __ptext13 11A5  
               __ptext22 12CD                 __ptext14 0846                 __ptext23 1241  
               __ptext15 16FE                 __ptext24 11B1                 __ptext16 1436  
               __ptext25 1297                 __ptext17 0006                 __ptext18 0D78  
               __ptext19 0B9B              _keypad_init 11A5          ?_keypad_getkey2 0070  
             strncmp@len 0073               _LCD_String 11F4    __end_of_keypad_getkey 1800  
               log@coeff 101A              ??_eval_poly 00A7                 init_ram0 11C5  
              sprintf@ap 00BB                sprintf@sp 00BE         ___lwmod@dividend 007A  
              strncmp@s1 0070                strncmp@s2 0072                stringcode 100A  
        keypad_getkey2@i 0031   __Umul8_16@multiplicand 0070                 sprintf@c 00BF  
               sprintf@f 00B1          ___lwmod@divisor 0078          ___lwmod@counter 007D  
               stringdir 100A                 stringtab 1000           keypad_getkey@i 0031  
          ___fladd@signs 0069             ___fladd@aexp 006A             ___fladd@bexp 006B  
   __Umul8_16@multiplier 0078    __end_of_inputPassword 1043        __Umul8_16@product 0074  
