

Microchip MPLAB XC8 Assembler V2.36 build 20220127204148 
                                                                                               Mon Aug 08 12:47:38 2022

Microchip MPLAB XC8 C Compiler v2.36 (Free license) build 20220127204148 Og1 
     1                           	processor	16F887
     2                           	pagewidth 120
     3                           	opt	flic
     4                           	psect	idataBANK1,global,class=CODE,delta=2,noexec
     5                           	psect	idataBANK3,global,class=CODE,delta=2,noexec
     6                           	psect	strings,global,class=STRING,delta=2,noexec
     7                           	psect	cinit,global,class=CODE,merge=1,delta=2
     8                           	psect	bssBANK0,global,class=BANK0,space=1,delta=1,noexec
     9                           	psect	bssBANK1,global,class=BANK1,space=1,delta=1,noexec
    10                           	psect	dataBANK1,global,class=BANK1,space=1,delta=1,noexec
    11                           	psect	dataBANK3,global,class=BANK3,space=1,delta=1,noexec
    12                           	psect	inittext,global,class=CODE,delta=2
    13                           	psect	clrtext,global,class=CODE,delta=2
    14                           	psect	cstackBANK1,global,class=BANK1,space=1,delta=1,noexec
    15                           	psect	cstackCOMMON,global,class=COMMON,space=1,delta=1,noexec
    16                           	psect	cstackBANK0,global,class=BANK0,space=1,delta=1,noexec
    17                           	psect	maintext,global,class=CODE,split=1,delta=2
    18                           	psect	text1,local,class=CODE,merge=1,delta=2,group=3
    19                           	psect	text2,local,class=CODE,merge=1,delta=2,group=1
    20                           	psect	text3,local,class=CODE,merge=1,delta=2,group=2
    21                           	psect	text4,local,class=CODE,merge=1,delta=2,group=2
    22                           	psect	text5,local,class=CODE,merge=1,delta=2
    23                           	psect	text6,local,class=CODE,merge=1,delta=2
    24                           	psect	text7,local,class=CODE,merge=1,delta=2
    25                           	psect	text8,local,class=CODE,merge=1,delta=2,group=3
    26                           	psect	text9,local,class=CODE,merge=1,delta=2,group=3
    27                           	psect	text10,local,class=CODE,merge=1,delta=2,group=2
    28                           	psect	text11,local,class=CODE,merge=1,delta=2,group=3
    29                           	psect	text12,local,class=CODE,merge=1,delta=2,group=2
    30                           	psect	text13,local,class=CODE,merge=1,delta=2,group=2
    31                           	psect	text14,local,class=CODE,merge=1,delta=2,group=2
    32                           	psect	text15,local,class=CODE,merge=1,delta=2,group=2
    33                           	psect	text16,local,class=CODE,merge=1,delta=2,group=2
    34                           	psect	text17,local,class=CODE,merge=1,delta=2
    35                           	psect	text18,local,class=CODE,merge=1,delta=2
    36                           	psect	text19,local,class=CODE,merge=1,delta=2
    37                           	psect	text20,local,class=CODE,merge=1,delta=2,group=2
    38                           	psect	text21,local,class=CODE,merge=1,delta=2,group=2
    39                           	psect	text22,local,class=CODE,merge=1,delta=2
    40                           	psect	text23,local,class=CODE,merge=1,delta=2
    41                           	psect	text24,local,class=CODE,merge=1,delta=2
    42                           	psect	text25,local,class=CODE,merge=1,delta=2
    43                           	psect	text26,local,class=CODE,merge=1,delta=2
    44                           	psect	text27,local,class=CODE,merge=1,delta=2
    45                           	psect	text28,local,class=CODE,merge=1,delta=2
    46                           	psect	text29,local,class=CODE,merge=1,delta=2
    47                           	psect	text30,local,class=CODE,merge=1,delta=2
    48                           	psect	text31,local,class=CODE,merge=1,delta=2
    49                           	psect	idloc,global,abs,ovrld,class=IDLOC,space=5,delta=2,noexec
    50                           	psect	config,global,abs,ovrld,class=CONFIG,space=4,delta=2,noexec
    51                           	dabs	1,0x7E,2
    52  0000                     
    53                           ; Version 2.40
    54                           ; Generated 17/11/2021 GMT
    55                           ; 
    56                           ; Copyright © 2021, Microchip Technology Inc. and its subsidiaries ("Microchip")
    57                           ; All rights reserved.
    58                           ; 
    59                           ; This software is developed by Microchip Technology Inc. and its subsidiaries ("Microch
      +                          ip").
    60                           ; 
    61                           ; Redistribution and use in source and binary forms, with or without modification, are
    62                           ; permitted provided that the following conditions are met:
    63                           ; 
    64                           ;     1. Redistributions of source code must retain the above copyright notice, this lis
      +                          t of
    65                           ;        conditions and the following disclaimer.
    66                           ; 
    67                           ;     2. Redistributions in binary form must reproduce the above copyright notice, this 
      +                          list
    68                           ;        of conditions and the following disclaimer in the documentation and/or other
    69                           ;        materials provided with the distribution. Publication is not required when
    70                           ;        this file is used in an embedded application.
    71                           ; 
    72                           ;     3. Microchip's name may not be used to endorse or promote products derived from th
      +                          is
    73                           ;        software without specific prior written permission.
    74                           ; 
    75                           ; THIS SOFTWARE IS PROVIDED BY MICROCHIP "AS IS" AND ANY EXPRESS OR IMPLIED WARRANTIES,
    76                           ; INCLUDING, BUT NOT LIMITED TO, THE IMPLIED WARRANTIES OF MERCHANTABILITY AND FITNESS F
      +                          OR
    77                           ; PURPOSE ARE DISCLAIMED.  IN NO EVENT SHALL MICROCHIP BE LIABLE FOR ANY DIRECT, INDIREC
      +                          T,
    78                           ; INCIDENTAL, SPECIAL, EXEMPLARY, OR CONSEQUENTIAL DAMAGES (INCLUDING BUT NOT LIMITED TO
    79                           ; PROCUREMENT OF SUBSTITUTE GOODS OR SERVICES; LOSS OF USE, DATA OR PROFITS; OR BUSINESS
    80                           ; INTERRUPTION) HOWSOEVER CAUSED AND ON ANY THEORY OF LIABILITY, WHETHER IN CONTRACT, ST
      +                          RICT
    81                           ; LIABILITY, OR TORT (INCLUDING NEGLIGENCE OR OTHERWISE) ARISING IN ANY WAY OUT OF THE U
      +                          SE OF
    82                           ; THIS SOFTWARE, EVEN IF ADVISED OF THE POSSIBILITY OF SUCH DAMAGE.
    83                           ; 
    84                           ; 
    85                           ; Code-generator required, PIC16F887 Definitions
    86                           ; 
    87                           ; SFR Addresses
    88  0000                     	;# 
    89  0001                     	;# 
    90  0002                     	;# 
    91  0003                     	;# 
    92  0004                     	;# 
    93  0005                     	;# 
    94  0006                     	;# 
    95  0007                     	;# 
    96  0008                     	;# 
    97  0009                     	;# 
    98  000A                     	;# 
    99  000B                     	;# 
   100  000C                     	;# 
   101  000D                     	;# 
   102  000E                     	;# 
   103  000E                     	;# 
   104  000F                     	;# 
   105  0010                     	;# 
   106  0011                     	;# 
   107  0012                     	;# 
   108  0013                     	;# 
   109  0014                     	;# 
   110  0015                     	;# 
   111  0015                     	;# 
   112  0016                     	;# 
   113  0017                     	;# 
   114  0018                     	;# 
   115  0019                     	;# 
   116  001A                     	;# 
   117  001B                     	;# 
   118  001B                     	;# 
   119  001C                     	;# 
   120  001D                     	;# 
   121  001E                     	;# 
   122  001F                     	;# 
   123  0081                     	;# 
   124  0085                     	;# 
   125  0086                     	;# 
   126  0087                     	;# 
   127  0088                     	;# 
   128  0089                     	;# 
   129  008C                     	;# 
   130  008D                     	;# 
   131  008E                     	;# 
   132  008F                     	;# 
   133  0090                     	;# 
   134  0091                     	;# 
   135  0092                     	;# 
   136  0093                     	;# 
   137  0093                     	;# 
   138  0093                     	;# 
   139  0094                     	;# 
   140  0095                     	;# 
   141  0096                     	;# 
   142  0097                     	;# 
   143  0098                     	;# 
   144  0099                     	;# 
   145  009A                     	;# 
   146  009B                     	;# 
   147  009C                     	;# 
   148  009D                     	;# 
   149  009E                     	;# 
   150  009F                     	;# 
   151  0105                     	;# 
   152  0107                     	;# 
   153  0108                     	;# 
   154  0109                     	;# 
   155  010C                     	;# 
   156  010C                     	;# 
   157  010D                     	;# 
   158  010E                     	;# 
   159  010F                     	;# 
   160  0185                     	;# 
   161  0187                     	;# 
   162  0188                     	;# 
   163  0189                     	;# 
   164  018C                     	;# 
   165  018D                     	;# 
   166  0000                     	;# 
   167  0001                     	;# 
   168  0002                     	;# 
   169  0003                     	;# 
   170  0004                     	;# 
   171  0005                     	;# 
   172  0006                     	;# 
   173  0007                     	;# 
   174  0008                     	;# 
   175  0009                     	;# 
   176  000A                     	;# 
   177  000B                     	;# 
   178  000C                     	;# 
   179  000D                     	;# 
   180  000E                     	;# 
   181  000E                     	;# 
   182  000F                     	;# 
   183  0010                     	;# 
   184  0011                     	;# 
   185  0012                     	;# 
   186  0013                     	;# 
   187  0014                     	;# 
   188  0015                     	;# 
   189  0015                     	;# 
   190  0016                     	;# 
   191  0017                     	;# 
   192  0018                     	;# 
   193  0019                     	;# 
   194  001A                     	;# 
   195  001B                     	;# 
   196  001B                     	;# 
   197  001C                     	;# 
   198  001D                     	;# 
   199  001E                     	;# 
   200  001F                     	;# 
   201  0081                     	;# 
   202  0085                     	;# 
   203  0086                     	;# 
   204  0087                     	;# 
   205  0088                     	;# 
   206  0089                     	;# 
   207  008C                     	;# 
   208  008D                     	;# 
   209  008E                     	;# 
   210  008F                     	;# 
   211  0090                     	;# 
   212  0091                     	;# 
   213  0092                     	;# 
   214  0093                     	;# 
   215  0093                     	;# 
   216  0093                     	;# 
   217  0094                     	;# 
   218  0095                     	;# 
   219  0096                     	;# 
   220  0097                     	;# 
   221  0098                     	;# 
   222  0099                     	;# 
   223  009A                     	;# 
   224  009B                     	;# 
   225  009C                     	;# 
   226  009D                     	;# 
   227  009E                     	;# 
   228  009F                     	;# 
   229  0105                     	;# 
   230  0107                     	;# 
   231  0108                     	;# 
   232  0109                     	;# 
   233  010C                     	;# 
   234  010C                     	;# 
   235  010D                     	;# 
   236  010E                     	;# 
   237  010F                     	;# 
   238  0185                     	;# 
   239  0187                     	;# 
   240  0188                     	;# 
   241  0189                     	;# 
   242  018C                     	;# 
   243  018D                     	;# 
   244  0000                     	;# 
   245  0001                     	;# 
   246  0002                     	;# 
   247  0003                     	;# 
   248  0004                     	;# 
   249  0005                     	;# 
   250  0006                     	;# 
   251  0007                     	;# 
   252  0008                     	;# 
   253  0009                     	;# 
   254  000A                     	;# 
   255  000B                     	;# 
   256  000C                     	;# 
   257  000D                     	;# 
   258  000E                     	;# 
   259  000E                     	;# 
   260  000F                     	;# 
   261  0010                     	;# 
   262  0011                     	;# 
   263  0012                     	;# 
   264  0013                     	;# 
   265  0014                     	;# 
   266  0015                     	;# 
   267  0015                     	;# 
   268  0016                     	;# 
   269  0017                     	;# 
   270  0018                     	;# 
   271  0019                     	;# 
   272  001A                     	;# 
   273  001B                     	;# 
   274  001B                     	;# 
   275  001C                     	;# 
   276  001D                     	;# 
   277  001E                     	;# 
   278  001F                     	;# 
   279  0081                     	;# 
   280  0085                     	;# 
   281  0086                     	;# 
   282  0087                     	;# 
   283  0088                     	;# 
   284  0089                     	;# 
   285  008C                     	;# 
   286  008D                     	;# 
   287  008E                     	;# 
   288  008F                     	;# 
   289  0090                     	;# 
   290  0091                     	;# 
   291  0092                     	;# 
   292  0093                     	;# 
   293  0093                     	;# 
   294  0093                     	;# 
   295  0094                     	;# 
   296  0095                     	;# 
   297  0096                     	;# 
   298  0097                     	;# 
   299  0098                     	;# 
   300  0099                     	;# 
   301  009A                     	;# 
   302  009B                     	;# 
   303  009C                     	;# 
   304  009D                     	;# 
   305  009E                     	;# 
   306  009F                     	;# 
   307  0105                     	;# 
   308  0107                     	;# 
   309  0108                     	;# 
   310  0109                     	;# 
   311  010C                     	;# 
   312  010C                     	;# 
   313  010D                     	;# 
   314  010E                     	;# 
   315  010F                     	;# 
   316  0185                     	;# 
   317  0187                     	;# 
   318  0188                     	;# 
   319  0189                     	;# 
   320  018C                     	;# 
   321  018D                     	;# 
   322  0000                     	;# 
   323  0001                     	;# 
   324  0002                     	;# 
   325  0003                     	;# 
   326  0004                     	;# 
   327  0005                     	;# 
   328  0006                     	;# 
   329  0007                     	;# 
   330  0008                     	;# 
   331  0009                     	;# 
   332  000A                     	;# 
   333  000B                     	;# 
   334  000C                     	;# 
   335  000D                     	;# 
   336  000E                     	;# 
   337  000E                     	;# 
   338  000F                     	;# 
   339  0010                     	;# 
   340  0011                     	;# 
   341  0012                     	;# 
   342  0013                     	;# 
   343  0014                     	;# 
   344  0015                     	;# 
   345  0015                     	;# 
   346  0016                     	;# 
   347  0017                     	;# 
   348  0018                     	;# 
   349  0019                     	;# 
   350  001A                     	;# 
   351  001B                     	;# 
   352  001B                     	;# 
   353  001C                     	;# 
   354  001D                     	;# 
   355  001E                     	;# 
   356  001F                     	;# 
   357  0081                     	;# 
   358  0085                     	;# 
   359  0086                     	;# 
   360  0087                     	;# 
   361  0088                     	;# 
   362  0089                     	;# 
   363  008C                     	;# 
   364  008D                     	;# 
   365  008E                     	;# 
   366  008F                     	;# 
   367  0090                     	;# 
   368  0091                     	;# 
   369  0092                     	;# 
   370  0093                     	;# 
   371  0093                     	;# 
   372  0093                     	;# 
   373  0094                     	;# 
   374  0095                     	;# 
   375  0096                     	;# 
   376  0097                     	;# 
   377  0098                     	;# 
   378  0099                     	;# 
   379  009A                     	;# 
   380  009B                     	;# 
   381  009C                     	;# 
   382  009D                     	;# 
   383  009E                     	;# 
   384  009F                     	;# 
   385  0105                     	;# 
   386  0107                     	;# 
   387  0108                     	;# 
   388  0109                     	;# 
   389  010C                     	;# 
   390  010C                     	;# 
   391  010D                     	;# 
   392  010E                     	;# 
   393  010F                     	;# 
   394  0185                     	;# 
   395  0187                     	;# 
   396  0188                     	;# 
   397  0189                     	;# 
   398  018C                     	;# 
   399  018D                     	;# 
   400  0000                     	;# 
   401  0001                     	;# 
   402  0002                     	;# 
   403  0003                     	;# 
   404  0004                     	;# 
   405  0005                     	;# 
   406  0006                     	;# 
   407  0007                     	;# 
   408  0008                     	;# 
   409  0009                     	;# 
   410  000A                     	;# 
   411  000B                     	;# 
   412  000C                     	;# 
   413  000D                     	;# 
   414  000E                     	;# 
   415  000E                     	;# 
   416  000F                     	;# 
   417  0010                     	;# 
   418  0011                     	;# 
   419  0012                     	;# 
   420  0013                     	;# 
   421  0014                     	;# 
   422  0015                     	;# 
   423  0015                     	;# 
   424  0016                     	;# 
   425  0017                     	;# 
   426  0018                     	;# 
   427  0019                     	;# 
   428  001A                     	;# 
   429  001B                     	;# 
   430  001B                     	;# 
   431  001C                     	;# 
   432  001D                     	;# 
   433  001E                     	;# 
   434  001F                     	;# 
   435  0081                     	;# 
   436  0085                     	;# 
   437  0086                     	;# 
   438  0087                     	;# 
   439  0088                     	;# 
   440  0089                     	;# 
   441  008C                     	;# 
   442  008D                     	;# 
   443  008E                     	;# 
   444  008F                     	;# 
   445  0090                     	;# 
   446  0091                     	;# 
   447  0092                     	;# 
   448  0093                     	;# 
   449  0093                     	;# 
   450  0093                     	;# 
   451  0094                     	;# 
   452  0095                     	;# 
   453  0096                     	;# 
   454  0097                     	;# 
   455  0098                     	;# 
   456  0099                     	;# 
   457  009A                     	;# 
   458  009B                     	;# 
   459  009C                     	;# 
   460  009D                     	;# 
   461  009E                     	;# 
   462  009F                     	;# 
   463  0105                     	;# 
   464  0107                     	;# 
   465  0108                     	;# 
   466  0109                     	;# 
   467  010C                     	;# 
   468  010C                     	;# 
   469  010D                     	;# 
   470  010E                     	;# 
   471  010F                     	;# 
   472  0185                     	;# 
   473  0187                     	;# 
   474  0188                     	;# 
   475  0189                     	;# 
   476  018C                     	;# 
   477  018D                     	;# 
   478  0000                     	;# 
   479  0001                     	;# 
   480  0002                     	;# 
   481  0003                     	;# 
   482  0004                     	;# 
   483  0005                     	;# 
   484  0006                     	;# 
   485  0007                     	;# 
   486  0008                     	;# 
   487  0009                     	;# 
   488  000A                     	;# 
   489  000B                     	;# 
   490  000C                     	;# 
   491  000D                     	;# 
   492  000E                     	;# 
   493  000E                     	;# 
   494  000F                     	;# 
   495  0010                     	;# 
   496  0011                     	;# 
   497  0012                     	;# 
   498  0013                     	;# 
   499  0014                     	;# 
   500  0015                     	;# 
   501  0015                     	;# 
   502  0016                     	;# 
   503  0017                     	;# 
   504  0018                     	;# 
   505  0019                     	;# 
   506  001A                     	;# 
   507  001B                     	;# 
   508  001B                     	;# 
   509  001C                     	;# 
   510  001D                     	;# 
   511  001E                     	;# 
   512  001F                     	;# 
   513  0081                     	;# 
   514  0085                     	;# 
   515  0086                     	;# 
   516  0087                     	;# 
   517  0088                     	;# 
   518  0089                     	;# 
   519  008C                     	;# 
   520  008D                     	;# 
   521  008E                     	;# 
   522  008F                     	;# 
   523  0090                     	;# 
   524  0091                     	;# 
   525  0092                     	;# 
   526  0093                     	;# 
   527  0093                     	;# 
   528  0093                     	;# 
   529  0094                     	;# 
   530  0095                     	;# 
   531  0096                     	;# 
   532  0097                     	;# 
   533  0098                     	;# 
   534  0099                     	;# 
   535  009A                     	;# 
   536  009B                     	;# 
   537  009C                     	;# 
   538  009D                     	;# 
   539  009E                     	;# 
   540  009F                     	;# 
   541  0105                     	;# 
   542  0107                     	;# 
   543  0108                     	;# 
   544  0109                     	;# 
   545  010C                     	;# 
   546  010C                     	;# 
   547  010D                     	;# 
   548  010E                     	;# 
   549  010F                     	;# 
   550  0185                     	;# 
   551  0187                     	;# 
   552  0188                     	;# 
   553  0189                     	;# 
   554  018C                     	;# 
   555  018D                     	;# 
   556  0000                     	;# 
   557  0001                     	;# 
   558  0002                     	;# 
   559  0003                     	;# 
   560  0004                     	;# 
   561  0005                     	;# 
   562  0006                     	;# 
   563  0007                     	;# 
   564  0008                     	;# 
   565  0009                     	;# 
   566  000A                     	;# 
   567  000B                     	;# 
   568  000C                     	;# 
   569  000D                     	;# 
   570  000E                     	;# 
   571  000E                     	;# 
   572  000F                     	;# 
   573  0010                     	;# 
   574  0011                     	;# 
   575  0012                     	;# 
   576  0013                     	;# 
   577  0014                     	;# 
   578  0015                     	;# 
   579  0015                     	;# 
   580  0016                     	;# 
   581  0017                     	;# 
   582  0018                     	;# 
   583  0019                     	;# 
   584  001A                     	;# 
   585  001B                     	;# 
   586  001B                     	;# 
   587  001C                     	;# 
   588  001D                     	;# 
   589  001E                     	;# 
   590  001F                     	;# 
   591  0081                     	;# 
   592  0085                     	;# 
   593  0086                     	;# 
   594  0087                     	;# 
   595  0088                     	;# 
   596  0089                     	;# 
   597  008C                     	;# 
   598  008D                     	;# 
   599  008E                     	;# 
   600  008F                     	;# 
   601  0090                     	;# 
   602  0091                     	;# 
   603  0092                     	;# 
   604  0093                     	;# 
   605  0093                     	;# 
   606  0093                     	;# 
   607  0094                     	;# 
   608  0095                     	;# 
   609  0096                     	;# 
   610  0097                     	;# 
   611  0098                     	;# 
   612  0099                     	;# 
   613  009A                     	;# 
   614  009B                     	;# 
   615  009C                     	;# 
   616  009D                     	;# 
   617  009E                     	;# 
   618  009F                     	;# 
   619  0105                     	;# 
   620  0107                     	;# 
   621  0108                     	;# 
   622  0109                     	;# 
   623  010C                     	;# 
   624  010C                     	;# 
   625  010D                     	;# 
   626  010E                     	;# 
   627  010F                     	;# 
   628  0185                     	;# 
   629  0187                     	;# 
   630  0188                     	;# 
   631  0189                     	;# 
   632  018C                     	;# 
   633  018D                     	;# 
   634  0000                     	;# 
   635  0001                     	;# 
   636  0002                     	;# 
   637  0003                     	;# 
   638  0004                     	;# 
   639  0005                     	;# 
   640  0006                     	;# 
   641  0007                     	;# 
   642  0008                     	;# 
   643  0009                     	;# 
   644  000A                     	;# 
   645  000B                     	;# 
   646  000C                     	;# 
   647  000D                     	;# 
   648  000E                     	;# 
   649  000E                     	;# 
   650  000F                     	;# 
   651  0010                     	;# 
   652  0011                     	;# 
   653  0012                     	;# 
   654  0013                     	;# 
   655  0014                     	;# 
   656  0015                     	;# 
   657  0015                     	;# 
   658  0016                     	;# 
   659  0017                     	;# 
   660  0018                     	;# 
   661  0019                     	;# 
   662  001A                     	;# 
   663  001B                     	;# 
   664  001B                     	;# 
   665  001C                     	;# 
   666  001D                     	;# 
   667  001E                     	;# 
   668  001F                     	;# 
   669  0081                     	;# 
   670  0085                     	;# 
   671  0086                     	;# 
   672  0087                     	;# 
   673  0088                     	;# 
   674  0089                     	;# 
   675  008C                     	;# 
   676  008D                     	;# 
   677  008E                     	;# 
   678  008F                     	;# 
   679  0090                     	;# 
   680  0091                     	;# 
   681  0092                     	;# 
   682  0093                     	;# 
   683  0093                     	;# 
   684  0093                     	;# 
   685  0094                     	;# 
   686  0095                     	;# 
   687  0096                     	;# 
   688  0097                     	;# 
   689  0098                     	;# 
   690  0099                     	;# 
   691  009A                     	;# 
   692  009B                     	;# 
   693  009C                     	;# 
   694  009D                     	;# 
   695  009E                     	;# 
   696  009F                     	;# 
   697  0105                     	;# 
   698  0107                     	;# 
   699  0108                     	;# 
   700  0109                     	;# 
   701  010C                     	;# 
   702  010C                     	;# 
   703  010D                     	;# 
   704  010E                     	;# 
   705  010F                     	;# 
   706  0185                     	;# 
   707  0187                     	;# 
   708  0188                     	;# 
   709  0189                     	;# 
   710  018C                     	;# 
   711  018D                     	;# 
   712                           
   713                           	psect	idataBANK1
   714  0803                     __pidataBANK1:
   715                           
   716                           ;initializer for _key
   717  0803  3430               	retlw	48
   718                           
   719                           	psect	idataBANK3
   720  12D1                     __pidataBANK3:
   721                           
   722                           ;initializer for keypad_getkey@F1296
   723  12D1  3431               	retlw	49
   724  12D2  3432               	retlw	50
   725  12D3  3433               	retlw	51
   726  12D4  3441               	retlw	65
   727  12D5  3434               	retlw	52
   728  12D6  3435               	retlw	53
   729  12D7  3436               	retlw	54
   730  12D8  3442               	retlw	66
   731  12D9  3437               	retlw	55
   732  12DA  3438               	retlw	56
   733  12DB  3439               	retlw	57
   734  12DC  3443               	retlw	67
   735  12DD  342A               	retlw	42
   736  12DE  3430               	retlw	48
   737  12DF  3423               	retlw	35
   738  12E0  3444               	retlw	68
   739                           
   740                           	psect	strings
   741  1000                     __pstrings:
   742  1000                     stringtab:
   743  1000                     __stringtab:
   744                           
   745                           ;	String table - string pointers are 1 byte each
   746  1000  1BFF               	btfsc	btemp+1,7
   747  1001  280A               	ljmp	stringcode
   748  1002  1383               	bcf	3,7
   749  1003  187F               	btfsc	btemp+1,0
   750  1004  1783               	bsf	3,7
   751  1005  0800               	movf	0,w
   752  1006  0A84               	incf	4,f
   753  1007  1903               	skipnz
   754  1008  0AFF               	incf	btemp+1,f
   755  1009  0008               	return
   756  100A                     stringcode:
   757  100A                     stringdir:
   758  100A  3010               	movlw	high stringdir
   759  100B  008A               	movwf	10
   760  100C  0804               	movf	4,w
   761  100D  0A84               	incf	4,f
   762  100E  0782               	addwf	2,f
   763  100F                     __stringbase:
   764  100F  3400               	retlw	0
   765  1010                     __end_of__stringtab:
   766  1010                     _dpowers:
   767  1010  3401               	retlw	1
   768  1011  3400               	retlw	0
   769  1012  340A               	retlw	10
   770  1013  3400               	retlw	0
   771  1014  3464               	retlw	100
   772  1015  3400               	retlw	0
   773  1016  34E8               	retlw	232
   774  1017  3403               	retlw	3
   775  1018  3410               	retlw	16
   776  1019  3427               	retlw	39
   777  101A                     __end_of_dpowers:
   778  101A                     log@coeff:
   779  101A  3400               	retlw	0
   780  101B  3400               	retlw	0
   781  101C  3400               	retlw	0
   782  101D  3400               	retlw	0
   783  101E  34C4               	retlw	196
   784  101F  34FF               	retlw	255
   785  1020  347F               	retlw	127
   786  1021  343F               	retlw	63
   787  1022  3480               	retlw	128
   788  1023  34EF               	retlw	239
   789  1024  34FF               	retlw	255
   790  1025  34BE               	retlw	190
   791  1026  3490               	retlw	144
   792  1027  34E1               	retlw	225
   793  1028  34A9               	retlw	169
   794  1029  343E               	retlw	62
   795  102A  34EC               	retlw	236
   796  102B  3482               	retlw	130
   797  102C  3476               	retlw	118
   798  102D  34BE               	retlw	190
   799  102E  3482               	retlw	130
   800  102F  34AD               	retlw	173
   801  1030  342B               	retlw	43
   802  1031  343E               	retlw	62
   803  1032  340E               	retlw	14
   804  1033  343C               	retlw	60
   805  1034  34C3               	retlw	195
   806  1035  34BD               	retlw	189
   807  1036  3487               	retlw	135
   808  1037  34D1               	retlw	209
   809  1038  3413               	retlw	19
   810  1039  343D               	retlw	61
   811  103A  3441               	retlw	65
   812  103B  3478               	retlw	120
   813  103C  34D3               	retlw	211
   814  103D  34BB               	retlw	187
   815  103E                     __end_oflog@coeff:
   816  103E                     _inputPassword:
   817  103E  3432               	retlw	50
   818  103F  3430               	retlw	48
   819  1040  3432               	retlw	50
   820  1041  3431               	retlw	49
   821  1042  3400               	retlw	0
   822  1043                     __end_of_inputPassword:
   823  1043                     _exitPassword:
   824  1043  342A               	retlw	42
   825  1044  3400               	retlw	0
   826  1045                     __end_of_exitPassword:
   827  001E                     _ADRESH	set	30
   828  001F                     _ADCON0bits	set	31
   829  0005                     _PORTA	set	5
   830  0006                     _PORTB	set	6
   831  0008                     _PORTDbits	set	8
   832  0008                     _PORTD	set	8
   833  0007                     _PORTCbits	set	7
   834  009E                     _ADRESL	set	158
   835  009F                     _ADCON1bits	set	159
   836  0085                     _TRISA	set	133
   837  0087                     _TRISC	set	135
   838  008F                     _OSCCON	set	143
   839  0081                     _OPTION_REGbits	set	129
   840  0086                     _TRISB	set	134
   841  0088                     _TRISD	set	136
   842  042B                     _TRISA3	set	1067
   843  042A                     _TRISA2	set	1066
   844  0429                     _TRISA1	set	1065
   845  0428                     _TRISA0	set	1064
   846  043D                     _TRISC5	set	1085
   847  0439                     _TRISC1	set	1081
   848  043E                     _TRISC6	set	1086
   849  043A                     _TRISC2	set	1082
   850  043C                     _TRISC4	set	1084
   851  043B                     _TRISC3	set	1083
   852  0438                     _TRISC0	set	1080
   853  0188                     _ANSEL	set	392
   854  0189                     _ANSELH	set	393
   855  1045                     STR_13:
   856  1045  3449               	retlw	73	;'I'
   857  1046  346E               	retlw	110	;'n'
   858  1047  3467               	retlw	103	;'g'
   859  1048  3472               	retlw	114	;'r'
   860  1049  3465               	retlw	101	;'e'
   861  104A  3473               	retlw	115	;'s'
   862  104B  346F               	retlw	111	;'o'
   863  104C  3420               	retlw	32	;' '
   864  104D  344E               	retlw	78	;'N'
   865  104E  346F               	retlw	111	;'o'
   866  104F  3420               	retlw	32	;' '
   867  1050  3450               	retlw	80	;'P'
   868  1051  3465               	retlw	101	;'e'
   869  1052  3472               	retlw	114	;'r'
   870  1053  346D               	retlw	109	;'m'
   871  1054  3469               	retlw	105	;'i'
   872  1055  3474               	retlw	116	;'t'
   873  1056  3469               	retlw	105	;'i'
   874  1057  3464               	retlw	100	;'d'
   875  1058  346F               	retlw	111	;'o'
   876  1059  3400               	retlw	0
   877  105A                     STR_11:
   878  105A  3443               	retlw	67	;'C'
   879  105B  346C               	retlw	108	;'l'
   880  105C  3461               	retlw	97	;'a'
   881  105D  3476               	retlw	118	;'v'
   882  105E  3465               	retlw	101	;'e'
   883  105F  3420               	retlw	32	;' '
   884  1060  3469               	retlw	105	;'i'
   885  1061  346E               	retlw	110	;'n'
   886  1062  3463               	retlw	99	;'c'
   887  1063  346F               	retlw	111	;'o'
   888  1064  3472               	retlw	114	;'r'
   889  1065  3472               	retlw	114	;'r'
   890  1066  3465               	retlw	101	;'e'
   891  1067  3463               	retlw	99	;'c'
   892  1068  3474               	retlw	116	;'t'
   893  1069  3461               	retlw	97	;'a'
   894  106A  3400               	retlw	0
   895  106B                     STR_8:
   896  106B  3443               	retlw	67	;'C'
   897  106C  346C               	retlw	108	;'l'
   898  106D  3461               	retlw	97	;'a'
   899  106E  3476               	retlw	118	;'v'
   900  106F  3465               	retlw	101	;'e'
   901  1070  3420               	retlw	32	;' '
   902  1071  3443               	retlw	67	;'C'
   903  1072  346F               	retlw	111	;'o'
   904  1073  3472               	retlw	114	;'r'
   905  1074  3472               	retlw	114	;'r'
   906  1075  3465               	retlw	101	;'e'
   907  1076  3463               	retlw	99	;'c'
   908  1077  3474               	retlw	116	;'t'
   909  1078  3461               	retlw	97	;'a'
   910  1079  3400               	retlw	0
   911  107A                     STR_4:
   912  107A  3444               	retlw	68	;'D'
   913  107B  3469               	retlw	105	;'i'
   914  107C  3473               	retlw	115	;'s'
   915  107D  346D               	retlw	109	;'m'
   916  107E  3469               	retlw	105	;'i'
   917  107F  346E               	retlw	110	;'n'
   918  1080  3475               	retlw	117	;'u'
   919  1081  3469               	retlw	105	;'i'
   920  1082  3472               	retlw	114	;'r'
   921  1083  3420               	retlw	32	;' '
   922  1084  3454               	retlw	84	;'T'
   923  1085  3465               	retlw	101	;'e'
   924  1086  346D               	retlw	109	;'m'
   925  1087  3470               	retlw	112	;'p'
   926  1088  3400               	retlw	0
   927  1089                     STR_6:
   928  1089  3454               	retlw	84	;'T'
   929  108A  3465               	retlw	101	;'e'
   930  108B  346D               	retlw	109	;'m'
   931  108C  3470               	retlw	112	;'p'
   932  108D  3420               	retlw	32	;' '
   933  108E  3441               	retlw	65	;'A'
   934  108F  3464               	retlw	100	;'d'
   935  1090  3465               	retlw	101	;'e'
   936  1091  3463               	retlw	99	;'c'
   937  1092  3475               	retlw	117	;'u'
   938  1093  3461               	retlw	97	;'a'
   939  1094  3464               	retlw	100	;'d'
   940  1095  3461               	retlw	97	;'a'
   941  1096  3400               	retlw	0
   942  1097                     STR_5:
   943  1097  3441               	retlw	65	;'A'
   944  1098  3475               	retlw	117	;'u'
   945  1099  346D               	retlw	109	;'m'
   946  109A  3465               	retlw	101	;'e'
   947  109B  346E               	retlw	110	;'n'
   948  109C  3474               	retlw	116	;'t'
   949  109D  3461               	retlw	97	;'a'
   950  109E  3472               	retlw	114	;'r'
   951  109F  3420               	retlw	32	;' '
   952  10A0  3454               	retlw	84	;'T'
   953  10A1  3465               	retlw	101	;'e'
   954  10A2  346D               	retlw	109	;'m'
   955  10A3  3470               	retlw	112	;'p'
   956  10A4  3400               	retlw	0
   957  10A5                     STR_9:
   958  10A5  3450               	retlw	80	;'P'
   959  10A6  3472               	retlw	114	;'r'
   960  10A7  3465               	retlw	101	;'e'
   961  10A8  3473               	retlw	115	;'s'
   962  10A9  3473               	retlw	115	;'s'
   963  10AA  3420               	retlw	32	;' '
   964  10AB  3461               	retlw	97	;'a'
   965  10AC  3420               	retlw	32	;' '
   966  10AD  344B               	retlw	75	;'K'
   967  10AE  3465               	retlw	101	;'e'
   968  10AF  3479               	retlw	121	;'y'
   969  10B0  342E               	retlw	46	;'.'
   970  10B1  3400               	retlw	0
   971  10B2                     STR_7:
   972  10B2  3450               	retlw	80	;'P'
   973  10B3  3472               	retlw	114	;'r'
   974  10B4  3465               	retlw	101	;'e'
   975  10B5  3473               	retlw	115	;'s'
   976  10B6  3473               	retlw	115	;'s'
   977  10B7  3420               	retlw	32	;' '
   978  10B8  3461               	retlw	97	;'a'
   979  10B9  3420               	retlw	32	;' '
   980  10BA  344B               	retlw	75	;'K'
   981  10BB  3465               	retlw	101	;'e'
   982  10BC  3479               	retlw	121	;'y'
   983  10BD  3400               	retlw	0
   984  10BE                     STR_2:
   985  10BE  3454               	retlw	84	;'T'
   986  10BF  3445               	retlw	69	;'E'
   987  10C0  344D               	retlw	77	;'M'
   988  10C1  3450               	retlw	80	;'P'
   989  10C2  343A               	retlw	58	;':'
   990  10C3  3400               	retlw	0
   991  10C4                     STR_1:
   992  10C4  3425               	retlw	37	;'%'
   993  10C5  3464               	retlw	100	;'d'
   994  10C6  3425               	retlw	37	;'%'
   995  10C7  3463               	retlw	99	;'c'
   996  10C8  3443               	retlw	67	;'C'
   997  10C9  3400               	retlw	0
   998  10CA                     STR_3:
   999  10CA  3420               	retlw	32	;' '
  1000  10CB  3420               	retlw	32	;' '
  1001  10CC  3400               	retlw	0
  1002  106B                     
  1003                           	psect	cinit
  1004  07DA                     start_initialization:	
  1005                           ; #config settings
  1006                           
  1007  07DA                     __initialization:
  1008                           
  1009                           ; Initialize objects allocated to BANK3
  1010  07DA  1783               	bsf	3,7	;select IRP bank2
  1011  07DB  30A0               	movlw	low (__pdataBANK3+16)
  1012  07DC  00FD               	movwf	btemp+-1
  1013  07DD  3012               	movlw	high __pidataBANK3
  1014  07DE  00FE               	movwf	btemp
  1015  07DF  30D1               	movlw	low __pidataBANK3
  1016  07E0  00FF               	movwf	btemp+1
  1017  07E1  3090               	movlw	low __pdataBANK3
  1018  07E2  0084               	movwf	4
  1019  07E3  120A  118A  2007  120A  118A  	fcall	init_ram0
  1020                           
  1021                           ; Initialize objects allocated to BANK1
  1022  07E8  1683               	bsf	3,5	;RP0=1, select bank1
  1023  07E9  1303               	bcf	3,6	;RP1=0, select bank1
  1024  07EA  120A  158A  2003  120A  118A  	fcall	__pidataBANK1	;fetch initializer
  1025  07EF  00EE               	movwf	__pdataBANK1& (0+127)
  1026                           
  1027                           ; Clear objects allocated to BANK1
  1028  07F0  1383               	bcf	3,7	;select IRP bank0
  1029  07F1  30D7               	movlw	low __pbssBANK1
  1030  07F2  0084               	movwf	4
  1031  07F3  30EE               	movlw	low (__pbssBANK1+23)
  1032  07F4  160A  118A  228E  120A  118A  	fcall	clear_ram0
  1033                           
  1034                           ; Clear objects allocated to BANK0
  1035  07F9  1283               	bcf	3,5	;RP0=0, select bank0
  1036  07FA  1303               	bcf	3,6	;RP1=0, select bank0
  1037  07FB  01EE               	clrf	__pbssBANK0& (0+127)
  1038  07FC                     end_of_initialization:	
  1039                           ;End of C runtime variable initialization code
  1040                           
  1041  07FC                     __end_of__initialization:
  1042  07FC  0183               	clrf	3
  1043  07FD  120A  118A  2BD3   	ljmp	_main	;jump to C main() function
  1044                           
  1045                           	psect	bssBANK0
  1046  006E                     __pbssBANK0:
  1047  006E                     _counter_digito:
  1048  006E                     	ds	1
  1049                           
  1050                           	psect	bssBANK1
  1051  00D7                     __pbssBANK1:
  1052  00D7                     _errno:
  1053  00D7                     	ds	2
  1054  00D9                     _temp:
  1055  00D9                     	ds	2
  1056  00DB                     _value_adc:
  1057  00DB                     	ds	2
  1058  00DD                     _counter_try:
  1059  00DD                     	ds	2
  1060  00DF                     _r:
  1061  00DF                     	ds	2
  1062  00E1                     _a:
  1063  00E1                     	ds	2
  1064  00E3                     _f:
  1065  00E3                     	ds	2
  1066  00E5                     _lm35:
  1067  00E5                     	ds	1
  1068  00E6                     _idx:
  1069  00E6                     	ds	1
  1070  00E7                     _pass_user:
  1071  00E7                     	ds	5
  1072  00EC                     _pass_user2:
  1073  00EC                     	ds	2
  1074                           
  1075                           	psect	dataBANK1
  1076  00EE                     __pdataBANK1:
  1077  00EE                     _key:
  1078  00EE                     	ds	1
  1079                           
  1080                           	psect	dataBANK3
  1081  0190                     __pdataBANK3:
  1082  0190                     keypad_getkey@F1296:
  1083  0190                     	ds	16
  1084                           
  1085                           	psect	inittext
  1086  0003                     init_fetch0:	
  1087                           ;	Called with low address in FSR and high address in W
  1088                           
  1089  0003  087E               	movf	btemp,w
  1090  0004  008A               	movwf	10
  1091  0005  087F               	movf	btemp+1,w
  1092  0006  0082               	movwf	2
  1093  0007                     init_ram0:	
  1094                           ;Called with:
  1095                           ;	high address of idata address in btemp 
  1096                           ;	low address of idata address in btemp+1 
  1097                           ;	low address of data in FSR
  1098                           ;	high address + 1 of data in btemp-1
  1099                           
  1100  0007  120A  118A  2003  120A  118A  	fcall	init_fetch0
  1101  000C  0080               	movwf	0
  1102  000D  0A84               	incf	4,f
  1103  000E  0804               	movf	4,w
  1104  000F  067D               	xorwf	btemp+-1,w
  1105  0010  1903               	btfsc	3,2
  1106  0011  3400               	retlw	0
  1107  0012  0AFF               	incf	btemp+1,f
  1108  0013  1903               	btfsc	3,2
  1109  0014  0AFE               	incf	btemp,f
  1110  0015  2807               	goto	init_ram0
  1111                           
  1112                           	psect	clrtext
  1113  128E                     clear_ram0:	
  1114                           ;	Called with FSR containing the base address, and
  1115                           ;	W with the last address+1
  1116                           
  1117  128E  0064               	clrwdt	;clear the watchdog before getting into this loop
  1118  128F                     clrloop0:
  1119  128F  0180               	clrf	0	;clear RAM location pointed to by FSR
  1120  1290  0A84               	incf	4,f	;increment pointer
  1121  1291  0604               	xorwf	4,w	;XOR with final address
  1122  1292  1903               	btfsc	3,2	;have we reached the end yet?
  1123  1293  3400               	retlw	0	;all done for this memory range, return
  1124  1294  0604               	xorwf	4,w	;XOR again to restore value
  1125  1295  2A8F               	goto	clrloop0	;do the next byte
  1126                           
  1127                           	psect	cstackBANK1
  1128  00A0                     __pcstackBANK1:
  1129  00A0                     ?_eval_poly:
  1130  00A0                     eval_poly@x:	
  1131                           ; 4 bytes @ 0x0
  1132                           
  1133                           
  1134                           ; 4 bytes @ 0x0
  1135  00A0                     	ds	4
  1136  00A4                     eval_poly@d:
  1137                           
  1138                           ; 1 bytes @ 0x4
  1139  00A4                     	ds	1
  1140  00A5                     eval_poly@n:
  1141                           
  1142                           ; 2 bytes @ 0x5
  1143  00A5                     	ds	2
  1144  00A7                     ??_eval_poly:
  1145                           
  1146                           ; 1 bytes @ 0x7
  1147  00A7                     	ds	5
  1148  00AC                     eval_poly@res:
  1149                           
  1150                           ; 4 bytes @ 0xC
  1151  00AC                     	ds	4
  1152  00B0                     ?_log:
  1153  00B0                     log@x:	
  1154                           ; 4 bytes @ 0x10
  1155                           
  1156                           
  1157                           ; 4 bytes @ 0x10
  1158  00B0                     	ds	4
  1159  00B4                     log@exponent:
  1160                           
  1161                           ; 2 bytes @ 0x14
  1162  00B4                     	ds	2
  1163  00B6                     ??_main:
  1164                           
  1165                           ; 1 bytes @ 0x16
  1166  00B6                     	ds	3
  1167  00B9                     main@Temperature:
  1168                           
  1169                           ; 10 bytes @ 0x19
  1170  00B9                     	ds	10
  1171  00C3                     main@a:
  1172                           
  1173                           ; 4 bytes @ 0x23
  1174  00C3                     	ds	4
  1175  00C7                     _main$1094:
  1176                           
  1177                           ; 4 bytes @ 0x27
  1178  00C7                     	ds	4
  1179  00CB                     _main$1095:
  1180                           
  1181                           ; 4 bytes @ 0x2B
  1182  00CB                     	ds	4
  1183  00CF                     _main$1096:
  1184                           
  1185                           ; 4 bytes @ 0x2F
  1186  00CF                     	ds	4
  1187  00D3                     main@tempC:
  1188                           
  1189                           ; 4 bytes @ 0x33
  1190  00D3                     	ds	4
  1191                           
  1192                           	psect	cstackCOMMON
  1193  0070                     __pcstackCOMMON:
  1194  0070                     ?___fleq:
  1195  0070                     ?___flge:	
  1196                           ; 1 bit 
  1197                           
  1198  0070                     ?_LCD_Command:	
  1199                           ; 1 bit 
  1200                           
  1201  0070                     ??_LCD_Command:	
  1202                           ; 1 bytes @ 0x0
  1203                           
  1204  0070                     ?_ADC_init:	
  1205                           ; 1 bytes @ 0x0
  1206                           
  1207  0070                     ??_ADC_init:	
  1208                           ; 1 bytes @ 0x0
  1209                           
  1210  0070                     ?_sensorFlame_init:	
  1211                           ; 1 bytes @ 0x0
  1212                           
  1213  0070                     ??_sensorFlame_init:	
  1214                           ; 1 bytes @ 0x0
  1215                           
  1216  0070                     ?_microphone_init:	
  1217                           ; 1 bytes @ 0x0
  1218                           
  1219  0070                     ??_microphone_init:	
  1220                           ; 1 bytes @ 0x0
  1221                           
  1222  0070                     ?_sensorProximidad_init:	
  1223                           ; 1 bytes @ 0x0
  1224                           
  1225  0070                     ??_sensorProximidad_init:	
  1226                           ; 1 bytes @ 0x0
  1227                           
  1228  0070                     ?_LCD_Init:	
  1229                           ; 1 bytes @ 0x0
  1230                           
  1231  0070                     ?_LCD_Char:	
  1232                           ; 1 bytes @ 0x0
  1233                           
  1234  0070                     ??_LCD_Char:	
  1235                           ; 1 bytes @ 0x0
  1236                           
  1237  0070                     ?_LCD_Clear:	
  1238                           ; 1 bytes @ 0x0
  1239                           
  1240  0070                     ?_keypad_init:	
  1241                           ; 1 bytes @ 0x0
  1242                           
  1243  0070                     ??_keypad_init:	
  1244                           ; 1 bytes @ 0x0
  1245                           
  1246  0070                     ?_keypad_getkey:	
  1247                           ; 1 bytes @ 0x0
  1248                           
  1249  0070                     ??_keypad_getkey:	
  1250                           ; 1 bytes @ 0x0
  1251                           
  1252  0070                     ?_main:	
  1253                           ; 1 bytes @ 0x0
  1254                           
  1255  0070                     ?_capturaTemp:	
  1256                           ; 1 bytes @ 0x0
  1257                           
  1258  0070                     ?_strncmp:	
  1259                           ; 2 bytes @ 0x0
  1260                           
  1261  0070                     ?__Umul8_16:	
  1262                           ; 2 bytes @ 0x0
  1263                           
  1264  0070                     ?_LeerSensorFlame:	
  1265                           ; 2 bytes @ 0x0
  1266                           
  1267  0070                     ?_LeerMicrofono:	
  1268                           ; 2 bytes @ 0x0
  1269                           
  1270  0070                     ?_LeerSensorProximidad:	
  1271                           ; 2 bytes @ 0x0
  1272                           
  1273  0070                     ?___lwdiv:	
  1274                           ; 2 bytes @ 0x0
  1275                           
  1276  0070                     ?___fltol:	
  1277                           ; 2 bytes @ 0x0
  1278                           
  1279  0070                     ?___xxtofl:	
  1280                           ; 4 bytes @ 0x0
  1281                           
  1282  0070                     __Umul8_16@multiplicand:	
  1283                           ; 4 bytes @ 0x0
  1284                           
  1285  0070                     strncmp@s2:	
  1286                           ; 1 bytes @ 0x0
  1287                           
  1288  0070                     ___lwdiv@divisor:	
  1289                           ; 1 bytes @ 0x0
  1290                           
  1291  0070                     ___fleq@ff1:	
  1292                           ; 2 bytes @ 0x0
  1293                           
  1294  0070                     ___flge@ff1:	
  1295                           ; 4 bytes @ 0x0
  1296                           
  1297  0070                     ___fltol@f1:	
  1298                           ; 4 bytes @ 0x0
  1299                           
  1300  0070                     ___xxtofl@val:	
  1301                           ; 4 bytes @ 0x0
  1302                           
  1303                           
  1304                           ; 4 bytes @ 0x0
  1305  0070                     	ds	1
  1306  0071                     strncmp@len:
  1307                           
  1308                           ; 2 bytes @ 0x1
  1309  0071                     	ds	1
  1310  0072                     ??_capturaTemp:
  1311  0072                     ??__Umul8_16:	
  1312                           ; 1 bytes @ 0x2
  1313                           
  1314  0072                     ??_LeerSensorFlame:	
  1315                           ; 1 bytes @ 0x2
  1316                           
  1317  0072                     ??_LeerMicrofono:	
  1318                           ; 1 bytes @ 0x2
  1319                           
  1320  0072                     ??_LeerSensorProximidad:	
  1321                           ; 1 bytes @ 0x2
  1322                           
  1323  0072                     LCD_Command@cmd:	
  1324                           ; 1 bytes @ 0x2
  1325                           
  1326  0072                     LCD_Char@dat:	
  1327                           ; 1 bytes @ 0x2
  1328                           
  1329  0072                     ___lwdiv@dividend:	
  1330                           ; 1 bytes @ 0x2
  1331                           
  1332                           
  1333                           ; 2 bytes @ 0x2
  1334  0072                     	ds	1
  1335  0073                     ??_strncmp:
  1336  0073                     ??_LCD_Init:	
  1337                           ; 1 bytes @ 0x3
  1338                           
  1339  0073                     ?_LCD_String:	
  1340                           ; 1 bytes @ 0x3
  1341                           
  1342  0073                     ??_LCD_Clear:	
  1343                           ; 1 bytes @ 0x3
  1344                           
  1345  0073                     LCD_String@msg:	
  1346                           ; 1 bytes @ 0x3
  1347                           
  1348                           
  1349                           ; 2 bytes @ 0x3
  1350  0073                     	ds	1
  1351  0074                     ??___fltol:
  1352  0074                     ??___lwdiv:	
  1353                           ; 1 bytes @ 0x4
  1354                           
  1355  0074                     ??___xxtofl:	
  1356                           ; 1 bytes @ 0x4
  1357                           
  1358  0074                     __Umul8_16@product:	
  1359                           ; 1 bytes @ 0x4
  1360                           
  1361  0074                     ___fleq@ff2:	
  1362                           ; 2 bytes @ 0x4
  1363                           
  1364  0074                     ___flge@ff2:	
  1365                           ; 4 bytes @ 0x4
  1366                           
  1367                           
  1368                           ; 4 bytes @ 0x4
  1369  0074                     	ds	1
  1370  0075                     ??_LCD_String:
  1371  0075                     ?_LCD_String_xy:	
  1372                           ; 1 bytes @ 0x5
  1373                           
  1374  0075                     LCD_String_xy@pos:	
  1375                           ; 1 bytes @ 0x5
  1376                           
  1377  0075                     strncmp@s1:	
  1378                           ; 1 bytes @ 0x5
  1379                           
  1380  0075                     ___lwdiv@quotient:	
  1381                           ; 1 bytes @ 0x5
  1382                           
  1383                           
  1384                           ; 2 bytes @ 0x5
  1385  0075                     	ds	1
  1386  0076                     LCD_String_xy@msg:
  1387  0076                     __Umul8_16@word_mpld:	
  1388                           ; 1 bytes @ 0x6
  1389                           
  1390                           
  1391                           ; 2 bytes @ 0x6
  1392  0076                     	ds	1
  1393  0077                     ??_LCD_String_xy:
  1394  0077                     ___lwdiv@counter:	
  1395                           ; 1 bytes @ 0x7
  1396                           
  1397                           
  1398                           ; 1 bytes @ 0x7
  1399  0077                     	ds	1
  1400  0078                     ??___fleq:
  1401  0078                     ??___flge:	
  1402                           ; 1 bytes @ 0x8
  1403                           
  1404  0078                     ?___lwmod:	
  1405                           ; 1 bytes @ 0x8
  1406                           
  1407  0078                     LCD_String_xy@row:	
  1408                           ; 2 bytes @ 0x8
  1409                           
  1410  0078                     __Umul8_16@multiplier:	
  1411                           ; 1 bytes @ 0x8
  1412                           
  1413  0078                     ___xxtofl@sign:	
  1414                           ; 1 bytes @ 0x8
  1415                           
  1416  0078                     ___lwmod@divisor:	
  1417                           ; 1 bytes @ 0x8
  1418                           
  1419                           
  1420                           ; 2 bytes @ 0x8
  1421  0078                     	ds	1
  1422  0079                     LCD_String_xy@location:
  1423  0079                     ___fltol@sign1:	
  1424                           ; 1 bytes @ 0x9
  1425                           
  1426  0079                     ___xxtofl@exp:	
  1427                           ; 1 bytes @ 0x9
  1428                           
  1429                           
  1430                           ; 1 bytes @ 0x9
  1431  0079                     	ds	1
  1432  007A                     ___fltol@exp1:
  1433  007A                     ___lwmod@dividend:	
  1434                           ; 1 bytes @ 0xA
  1435                           
  1436  007A                     ___xxtofl@arg:	
  1437                           ; 2 bytes @ 0xA
  1438                           
  1439                           
  1440                           ; 4 bytes @ 0xA
  1441  007A                     	ds	2
  1442  007C                     ??_frexp:
  1443  007C                     ??___lwmod:	
  1444                           ; 1 bytes @ 0xC
  1445                           
  1446                           
  1447                           ; 1 bytes @ 0xC
  1448  007C                     	ds	1
  1449  007D                     ___lwmod@counter:
  1450                           
  1451                           ; 1 bytes @ 0xD
  1452  007D                     	ds	1
  1453                           
  1454                           	psect	cstackBANK0
  1455  0020                     __pcstackBANK0:
  1456  0020                     ?_sprintf:
  1457  0020                     ?_frexp:	
  1458                           ; 2 bytes @ 0x0
  1459                           
  1460  0020                     sprintf@f:	
  1461                           ; 4 bytes @ 0x0
  1462                           
  1463  0020                     frexp@value:	
  1464                           ; 1 bytes @ 0x0
  1465                           
  1466  0020                     keypad_getkey@letras:	
  1467                           ; 4 bytes @ 0x0
  1468                           
  1469                           
  1470                           ; 16 bytes @ 0x0
  1471  0020                     	ds	4
  1472  0024                     frexp@eptr:
  1473                           
  1474                           ; 1 bytes @ 0x4
  1475  0024                     	ds	1
  1476  0025                     ??_sprintf:
  1477  0025                     ?___flmul:	
  1478                           ; 1 bytes @ 0x5
  1479                           
  1480  0025                     ___flmul@b:	
  1481                           ; 4 bytes @ 0x5
  1482                           
  1483                           
  1484                           ; 4 bytes @ 0x5
  1485  0025                     	ds	3
  1486  0028                     sprintf@flag:
  1487                           
  1488                           ; 1 bytes @ 0x8
  1489  0028                     	ds	1
  1490  0029                     sprintf@prec:
  1491  0029                     ___flmul@a:	
  1492                           ; 1 bytes @ 0x9
  1493                           
  1494                           
  1495                           ; 4 bytes @ 0x9
  1496  0029                     	ds	1
  1497  002A                     sprintf@ap:
  1498                           
  1499                           ; 1 bytes @ 0xA
  1500  002A                     	ds	1
  1501  002B                     sprintf@val:
  1502                           
  1503                           ; 2 bytes @ 0xB
  1504  002B                     	ds	2
  1505  002D                     ??___flmul:
  1506  002D                     sprintf@sp:	
  1507                           ; 1 bytes @ 0xD
  1508                           
  1509                           
  1510                           ; 1 bytes @ 0xD
  1511  002D                     	ds	1
  1512  002E                     sprintf@c:
  1513                           
  1514                           ; 1 bytes @ 0xE
  1515  002E                     	ds	2
  1516  0030                     keypad_getkey@valor:
  1517                           
  1518                           ; 1 bytes @ 0x10
  1519  0030                     	ds	1
  1520  0031                     keypad_getkey@i:
  1521                           
  1522                           ; 2 bytes @ 0x11
  1523  0031                     	ds	1
  1524  0032                     ___flmul@sign:
  1525                           
  1526                           ; 1 bytes @ 0x12
  1527  0032                     	ds	1
  1528  0033                     ___flmul@grs:
  1529                           
  1530                           ; 4 bytes @ 0x13
  1531  0033                     	ds	4
  1532  0037                     ___flmul@aexp:
  1533                           
  1534                           ; 1 bytes @ 0x17
  1535  0037                     	ds	1
  1536  0038                     ___flmul@bexp:
  1537                           
  1538                           ; 1 bytes @ 0x18
  1539  0038                     	ds	1
  1540  0039                     ___flmul@prod:
  1541                           
  1542                           ; 4 bytes @ 0x19
  1543  0039                     	ds	4
  1544  003D                     ___flmul@temp:
  1545                           
  1546                           ; 2 bytes @ 0x1D
  1547  003D                     	ds	2
  1548  003F                     ?___fldiv:
  1549  003F                     ___fldiv@a:	
  1550                           ; 4 bytes @ 0x1F
  1551                           
  1552                           
  1553                           ; 4 bytes @ 0x1F
  1554  003F                     	ds	4
  1555  0043                     ___fldiv@b:
  1556                           
  1557                           ; 4 bytes @ 0x23
  1558  0043                     	ds	4
  1559  0047                     ??___fldiv:
  1560                           
  1561                           ; 1 bytes @ 0x27
  1562  0047                     	ds	5
  1563  004C                     ___fldiv@rem:
  1564                           
  1565                           ; 4 bytes @ 0x2C
  1566  004C                     	ds	4
  1567  0050                     ___fldiv@sign:
  1568                           
  1569                           ; 1 bytes @ 0x30
  1570  0050                     	ds	1
  1571  0051                     ___fldiv@new_exp:
  1572                           
  1573                           ; 2 bytes @ 0x31
  1574  0051                     	ds	2
  1575  0053                     ___fldiv@grs:
  1576                           
  1577                           ; 4 bytes @ 0x33
  1578  0053                     	ds	4
  1579  0057                     ___fldiv@bexp:
  1580                           
  1581                           ; 1 bytes @ 0x37
  1582  0057                     	ds	1
  1583  0058                     ___fldiv@aexp:
  1584                           
  1585                           ; 1 bytes @ 0x38
  1586  0058                     	ds	1
  1587  0059                     ?___fladd:
  1588  0059                     ___fladd@b:	
  1589                           ; 4 bytes @ 0x39
  1590                           
  1591                           
  1592                           ; 4 bytes @ 0x39
  1593  0059                     	ds	4
  1594  005D                     ___fladd@a:
  1595                           
  1596                           ; 4 bytes @ 0x3D
  1597  005D                     	ds	4
  1598  0061                     ??___fladd:
  1599                           
  1600                           ; 1 bytes @ 0x41
  1601  0061                     	ds	8
  1602  0069                     ___fladd@signs:
  1603                           
  1604                           ; 1 bytes @ 0x49
  1605  0069                     	ds	1
  1606  006A                     ___fladd@aexp:
  1607                           
  1608                           ; 1 bytes @ 0x4A
  1609  006A                     	ds	1
  1610  006B                     ___fladd@bexp:
  1611                           
  1612                           ; 1 bytes @ 0x4B
  1613  006B                     	ds	1
  1614  006C                     ___fladd@grs:
  1615                           
  1616                           ; 1 bytes @ 0x4C
  1617  006C                     	ds	1
  1618  006D                     ??_log:
  1619                           
  1620                           ; 1 bytes @ 0x4D
  1621  006D                     	ds	1
  1622                           
  1623                           	psect	maintext
  1624  03D3                     __pmaintext:	
  1625 ;;
  1626 ;;Main: autosize = 0, tempsize = 3, incstack = 0, save=0
  1627 ;;
  1628 ;; *************** function _main *****************
  1629 ;; Defined at:
  1630 ;;		line 29 in file "main.c"
  1631 ;; Parameters:    Size  Location     Type
  1632 ;;		None
  1633 ;; Auto vars:     Size  Location     Type
  1634 ;;  Temperature    10   25[BANK1 ] unsigned char [10]
  1635 ;;  tempC           4   51[BANK1 ] float 
  1636 ;;  a               4   35[BANK1 ] long 
  1637 ;; Return value:  Size  Location     Type
  1638 ;;                  1    wreg      void 
  1639 ;; Registers used:
  1640 ;;		wreg, fsr0l, fsr0h, status,2, status,0, btemp+1, pclath, cstack
  1641 ;; Tracked objects:
  1642 ;;		On entry : B00/0
  1643 ;;		On exit  : 0/0
  1644 ;;		Unchanged: 0/0
  1645 ;; Data sizes:     COMMON   BANK0   BANK1   BANK3   BANK2
  1646 ;;      Params:         0       0       0       0       0
  1647 ;;      Locals:         0       0      30       0       0
  1648 ;;      Temps:          0       0       3       0       0
  1649 ;;      Totals:         0       0      33       0       0
  1650 ;;Total ram usage:       33 bytes
  1651 ;; Hardware stack levels required when called: 4
  1652 ;; This function calls:
  1653 ;;		_ADC_init
  1654 ;;		_LCD_Char
  1655 ;;		_LCD_Clear
  1656 ;;		_LCD_Command
  1657 ;;		_LCD_Init
  1658 ;;		_LCD_String
  1659 ;;		_LCD_String_xy
  1660 ;;		_LeerMicrofono
  1661 ;;		_LeerSensorFlame
  1662 ;;		_LeerSensorProximidad
  1663 ;;		___fladd
  1664 ;;		___fldiv
  1665 ;;		___flge
  1666 ;;		___fltol
  1667 ;;		___xxtofl
  1668 ;;		_capturaTemp
  1669 ;;		_keypad_getkey
  1670 ;;		_keypad_init
  1671 ;;		_log
  1672 ;;		_microphone_init
  1673 ;;		_sensorFlame_init
  1674 ;;		_sensorProximidad_init
  1675 ;;		_sprintf
  1676 ;;		_strncmp
  1677 ;; This function is called by:
  1678 ;;		Startup code after reset
  1679 ;; This function uses a non-reentrant model
  1680 ;;
  1681                           
  1682  03D3                     _main:	
  1683                           ;psect for function _main
  1684                           
  1685  03D3                     l3250:	
  1686                           ;incstack = 0
  1687                           ; Regs used in _main: [wreg-fsr0h+status,2+status,0+btemp+1+pclath+cstack]
  1688                           
  1689                           
  1690                           ;main.c: 30:     keypad_init();
  1691  03D3  160A  118A  22B5  120A  118A  	fcall	_keypad_init
  1692                           
  1693                           ;main.c: 31:     LCD_Init();
  1694  03D8  160A  118A  2396  120A  118A  	fcall	_LCD_Init
  1695  03DD                     l3252:
  1696                           
  1697                           ;main.c: 32:     sensorFlame_init();
  1698  03DD  160A  118A  229F  120A  118A  	fcall	_sensorFlame_init
  1699  03E2                     l3254:
  1700                           
  1701                           ;main.c: 33:     microphone_init();
  1702  03E2  160A  118A  2296  120A  118A  	fcall	_microphone_init
  1703  03E7                     l3256:
  1704                           
  1705                           ;main.c: 34:     sensorProximidad_init();
  1706  03E7  160A  118A  22AA  120A  118A  	fcall	_sensorProximidad_init
  1707  03EC                     l3258:
  1708                           
  1709                           ;main.c: 35:     ADC_init();
  1710  03EC  160A  118A  22F7  120A  118A  	fcall	_ADC_init
  1711  03F1                     l3260:
  1712                           
  1713                           ;main.c: 38:     {;main.c: 39:         OSCCON = 0x71;
  1714  03F1  3071               	movlw	113
  1715  03F2  1683               	bsf	3,5	;RP0=1, select bank1
  1716  03F3  1303               	bcf	3,6	;RP1=0, select bank1
  1717  03F4  008F               	movwf	15	;volatile
  1718  03F5                     l3262:
  1719                           
  1720                           ;main.c: 40:         ANSELH = 0x00;
  1721  03F5  1683               	bsf	3,5	;RP0=1, select bank3
  1722  03F6  1703               	bsf	3,6	;RP1=1, select bank3
  1723  03F7  0189               	clrf	9	;volatile
  1724  03F8                     l3264:
  1725                           
  1726                           ;main.c: 41:         TRISC = 0x00;
  1727  03F8  1683               	bsf	3,5	;RP0=1, select bank1
  1728  03F9  1303               	bcf	3,6	;RP1=0, select bank1
  1729  03FA  0187               	clrf	7	;volatile
  1730  03FB                     l3266:
  1731                           
  1732                           ;main.c: 42:         TRISA = 0x00;
  1733  03FB  0185               	clrf	5	;volatile
  1734  03FC                     l3268:
  1735                           
  1736                           ;main.c: 45:         if (LeerSensorFlame() == 1)
  1737  03FC  160A  118A  2311  120A  118A  	fcall	_LeerSensorFlame
  1738  0401  0370               	decf	?_LeerSensorFlame,w
  1739  0402  0471               	iorwf	?_LeerSensorFlame+1,w
  1740  0403  1D03               	btfss	3,2
  1741  0404  2C06               	goto	u4341
  1742  0405  2C07               	goto	u4340
  1743  0406                     u4341:
  1744  0406  2C0C               	goto	l229
  1745  0407                     u4340:
  1746  0407                     l3270:
  1747                           
  1748                           ;main.c: 46:         {;main.c: 47:             PORTCbits.RC4 = 1;
  1749  0407  1283               	bcf	3,5	;RP0=0, select bank0
  1750  0408  1303               	bcf	3,6	;RP1=0, select bank0
  1751  0409  1607               	bsf	7,4	;volatile
  1752                           
  1753                           ;main.c: 48:             PORTCbits.RC3=1;
  1754  040A  1587               	bsf	7,3	;volatile
  1755                           
  1756                           ;main.c: 49:         }
  1757  040B  2C10               	goto	l3272
  1758  040C                     l229:	
  1759                           ;main.c: 50:         else
  1760                           
  1761                           
  1762                           ;main.c: 51:         {;main.c: 52:              PORTCbits.RC4 = 0;
  1763  040C  1283               	bcf	3,5	;RP0=0, select bank0
  1764  040D  1303               	bcf	3,6	;RP1=0, select bank0
  1765  040E  1207               	bcf	7,4	;volatile
  1766                           
  1767                           ;main.c: 53:              PORTCbits.RC3=0;
  1768  040F  1187               	bcf	7,3	;volatile
  1769  0410                     l3272:
  1770                           
  1771                           ;main.c: 56:         if (LeerSensorProximidad() == 1){
  1772  0410  160A  118A  232D  120A  118A  	fcall	_LeerSensorProximidad
  1773  0415  0370               	decf	?_LeerSensorProximidad,w
  1774  0416  0471               	iorwf	?_LeerSensorProximidad+1,w
  1775  0417  1D03               	btfss	3,2
  1776  0418  2C1A               	goto	u4351
  1777  0419  2C1B               	goto	u4350
  1778  041A                     u4351:
  1779  041A  2C20               	goto	l231
  1780  041B                     u4350:
  1781  041B                     l3274:
  1782                           
  1783                           ;main.c: 57:             PORTCbits.RC4 = 1;
  1784  041B  1283               	bcf	3,5	;RP0=0, select bank0
  1785  041C  1303               	bcf	3,6	;RP1=0, select bank0
  1786  041D  1607               	bsf	7,4	;volatile
  1787                           
  1788                           ;main.c: 58:             PORTCbits.RC5=1;
  1789  041E  1687               	bsf	7,5	;volatile
  1790                           
  1791                           ;main.c: 59:         }
  1792  041F  2C24               	goto	l3276
  1793  0420                     l231:	
  1794                           ;main.c: 60:         else{
  1795                           
  1796                           
  1797                           ;main.c: 61:             PORTCbits.RC4 = 0;
  1798  0420  1283               	bcf	3,5	;RP0=0, select bank0
  1799  0421  1303               	bcf	3,6	;RP1=0, select bank0
  1800  0422  1207               	bcf	7,4	;volatile
  1801                           
  1802                           ;main.c: 62:             PORTCbits.RC5=0;
  1803  0423  1287               	bcf	7,5	;volatile
  1804  0424                     l3276:
  1805                           
  1806                           ;main.c: 64:         _delay((unsigned long)((2000)*(8000000/4000.0)));
  1807  0424  3015               	movlw	21
  1808  0425  1683               	bsf	3,5	;RP0=1, select bank1
  1809  0426  1303               	bcf	3,6	;RP1=0, select bank1
  1810  0427  00B8               	movwf	(??_main^(0+128)+2)
  1811  0428  304B               	movlw	75
  1812  0429  00B7               	movwf	(??_main^(0+128)+1)
  1813  042A  30BD               	movlw	189
  1814  042B  00B6               	movwf	??_main^(0+128)
  1815  042C                     u4477:
  1816  042C  0BB6               	decfsz	??_main^(0+128),f
  1817  042D  2C2C               	goto	u4477
  1818  042E  0BB7               	decfsz	(??_main^(0+128)+1),f
  1819  042F  2C2C               	goto	u4477
  1820  0430  0BB8               	decfsz	(??_main^(0+128)+2),f
  1821  0431  2C2C               	goto	u4477
  1822  0432  2C33               	nop2
  1823  0433                     l3278:
  1824                           
  1825                           ;main.c: 66:         long a = (long)(1023 - capturaTemp());
  1826  0433  160A  118A  23EC  120A  118A  	fcall	_capturaTemp
  1827  0438  30FF               	movlw	255
  1828  0439  1683               	bsf	3,5	;RP0=1, select bank1
  1829  043A  1303               	bcf	3,6	;RP1=0, select bank1
  1830  043B  00B6               	movwf	??_main^(0+128)
  1831  043C  3003               	movlw	3
  1832  043D  00B7               	movwf	(??_main^(0+128)+1)
  1833  043E  0870               	movf	?_capturaTemp,w
  1834  043F  0236               	subwf	??_main^(0+128),w
  1835  0440  00C3               	movwf	main@a^(0+128)
  1836  0441  0871               	movf	?_capturaTemp+1,w
  1837  0442  1C03               	skipc
  1838  0443  0A71               	incf	?_capturaTemp+1,w
  1839  0444  0237               	subwf	(??_main+1)^(0+128),w
  1840  0445  00C4               	movwf	(main@a+1)^(0+128)
  1841  0446  01C5               	clrf	(main@a^(0+128)+2)
  1842  0447  1BC4               	btfsc	(main@a^(0+128)+1),7
  1843  0448  03C5               	decf	(main@a+2)^(0+128),f
  1844  0449  0845               	movf	(main@a^(0+128)+2),w
  1845  044A  00C6               	movwf	(main@a+3)^(0+128)
  1846  044B                     l3280:
  1847                           
  1848                           ;main.c: 67:         float tempC = (float)(4090 /(log((1025.0 * 10/ a - 10) / 10) + 4090
      +                           / 298.0) - 273.0);
  1849  044B  30C1               	movlw	193
  1850  044C  1283               	bcf	3,5	;RP0=0, select bank0
  1851  044D  1303               	bcf	3,6	;RP1=0, select bank0
  1852  044E  00DC               	movwf	___fladd@b+3
  1853  044F  3020               	movlw	32
  1854  0450  00DB               	movwf	___fladd@b+2
  1855  0451  3000               	movlw	0
  1856  0452  00DA               	movwf	___fladd@b+1
  1857  0453  3000               	movlw	0
  1858  0454  00D9               	movwf	___fladd@b
  1859  0455  1683               	bsf	3,5	;RP0=1, select bank1
  1860  0456  1303               	bcf	3,6	;RP1=0, select bank1
  1861  0457  0846               	movf	(main@a+3)^(0+128),w
  1862  0458  00F3               	movwf	___xxtofl@val+3
  1863  0459  0845               	movf	(main@a+2)^(0+128),w
  1864  045A  00F2               	movwf	___xxtofl@val+2
  1865  045B  0844               	movf	(main@a+1)^(0+128),w
  1866  045C  00F1               	movwf	___xxtofl@val+1
  1867  045D  0843               	movf	main@a^(0+128),w
  1868  045E  00F0               	movwf	___xxtofl@val
  1869  045F  3001               	movlw	1
  1870  0460  160A  118A  266C  120A  118A  	fcall	___xxtofl
  1871  0465  0873               	movf	?___xxtofl+3,w
  1872  0466  1283               	bcf	3,5	;RP0=0, select bank0
  1873  0467  1303               	bcf	3,6	;RP1=0, select bank0
  1874  0468  00C2               	movwf	___fldiv@a+3
  1875  0469  0872               	movf	?___xxtofl+2,w
  1876  046A  00C1               	movwf	___fldiv@a+2
  1877  046B  0871               	movf	?___xxtofl+1,w
  1878  046C  00C0               	movwf	___fldiv@a+1
  1879  046D  0870               	movf	?___xxtofl,w
  1880  046E  00BF               	movwf	___fldiv@a
  1881  046F  3046               	movlw	70
  1882  0470  00C6               	movwf	___fldiv@b+3
  1883  0471  3020               	movlw	32
  1884  0472  00C5               	movwf	___fldiv@b+2
  1885  0473  3028               	movlw	40
  1886  0474  00C4               	movwf	___fldiv@b+1
  1887  0475  3000               	movlw	0
  1888  0476  00C3               	movwf	___fldiv@b
  1889  0477  120A  158A  239B  120A  118A  	fcall	___fldiv
  1890  047C  1283               	bcf	3,5	;RP0=0, select bank0
  1891  047D  1303               	bcf	3,6	;RP1=0, select bank0
  1892  047E  0842               	movf	?___fldiv+3,w
  1893  047F  00E0               	movwf	___fladd@a+3
  1894  0480  0841               	movf	?___fldiv+2,w
  1895  0481  00DF               	movwf	___fladd@a+2
  1896  0482  0840               	movf	?___fldiv+1,w
  1897  0483  00DE               	movwf	___fladd@a+1
  1898  0484  083F               	movf	?___fldiv,w
  1899  0485  00DD               	movwf	___fladd@a
  1900  0486  120A  158A  2578  120A  118A  	fcall	___fladd
  1901  048B  1283               	bcf	3,5	;RP0=0, select bank0
  1902  048C  1303               	bcf	3,6	;RP1=0, select bank0
  1903  048D  085C               	movf	?___fladd+3,w
  1904  048E  1683               	bsf	3,5	;RP0=1, select bank1
  1905  048F  1303               	bcf	3,6	;RP1=0, select bank1
  1906  0490  00CA               	movwf	(_main$1094+3)^(0+128)
  1907  0491  1283               	bcf	3,5	;RP0=0, select bank0
  1908  0492  1303               	bcf	3,6	;RP1=0, select bank0
  1909  0493  085B               	movf	?___fladd+2,w
  1910  0494  1683               	bsf	3,5	;RP0=1, select bank1
  1911  0495  1303               	bcf	3,6	;RP1=0, select bank1
  1912  0496  00C9               	movwf	(_main$1094+2)^(0+128)
  1913  0497  1283               	bcf	3,5	;RP0=0, select bank0
  1914  0498  1303               	bcf	3,6	;RP1=0, select bank0
  1915  0499  085A               	movf	?___fladd+1,w
  1916  049A  1683               	bsf	3,5	;RP0=1, select bank1
  1917  049B  1303               	bcf	3,6	;RP1=0, select bank1
  1918  049C  00C8               	movwf	(_main$1094+1)^(0+128)
  1919  049D  1283               	bcf	3,5	;RP0=0, select bank0
  1920  049E  1303               	bcf	3,6	;RP1=0, select bank0
  1921  049F  0859               	movf	?___fladd,w
  1922  04A0  1683               	bsf	3,5	;RP0=1, select bank1
  1923  04A1  1303               	bcf	3,6	;RP1=0, select bank1
  1924  04A2  00C7               	movwf	_main$1094^(0+128)
  1925  04A3                     l3282:
  1926                           
  1927                           ;main.c: 67:         float tempC = (float)(4090 /(log((1025.0 * 10/ a - 10) / 10) + 4090
      +                           / 298.0) - 273.0);
  1928  04A3  3041               	movlw	65
  1929  04A4  1283               	bcf	3,5	;RP0=0, select bank0
  1930  04A5  1303               	bcf	3,6	;RP1=0, select bank0
  1931  04A6  00C2               	movwf	___fldiv@a+3
  1932  04A7  3020               	movlw	32
  1933  04A8  00C1               	movwf	___fldiv@a+2
  1934  04A9  3000               	movlw	0
  1935  04AA  00C0               	movwf	___fldiv@a+1
  1936  04AB  3000               	movlw	0
  1937  04AC  00BF               	movwf	___fldiv@a
  1938  04AD  1683               	bsf	3,5	;RP0=1, select bank1
  1939  04AE  1303               	bcf	3,6	;RP1=0, select bank1
  1940  04AF  084A               	movf	(_main$1094+3)^(0+128),w
  1941  04B0  1283               	bcf	3,5	;RP0=0, select bank0
  1942  04B1  1303               	bcf	3,6	;RP1=0, select bank0
  1943  04B2  00C6               	movwf	___fldiv@b+3
  1944  04B3  1683               	bsf	3,5	;RP0=1, select bank1
  1945  04B4  1303               	bcf	3,6	;RP1=0, select bank1
  1946  04B5  0849               	movf	(_main$1094+2)^(0+128),w
  1947  04B6  1283               	bcf	3,5	;RP0=0, select bank0
  1948  04B7  1303               	bcf	3,6	;RP1=0, select bank0
  1949  04B8  00C5               	movwf	___fldiv@b+2
  1950  04B9  1683               	bsf	3,5	;RP0=1, select bank1
  1951  04BA  1303               	bcf	3,6	;RP1=0, select bank1
  1952  04BB  0848               	movf	(_main$1094+1)^(0+128),w
  1953  04BC  1283               	bcf	3,5	;RP0=0, select bank0
  1954  04BD  1303               	bcf	3,6	;RP1=0, select bank0
  1955  04BE  00C4               	movwf	___fldiv@b+1
  1956  04BF  1683               	bsf	3,5	;RP0=1, select bank1
  1957  04C0  1303               	bcf	3,6	;RP1=0, select bank1
  1958  04C1  0847               	movf	_main$1094^(0+128),w
  1959  04C2  1283               	bcf	3,5	;RP0=0, select bank0
  1960  04C3  1303               	bcf	3,6	;RP1=0, select bank0
  1961  04C4  00C3               	movwf	___fldiv@b
  1962  04C5  120A  158A  239B  120A  118A  	fcall	___fldiv
  1963  04CA  1283               	bcf	3,5	;RP0=0, select bank0
  1964  04CB  1303               	bcf	3,6	;RP1=0, select bank0
  1965  04CC  0842               	movf	?___fldiv+3,w
  1966  04CD  1683               	bsf	3,5	;RP0=1, select bank1
  1967  04CE  1303               	bcf	3,6	;RP1=0, select bank1
  1968  04CF  00B3               	movwf	(log@x+3)^(0+128)
  1969  04D0  1283               	bcf	3,5	;RP0=0, select bank0
  1970  04D1  1303               	bcf	3,6	;RP1=0, select bank0
  1971  04D2  0841               	movf	?___fldiv+2,w
  1972  04D3  1683               	bsf	3,5	;RP0=1, select bank1
  1973  04D4  1303               	bcf	3,6	;RP1=0, select bank1
  1974  04D5  00B2               	movwf	(log@x+2)^(0+128)
  1975  04D6  1283               	bcf	3,5	;RP0=0, select bank0
  1976  04D7  1303               	bcf	3,6	;RP1=0, select bank0
  1977  04D8  0840               	movf	?___fldiv+1,w
  1978  04D9  1683               	bsf	3,5	;RP0=1, select bank1
  1979  04DA  1303               	bcf	3,6	;RP1=0, select bank1
  1980  04DB  00B1               	movwf	(log@x+1)^(0+128)
  1981  04DC  1283               	bcf	3,5	;RP0=0, select bank0
  1982  04DD  1303               	bcf	3,6	;RP1=0, select bank0
  1983  04DE  083F               	movf	?___fldiv,w
  1984  04DF  1683               	bsf	3,5	;RP0=1, select bank1
  1985  04E0  1303               	bcf	3,6	;RP1=0, select bank1
  1986  04E1  00B0               	movwf	log@x^(0+128)
  1987  04E2  120A  158A  224F  120A  118A  	fcall	_log
  1988  04E7  1683               	bsf	3,5	;RP0=1, select bank1
  1989  04E8  1303               	bcf	3,6	;RP1=0, select bank1
  1990  04E9  0833               	movf	(?_log+3)^(0+128),w
  1991  04EA  00CE               	movwf	(_main$1095+3)^(0+128)
  1992  04EB  0832               	movf	(?_log+2)^(0+128),w
  1993  04EC  00CD               	movwf	(_main$1095+2)^(0+128)
  1994  04ED  0831               	movf	(?_log+1)^(0+128),w
  1995  04EE  00CC               	movwf	(_main$1095+1)^(0+128)
  1996  04EF  0830               	movf	?_log^(0+128),w
  1997  04F0  00CB               	movwf	_main$1095^(0+128)
  1998  04F1                     l3284:
  1999                           
  2000                           ;main.c: 67:         float tempC = (float)(4090 /(log((1025.0 * 10/ a - 10) / 10) + 4090
      +                           / 298.0) - 273.0);
  2001  04F1  3041               	movlw	65
  2002  04F2  1283               	bcf	3,5	;RP0=0, select bank0
  2003  04F3  1303               	bcf	3,6	;RP1=0, select bank0
  2004  04F4  00DC               	movwf	___fladd@b+3
  2005  04F5  305B               	movlw	91
  2006  04F6  00DB               	movwf	___fladd@b+2
  2007  04F7  3098               	movlw	152
  2008  04F8  00DA               	movwf	___fladd@b+1
  2009  04F9  30EA               	movlw	234
  2010  04FA  00D9               	movwf	___fladd@b
  2011  04FB  1683               	bsf	3,5	;RP0=1, select bank1
  2012  04FC  1303               	bcf	3,6	;RP1=0, select bank1
  2013  04FD  084E               	movf	(_main$1095+3)^(0+128),w
  2014  04FE  1283               	bcf	3,5	;RP0=0, select bank0
  2015  04FF  1303               	bcf	3,6	;RP1=0, select bank0
  2016  0500  00E0               	movwf	___fladd@a+3
  2017  0501  1683               	bsf	3,5	;RP0=1, select bank1
  2018  0502  1303               	bcf	3,6	;RP1=0, select bank1
  2019  0503  084D               	movf	(_main$1095+2)^(0+128),w
  2020  0504  1283               	bcf	3,5	;RP0=0, select bank0
  2021  0505  1303               	bcf	3,6	;RP1=0, select bank0
  2022  0506  00DF               	movwf	___fladd@a+2
  2023  0507  1683               	bsf	3,5	;RP0=1, select bank1
  2024  0508  1303               	bcf	3,6	;RP1=0, select bank1
  2025  0509  084C               	movf	(_main$1095+1)^(0+128),w
  2026  050A  1283               	bcf	3,5	;RP0=0, select bank0
  2027  050B  1303               	bcf	3,6	;RP1=0, select bank0
  2028  050C  00DE               	movwf	___fladd@a+1
  2029  050D  1683               	bsf	3,5	;RP0=1, select bank1
  2030  050E  1303               	bcf	3,6	;RP1=0, select bank1
  2031  050F  084B               	movf	_main$1095^(0+128),w
  2032  0510  1283               	bcf	3,5	;RP0=0, select bank0
  2033  0511  1303               	bcf	3,6	;RP1=0, select bank0
  2034  0512  00DD               	movwf	___fladd@a
  2035  0513  120A  158A  2578  120A  118A  	fcall	___fladd
  2036  0518  1283               	bcf	3,5	;RP0=0, select bank0
  2037  0519  1303               	bcf	3,6	;RP1=0, select bank0
  2038  051A  085C               	movf	?___fladd+3,w
  2039  051B  00C2               	movwf	___fldiv@a+3
  2040  051C  085B               	movf	?___fladd+2,w
  2041  051D  00C1               	movwf	___fldiv@a+2
  2042  051E  085A               	movf	?___fladd+1,w
  2043  051F  00C0               	movwf	___fldiv@a+1
  2044  0520  0859               	movf	?___fladd,w
  2045  0521  00BF               	movwf	___fldiv@a
  2046  0522  3045               	movlw	69
  2047  0523  00C6               	movwf	___fldiv@b+3
  2048  0524  307F               	movlw	127
  2049  0525  00C5               	movwf	___fldiv@b+2
  2050  0526  30A0               	movlw	160
  2051  0527  00C4               	movwf	___fldiv@b+1
  2052  0528  3000               	movlw	0
  2053  0529  00C3               	movwf	___fldiv@b
  2054  052A  120A  158A  239B  120A  118A  	fcall	___fldiv
  2055  052F  1283               	bcf	3,5	;RP0=0, select bank0
  2056  0530  1303               	bcf	3,6	;RP1=0, select bank0
  2057  0531  0842               	movf	?___fldiv+3,w
  2058  0532  1683               	bsf	3,5	;RP0=1, select bank1
  2059  0533  1303               	bcf	3,6	;RP1=0, select bank1
  2060  0534  00D2               	movwf	(_main$1096+3)^(0+128)
  2061  0535  1283               	bcf	3,5	;RP0=0, select bank0
  2062  0536  1303               	bcf	3,6	;RP1=0, select bank0
  2063  0537  0841               	movf	?___fldiv+2,w
  2064  0538  1683               	bsf	3,5	;RP0=1, select bank1
  2065  0539  1303               	bcf	3,6	;RP1=0, select bank1
  2066  053A  00D1               	movwf	(_main$1096+2)^(0+128)
  2067  053B  1283               	bcf	3,5	;RP0=0, select bank0
  2068  053C  1303               	bcf	3,6	;RP1=0, select bank0
  2069  053D  0840               	movf	?___fldiv+1,w
  2070  053E  1683               	bsf	3,5	;RP0=1, select bank1
  2071  053F  1303               	bcf	3,6	;RP1=0, select bank1
  2072  0540  00D0               	movwf	(_main$1096+1)^(0+128)
  2073  0541  1283               	bcf	3,5	;RP0=0, select bank0
  2074  0542  1303               	bcf	3,6	;RP1=0, select bank0
  2075  0543  083F               	movf	?___fldiv,w
  2076  0544  1683               	bsf	3,5	;RP0=1, select bank1
  2077  0545  1303               	bcf	3,6	;RP1=0, select bank1
  2078  0546  00CF               	movwf	_main$1096^(0+128)
  2079  0547                     l3286:
  2080                           
  2081                           ;main.c: 67:         float tempC = (float)(4090 /(log((1025.0 * 10/ a - 10) / 10) + 4090
      +                           / 298.0) - 273.0);
  2082  0547  30C3               	movlw	195
  2083  0548  1283               	bcf	3,5	;RP0=0, select bank0
  2084  0549  1303               	bcf	3,6	;RP1=0, select bank0
  2085  054A  00DC               	movwf	___fladd@b+3
  2086  054B  3088               	movlw	136
  2087  054C  00DB               	movwf	___fladd@b+2
  2088  054D  3080               	movlw	128
  2089  054E  00DA               	movwf	___fladd@b+1
  2090  054F  3000               	movlw	0
  2091  0550  00D9               	movwf	___fladd@b
  2092  0551  1683               	bsf	3,5	;RP0=1, select bank1
  2093  0552  1303               	bcf	3,6	;RP1=0, select bank1
  2094  0553  0852               	movf	(_main$1096+3)^(0+128),w
  2095  0554  1283               	bcf	3,5	;RP0=0, select bank0
  2096  0555  1303               	bcf	3,6	;RP1=0, select bank0
  2097  0556  00E0               	movwf	___fladd@a+3
  2098  0557  1683               	bsf	3,5	;RP0=1, select bank1
  2099  0558  1303               	bcf	3,6	;RP1=0, select bank1
  2100  0559  0851               	movf	(_main$1096+2)^(0+128),w
  2101  055A  1283               	bcf	3,5	;RP0=0, select bank0
  2102  055B  1303               	bcf	3,6	;RP1=0, select bank0
  2103  055C  00DF               	movwf	___fladd@a+2
  2104  055D  1683               	bsf	3,5	;RP0=1, select bank1
  2105  055E  1303               	bcf	3,6	;RP1=0, select bank1
  2106  055F  0850               	movf	(_main$1096+1)^(0+128),w
  2107  0560  1283               	bcf	3,5	;RP0=0, select bank0
  2108  0561  1303               	bcf	3,6	;RP1=0, select bank0
  2109  0562  00DE               	movwf	___fladd@a+1
  2110  0563  1683               	bsf	3,5	;RP0=1, select bank1
  2111  0564  1303               	bcf	3,6	;RP1=0, select bank1
  2112  0565  084F               	movf	_main$1096^(0+128),w
  2113  0566  1283               	bcf	3,5	;RP0=0, select bank0
  2114  0567  1303               	bcf	3,6	;RP1=0, select bank0
  2115  0568  00DD               	movwf	___fladd@a
  2116  0569  120A  158A  2578  120A  118A  	fcall	___fladd
  2117  056E  1283               	bcf	3,5	;RP0=0, select bank0
  2118  056F  1303               	bcf	3,6	;RP1=0, select bank0
  2119  0570  085C               	movf	?___fladd+3,w
  2120  0571  1683               	bsf	3,5	;RP0=1, select bank1
  2121  0572  1303               	bcf	3,6	;RP1=0, select bank1
  2122  0573  00D6               	movwf	(main@tempC+3)^(0+128)
  2123  0574  1283               	bcf	3,5	;RP0=0, select bank0
  2124  0575  1303               	bcf	3,6	;RP1=0, select bank0
  2125  0576  085B               	movf	?___fladd+2,w
  2126  0577  1683               	bsf	3,5	;RP0=1, select bank1
  2127  0578  1303               	bcf	3,6	;RP1=0, select bank1
  2128  0579  00D5               	movwf	(main@tempC+2)^(0+128)
  2129  057A  1283               	bcf	3,5	;RP0=0, select bank0
  2130  057B  1303               	bcf	3,6	;RP1=0, select bank0
  2131  057C  085A               	movf	?___fladd+1,w
  2132  057D  1683               	bsf	3,5	;RP0=1, select bank1
  2133  057E  1303               	bcf	3,6	;RP1=0, select bank1
  2134  057F  00D4               	movwf	(main@tempC+1)^(0+128)
  2135  0580  1283               	bcf	3,5	;RP0=0, select bank0
  2136  0581  1303               	bcf	3,6	;RP1=0, select bank0
  2137  0582  0859               	movf	?___fladd,w
  2138  0583  1683               	bsf	3,5	;RP0=1, select bank1
  2139  0584  1303               	bcf	3,6	;RP1=0, select bank1
  2140  0585  00D3               	movwf	main@tempC^(0+128)
  2141  0586                     l3288:
  2142                           
  2143                           ;main.c: 69:         char Temperature [10];;main.c: 70:         sprintf(Temperature, "%d
      +                          %cC", (int)tempC,0xdf );
  2144  0586  30B5               	movlw	(low ((STR_1-__stringbase)| (0+32768)))& (0+255)
  2145  0587  00B6               	movwf	??_main^(0+128)
  2146  0588  0836               	movf	??_main^(0+128),w
  2147  0589  1283               	bcf	3,5	;RP0=0, select bank0
  2148  058A  1303               	bcf	3,6	;RP1=0, select bank0
  2149  058B  00A0               	movwf	sprintf@f
  2150  058C  1683               	bsf	3,5	;RP0=1, select bank1
  2151  058D  1303               	bcf	3,6	;RP1=0, select bank1
  2152  058E  0856               	movf	(main@tempC+3)^(0+128),w
  2153  058F  00F3               	movwf	___fltol@f1+3
  2154  0590  0855               	movf	(main@tempC+2)^(0+128),w
  2155  0591  00F2               	movwf	___fltol@f1+2
  2156  0592  0854               	movf	(main@tempC+1)^(0+128),w
  2157  0593  00F1               	movwf	___fltol@f1+1
  2158  0594  0853               	movf	main@tempC^(0+128),w
  2159  0595  00F0               	movwf	___fltol@f1
  2160  0596  160A  118A  2550  120A  118A  	fcall	___fltol
  2161  059B  0871               	movf	?___fltol+1,w
  2162  059C  1283               	bcf	3,5	;RP0=0, select bank0
  2163  059D  1303               	bcf	3,6	;RP1=0, select bank0
  2164  059E  00A2               	movwf	?_sprintf+2
  2165  059F  0870               	movf	?___fltol,w
  2166  05A0  00A1               	movwf	?_sprintf+1
  2167  05A1  30DF               	movlw	223
  2168  05A2  00A3               	movwf	?_sprintf+3
  2169  05A3  3000               	movlw	0
  2170  05A4  00A4               	movwf	?_sprintf+4
  2171  05A5  30B9               	movlw	(low (main@Temperature| 0))& (0+255)
  2172  05A6  120A  158A  214C  120A  118A  	fcall	_sprintf
  2173  05AB                     l3290:
  2174                           
  2175                           ;main.c: 71:         LCD_Clear();
  2176  05AB  160A  118A  22C1  120A  118A  	fcall	_LCD_Clear
  2177  05B0                     l3292:
  2178                           
  2179                           ;main.c: 72:         LCD_String_xy(1,0,"TEMP:");
  2180  05B0  01F5               	clrf	LCD_String_xy@pos
  2181  05B1  30AF               	movlw	(low ((STR_2-__stringbase)| (0+32768)))& (0+255)
  2182  05B2  1683               	bsf	3,5	;RP0=1, select bank1
  2183  05B3  1303               	bcf	3,6	;RP1=0, select bank1
  2184  05B4  00B6               	movwf	??_main^(0+128)
  2185  05B5  0836               	movf	??_main^(0+128),w
  2186  05B6  00F6               	movwf	LCD_String_xy@msg
  2187  05B7  3001               	movlw	1
  2188  05B8  160A  118A  23C0  120A  118A  	fcall	_LCD_String_xy
  2189  05BD                     l3294:
  2190                           
  2191                           ;main.c: 73:         LCD_String(Temperature);
  2192  05BD  30B9               	movlw	(low (main@Temperature| 0))& (0+255)
  2193  05BE  00F3               	movwf	LCD_String@msg
  2194  05BF  3000               	movlw	0
  2195  05C0  00F4               	movwf	LCD_String@msg+1
  2196  05C1  160A  118A  2349  120A  118A  	fcall	_LCD_String
  2197  05C6                     l3296:
  2198                           
  2199                           ;main.c: 74:         LCD_String("  ");
  2200  05C6  30BB               	movlw	(low ((STR_3-__stringbase)| (0+32768)))& (0+255)
  2201  05C7  00F3               	movwf	LCD_String@msg
  2202  05C8  3080               	movlw	128
  2203  05C9  00F4               	movwf	LCD_String@msg+1
  2204  05CA  160A  118A  2349  120A  118A  	fcall	_LCD_String
  2205  05CF                     l3298:
  2206                           
  2207                           ;main.c: 75:         if ( tempC > 25){
  2208  05CF  3041               	movlw	65
  2209  05D0  00F3               	movwf	___flge@ff1+3
  2210  05D1  30C8               	movlw	200
  2211  05D2  00F2               	movwf	___flge@ff1+2
  2212  05D3  3000               	movlw	0
  2213  05D4  00F1               	movwf	___flge@ff1+1
  2214  05D5  3000               	movlw	0
  2215  05D6  00F0               	movwf	___flge@ff1
  2216  05D7  1683               	bsf	3,5	;RP0=1, select bank1
  2217  05D8  1303               	bcf	3,6	;RP1=0, select bank1
  2218  05D9  0856               	movf	(main@tempC+3)^(0+128),w
  2219  05DA  00F7               	movwf	___flge@ff2+3
  2220  05DB  0855               	movf	(main@tempC+2)^(0+128),w
  2221  05DC  00F6               	movwf	___flge@ff2+2
  2222  05DD  0854               	movf	(main@tempC+1)^(0+128),w
  2223  05DE  00F5               	movwf	___flge@ff2+1
  2224  05DF  0853               	movf	main@tempC^(0+128),w
  2225  05E0  00F4               	movwf	___flge@ff2
  2226  05E1  160A  118A  25CA  120A  118A  	fcall	___flge
  2227  05E6  1803               	btfsc	3,0
  2228  05E7  2DE9               	goto	u4361
  2229  05E8  2DEA               	goto	u4360
  2230  05E9                     u4361:
  2231  05E9  2DF8               	goto	l3302
  2232  05EA                     u4360:
  2233  05EA                     l3300:
  2234                           
  2235                           ;main.c: 77:             LCD_String_xy(2,0,"Disminuir Temp");
  2236  05EA  01F5               	clrf	LCD_String_xy@pos
  2237  05EB  306B               	movlw	(low ((STR_4-__stringbase)| (0+32768)))& (0+255)
  2238  05EC  1683               	bsf	3,5	;RP0=1, select bank1
  2239  05ED  1303               	bcf	3,6	;RP1=0, select bank1
  2240  05EE  00B6               	movwf	??_main^(0+128)
  2241  05EF  0836               	movf	??_main^(0+128),w
  2242  05F0  00F6               	movwf	LCD_String_xy@msg
  2243  05F1  3002               	movlw	2
  2244  05F2  160A  118A  23C0  120A  118A  	fcall	_LCD_String_xy
  2245                           
  2246                           ;main.c: 79:         }
  2247  05F7  2E2E               	goto	l3308
  2248  05F8                     l3302:
  2249  05F8  1683               	bsf	3,5	;RP0=1, select bank1
  2250  05F9  1303               	bcf	3,6	;RP1=0, select bank1
  2251  05FA  0856               	movf	(main@tempC+3)^(0+128),w
  2252  05FB  00F3               	movwf	___flge@ff1+3
  2253  05FC  0855               	movf	(main@tempC+2)^(0+128),w
  2254  05FD  00F2               	movwf	___flge@ff1+2
  2255  05FE  0854               	movf	(main@tempC+1)^(0+128),w
  2256  05FF  00F1               	movwf	___flge@ff1+1
  2257  0600  0853               	movf	main@tempC^(0+128),w
  2258  0601  00F0               	movwf	___flge@ff1
  2259  0602  3041               	movlw	65
  2260  0603  00F7               	movwf	___flge@ff2+3
  2261  0604  3090               	movlw	144
  2262  0605  00F6               	movwf	___flge@ff2+2
  2263  0606  3000               	movlw	0
  2264  0607  00F5               	movwf	___flge@ff2+1
  2265  0608  3000               	movlw	0
  2266  0609  00F4               	movwf	___flge@ff2
  2267  060A  160A  118A  25CA  120A  118A  	fcall	___flge
  2268  060F  1803               	btfsc	3,0
  2269  0610  2E12               	goto	u4371
  2270  0611  2E13               	goto	u4370
  2271  0612                     u4371:
  2272  0612  2E21               	goto	l3306
  2273  0613                     u4370:
  2274  0613                     l3304:
  2275                           
  2276                           ;main.c: 82:             LCD_String_xy(2,0,"Aumentar Temp");
  2277  0613  01F5               	clrf	LCD_String_xy@pos
  2278  0614  3088               	movlw	(low ((STR_5-__stringbase)| (0+32768)))& (0+255)
  2279  0615  1683               	bsf	3,5	;RP0=1, select bank1
  2280  0616  1303               	bcf	3,6	;RP1=0, select bank1
  2281  0617  00B6               	movwf	??_main^(0+128)
  2282  0618  0836               	movf	??_main^(0+128),w
  2283  0619  00F6               	movwf	LCD_String_xy@msg
  2284  061A  3002               	movlw	2
  2285  061B  160A  118A  23C0  120A  118A  	fcall	_LCD_String_xy
  2286                           
  2287                           ;main.c: 84:         }
  2288  0620  2E2E               	goto	l3308
  2289  0621                     l3306:
  2290                           
  2291                           ;main.c: 87:             LCD_String_xy(2,0,"Temp Adecuada");
  2292  0621  01F5               	clrf	LCD_String_xy@pos
  2293  0622  307A               	movlw	(low ((STR_6-__stringbase)| (0+32768)))& (0+255)
  2294  0623  1683               	bsf	3,5	;RP0=1, select bank1
  2295  0624  1303               	bcf	3,6	;RP1=0, select bank1
  2296  0625  00B6               	movwf	??_main^(0+128)
  2297  0626  0836               	movf	??_main^(0+128),w
  2298  0627  00F6               	movwf	LCD_String_xy@msg
  2299  0628  3002               	movlw	2
  2300  0629  160A  118A  23C0  120A  118A  	fcall	_LCD_String_xy
  2301  062E                     l3308:
  2302                           
  2303                           ;main.c: 90:         _delay((unsigned long)((3000)*(8000000/4000.0)));
  2304  062E  301F               	movlw	31
  2305  062F  1683               	bsf	3,5	;RP0=1, select bank1
  2306  0630  1303               	bcf	3,6	;RP1=0, select bank1
  2307  0631  00B8               	movwf	(??_main^(0+128)+2)
  2308  0632  3071               	movlw	113
  2309  0633  00B7               	movwf	(??_main^(0+128)+1)
  2310  0634  301D               	movlw	29
  2311  0635  00B6               	movwf	??_main^(0+128)
  2312  0636                     u4487:
  2313  0636  0BB6               	decfsz	??_main^(0+128),f
  2314  0637  2E36               	goto	u4487
  2315  0638  0BB7               	decfsz	(??_main^(0+128)+1),f
  2316  0639  2E36               	goto	u4487
  2317  063A  0BB8               	decfsz	(??_main^(0+128)+2),f
  2318  063B  2E36               	goto	u4487
  2319  063C  2E3D               	nop2
  2320  063D                     l3310:
  2321                           
  2322                           ;main.c: 94:         LCD_Clear();
  2323  063D  160A  118A  22C1  120A  118A  	fcall	_LCD_Clear
  2324  0642                     l3312:
  2325                           
  2326                           ;main.c: 95:         LCD_String_xy(0,0,"Press a Key");
  2327  0642  01F5               	clrf	LCD_String_xy@pos
  2328  0643  30A3               	movlw	(low ((STR_7-__stringbase)| (0+32768)))& (0+255)
  2329  0644  1683               	bsf	3,5	;RP0=1, select bank1
  2330  0645  1303               	bcf	3,6	;RP1=0, select bank1
  2331  0646  00B6               	movwf	??_main^(0+128)
  2332  0647  0836               	movf	??_main^(0+128),w
  2333  0648  00F6               	movwf	LCD_String_xy@msg
  2334  0649  3000               	movlw	0
  2335  064A  160A  118A  23C0  120A  118A  	fcall	_LCD_String_xy
  2336  064F                     l3314:
  2337                           
  2338                           ;main.c: 96:         LCD_Command(0xC0);
  2339  064F  30C0               	movlw	192
  2340  0650  160A  118A  2418  120A  118A  	fcall	_LCD_Command
  2341  0655                     l3316:
  2342                           
  2343                           ;main.c: 99:             key = keypad_getkey();
  2344  0655  120A  158A  204A  120A  118A  	fcall	_keypad_getkey
  2345  065A  1683               	bsf	3,5	;RP0=1, select bank1
  2346  065B  1303               	bcf	3,6	;RP1=0, select bank1
  2347  065C  00B6               	movwf	??_main^(0+128)
  2348  065D  0836               	movf	??_main^(0+128),w
  2349  065E  00EE               	movwf	_key^(0+128)
  2350  065F                     l3318:
  2351                           
  2352                           ;main.c: 100:             if(key != 0){
  2353  065F  086E               	movf	_key^(0+128),w
  2354  0660  1903               	btfsc	3,2
  2355  0661  2E63               	goto	u4381
  2356  0662  2E64               	goto	u4380
  2357  0663                     u4381:
  2358  0663  2E78               	goto	l3326
  2359  0664                     u4380:
  2360  0664                     l3320:
  2361                           
  2362                           ;main.c: 102:                 LCD_Char(key);
  2363  0664  086E               	movf	_key^(0+128),w
  2364  0665  160A  118A  244E  120A  118A  	fcall	_LCD_Char
  2365  066A                     l3322:
  2366                           
  2367                           ;main.c: 103:                 pass_user[idx++] = key;
  2368  066A  1683               	bsf	3,5	;RP0=1, select bank1
  2369  066B  1303               	bcf	3,6	;RP1=0, select bank1
  2370  066C  086E               	movf	_key^(0+128),w
  2371  066D  00B6               	movwf	??_main^(0+128)
  2372  066E  0866               	movf	_idx^(0+128),w
  2373  066F  3EE7               	addlw	(low (_pass_user| 0))& (0+255)
  2374  0670  0084               	movwf	4
  2375  0671  0836               	movf	??_main^(0+128),w
  2376  0672  1383               	bcf	3,7	;select IRP bank1
  2377  0673  0080               	movwf	0
  2378  0674                     l3324:
  2379  0674  3001               	movlw	1
  2380  0675  00B6               	movwf	??_main^(0+128)
  2381  0676  0836               	movf	??_main^(0+128),w
  2382  0677  07E6               	addwf	_idx^(0+128),f
  2383  0678                     l3326:
  2384                           
  2385                           ;main.c: 105:             _delay((unsigned long)((100)*(8000000/4000.0)));
  2386  0678  3002               	movlw	2
  2387  0679  1683               	bsf	3,5	;RP0=1, select bank1
  2388  067A  1303               	bcf	3,6	;RP1=0, select bank1
  2389  067B  00B8               	movwf	(??_main^(0+128)+2)
  2390  067C  3004               	movlw	4
  2391  067D  00B7               	movwf	(??_main^(0+128)+1)
  2392  067E  30B9               	movlw	185
  2393  067F  00B6               	movwf	??_main^(0+128)
  2394  0680                     u4497:
  2395  0680  0BB6               	decfsz	??_main^(0+128),f
  2396  0681  2E80               	goto	u4497
  2397  0682  0BB7               	decfsz	(??_main^(0+128)+1),f
  2398  0683  2E80               	goto	u4497
  2399  0684  0BB8               	decfsz	(??_main^(0+128)+2),f
  2400  0685  2E80               	goto	u4497
  2401  0686  2E87               	nop2
  2402  0687                     l3328:
  2403                           
  2404                           ;main.c: 106:         }while(idx < 5);
  2405  0687  3005               	movlw	5
  2406  0688  1683               	bsf	3,5	;RP0=1, select bank1
  2407  0689  1303               	bcf	3,6	;RP1=0, select bank1
  2408  068A  0266               	subwf	_idx^(0+128),w
  2409  068B  1C03               	skipc
  2410  068C  2E8E               	goto	u4391
  2411  068D  2E8F               	goto	u4390
  2412  068E                     u4391:
  2413  068E  2E55               	goto	l3316
  2414  068F                     u4390:
  2415  068F                     l3330:
  2416                           
  2417                           ;main.c: 109:         if(strncmp(pass_user,inputPassword,4)==0){
  2418  068F  302F               	movlw	(low ((_inputPassword-__stringbase)| (0+32768)))& (0+255)
  2419  0690  00B6               	movwf	??_main^(0+128)
  2420  0691  0836               	movf	??_main^(0+128),w
  2421  0692  00F0               	movwf	strncmp@s2
  2422  0693  3004               	movlw	4
  2423  0694  00F1               	movwf	strncmp@len
  2424  0695  3000               	movlw	0
  2425  0696  00F2               	movwf	strncmp@len+1
  2426  0697  30E7               	movlw	(low (_pass_user| 0))& (0+255)
  2427  0698  120A  158A  2004  120A  118A  	fcall	_strncmp
  2428  069D  0870               	movf	?_strncmp,w
  2429  069E  0471               	iorwf	?_strncmp+1,w
  2430  069F  1D03               	btfss	3,2
  2431  06A0  2EA2               	goto	u4401
  2432  06A1  2EA3               	goto	u4400
  2433  06A2                     u4401:
  2434  06A2  2F6F               	goto	l3378
  2435  06A3                     u4400:
  2436  06A3                     l3332:
  2437                           
  2438                           ;main.c: 110:             LCD_Clear();
  2439  06A3  160A  118A  22C1  120A  118A  	fcall	_LCD_Clear
  2440  06A8                     l3334:
  2441                           
  2442                           ;main.c: 113:             LCD_String_xy(0,0,"Clave Correcta" );
  2443  06A8  01F5               	clrf	LCD_String_xy@pos
  2444  06A9  305C               	movlw	(low ((STR_8-__stringbase)| (0+32768)))& (0+255)
  2445  06AA  1683               	bsf	3,5	;RP0=1, select bank1
  2446  06AB  1303               	bcf	3,6	;RP1=0, select bank1
  2447  06AC  00B6               	movwf	??_main^(0+128)
  2448  06AD  0836               	movf	??_main^(0+128),w
  2449  06AE  00F6               	movwf	LCD_String_xy@msg
  2450  06AF  3000               	movlw	0
  2451  06B0  160A  118A  23C0  120A  118A  	fcall	_LCD_String_xy
  2452  06B5                     l3336:
  2453                           
  2454                           ;main.c: 114:             _delay((unsigned long)((200)*(8000000/4000.0)));
  2455  06B5  3003               	movlw	3
  2456  06B6  1683               	bsf	3,5	;RP0=1, select bank1
  2457  06B7  1303               	bcf	3,6	;RP1=0, select bank1
  2458  06B8  00B8               	movwf	(??_main^(0+128)+2)
  2459  06B9  3008               	movlw	8
  2460  06BA  00B7               	movwf	(??_main^(0+128)+1)
  2461  06BB  3076               	movlw	118
  2462  06BC  00B6               	movwf	??_main^(0+128)
  2463  06BD                     u4507:
  2464  06BD  0BB6               	decfsz	??_main^(0+128),f
  2465  06BE  2EBD               	goto	u4507
  2466  06BF  0BB7               	decfsz	(??_main^(0+128)+1),f
  2467  06C0  2EBD               	goto	u4507
  2468  06C1  0BB8               	decfsz	(??_main^(0+128)+2),f
  2469  06C2  2EBD               	goto	u4507
  2470  06C3  0000               	nop
  2471  06C4                     l3338:
  2472                           
  2473                           ;main.c: 118:             if (LeerMicrofono() == 1){
  2474  06C4  160A  118A  22E1  120A  118A  	fcall	_LeerMicrofono
  2475  06C9  0370               	decf	?_LeerMicrofono,w
  2476  06CA  0471               	iorwf	?_LeerMicrofono+1,w
  2477  06CB  1D03               	btfss	3,2
  2478  06CC  2ECE               	goto	u4411
  2479  06CD  2ECF               	goto	u4410
  2480  06CE                     u4411:
  2481  06CE  2ED3               	goto	l242
  2482  06CF                     u4410:
  2483  06CF                     l3340:
  2484                           
  2485                           ;main.c: 119:                 PORTCbits.RC6=1;
  2486  06CF  1283               	bcf	3,5	;RP0=0, select bank0
  2487  06D0  1303               	bcf	3,6	;RP1=0, select bank0
  2488  06D1  1707               	bsf	7,6	;volatile
  2489                           
  2490                           ;main.c: 120:             }
  2491  06D2  2EDA               	goto	l3344
  2492  06D3                     l242:	
  2493                           ;main.c: 121:             else if (PORTCbits.RC6 == 1){
  2494                           
  2495  06D3  1283               	bcf	3,5	;RP0=0, select bank0
  2496  06D4  1303               	bcf	3,6	;RP1=0, select bank0
  2497  06D5  1F07               	btfss	7,6	;volatile
  2498  06D6  2ED8               	goto	u4421
  2499  06D7  2ED9               	goto	u4420
  2500  06D8                     u4421:
  2501  06D8  2EDA               	goto	l3344
  2502  06D9                     u4420:
  2503  06D9                     l3342:
  2504                           
  2505                           ;main.c: 122:                 PORTCbits.RC6=0;
  2506  06D9  1307               	bcf	7,6	;volatile
  2507  06DA                     l3344:
  2508                           
  2509                           ;main.c: 124:             idx=0;
  2510  06DA  1683               	bsf	3,5	;RP0=1, select bank1
  2511  06DB  1303               	bcf	3,6	;RP1=0, select bank1
  2512  06DC  01E6               	clrf	_idx^(0+128)
  2513  06DD                     l3346:
  2514                           
  2515                           ;main.c: 125:             LCD_Clear();
  2516  06DD  160A  118A  22C1  120A  118A  	fcall	_LCD_Clear
  2517  06E2                     l3348:
  2518                           
  2519                           ;main.c: 126:             LCD_String_xy(0,0,"Press a Key.");
  2520  06E2  01F5               	clrf	LCD_String_xy@pos
  2521  06E3  3096               	movlw	(low ((STR_9-__stringbase)| (0+32768)))& (0+255)
  2522  06E4  1683               	bsf	3,5	;RP0=1, select bank1
  2523  06E5  1303               	bcf	3,6	;RP1=0, select bank1
  2524  06E6  00B6               	movwf	??_main^(0+128)
  2525  06E7  0836               	movf	??_main^(0+128),w
  2526  06E8  00F6               	movwf	LCD_String_xy@msg
  2527  06E9  3000               	movlw	0
  2528  06EA  160A  118A  23C0  120A  118A  	fcall	_LCD_String_xy
  2529  06EF                     l3350:
  2530                           
  2531                           ;main.c: 127:             LCD_Command(0xC0);
  2532  06EF  30C0               	movlw	192
  2533  06F0  160A  118A  2418  120A  118A  	fcall	_LCD_Command
  2534  06F5                     l3352:
  2535                           
  2536                           ;main.c: 130:                 key = keypad_getkey();
  2537  06F5  120A  158A  204A  120A  118A  	fcall	_keypad_getkey
  2538  06FA  1683               	bsf	3,5	;RP0=1, select bank1
  2539  06FB  1303               	bcf	3,6	;RP1=0, select bank1
  2540  06FC  00B6               	movwf	??_main^(0+128)
  2541  06FD  0836               	movf	??_main^(0+128),w
  2542  06FE  00EE               	movwf	_key^(0+128)
  2543  06FF                     l3354:
  2544                           
  2545                           ;main.c: 131:                 if(key != 0){
  2546  06FF  086E               	movf	_key^(0+128),w
  2547  0700  1903               	btfsc	3,2
  2548  0701  2F03               	goto	u4431
  2549  0702  2F04               	goto	u4430
  2550  0703                     u4431:
  2551  0703  2F18               	goto	l3362
  2552  0704                     u4430:
  2553  0704                     l3356:
  2554                           
  2555                           ;main.c: 133:                     LCD_Char(key);
  2556  0704  086E               	movf	_key^(0+128),w
  2557  0705  160A  118A  244E  120A  118A  	fcall	_LCD_Char
  2558  070A                     l3358:
  2559                           
  2560                           ;main.c: 134:                     pass_user[idx++] = key;
  2561  070A  1683               	bsf	3,5	;RP0=1, select bank1
  2562  070B  1303               	bcf	3,6	;RP1=0, select bank1
  2563  070C  086E               	movf	_key^(0+128),w
  2564  070D  00B6               	movwf	??_main^(0+128)
  2565  070E  0866               	movf	_idx^(0+128),w
  2566  070F  3EE7               	addlw	(low (_pass_user| 0))& (0+255)
  2567  0710  0084               	movwf	4
  2568  0711  0836               	movf	??_main^(0+128),w
  2569  0712  1383               	bcf	3,7	;select IRP bank1
  2570  0713  0080               	movwf	0
  2571  0714                     l3360:
  2572  0714  3001               	movlw	1
  2573  0715  00B6               	movwf	??_main^(0+128)
  2574  0716  0836               	movf	??_main^(0+128),w
  2575  0717  07E6               	addwf	_idx^(0+128),f
  2576  0718                     l3362:
  2577                           
  2578                           ;main.c: 136:                 _delay((unsigned long)((100)*(8000000/4000.0)));
  2579  0718  3002               	movlw	2
  2580  0719  1683               	bsf	3,5	;RP0=1, select bank1
  2581  071A  1303               	bcf	3,6	;RP1=0, select bank1
  2582  071B  00B8               	movwf	(??_main^(0+128)+2)
  2583  071C  3004               	movlw	4
  2584  071D  00B7               	movwf	(??_main^(0+128)+1)
  2585  071E  30B9               	movlw	185
  2586  071F  00B6               	movwf	??_main^(0+128)
  2587  0720                     u4517:
  2588  0720  0BB6               	decfsz	??_main^(0+128),f
  2589  0721  2F20               	goto	u4517
  2590  0722  0BB7               	decfsz	(??_main^(0+128)+1),f
  2591  0723  2F20               	goto	u4517
  2592  0724  0BB8               	decfsz	(??_main^(0+128)+2),f
  2593  0725  2F20               	goto	u4517
  2594  0726  2F27               	nop2
  2595  0727                     l3364:
  2596                           
  2597                           ;main.c: 137:             }while(idx < 2);
  2598  0727  3002               	movlw	2
  2599  0728  1683               	bsf	3,5	;RP0=1, select bank1
  2600  0729  1303               	bcf	3,6	;RP1=0, select bank1
  2601  072A  0266               	subwf	_idx^(0+128),w
  2602  072B  1C03               	skipc
  2603  072C  2F2E               	goto	u4441
  2604  072D  2F2F               	goto	u4440
  2605  072E                     u4441:
  2606  072E  2EC4               	goto	l3338
  2607  072F                     u4440:
  2608  072F                     l3366:
  2609                           
  2610                           ;main.c: 139:             if(strncmp(pass_user2,exitPassword,4)==0){
  2611  072F  3034               	movlw	(low ((_exitPassword-__stringbase)| (0+32768)))& (0+255)
  2612  0730  00B6               	movwf	??_main^(0+128)
  2613  0731  0836               	movf	??_main^(0+128),w
  2614  0732  00F0               	movwf	strncmp@s2
  2615  0733  3004               	movlw	4
  2616  0734  00F1               	movwf	strncmp@len
  2617  0735  3000               	movlw	0
  2618  0736  00F2               	movwf	strncmp@len+1
  2619  0737  30EC               	movlw	(low (_pass_user2| 0))& (0+255)
  2620  0738  120A  158A  2004  120A  118A  	fcall	_strncmp
  2621  073D  0870               	movf	?_strncmp,w
  2622  073E  0471               	iorwf	?_strncmp+1,w
  2623  073F  1D03               	btfss	3,2
  2624  0740  2F42               	goto	u4451
  2625  0741  2F43               	goto	u4450
  2626  0742                     u4451:
  2627  0742  2F56               	goto	l3372
  2628  0743                     u4450:
  2629  0743                     l3368:
  2630                           
  2631                           ;main.c: 140:                 LCD_Clear();
  2632  0743  160A  118A  22C1  120A  118A  	fcall	_LCD_Clear
  2633  0748                     l3370:
  2634                           
  2635                           ;main.c: 141:                 LCD_String_xy(0,0,"Clave Correcta" );
  2636  0748  01F5               	clrf	LCD_String_xy@pos
  2637  0749  305C               	movlw	(low ((STR_8-__stringbase)| (0+32768)))& (0+255)
  2638  074A  1683               	bsf	3,5	;RP0=1, select bank1
  2639  074B  1303               	bcf	3,6	;RP1=0, select bank1
  2640  074C  00B6               	movwf	??_main^(0+128)
  2641  074D  0836               	movf	??_main^(0+128),w
  2642  074E  00F6               	movwf	LCD_String_xy@msg
  2643  074F  3000               	movlw	0
  2644  0750  160A  118A  23C0  120A  118A  	fcall	_LCD_String_xy
  2645                           
  2646                           ;main.c: 142:             }
  2647  0755  2F96               	goto	l3386
  2648  0756                     l3372:
  2649                           
  2650                           ;main.c: 145:                 counter_try = counter_try++;
  2651  0756  160A  118A  22C1  120A  118A  	fcall	_LCD_Clear
  2652  075B                     l3374:
  2653  075B  3001               	movlw	1
  2654  075C  1683               	bsf	3,5	;RP0=1, select bank1
  2655  075D  1303               	bcf	3,6	;RP1=0, select bank1
  2656  075E  07DD               	addwf	_counter_try^(0+128),f
  2657  075F  1803               	skipnc
  2658  0760  0ADE               	incf	(_counter_try+1)^(0+128),f
  2659  0761  3000               	movlw	0
  2660  0762  07DE               	addwf	(_counter_try+1)^(0+128),f
  2661  0763                     l3376:
  2662                           
  2663                           ;main.c: 146:                 LCD_String_xy(0,0,"Clave incorrecta" );
  2664  0763  01F5               	clrf	LCD_String_xy@pos
  2665  0764  304B               	movlw	(low ((STR_11-__stringbase)| (0+32768)))& (0+255)
  2666  0765  00B6               	movwf	??_main^(0+128)
  2667  0766  0836               	movf	??_main^(0+128),w
  2668  0767  00F6               	movwf	LCD_String_xy@msg
  2669  0768  3000               	movlw	0
  2670  0769  160A  118A  23C0  120A  118A  	fcall	_LCD_String_xy
  2671  076E  2F96               	goto	l3386
  2672  076F                     l3378:
  2673                           
  2674                           ;main.c: 151:                 counter_try = counter_try++;
  2675  076F  160A  118A  22C1  120A  118A  	fcall	_LCD_Clear
  2676  0774                     l3380:
  2677  0774  3001               	movlw	1
  2678  0775  1683               	bsf	3,5	;RP0=1, select bank1
  2679  0776  1303               	bcf	3,6	;RP1=0, select bank1
  2680  0777  07DD               	addwf	_counter_try^(0+128),f
  2681  0778  1803               	skipnc
  2682  0779  0ADE               	incf	(_counter_try+1)^(0+128),f
  2683  077A  3000               	movlw	0
  2684  077B  07DE               	addwf	(_counter_try+1)^(0+128),f
  2685  077C                     l3382:
  2686                           
  2687                           ;main.c: 152:                 LCD_String_xy(0,0,"Clave incorrecta" );
  2688  077C  01F5               	clrf	LCD_String_xy@pos
  2689  077D  304B               	movlw	(low ((STR_11-__stringbase)| (0+32768)))& (0+255)
  2690  077E  00B6               	movwf	??_main^(0+128)
  2691  077F  0836               	movf	??_main^(0+128),w
  2692  0780  00F6               	movwf	LCD_String_xy@msg
  2693  0781  3000               	movlw	0
  2694  0782  160A  118A  23C0  120A  118A  	fcall	_LCD_String_xy
  2695  0787                     l3384:
  2696                           
  2697                           ;main.c: 153:                 _delay((unsigned long)((200)*(8000000/4000.0)));
  2698  0787  3003               	movlw	3
  2699  0788  1683               	bsf	3,5	;RP0=1, select bank1
  2700  0789  1303               	bcf	3,6	;RP1=0, select bank1
  2701  078A  00B8               	movwf	(??_main^(0+128)+2)
  2702  078B  3008               	movlw	8
  2703  078C  00B7               	movwf	(??_main^(0+128)+1)
  2704  078D  3076               	movlw	118
  2705  078E  00B6               	movwf	??_main^(0+128)
  2706  078F                     u4527:
  2707  078F  0BB6               	decfsz	??_main^(0+128),f
  2708  0790  2F8F               	goto	u4527
  2709  0791  0BB7               	decfsz	(??_main^(0+128)+1),f
  2710  0792  2F8F               	goto	u4527
  2711  0793  0BB8               	decfsz	(??_main^(0+128)+2),f
  2712  0794  2F8F               	goto	u4527
  2713  0795  0000               	nop
  2714  0796                     l3386:
  2715                           
  2716                           ;main.c: 155:         if (counter_try == 3){
  2717  0796  3003               	movlw	3
  2718  0797  1683               	bsf	3,5	;RP0=1, select bank1
  2719  0798  1303               	bcf	3,6	;RP1=0, select bank1
  2720  0799  065D               	xorwf	_counter_try^(0+128),w
  2721  079A  045E               	iorwf	(_counter_try+1)^(0+128),w
  2722  079B  1D03               	btfss	3,2
  2723  079C  2F9E               	goto	u4461
  2724  079D  2F9F               	goto	u4460
  2725  079E                     u4461:
  2726  079E  2FBF               	goto	l3394
  2727  079F                     u4460:
  2728  079F                     l3388:
  2729                           
  2730                           ;main.c: 156:             LCD_Clear();
  2731  079F  160A  118A  22C1  120A  118A  	fcall	_LCD_Clear
  2732  07A4                     l3390:
  2733                           
  2734                           ;main.c: 157:             LCD_String_xy(0,0,"Ingreso No Permitido");
  2735  07A4  01F5               	clrf	LCD_String_xy@pos
  2736  07A5  3036               	movlw	(low ((STR_13-__stringbase)| (0+32768)))& (0+255)
  2737  07A6  1683               	bsf	3,5	;RP0=1, select bank1
  2738  07A7  1303               	bcf	3,6	;RP1=0, select bank1
  2739  07A8  00B6               	movwf	??_main^(0+128)
  2740  07A9  0836               	movf	??_main^(0+128),w
  2741  07AA  00F6               	movwf	LCD_String_xy@msg
  2742  07AB  3000               	movlw	0
  2743  07AC  160A  118A  23C0  120A  118A  	fcall	_LCD_String_xy
  2744  07B1                     l3392:
  2745                           
  2746                           ;main.c: 158:             _delay((unsigned long)((5000)*(8000000/4000.0)));
  2747  07B1  3033               	movlw	51
  2748  07B2  1683               	bsf	3,5	;RP0=1, select bank1
  2749  07B3  1303               	bcf	3,6	;RP1=0, select bank1
  2750  07B4  00B8               	movwf	(??_main^(0+128)+2)
  2751  07B5  30BB               	movlw	187
  2752  07B6  00B7               	movwf	(??_main^(0+128)+1)
  2753  07B7  30DF               	movlw	223
  2754  07B8  00B6               	movwf	??_main^(0+128)
  2755  07B9                     u4537:
  2756  07B9  0BB6               	decfsz	??_main^(0+128),f
  2757  07BA  2FB9               	goto	u4537
  2758  07BB  0BB7               	decfsz	(??_main^(0+128)+1),f
  2759  07BC  2FB9               	goto	u4537
  2760  07BD  0BB8               	decfsz	(??_main^(0+128)+2),f
  2761  07BE  2FB9               	goto	u4537
  2762  07BF                     l3394:
  2763                           
  2764                           ;main.c: 161:         _delay((unsigned long)((2000)*(8000000/4000.0)));
  2765  07BF  3015               	movlw	21
  2766  07C0  1683               	bsf	3,5	;RP0=1, select bank1
  2767  07C1  1303               	bcf	3,6	;RP1=0, select bank1
  2768  07C2  00B8               	movwf	(??_main^(0+128)+2)
  2769  07C3  304B               	movlw	75
  2770  07C4  00B7               	movwf	(??_main^(0+128)+1)
  2771  07C5  30BD               	movlw	189
  2772  07C6  00B6               	movwf	??_main^(0+128)
  2773  07C7                     u4547:
  2774  07C7  0BB6               	decfsz	??_main^(0+128),f
  2775  07C8  2FC7               	goto	u4547
  2776  07C9  0BB7               	decfsz	(??_main^(0+128)+1),f
  2777  07CA  2FC7               	goto	u4547
  2778  07CB  0BB8               	decfsz	(??_main^(0+128)+2),f
  2779  07CC  2FC7               	goto	u4547
  2780  07CD  2FCE               	nop2
  2781  07CE                     l3396:
  2782                           
  2783                           ;main.c: 162:         LCD_Clear();
  2784  07CE  160A  118A  22C1  120A  118A  	fcall	_LCD_Clear
  2785  07D3                     l3398:
  2786                           
  2787                           ;main.c: 163:         idx = 0;
  2788  07D3  1683               	bsf	3,5	;RP0=1, select bank1
  2789  07D4  1303               	bcf	3,6	;RP1=0, select bank1
  2790  07D5  01E6               	clrf	_idx^(0+128)
  2791  07D6  2BF1               	goto	l3260
  2792  07D7  120A  118A  2800   	ljmp	start
  2793  07DA                     __end_of_main:
  2794                           
  2795                           	psect	text1
  2796  0804                     __ptext1:	
  2797 ;; *************** function _strncmp *****************
  2798 ;; Defined at:
  2799 ;;		line 4 in file "C:\Program Files\Microchip\xc8\v2.36\pic\sources\c90\common\strncmp.c"
  2800 ;; Parameters:    Size  Location     Type
  2801 ;;  s1              1    wreg     PTR const unsigned char 
  2802 ;;		 -> pass_user2(2), pass_user(5), 
  2803 ;;  s2              1    0[COMMON] PTR const unsigned char 
  2804 ;;		 -> exitPassword(2), inputPassword(5), 
  2805 ;;  len             2    1[COMMON] unsigned int 
  2806 ;; Auto vars:     Size  Location     Type
  2807 ;;  s1              1    5[COMMON] PTR const unsigned char 
  2808 ;;		 -> pass_user2(2), pass_user(5), 
  2809 ;; Return value:  Size  Location     Type
  2810 ;;                  2    0[COMMON] int 
  2811 ;; Registers used:
  2812 ;;		wreg, fsr0l, fsr0h, status,2, status,0, pclath
  2813 ;; Tracked objects:
  2814 ;;		On entry : 0/0
  2815 ;;		On exit  : 0/0
  2816 ;;		Unchanged: 0/0
  2817 ;; Data sizes:     COMMON   BANK0   BANK1   BANK3   BANK2
  2818 ;;      Params:         3       0       0       0       0
  2819 ;;      Locals:         1       0       0       0       0
  2820 ;;      Temps:          2       0       0       0       0
  2821 ;;      Totals:         6       0       0       0       0
  2822 ;;Total ram usage:        6 bytes
  2823 ;; Hardware stack levels used: 2
  2824 ;; This function calls:
  2825 ;;		Nothing
  2826 ;; This function is called by:
  2827 ;;		_main
  2828 ;; This function uses a non-reentrant model
  2829 ;;
  2830                           
  2831  0804                     _strncmp:	
  2832                           ;psect for function _strncmp
  2833                           
  2834                           
  2835                           ;incstack = 0
  2836                           ; Regs used in _strncmp: [wreg-fsr0h+status,2+status,0+pclath]
  2837                           ;strncmp@s1 stored from wreg
  2838  0804  00F5               	movwf	strncmp@s1
  2839  0805                     l3056:
  2840  0805  2839               	goto	l896
  2841  0806                     l3058:
  2842  0806  0875               	movf	strncmp@s1,w
  2843  0807  0084               	movwf	4
  2844  0808  1383               	bcf	3,7	;select IRP bank0
  2845  0809  0800               	movf	0,w
  2846  080A  1903               	btfsc	3,2
  2847  080B  280D               	goto	u3921
  2848  080C  280E               	goto	u3920
  2849  080D                     u3921:
  2850  080D  281E               	goto	l3062
  2851  080E                     u3920:
  2852  080E                     l3060:
  2853  080E  0870               	movf	strncmp@s2,w
  2854  080F  0084               	movwf	4
  2855  0810  160A  118A  200A  120A  158A  	fcall	stringdir
  2856  0815  00F3               	movwf	??_strncmp
  2857  0816  0875               	movf	strncmp@s1,w
  2858  0817  0084               	movwf	4
  2859  0818  0800               	movf	0,w
  2860  0819  0673               	xorwf	??_strncmp,w
  2861  081A  1903               	skipnz
  2862  081B  281D               	goto	u3931
  2863  081C  281E               	goto	u3930
  2864  081D                     u3931:
  2865  081D  2831               	goto	l3066
  2866  081E                     u3930:
  2867  081E                     l3062:
  2868  081E  0870               	movf	strncmp@s2,w
  2869  081F  0084               	movwf	4
  2870  0820  160A  118A  200A  120A  158A  	fcall	stringdir
  2871  0825  00F3               	movwf	??_strncmp
  2872  0826  0875               	movf	strncmp@s1,w
  2873  0827  0084               	movwf	4
  2874  0828  0800               	movf	0,w
  2875  0829  00F4               	movwf	??_strncmp+1
  2876  082A  0873               	movf	??_strncmp,w
  2877  082B  0274               	subwf	??_strncmp+1,w
  2878  082C  00F0               	movwf	?_strncmp
  2879  082D  01F1               	clrf	?_strncmp+1
  2880  082E  1C03               	skipc
  2881  082F  03F1               	decf	?_strncmp+1,f
  2882  0830  2849               	goto	l901
  2883  0831                     l3066:
  2884  0831  3001               	movlw	1
  2885  0832  00F3               	movwf	??_strncmp
  2886  0833  0873               	movf	??_strncmp,w
  2887  0834  07F5               	addwf	strncmp@s1,f
  2888  0835  3001               	movlw	1
  2889  0836  00F3               	movwf	??_strncmp
  2890  0837  0873               	movf	??_strncmp,w
  2891  0838  07F0               	addwf	strncmp@s2,f
  2892  0839                     l896:
  2893  0839  3001               	movlw	1
  2894  083A  02F1               	subwf	strncmp@len,f
  2895  083B  3000               	movlw	0
  2896  083C  1C03               	skipc
  2897  083D  03F2               	decf	strncmp@len+1,f
  2898  083E  02F2               	subwf	strncmp@len+1,f
  2899  083F  0A71               	incf	strncmp@len,w
  2900  0840  1D03               	skipz
  2901  0841  2846               	goto	u3941
  2902  0842  0A72               	incf	strncmp@len+1,w
  2903  0843  1D03               	btfss	3,2
  2904  0844  2846               	goto	u3941
  2905  0845  2847               	goto	u3940
  2906  0846                     u3941:
  2907  0846  2806               	goto	l3058
  2908  0847                     u3940:
  2909  0847                     l3068:
  2910  0847  01F0               	clrf	?_strncmp
  2911  0848  01F1               	clrf	?_strncmp+1
  2912  0849                     l901:
  2913  0849  0008               	return
  2914  084A                     __end_of_strncmp:
  2915                           
  2916                           	psect	text2
  2917  094C                     __ptext2:	
  2918 ;; *************** function _sprintf *****************
  2919 ;; Defined at:
  2920 ;;		line 505 in file "C:\Program Files\Microchip\xc8\v2.36\pic\sources\c90\common\doprnt.c"
  2921 ;; Parameters:    Size  Location     Type
  2922 ;;  sp              1    wreg     PTR unsigned char 
  2923 ;;		 -> main@Temperature(10), 
  2924 ;;  f               1    0[BANK0 ] PTR const unsigned char 
  2925 ;;		 -> STR_1(6), 
  2926 ;; Auto vars:     Size  Location     Type
  2927 ;;  sp              1   13[BANK0 ] PTR unsigned char 
  2928 ;;		 -> main@Temperature(10), 
  2929 ;;  tmpval          4    0        struct .
  2930 ;;  val             2   11[BANK0 ] unsigned int 
  2931 ;;  cp              2    0        PTR const unsigned char 
  2932 ;;  len             2    0        unsigned int 
  2933 ;;  c               1   14[BANK0 ] unsigned char 
  2934 ;;  ap              1   10[BANK0 ] PTR void [1]
  2935 ;;		 -> ?_sprintf(2), 
  2936 ;;  prec            1    9[BANK0 ] char 
  2937 ;;  flag            1    8[BANK0 ] unsigned char 
  2938 ;; Return value:  Size  Location     Type
  2939 ;;                  2    0[BANK0 ] int 
  2940 ;; Registers used:
  2941 ;;		wreg, fsr0l, fsr0h, status,2, status,0, btemp+1, pclath, cstack
  2942 ;; Tracked objects:
  2943 ;;		On entry : 0/0
  2944 ;;		On exit  : 0/0
  2945 ;;		Unchanged: 0/0
  2946 ;; Data sizes:     COMMON   BANK0   BANK1   BANK3   BANK2
  2947 ;;      Params:         0       5       0       0       0
  2948 ;;      Locals:         0       7       0       0       0
  2949 ;;      Temps:          0       3       0       0       0
  2950 ;;      Totals:         0      15       0       0       0
  2951 ;;Total ram usage:       15 bytes
  2952 ;; Hardware stack levels used: 1
  2953 ;; Hardware stack levels required when called: 1
  2954 ;; This function calls:
  2955 ;;		___lwdiv
  2956 ;;		___lwmod
  2957 ;; This function is called by:
  2958 ;;		_main
  2959 ;; This function uses a non-reentrant model
  2960 ;;
  2961                           
  2962  094C                     _sprintf:	
  2963                           ;psect for function _sprintf
  2964                           
  2965                           
  2966                           ;incstack = 0
  2967                           ; Regs used in _sprintf: [wreg-fsr0h+status,2+status,0+btemp+1+pclath+cstack]
  2968                           ;sprintf@sp stored from wreg
  2969  094C  1283               	bcf	3,5	;RP0=0, select bank0
  2970  094D  1303               	bcf	3,6	;RP1=0, select bank0
  2971  094E  00AD               	movwf	sprintf@sp
  2972  094F                     l2988:
  2973                           
  2974                           ;C:\Program Files\Microchip\xc8\v2.36\pic\sources\c90\common\doprnt.c: 505: sprintf(char
      +                           * sp, const char * f, ...);C:\Program Files\Microchip\xc8\v2.36\pic\sources\c90\common\
      +                          doprnt.c: 506: {;C:\Program Files\Microchip\xc8\v2.36\pic\sources\c90\common\doprnt.c: 5
      +                          07:  va_list ap;;C:\Program Files\Microchip\xc8\v2.36\pic\sources\c90\common\doprnt.c: 5
      +                          12:  char c;;C:\Program Files\Microchip\xc8\v2.36\pic\sources\c90\common\doprnt.c: 521: 
      +                           signed char prec;;C:\Program Files\Microchip\xc8\v2.36\pic\sources\c90\common\doprnt.c:
      +                           525:  unsigned char flag;
  2975  094F  3021               	movlw	(low ((?_sprintf| 0+1)))& (0+255)
  2976  0950  00A5               	movwf	??_sprintf
  2977  0951  0825               	movf	??_sprintf,w
  2978  0952  00AA               	movwf	sprintf@ap
  2979                           
  2980                           ;C:\Program Files\Microchip\xc8\v2.36\pic\sources\c90\common\doprnt.c: 553:  while((c = 
      +                          *f++)) {
  2981  0953  2A38               	goto	l3046
  2982  0954                     l2990:
  2983                           
  2984                           ;C:\Program Files\Microchip\xc8\v2.36\pic\sources\c90\common\doprnt.c: 555:   if(c != '%
      +                          ')
  2985  0954  3025               	movlw	37
  2986  0955  062E               	xorwf	sprintf@c,w
  2987  0956  1903               	btfsc	3,2
  2988  0957  2959               	goto	u3851
  2989  0958  295A               	goto	u3850
  2990  0959                     u3851:
  2991  0959  2966               	goto	l2996
  2992  095A                     u3850:
  2993  095A                     l2992:
  2994                           
  2995                           ;C:\Program Files\Microchip\xc8\v2.36\pic\sources\c90\common\doprnt.c: 557:   {;C:\Progr
      +                          am Files\Microchip\xc8\v2.36\pic\sources\c90\common\doprnt.c: 558:    ((*sp++ = (c)));
  2996  095A  082E               	movf	sprintf@c,w
  2997  095B  00A5               	movwf	??_sprintf
  2998  095C  082D               	movf	sprintf@sp,w
  2999  095D  0084               	movwf	4
  3000  095E  0825               	movf	??_sprintf,w
  3001  095F  1383               	bcf	3,7	;select IRP bank0
  3002  0960  0080               	movwf	0
  3003  0961                     l2994:
  3004  0961  3001               	movlw	1
  3005  0962  00A5               	movwf	??_sprintf
  3006  0963  0825               	movf	??_sprintf,w
  3007  0964  07AD               	addwf	sprintf@sp,f
  3008                           
  3009                           ;C:\Program Files\Microchip\xc8\v2.36\pic\sources\c90\common\doprnt.c: 559:    continue;
  3010  0965  2A38               	goto	l3046
  3011  0966                     l2996:
  3012                           
  3013                           ;C:\Program Files\Microchip\xc8\v2.36\pic\sources\c90\common\doprnt.c: 565:   flag = 0;
  3014  0966  01A8               	clrf	sprintf@flag
  3015                           
  3016                           ;C:\Program Files\Microchip\xc8\v2.36\pic\sources\c90\common\doprnt.c: 661:   switch(c =
      +                           *f++) {
  3017  0967  297F               	goto	l3006
  3018  0968                     l2998:
  3019                           
  3020                           ;C:\Program Files\Microchip\xc8\v2.36\pic\sources\c90\common\doprnt.c: 825:    c = (char
      +                          )(*(int *)__va_arg((*(int **)ap), (int)0));
  3021  0968  082A               	movf	sprintf@ap,w
  3022  0969  0084               	movwf	4
  3023  096A  1383               	bcf	3,7	;select IRP bank0
  3024  096B  0800               	movf	0,w
  3025  096C  00A5               	movwf	??_sprintf
  3026  096D  0825               	movf	??_sprintf,w
  3027  096E  00AE               	movwf	sprintf@c
  3028  096F                     l3000:
  3029  096F  3002               	movlw	2
  3030  0970  00A5               	movwf	??_sprintf
  3031  0971  0825               	movf	??_sprintf,w
  3032  0972  07AA               	addwf	sprintf@ap,f
  3033  0973                     l3002:
  3034                           
  3035                           ;C:\Program Files\Microchip\xc8\v2.36\pic\sources\c90\common\doprnt.c: 835:    ((*sp++ =
      +                           (c)));
  3036  0973  082E               	movf	sprintf@c,w
  3037  0974  00A5               	movwf	??_sprintf
  3038  0975  082D               	movf	sprintf@sp,w
  3039  0976  0084               	movwf	4
  3040  0977  0825               	movf	??_sprintf,w
  3041  0978  1383               	bcf	3,7	;select IRP bank0
  3042  0979  0080               	movwf	0
  3043  097A  3001               	movlw	1
  3044  097B  00A5               	movwf	??_sprintf
  3045  097C  0825               	movf	??_sprintf,w
  3046  097D  07AD               	addwf	sprintf@sp,f
  3047                           
  3048                           ;C:\Program Files\Microchip\xc8\v2.36\pic\sources\c90\common\doprnt.c: 836:    continue;
  3049  097E  2A38               	goto	l3046
  3050  097F                     l3006:
  3051  097F  3001               	movlw	1
  3052  0980  07A0               	addwf	sprintf@f,f
  3053  0981  30FF               	movlw	-1
  3054  0982  0720               	addwf	sprintf@f,w
  3055  0983  0084               	movwf	4
  3056  0984  160A  118A  200A  120A  158A  	fcall	stringdir
  3057  0989  00AE               	movwf	sprintf@c
  3058  098A  00A5               	movwf	??_sprintf
  3059  098B  01A6               	clrf	??_sprintf+1
  3060                           
  3061                           ; Switch on 2 bytes has been partitioned into a top level switch of size 1, and 1 sub-sw
      +                          itches
  3062                           ; Switch size 1, requested type "simple"
  3063                           ; Number of cases is 1, Range of values is 0 to 0
  3064                           ; switch strategies available:
  3065                           ; Name         Instructions Cycles
  3066                           ; simple_byte            4     3 (average)
  3067                           ; direct_byte           11     8 (fixed)
  3068                           ; jumptable            260     6 (fixed)
  3069                           ;	Chosen strategy is simple_byte
  3070  098C  0826               	movf	??_sprintf+1,w
  3071  098D  3A00               	xorlw	0	; case 0
  3072  098E  1903               	skipnz
  3073  098F  2991               	goto	l3420
  3074  0990  2973               	goto	l3002
  3075  0991                     l3420:
  3076                           
  3077                           ; Switch size 1, requested type "simple"
  3078                           ; Number of cases is 4, Range of values is 0 to 105
  3079                           ; switch strategies available:
  3080                           ; Name         Instructions Cycles
  3081                           ; simple_byte           13     7 (average)
  3082                           ; jumptable            260     6 (fixed)
  3083                           ;	Chosen strategy is simple_byte
  3084  0991  0825               	movf	??_sprintf,w
  3085  0992  3A00               	xorlw	0	; case 0
  3086  0993  1903               	skipnz
  3087  0994  2A4A               	goto	l3048
  3088  0995  3A63               	xorlw	99	; case 99
  3089  0996  1903               	skipnz
  3090  0997  2968               	goto	l2998
  3091  0998  3A07               	xorlw	7	; case 100
  3092  0999  1903               	skipnz
  3093  099A  299F               	goto	l3008
  3094  099B  3A0D               	xorlw	13	; case 105
  3095  099C  1903               	skipnz
  3096  099D  299F               	goto	l3008
  3097  099E  2973               	goto	l3002
  3098  099F                     l3008:
  3099                           
  3100                           ;C:\Program Files\Microchip\xc8\v2.36\pic\sources\c90\common\doprnt.c: 1279:   {;C:\Prog
      +                          ram Files\Microchip\xc8\v2.36\pic\sources\c90\common\doprnt.c: 1285:     val = (unsigned
      +                           int)(*(int *)__va_arg((*(int **)ap), (int)0));
  3101  099F  082A               	movf	sprintf@ap,w
  3102  09A0  0084               	movwf	4
  3103  09A1  1383               	bcf	3,7	;select IRP bank0
  3104  09A2  0800               	movf	0,w
  3105  09A3  00AB               	movwf	sprintf@val
  3106  09A4  0A84               	incf	4,f
  3107  09A5  0800               	movf	0,w
  3108  09A6  00AC               	movwf	sprintf@val+1
  3109  09A7                     l3010:
  3110  09A7  3002               	movlw	2
  3111  09A8  00A5               	movwf	??_sprintf
  3112  09A9  0825               	movf	??_sprintf,w
  3113  09AA  07AA               	addwf	sprintf@ap,f
  3114  09AB                     l3012:
  3115                           
  3116                           ;C:\Program Files\Microchip\xc8\v2.36\pic\sources\c90\common\doprnt.c: 1287:    if((int)
      +                          val < 0) {
  3117  09AB  1FAC               	btfss	sprintf@val+1,7
  3118  09AC  29AE               	goto	u3861
  3119  09AD  29AF               	goto	u3860
  3120  09AE                     u3861:
  3121  09AE  29B8               	goto	l3018
  3122  09AF                     u3860:
  3123  09AF                     l3014:
  3124                           
  3125                           ;C:\Program Files\Microchip\xc8\v2.36\pic\sources\c90\common\doprnt.c: 1288:     flag |=
      +                           0x03;
  3126  09AF  3003               	movlw	3
  3127  09B0  00A5               	movwf	??_sprintf
  3128  09B1  0825               	movf	??_sprintf,w
  3129  09B2  04A8               	iorwf	sprintf@flag,f
  3130  09B3                     l3016:
  3131                           
  3132                           ;C:\Program Files\Microchip\xc8\v2.36\pic\sources\c90\common\doprnt.c: 1289:     val = -
      +                          val;
  3133  09B3  09AB               	comf	sprintf@val,f
  3134  09B4  09AC               	comf	sprintf@val+1,f
  3135  09B5  0AAB               	incf	sprintf@val,f
  3136  09B6  1903               	skipnz
  3137  09B7  0AAC               	incf	sprintf@val+1,f
  3138  09B8                     l3018:
  3139                           
  3140                           ;C:\Program Files\Microchip\xc8\v2.36\pic\sources\c90\common\doprnt.c: 1292:   };C:\Prog
      +                          ram Files\Microchip\xc8\v2.36\pic\sources\c90\common\doprnt.c: 1331:    for(c = 1 ; c !=
      +                           sizeof dpowers/sizeof dpowers[0] ; c++)
  3141  09B8  01AE               	clrf	sprintf@c
  3142  09B9  0AAE               	incf	sprintf@c,f
  3143  09BA                     l3024:
  3144                           
  3145                           ;C:\Program Files\Microchip\xc8\v2.36\pic\sources\c90\common\doprnt.c: 1332:     if(val 
      +                          < dpowers[c])
  3146  09BA  082E               	movf	sprintf@c,w
  3147  09BB  00A5               	movwf	??_sprintf
  3148  09BC  0725               	addwf	??_sprintf,w
  3149  09BD  3E01               	addlw	low ((_dpowers-__stringbase)| (0+32768))
  3150  09BE  0084               	movwf	4
  3151  09BF  160A  118A  200A  120A  158A  	fcall	stringdir
  3152  09C4  00A6               	movwf	??_sprintf+1
  3153  09C5  160A  118A  200A  120A  158A  	fcall	stringdir
  3154  09CA  00A7               	movwf	??_sprintf+2
  3155  09CB  0827               	movf	??_sprintf+2,w
  3156  09CC  022C               	subwf	sprintf@val+1,w
  3157  09CD  1D03               	skipz
  3158  09CE  29D1               	goto	u3875
  3159  09CF  0826               	movf	??_sprintf+1,w
  3160  09D0  022B               	subwf	sprintf@val,w
  3161  09D1                     u3875:
  3162  09D1  1803               	skipnc
  3163  09D2  29D4               	goto	u3871
  3164  09D3  29D5               	goto	u3870
  3165  09D4                     u3871:
  3166  09D4  29D6               	goto	l3028
  3167  09D5                     u3870:
  3168  09D5  29E0               	goto	l3030
  3169  09D6                     l3028:
  3170  09D6  3001               	movlw	1
  3171  09D7  00A5               	movwf	??_sprintf
  3172  09D8  0825               	movf	??_sprintf,w
  3173  09D9  07AE               	addwf	sprintf@c,f
  3174  09DA  3005               	movlw	5
  3175  09DB  062E               	xorwf	sprintf@c,w
  3176  09DC  1D03               	btfss	3,2
  3177  09DD  29DF               	goto	u3881
  3178  09DE  29E0               	goto	u3880
  3179  09DF                     u3881:
  3180  09DF  29BA               	goto	l3024
  3181  09E0                     u3880:
  3182  09E0                     l3030:
  3183                           
  3184                           ;C:\Program Files\Microchip\xc8\v2.36\pic\sources\c90\common\doprnt.c: 1448:   {;C:\Prog
      +                          ram Files\Microchip\xc8\v2.36\pic\sources\c90\common\doprnt.c: 1464:    if(flag & 0x03)
  3185  09E0  0828               	movf	sprintf@flag,w
  3186  09E1  3903               	andlw	3
  3187  09E2  1903               	btfsc	3,2
  3188  09E3  29E5               	goto	u3891
  3189  09E4  29E6               	goto	u3890
  3190  09E5                     u3891:
  3191  09E5  29F1               	goto	l3036
  3192  09E6                     u3890:
  3193  09E6                     l3032:
  3194                           
  3195                           ;C:\Program Files\Microchip\xc8\v2.36\pic\sources\c90\common\doprnt.c: 1465:     ((*sp++
      +                           = ('-')));
  3196  09E6  302D               	movlw	45
  3197  09E7  00A5               	movwf	??_sprintf
  3198  09E8  082D               	movf	sprintf@sp,w
  3199  09E9  0084               	movwf	4
  3200  09EA  0825               	movf	??_sprintf,w
  3201  09EB  1383               	bcf	3,7	;select IRP bank0
  3202  09EC  0080               	movwf	0
  3203  09ED                     l3034:
  3204  09ED  3001               	movlw	1
  3205  09EE  00A5               	movwf	??_sprintf
  3206  09EF  0825               	movf	??_sprintf,w
  3207  09F0  07AD               	addwf	sprintf@sp,f
  3208  09F1                     l3036:
  3209                           
  3210                           ;C:\Program Files\Microchip\xc8\v2.36\pic\sources\c90\common\doprnt.c: 1495:   };C:\Prog
      +                          ram Files\Microchip\xc8\v2.36\pic\sources\c90\common\doprnt.c: 1498:   prec = c;
  3211  09F1  082E               	movf	sprintf@c,w
  3212  09F2  00A5               	movwf	??_sprintf
  3213  09F3  0825               	movf	??_sprintf,w
  3214  09F4  00A9               	movwf	sprintf@prec
  3215                           
  3216                           ;C:\Program Files\Microchip\xc8\v2.36\pic\sources\c90\common\doprnt.c: 1500:   while(pre
      +                          c--) {
  3217  09F5  2A2F               	goto	l3044
  3218  09F6                     l3038:
  3219                           
  3220                           ;C:\Program Files\Microchip\xc8\v2.36\pic\sources\c90\common\doprnt.c: 1504:    {;C:\Pro
      +                          gram Files\Microchip\xc8\v2.36\pic\sources\c90\common\doprnt.c: 1515:     c = (val / dpo
      +                          wers[(unsigned char)prec]) % 10 + '0';
  3221  09F6  300A               	movlw	10
  3222  09F7  00F8               	movwf	___lwmod@divisor
  3223  09F8  3000               	movlw	0
  3224  09F9  00F9               	movwf	___lwmod@divisor+1
  3225  09FA  0829               	movf	sprintf@prec,w
  3226  09FB  00A5               	movwf	??_sprintf
  3227  09FC  0725               	addwf	??_sprintf,w
  3228  09FD  3E01               	addlw	low ((_dpowers-__stringbase)| (0+32768))
  3229  09FE  0084               	movwf	4
  3230  09FF  160A  118A  200A  120A  158A  	fcall	stringdir
  3231  0A04  00F0               	movwf	___lwdiv@divisor
  3232  0A05  160A  118A  200A  120A  158A  	fcall	stringdir
  3233  0A0A  00F1               	movwf	___lwdiv@divisor+1
  3234  0A0B  082C               	movf	sprintf@val+1,w
  3235  0A0C  00F3               	movwf	___lwdiv@dividend+1
  3236  0A0D  082B               	movf	sprintf@val,w
  3237  0A0E  00F2               	movwf	___lwdiv@dividend
  3238  0A0F  160A  118A  24BE  120A  158A  	fcall	___lwdiv
  3239  0A14  0871               	movf	?___lwdiv+1,w
  3240  0A15  00FB               	movwf	___lwmod@dividend+1
  3241  0A16  0870               	movf	?___lwdiv,w
  3242  0A17  00FA               	movwf	___lwmod@dividend
  3243  0A18  160A  118A  2484  120A  158A  	fcall	___lwmod
  3244  0A1D  0878               	movf	?___lwmod,w
  3245  0A1E  3E30               	addlw	48
  3246  0A1F  1283               	bcf	3,5	;RP0=0, select bank0
  3247  0A20  1303               	bcf	3,6	;RP1=0, select bank0
  3248  0A21  00A6               	movwf	??_sprintf+1
  3249  0A22  0826               	movf	??_sprintf+1,w
  3250  0A23  00AE               	movwf	sprintf@c
  3251  0A24                     l3040:
  3252                           
  3253                           ;C:\Program Files\Microchip\xc8\v2.36\pic\sources\c90\common\doprnt.c: 1549:    };C:\Pro
      +                          gram Files\Microchip\xc8\v2.36\pic\sources\c90\common\doprnt.c: 1550:    ((*sp++ = (c)))
      +                          ;
  3254  0A24  082E               	movf	sprintf@c,w
  3255  0A25  00A5               	movwf	??_sprintf
  3256  0A26  082D               	movf	sprintf@sp,w
  3257  0A27  0084               	movwf	4
  3258  0A28  0825               	movf	??_sprintf,w
  3259  0A29  1383               	bcf	3,7	;select IRP bank0
  3260  0A2A  0080               	movwf	0
  3261  0A2B                     l3042:
  3262  0A2B  3001               	movlw	1
  3263  0A2C  00A5               	movwf	??_sprintf
  3264  0A2D  0825               	movf	??_sprintf,w
  3265  0A2E  07AD               	addwf	sprintf@sp,f
  3266  0A2F                     l3044:
  3267                           
  3268                           ;C:\Program Files\Microchip\xc8\v2.36\pic\sources\c90\common\doprnt.c: 1500:   while(pre
      +                          c--) {
  3269  0A2F  30FF               	movlw	255
  3270  0A30  00A5               	movwf	??_sprintf
  3271  0A31  0825               	movf	??_sprintf,w
  3272  0A32  07A9               	addwf	sprintf@prec,f
  3273  0A33  0A29               	incf	sprintf@prec,w
  3274  0A34  1D03               	btfss	3,2
  3275  0A35  2A37               	goto	u3901
  3276  0A36  2A38               	goto	u3900
  3277  0A37                     u3901:
  3278  0A37  29F6               	goto	l3038
  3279  0A38                     u3900:
  3280  0A38                     l3046:
  3281                           
  3282                           ;C:\Program Files\Microchip\xc8\v2.36\pic\sources\c90\common\doprnt.c: 553:  while((c = 
      +                          *f++)) {
  3283  0A38  3001               	movlw	1
  3284  0A39  07A0               	addwf	sprintf@f,f
  3285  0A3A  30FF               	movlw	-1
  3286  0A3B  0720               	addwf	sprintf@f,w
  3287  0A3C  0084               	movwf	4
  3288  0A3D  160A  118A  200A  120A  158A  	fcall	stringdir
  3289  0A42  00A5               	movwf	??_sprintf
  3290  0A43  0825               	movf	??_sprintf,w
  3291  0A44  00AE               	movwf	sprintf@c
  3292  0A45  082E               	movf	sprintf@c,w
  3293  0A46  1D03               	btfss	3,2
  3294  0A47  2A49               	goto	u3911
  3295  0A48  2A4A               	goto	u3910
  3296  0A49                     u3911:
  3297  0A49  2954               	goto	l2990
  3298  0A4A                     u3910:
  3299  0A4A                     l3048:
  3300                           
  3301                           ;C:\Program Files\Microchip\xc8\v2.36\pic\sources\c90\common\doprnt.c: 1564:  *sp = 0;
  3302  0A4A  082D               	movf	sprintf@sp,w
  3303  0A4B  0084               	movwf	4
  3304  0A4C  1383               	bcf	3,7	;select IRP bank0
  3305  0A4D  0180               	clrf	0
  3306  0A4E                     l401:
  3307  0A4E  0008               	return
  3308  0A4F                     __end_of_sprintf:
  3309                           
  3310                           	psect	text3
  3311  1484                     __ptext3:	
  3312 ;; *************** function ___lwmod *****************
  3313 ;; Defined at:
  3314 ;;		line 5 in file "C:\Program Files\Microchip\xc8\v2.36\pic\sources\c90\common\lwmod.c"
  3315 ;; Parameters:    Size  Location     Type
  3316 ;;  divisor         2    8[COMMON] unsigned int 
  3317 ;;  dividend        2   10[COMMON] unsigned int 
  3318 ;; Auto vars:     Size  Location     Type
  3319 ;;  counter         1   13[COMMON] unsigned char 
  3320 ;; Return value:  Size  Location     Type
  3321 ;;                  2    8[COMMON] unsigned int 
  3322 ;; Registers used:
  3323 ;;		wreg, status,2, status,0
  3324 ;; Tracked objects:
  3325 ;;		On entry : 0/0
  3326 ;;		On exit  : 0/0
  3327 ;;		Unchanged: 0/0
  3328 ;; Data sizes:     COMMON   BANK0   BANK1   BANK3   BANK2
  3329 ;;      Params:         4       0       0       0       0
  3330 ;;      Locals:         1       0       0       0       0
  3331 ;;      Temps:          1       0       0       0       0
  3332 ;;      Totals:         6       0       0       0       0
  3333 ;;Total ram usage:        6 bytes
  3334 ;; Hardware stack levels used: 1
  3335 ;; This function calls:
  3336 ;;		Nothing
  3337 ;; This function is called by:
  3338 ;;		_sprintf
  3339 ;; This function uses a non-reentrant model
  3340 ;;
  3341                           
  3342  1484                     ___lwmod:	
  3343                           ;psect for function ___lwmod
  3344                           
  3345  1484                     l2662:	
  3346                           ;incstack = 0
  3347                           ; Regs used in ___lwmod: [wreg+status,2+status,0]
  3348                           
  3349  1484  0878               	movf	___lwmod@divisor,w
  3350  1485  0479               	iorwf	___lwmod@divisor+1,w
  3351  1486  1903               	btfsc	3,2
  3352  1487  2C89               	goto	u3301
  3353  1488  2C8A               	goto	u3300
  3354  1489                     u3301:
  3355  1489  2CB9               	goto	l2680
  3356  148A                     u3300:
  3357  148A                     l2664:
  3358  148A  01FD               	clrf	___lwmod@counter
  3359  148B  0AFD               	incf	___lwmod@counter,f
  3360  148C  2C98               	goto	l2670
  3361  148D                     l2666:
  3362  148D  3001               	movlw	1
  3363  148E                     u3315:
  3364  148E  1003               	clrc
  3365  148F  0DF8               	rlf	___lwmod@divisor,f
  3366  1490  0DF9               	rlf	___lwmod@divisor+1,f
  3367  1491  3EFF               	addlw	-1
  3368  1492  1D03               	skipz
  3369  1493  2C8E               	goto	u3315
  3370  1494                     l2668:
  3371  1494  3001               	movlw	1
  3372  1495  00FC               	movwf	??___lwmod
  3373  1496  087C               	movf	??___lwmod,w
  3374  1497  07FD               	addwf	___lwmod@counter,f
  3375  1498                     l2670:
  3376  1498  1FF9               	btfss	___lwmod@divisor+1,7
  3377  1499  2C9B               	goto	u3321
  3378  149A  2C9C               	goto	u3320
  3379  149B                     u3321:
  3380  149B  2C8D               	goto	l2666
  3381  149C                     u3320:
  3382  149C                     l2672:
  3383  149C  0879               	movf	___lwmod@divisor+1,w
  3384  149D  027B               	subwf	___lwmod@dividend+1,w
  3385  149E  1D03               	skipz
  3386  149F  2CA2               	goto	u3335
  3387  14A0  0878               	movf	___lwmod@divisor,w
  3388  14A1  027A               	subwf	___lwmod@dividend,w
  3389  14A2                     u3335:
  3390  14A2  1C03               	skipc
  3391  14A3  2CA5               	goto	u3331
  3392  14A4  2CA6               	goto	u3330
  3393  14A5                     u3331:
  3394  14A5  2CAC               	goto	l2676
  3395  14A6                     u3330:
  3396  14A6                     l2674:
  3397  14A6  0878               	movf	___lwmod@divisor,w
  3398  14A7  02FA               	subwf	___lwmod@dividend,f
  3399  14A8  0879               	movf	___lwmod@divisor+1,w
  3400  14A9  1C03               	skipc
  3401  14AA  03FB               	decf	___lwmod@dividend+1,f
  3402  14AB  02FB               	subwf	___lwmod@dividend+1,f
  3403  14AC                     l2676:
  3404  14AC  3001               	movlw	1
  3405  14AD                     u3345:
  3406  14AD  1003               	clrc
  3407  14AE  0CF9               	rrf	___lwmod@divisor+1,f
  3408  14AF  0CF8               	rrf	___lwmod@divisor,f
  3409  14B0  3EFF               	addlw	-1
  3410  14B1  1D03               	skipz
  3411  14B2  2CAD               	goto	u3345
  3412  14B3                     l2678:
  3413  14B3  3001               	movlw	1
  3414  14B4  02FD               	subwf	___lwmod@counter,f
  3415  14B5  1D03               	btfss	3,2
  3416  14B6  2CB8               	goto	u3351
  3417  14B7  2CB9               	goto	u3350
  3418  14B8                     u3351:
  3419  14B8  2C9C               	goto	l2672
  3420  14B9                     u3350:
  3421  14B9                     l2680:
  3422  14B9  087B               	movf	___lwmod@dividend+1,w
  3423  14BA  00F9               	movwf	?___lwmod+1
  3424  14BB  087A               	movf	___lwmod@dividend,w
  3425  14BC  00F8               	movwf	?___lwmod
  3426  14BD                     l687:
  3427  14BD  0008               	return
  3428  14BE                     __end_of___lwmod:
  3429                           
  3430                           	psect	text4
  3431  14BE                     __ptext4:	
  3432 ;; *************** function ___lwdiv *****************
  3433 ;; Defined at:
  3434 ;;		line 5 in file "C:\Program Files\Microchip\xc8\v2.36\pic\sources\c90\common\lwdiv.c"
  3435 ;; Parameters:    Size  Location     Type
  3436 ;;  divisor         2    0[COMMON] unsigned int 
  3437 ;;  dividend        2    2[COMMON] unsigned int 
  3438 ;; Auto vars:     Size  Location     Type
  3439 ;;  quotient        2    5[COMMON] unsigned int 
  3440 ;;  counter         1    7[COMMON] unsigned char 
  3441 ;; Return value:  Size  Location     Type
  3442 ;;                  2    0[COMMON] unsigned int 
  3443 ;; Registers used:
  3444 ;;		wreg, status,2, status,0
  3445 ;; Tracked objects:
  3446 ;;		On entry : 0/0
  3447 ;;		On exit  : 0/0
  3448 ;;		Unchanged: 0/0
  3449 ;; Data sizes:     COMMON   BANK0   BANK1   BANK3   BANK2
  3450 ;;      Params:         4       0       0       0       0
  3451 ;;      Locals:         3       0       0       0       0
  3452 ;;      Temps:          1       0       0       0       0
  3453 ;;      Totals:         8       0       0       0       0
  3454 ;;Total ram usage:        8 bytes
  3455 ;; Hardware stack levels used: 1
  3456 ;; This function calls:
  3457 ;;		Nothing
  3458 ;; This function is called by:
  3459 ;;		_sprintf
  3460 ;; This function uses a non-reentrant model
  3461 ;;
  3462                           
  3463  14BE                     ___lwdiv:	
  3464                           ;psect for function ___lwdiv
  3465                           
  3466  14BE                     l2636:	
  3467                           ;incstack = 0
  3468                           ; Regs used in ___lwdiv: [wreg+status,2+status,0]
  3469                           
  3470  14BE  01F5               	clrf	___lwdiv@quotient
  3471  14BF  01F6               	clrf	___lwdiv@quotient+1
  3472  14C0                     l2638:
  3473  14C0  0870               	movf	___lwdiv@divisor,w
  3474  14C1  0471               	iorwf	___lwdiv@divisor+1,w
  3475  14C2  1903               	btfsc	3,2
  3476  14C3  2CC5               	goto	u3231
  3477  14C4  2CC6               	goto	u3230
  3478  14C5                     u3231:
  3479  14C5  2CFD               	goto	l2658
  3480  14C6                     u3230:
  3481  14C6                     l2640:
  3482  14C6  01F7               	clrf	___lwdiv@counter
  3483  14C7  0AF7               	incf	___lwdiv@counter,f
  3484  14C8  2CD4               	goto	l2646
  3485  14C9                     l2642:
  3486  14C9  3001               	movlw	1
  3487  14CA                     u3245:
  3488  14CA  1003               	clrc
  3489  14CB  0DF0               	rlf	___lwdiv@divisor,f
  3490  14CC  0DF1               	rlf	___lwdiv@divisor+1,f
  3491  14CD  3EFF               	addlw	-1
  3492  14CE  1D03               	skipz
  3493  14CF  2CCA               	goto	u3245
  3494  14D0                     l2644:
  3495  14D0  3001               	movlw	1
  3496  14D1  00F4               	movwf	??___lwdiv
  3497  14D2  0874               	movf	??___lwdiv,w
  3498  14D3  07F7               	addwf	___lwdiv@counter,f
  3499  14D4                     l2646:
  3500  14D4  1FF1               	btfss	___lwdiv@divisor+1,7
  3501  14D5  2CD7               	goto	u3251
  3502  14D6  2CD8               	goto	u3250
  3503  14D7                     u3251:
  3504  14D7  2CC9               	goto	l2642
  3505  14D8                     u3250:
  3506  14D8                     l2648:
  3507  14D8  3001               	movlw	1
  3508  14D9                     u3265:
  3509  14D9  1003               	clrc
  3510  14DA  0DF5               	rlf	___lwdiv@quotient,f
  3511  14DB  0DF6               	rlf	___lwdiv@quotient+1,f
  3512  14DC  3EFF               	addlw	-1
  3513  14DD  1D03               	skipz
  3514  14DE  2CD9               	goto	u3265
  3515  14DF  0871               	movf	___lwdiv@divisor+1,w
  3516  14E0  0273               	subwf	___lwdiv@dividend+1,w
  3517  14E1  1D03               	skipz
  3518  14E2  2CE5               	goto	u3275
  3519  14E3  0870               	movf	___lwdiv@divisor,w
  3520  14E4  0272               	subwf	___lwdiv@dividend,w
  3521  14E5                     u3275:
  3522  14E5  1C03               	skipc
  3523  14E6  2CE8               	goto	u3271
  3524  14E7  2CE9               	goto	u3270
  3525  14E8                     u3271:
  3526  14E8  2CF0               	goto	l2654
  3527  14E9                     u3270:
  3528  14E9                     l2650:
  3529  14E9  0870               	movf	___lwdiv@divisor,w
  3530  14EA  02F2               	subwf	___lwdiv@dividend,f
  3531  14EB  0871               	movf	___lwdiv@divisor+1,w
  3532  14EC  1C03               	skipc
  3533  14ED  03F3               	decf	___lwdiv@dividend+1,f
  3534  14EE  02F3               	subwf	___lwdiv@dividend+1,f
  3535  14EF                     l2652:
  3536  14EF  1475               	bsf	___lwdiv@quotient,0
  3537  14F0                     l2654:
  3538  14F0  3001               	movlw	1
  3539  14F1                     u3285:
  3540  14F1  1003               	clrc
  3541  14F2  0CF1               	rrf	___lwdiv@divisor+1,f
  3542  14F3  0CF0               	rrf	___lwdiv@divisor,f
  3543  14F4  3EFF               	addlw	-1
  3544  14F5  1D03               	skipz
  3545  14F6  2CF1               	goto	u3285
  3546  14F7                     l2656:
  3547  14F7  3001               	movlw	1
  3548  14F8  02F7               	subwf	___lwdiv@counter,f
  3549  14F9  1D03               	btfss	3,2
  3550  14FA  2CFC               	goto	u3291
  3551  14FB  2CFD               	goto	u3290
  3552  14FC                     u3291:
  3553  14FC  2CD8               	goto	l2648
  3554  14FD                     u3290:
  3555  14FD                     l2658:
  3556  14FD  0876               	movf	___lwdiv@quotient+1,w
  3557  14FE  00F1               	movwf	?___lwdiv+1
  3558  14FF  0875               	movf	___lwdiv@quotient,w
  3559  1500  00F0               	movwf	?___lwdiv
  3560  1501                     l677:
  3561  1501  0008               	return
  3562  1502                     __end_of___lwdiv:
  3563                           
  3564                           	psect	text5
  3565  12AA                     __ptext5:	
  3566 ;; *************** function _sensorProximidad_init *****************
  3567 ;; Defined at:
  3568 ;;		line 16 in file "obstacleAvoidanceSensor.c"
  3569 ;; Parameters:    Size  Location     Type
  3570 ;;		None
  3571 ;; Auto vars:     Size  Location     Type
  3572 ;;		None
  3573 ;; Return value:  Size  Location     Type
  3574 ;;                  1    wreg      void 
  3575 ;; Registers used:
  3576 ;;		None
  3577 ;; Tracked objects:
  3578 ;;		On entry : 0/0
  3579 ;;		On exit  : 0/0
  3580 ;;		Unchanged: 0/0
  3581 ;; Data sizes:     COMMON   BANK0   BANK1   BANK3   BANK2
  3582 ;;      Params:         0       0       0       0       0
  3583 ;;      Locals:         0       0       0       0       0
  3584 ;;      Temps:          0       0       0       0       0
  3585 ;;      Totals:         0       0       0       0       0
  3586 ;;Total ram usage:        0 bytes
  3587 ;; Hardware stack levels used: 1
  3588 ;; This function calls:
  3589 ;;		Nothing
  3590 ;; This function is called by:
  3591 ;;		_main
  3592 ;; This function uses a non-reentrant model
  3593 ;;
  3594                           
  3595  12AA                     _sensorProximidad_init:	
  3596                           ;psect for function _sensorProximidad_init
  3597                           
  3598  12AA                     l2782:	
  3599                           ;incstack = 0
  3600                           ; Regs used in _sensorProximidad_init: []
  3601                           
  3602                           
  3603                           ;obstacleAvoidanceSensor.c: 17:     TRISC1 = 1;
  3604  12AA  1683               	bsf	3,5	;RP0=1, select bank1
  3605  12AB  1303               	bcf	3,6	;RP1=0, select bank1
  3606  12AC  1487               	bsf	7,1	;volatile
  3607                           
  3608                           ;obstacleAvoidanceSensor.c: 18:     TRISC4 = 0;
  3609  12AD  1207               	bcf	7,4	;volatile
  3610                           
  3611                           ;obstacleAvoidanceSensor.c: 19:     TRISC5 = 0;
  3612  12AE  1287               	bcf	7,5	;volatile
  3613                           
  3614                           ;obstacleAvoidanceSensor.c: 20:     PORTCbits.RC1 = 0;
  3615  12AF  1283               	bcf	3,5	;RP0=0, select bank0
  3616  12B0  1303               	bcf	3,6	;RP1=0, select bank0
  3617  12B1  1087               	bcf	7,1	;volatile
  3618                           
  3619                           ;obstacleAvoidanceSensor.c: 21:     PORTCbits.RC4 = 0;
  3620  12B2  1207               	bcf	7,4	;volatile
  3621                           
  3622                           ;obstacleAvoidanceSensor.c: 22:     PORTCbits.RC5 = 0;
  3623  12B3  1287               	bcf	7,5	;volatile
  3624  12B4                     l48:
  3625  12B4  0008               	return
  3626  12B5                     __end_of_sensorProximidad_init:
  3627                           
  3628                           	psect	text6
  3629  129F                     __ptext6:	
  3630 ;; *************** function _sensorFlame_init *****************
  3631 ;; Defined at:
  3632 ;;		line 13 in file "flame_sensor.c"
  3633 ;; Parameters:    Size  Location     Type
  3634 ;;		None
  3635 ;; Auto vars:     Size  Location     Type
  3636 ;;		None
  3637 ;; Return value:  Size  Location     Type
  3638 ;;                  1    wreg      void 
  3639 ;; Registers used:
  3640 ;;		None
  3641 ;; Tracked objects:
  3642 ;;		On entry : 0/0
  3643 ;;		On exit  : 0/0
  3644 ;;		Unchanged: 0/0
  3645 ;; Data sizes:     COMMON   BANK0   BANK1   BANK3   BANK2
  3646 ;;      Params:         0       0       0       0       0
  3647 ;;      Locals:         0       0       0       0       0
  3648 ;;      Temps:          0       0       0       0       0
  3649 ;;      Totals:         0       0       0       0       0
  3650 ;;Total ram usage:        0 bytes
  3651 ;; Hardware stack levels used: 1
  3652 ;; This function calls:
  3653 ;;		Nothing
  3654 ;; This function is called by:
  3655 ;;		_main
  3656 ;; This function uses a non-reentrant model
  3657 ;;
  3658                           
  3659  129F                     _sensorFlame_init:	
  3660                           ;psect for function _sensorFlame_init
  3661                           
  3662  129F                     l2758:	
  3663                           ;incstack = 0
  3664                           ; Regs used in _sensorFlame_init: []
  3665                           
  3666                           
  3667                           ;flame_sensor.c: 14: TRISC0=1;
  3668  129F  1683               	bsf	3,5	;RP0=1, select bank1
  3669  12A0  1303               	bcf	3,6	;RP1=0, select bank1
  3670  12A1  1407               	bsf	7,0	;volatile
  3671                           
  3672                           ;flame_sensor.c: 15: TRISC3=0;
  3673  12A2  1187               	bcf	7,3	;volatile
  3674                           
  3675                           ;flame_sensor.c: 16: TRISC4=0;
  3676  12A3  1207               	bcf	7,4	;volatile
  3677                           
  3678                           ;flame_sensor.c: 17: PORTCbits.RC0=0;
  3679  12A4  1283               	bcf	3,5	;RP0=0, select bank0
  3680  12A5  1303               	bcf	3,6	;RP1=0, select bank0
  3681  12A6  1007               	bcf	7,0	;volatile
  3682                           
  3683                           ;flame_sensor.c: 18: PORTCbits.RC3=0;
  3684  12A7  1187               	bcf	7,3	;volatile
  3685                           
  3686                           ;flame_sensor.c: 19: PORTCbits.RC4=0;
  3687  12A8  1207               	bcf	7,4	;volatile
  3688  12A9                     l13:
  3689  12A9  0008               	return
  3690  12AA                     __end_of_sensorFlame_init:
  3691                           
  3692                           	psect	text7
  3693  1296                     __ptext7:	
  3694 ;; *************** function _microphone_init *****************
  3695 ;; Defined at:
  3696 ;;		line 13 in file "Microphone.c"
  3697 ;; Parameters:    Size  Location     Type
  3698 ;;		None
  3699 ;; Auto vars:     Size  Location     Type
  3700 ;;		None
  3701 ;; Return value:  Size  Location     Type
  3702 ;;                  1    wreg      void 
  3703 ;; Registers used:
  3704 ;;		None
  3705 ;; Tracked objects:
  3706 ;;		On entry : 0/0
  3707 ;;		On exit  : 0/0
  3708 ;;		Unchanged: 0/0
  3709 ;; Data sizes:     COMMON   BANK0   BANK1   BANK3   BANK2
  3710 ;;      Params:         0       0       0       0       0
  3711 ;;      Locals:         0       0       0       0       0
  3712 ;;      Temps:          0       0       0       0       0
  3713 ;;      Totals:         0       0       0       0       0
  3714 ;;Total ram usage:        0 bytes
  3715 ;; Hardware stack levels used: 1
  3716 ;; This function calls:
  3717 ;;		Nothing
  3718 ;; This function is called by:
  3719 ;;		_main
  3720 ;; This function uses a non-reentrant model
  3721 ;;
  3722                           
  3723  1296                     _microphone_init:	
  3724                           ;psect for function _microphone_init
  3725                           
  3726  1296                     l2770:	
  3727                           ;incstack = 0
  3728                           ; Regs used in _microphone_init: []
  3729                           
  3730                           
  3731                           ;Microphone.c: 14:     TRISC2 = 1;
  3732  1296  1683               	bsf	3,5	;RP0=1, select bank1
  3733  1297  1303               	bcf	3,6	;RP1=0, select bank1
  3734  1298  1507               	bsf	7,2	;volatile
  3735                           
  3736                           ;Microphone.c: 15:     TRISC6 = 0;
  3737  1299  1307               	bcf	7,6	;volatile
  3738                           
  3739                           ;Microphone.c: 16:     PORTCbits.RC6 = 0;
  3740  129A  1283               	bcf	3,5	;RP0=0, select bank0
  3741  129B  1303               	bcf	3,6	;RP1=0, select bank0
  3742  129C  1307               	bcf	7,6	;volatile
  3743                           
  3744                           ;Microphone.c: 17:     PORTCbits.RC2 = 0;
  3745  129D  1107               	bcf	7,2	;volatile
  3746  129E                     l30:
  3747  129E  0008               	return
  3748  129F                     __end_of_microphone_init:
  3749                           
  3750                           	psect	text8
  3751  0A4F                     __ptext8:	
  3752 ;; *************** function _log *****************
  3753 ;; Defined at:
  3754 ;;		line 5 in file "C:\Program Files\Microchip\xc8\v2.36\pic\sources\c90\common\log.c"
  3755 ;; Parameters:    Size  Location     Type
  3756 ;;  x               4   16[BANK1 ] void 
  3757 ;; Auto vars:     Size  Location     Type
  3758 ;;  exponent        2   20[BANK1 ] int 
  3759 ;; Return value:  Size  Location     Type
  3760 ;;                  4   16[BANK1 ] int 
  3761 ;; Registers used:
  3762 ;;		wreg, fsr0l, fsr0h, status,2, status,0, btemp+1, pclath, cstack
  3763 ;; Tracked objects:
  3764 ;;		On entry : 0/0
  3765 ;;		On exit  : 0/0
  3766 ;;		Unchanged: 0/0
  3767 ;; Data sizes:     COMMON   BANK0   BANK1   BANK3   BANK2
  3768 ;;      Params:         0       0       4       0       0
  3769 ;;      Locals:         0       0       2       0       0
  3770 ;;      Temps:          0       1       0       0       0
  3771 ;;      Totals:         0       1       6       0       0
  3772 ;;Total ram usage:        7 bytes
  3773 ;; Hardware stack levels used: 1
  3774 ;; Hardware stack levels required when called: 3
  3775 ;; This function calls:
  3776 ;;		___fladd
  3777 ;;		___fleq
  3778 ;;		___flge
  3779 ;;		___flmul
  3780 ;;		___xxtofl
  3781 ;;		_eval_poly
  3782 ;;		_frexp
  3783 ;; This function is called by:
  3784 ;;		_main
  3785 ;; This function uses a non-reentrant model
  3786 ;;
  3787                           
  3788  0A4F                     _log:	
  3789                           ;psect for function _log
  3790                           
  3791  0A4F                     l2966:	
  3792                           ;incstack = 0
  3793                           ; Regs used in _log: [wreg-fsr0h+status,2+status,0+btemp+1+pclath+cstack]
  3794                           
  3795  0A4F  1683               	bsf	3,5	;RP0=1, select bank1
  3796  0A50  1303               	bcf	3,6	;RP1=0, select bank1
  3797  0A51  0833               	movf	(log@x+3)^(0+128),w
  3798  0A52  00F3               	movwf	___flge@ff1+3
  3799  0A53  0832               	movf	(log@x+2)^(0+128),w
  3800  0A54  00F2               	movwf	___flge@ff1+2
  3801  0A55  0831               	movf	(log@x+1)^(0+128),w
  3802  0A56  00F1               	movwf	___flge@ff1+1
  3803  0A57  0830               	movf	log@x^(0+128),w
  3804  0A58  00F0               	movwf	___flge@ff1
  3805  0A59  3000               	movlw	0
  3806  0A5A  00F7               	movwf	___flge@ff2+3
  3807  0A5B  3000               	movlw	0
  3808  0A5C  00F6               	movwf	___flge@ff2+2
  3809  0A5D  3000               	movlw	0
  3810  0A5E  00F5               	movwf	___flge@ff2+1
  3811  0A5F  3000               	movlw	0
  3812  0A60  00F4               	movwf	___flge@ff2
  3813  0A61  160A  118A  25CA  120A  158A  	fcall	___flge
  3814  0A66  1803               	btfsc	3,0
  3815  0A67  2A69               	goto	u3831
  3816  0A68  2A6A               	goto	u3830
  3817  0A69                     u3831:
  3818  0A69  2A79               	goto	l2972
  3819  0A6A                     u3830:
  3820  0A6A                     l2968:
  3821  0A6A  3021               	movlw	33
  3822  0A6B  1683               	bsf	3,5	;RP0=1, select bank1
  3823  0A6C  1303               	bcf	3,6	;RP1=0, select bank1
  3824  0A6D  00D7               	movwf	_errno^(0+128)
  3825  0A6E  3000               	movlw	0
  3826  0A6F  00D8               	movwf	(_errno^(0+128)+1)
  3827  0A70  3000               	movlw	0
  3828  0A71  00B3               	movwf	(?_log+3)^(0+128)
  3829  0A72  3000               	movlw	0
  3830  0A73  00B2               	movwf	(?_log+2)^(0+128)
  3831  0A74  3000               	movlw	0
  3832  0A75  00B1               	movwf	(?_log+1)^(0+128)
  3833  0A76  3000               	movlw	0
  3834  0A77  00B0               	movwf	?_log^(0+128)
  3835  0A78  2B9A               	goto	l865
  3836  0A79                     l2972:
  3837  0A79  1683               	bsf	3,5	;RP0=1, select bank1
  3838  0A7A  1303               	bcf	3,6	;RP1=0, select bank1
  3839  0A7B  0833               	movf	(log@x+3)^(0+128),w
  3840  0A7C  00F3               	movwf	___fleq@ff1+3
  3841  0A7D  0832               	movf	(log@x+2)^(0+128),w
  3842  0A7E  00F2               	movwf	___fleq@ff1+2
  3843  0A7F  0831               	movf	(log@x+1)^(0+128),w
  3844  0A80  00F1               	movwf	___fleq@ff1+1
  3845  0A81  0830               	movf	log@x^(0+128),w
  3846  0A82  00F0               	movwf	___fleq@ff1
  3847  0A83  3000               	movlw	0
  3848  0A84  00F7               	movwf	___fleq@ff2+3
  3849  0A85  3000               	movlw	0
  3850  0A86  00F6               	movwf	___fleq@ff2+2
  3851  0A87  3000               	movlw	0
  3852  0A88  00F5               	movwf	___fleq@ff2+1
  3853  0A89  3000               	movlw	0
  3854  0A8A  00F4               	movwf	___fleq@ff2
  3855  0A8B  160A  118A  2502  120A  158A  	fcall	___fleq
  3856  0A90  1C03               	btfss	3,0
  3857  0A91  2A93               	goto	u3841
  3858  0A92  2A94               	goto	u3840
  3859  0A93                     u3841:
  3860  0A93  2AA3               	goto	l2978
  3861  0A94                     u3840:
  3862  0A94                     l2974:
  3863  0A94  3022               	movlw	34
  3864  0A95  1683               	bsf	3,5	;RP0=1, select bank1
  3865  0A96  1303               	bcf	3,6	;RP1=0, select bank1
  3866  0A97  00D7               	movwf	_errno^(0+128)
  3867  0A98  3000               	movlw	0
  3868  0A99  00D8               	movwf	(_errno^(0+128)+1)
  3869  0A9A  3000               	movlw	0
  3870  0A9B  00B3               	movwf	(?_log+3)^(0+128)
  3871  0A9C  3000               	movlw	0
  3872  0A9D  00B2               	movwf	(?_log+2)^(0+128)
  3873  0A9E  3000               	movlw	0
  3874  0A9F  00B1               	movwf	(?_log+1)^(0+128)
  3875  0AA0  3000               	movlw	0
  3876  0AA1  00B0               	movwf	?_log^(0+128)
  3877  0AA2  2B9A               	goto	l865
  3878  0AA3                     l2978:
  3879  0AA3  30BF               	movlw	191
  3880  0AA4  1283               	bcf	3,5	;RP0=0, select bank0
  3881  0AA5  1303               	bcf	3,6	;RP1=0, select bank0
  3882  0AA6  00DC               	movwf	___fladd@b+3
  3883  0AA7  3080               	movlw	128
  3884  0AA8  00DB               	movwf	___fladd@b+2
  3885  0AA9  3000               	movlw	0
  3886  0AAA  00DA               	movwf	___fladd@b+1
  3887  0AAB  3000               	movlw	0
  3888  0AAC  00D9               	movwf	___fladd@b
  3889  0AAD  3040               	movlw	64
  3890  0AAE  00A8               	movwf	___flmul@b+3
  3891  0AAF  3000               	movlw	0
  3892  0AB0  00A7               	movwf	___flmul@b+2
  3893  0AB1  3000               	movlw	0
  3894  0AB2  00A6               	movwf	___flmul@b+1
  3895  0AB3  3000               	movlw	0
  3896  0AB4  00A5               	movwf	___flmul@b
  3897  0AB5  30B4               	movlw	(low (log@exponent| 0))& (0+255)
  3898  0AB6  00ED               	movwf	??_log
  3899  0AB7  086D               	movf	??_log,w
  3900  0AB8  00A4               	movwf	frexp@eptr
  3901  0AB9  1683               	bsf	3,5	;RP0=1, select bank1
  3902  0ABA  1303               	bcf	3,6	;RP1=0, select bank1
  3903  0ABB  0833               	movf	(log@x+3)^(0+128),w
  3904  0ABC  1283               	bcf	3,5	;RP0=0, select bank0
  3905  0ABD  1303               	bcf	3,6	;RP1=0, select bank0
  3906  0ABE  00A3               	movwf	frexp@value+3
  3907  0ABF  1683               	bsf	3,5	;RP0=1, select bank1
  3908  0AC0  1303               	bcf	3,6	;RP1=0, select bank1
  3909  0AC1  0832               	movf	(log@x+2)^(0+128),w
  3910  0AC2  1283               	bcf	3,5	;RP0=0, select bank0
  3911  0AC3  1303               	bcf	3,6	;RP1=0, select bank0
  3912  0AC4  00A2               	movwf	frexp@value+2
  3913  0AC5  1683               	bsf	3,5	;RP0=1, select bank1
  3914  0AC6  1303               	bcf	3,6	;RP1=0, select bank1
  3915  0AC7  0831               	movf	(log@x+1)^(0+128),w
  3916  0AC8  1283               	bcf	3,5	;RP0=0, select bank0
  3917  0AC9  1303               	bcf	3,6	;RP1=0, select bank0
  3918  0ACA  00A1               	movwf	frexp@value+1
  3919  0ACB  1683               	bsf	3,5	;RP0=1, select bank1
  3920  0ACC  1303               	bcf	3,6	;RP1=0, select bank1
  3921  0ACD  0830               	movf	log@x^(0+128),w
  3922  0ACE  1283               	bcf	3,5	;RP0=0, select bank0
  3923  0ACF  1303               	bcf	3,6	;RP1=0, select bank0
  3924  0AD0  00A0               	movwf	frexp@value
  3925  0AD1  120A  118A  2016  120A  158A  	fcall	_frexp
  3926  0AD6  1283               	bcf	3,5	;RP0=0, select bank0
  3927  0AD7  1303               	bcf	3,6	;RP1=0, select bank0
  3928  0AD8  0823               	movf	?_frexp+3,w
  3929  0AD9  00AC               	movwf	___flmul@a+3
  3930  0ADA  0822               	movf	?_frexp+2,w
  3931  0ADB  00AB               	movwf	___flmul@a+2
  3932  0ADC  0821               	movf	?_frexp+1,w
  3933  0ADD  00AA               	movwf	___flmul@a+1
  3934  0ADE  0820               	movf	?_frexp,w
  3935  0ADF  00A9               	movwf	___flmul@a
  3936  0AE0  120A  118A  2072  120A  158A  	fcall	___flmul
  3937  0AE5  1283               	bcf	3,5	;RP0=0, select bank0
  3938  0AE6  1303               	bcf	3,6	;RP1=0, select bank0
  3939  0AE7  0828               	movf	?___flmul+3,w
  3940  0AE8  00E0               	movwf	___fladd@a+3
  3941  0AE9  0827               	movf	?___flmul+2,w
  3942  0AEA  00DF               	movwf	___fladd@a+2
  3943  0AEB  0826               	movf	?___flmul+1,w
  3944  0AEC  00DE               	movwf	___fladd@a+1
  3945  0AED  0825               	movf	?___flmul,w
  3946  0AEE  00DD               	movwf	___fladd@a
  3947  0AEF  120A  158A  2578  120A  158A  	fcall	___fladd
  3948  0AF4  1283               	bcf	3,5	;RP0=0, select bank0
  3949  0AF5  1303               	bcf	3,6	;RP1=0, select bank0
  3950  0AF6  085C               	movf	?___fladd+3,w
  3951  0AF7  1683               	bsf	3,5	;RP0=1, select bank1
  3952  0AF8  1303               	bcf	3,6	;RP1=0, select bank1
  3953  0AF9  00B3               	movwf	(log@x+3)^(0+128)
  3954  0AFA  1283               	bcf	3,5	;RP0=0, select bank0
  3955  0AFB  1303               	bcf	3,6	;RP1=0, select bank0
  3956  0AFC  085B               	movf	?___fladd+2,w
  3957  0AFD  1683               	bsf	3,5	;RP0=1, select bank1
  3958  0AFE  1303               	bcf	3,6	;RP1=0, select bank1
  3959  0AFF  00B2               	movwf	(log@x+2)^(0+128)
  3960  0B00  1283               	bcf	3,5	;RP0=0, select bank0
  3961  0B01  1303               	bcf	3,6	;RP1=0, select bank0
  3962  0B02  085A               	movf	?___fladd+1,w
  3963  0B03  1683               	bsf	3,5	;RP0=1, select bank1
  3964  0B04  1303               	bcf	3,6	;RP1=0, select bank1
  3965  0B05  00B1               	movwf	(log@x+1)^(0+128)
  3966  0B06  1283               	bcf	3,5	;RP0=0, select bank0
  3967  0B07  1303               	bcf	3,6	;RP1=0, select bank0
  3968  0B08  0859               	movf	?___fladd,w
  3969  0B09  1683               	bsf	3,5	;RP0=1, select bank1
  3970  0B0A  1303               	bcf	3,6	;RP1=0, select bank1
  3971  0B0B  00B0               	movwf	log@x^(0+128)
  3972  0B0C                     l2980:
  3973  0B0C  30FF               	movlw	255
  3974  0B0D  07B4               	addwf	log@exponent^(0+128),f
  3975  0B0E  1803               	skipnc
  3976  0B0F  0AB5               	incf	(log@exponent+1)^(0+128),f
  3977  0B10  30FF               	movlw	255
  3978  0B11  07B5               	addwf	(log@exponent+1)^(0+128),f
  3979  0B12                     l2982:
  3980  0B12  0833               	movf	(log@x+3)^(0+128),w
  3981  0B13  00A3               	movwf	(eval_poly@x+3)^(0+128)
  3982  0B14  0832               	movf	(log@x+2)^(0+128),w
  3983  0B15  00A2               	movwf	(eval_poly@x+2)^(0+128)
  3984  0B16  0831               	movf	(log@x+1)^(0+128),w
  3985  0B17  00A1               	movwf	(eval_poly@x+1)^(0+128)
  3986  0B18  0830               	movf	log@x^(0+128),w
  3987  0B19  00A0               	movwf	eval_poly@x^(0+128)
  3988  0B1A  300B               	movlw	(low ((log@coeff-__stringbase)| (0+32768)))& (0+255)
  3989  0B1B  1283               	bcf	3,5	;RP0=0, select bank0
  3990  0B1C  1303               	bcf	3,6	;RP1=0, select bank0
  3991  0B1D  00ED               	movwf	??_log
  3992  0B1E  086D               	movf	??_log,w
  3993  0B1F  1683               	bsf	3,5	;RP0=1, select bank1
  3994  0B20  1303               	bcf	3,6	;RP1=0, select bank1
  3995  0B21  00A4               	movwf	eval_poly@d^(0+128)
  3996  0B22  3008               	movlw	8
  3997  0B23  00A5               	movwf	eval_poly@n^(0+128)
  3998  0B24  3000               	movlw	0
  3999  0B25  00A6               	movwf	(eval_poly@n^(0+128)+1)
  4000  0B26  160A  118A  2726  120A  158A  	fcall	_eval_poly
  4001  0B2B  1683               	bsf	3,5	;RP0=1, select bank1
  4002  0B2C  1303               	bcf	3,6	;RP1=0, select bank1
  4003  0B2D  0823               	movf	(?_eval_poly+3)^(0+128),w
  4004  0B2E  00B3               	movwf	(log@x+3)^(0+128)
  4005  0B2F  0822               	movf	(?_eval_poly+2)^(0+128),w
  4006  0B30  00B2               	movwf	(log@x+2)^(0+128)
  4007  0B31  0821               	movf	(?_eval_poly+1)^(0+128),w
  4008  0B32  00B1               	movwf	(log@x+1)^(0+128)
  4009  0B33  0820               	movf	?_eval_poly^(0+128),w
  4010  0B34  00B0               	movwf	log@x^(0+128)
  4011  0B35                     l2984:
  4012  0B35  0833               	movf	(log@x+3)^(0+128),w
  4013  0B36  1283               	bcf	3,5	;RP0=0, select bank0
  4014  0B37  1303               	bcf	3,6	;RP1=0, select bank0
  4015  0B38  00DC               	movwf	___fladd@b+3
  4016  0B39  1683               	bsf	3,5	;RP0=1, select bank1
  4017  0B3A  1303               	bcf	3,6	;RP1=0, select bank1
  4018  0B3B  0832               	movf	(log@x+2)^(0+128),w
  4019  0B3C  1283               	bcf	3,5	;RP0=0, select bank0
  4020  0B3D  1303               	bcf	3,6	;RP1=0, select bank0
  4021  0B3E  00DB               	movwf	___fladd@b+2
  4022  0B3F  1683               	bsf	3,5	;RP0=1, select bank1
  4023  0B40  1303               	bcf	3,6	;RP1=0, select bank1
  4024  0B41  0831               	movf	(log@x+1)^(0+128),w
  4025  0B42  1283               	bcf	3,5	;RP0=0, select bank0
  4026  0B43  1303               	bcf	3,6	;RP1=0, select bank0
  4027  0B44  00DA               	movwf	___fladd@b+1
  4028  0B45  1683               	bsf	3,5	;RP0=1, select bank1
  4029  0B46  1303               	bcf	3,6	;RP1=0, select bank1
  4030  0B47  0830               	movf	log@x^(0+128),w
  4031  0B48  1283               	bcf	3,5	;RP0=0, select bank0
  4032  0B49  1303               	bcf	3,6	;RP1=0, select bank0
  4033  0B4A  00D9               	movwf	___fladd@b
  4034  0B4B  303F               	movlw	63
  4035  0B4C  00A8               	movwf	___flmul@b+3
  4036  0B4D  3031               	movlw	49
  4037  0B4E  00A7               	movwf	___flmul@b+2
  4038  0B4F  3072               	movlw	114
  4039  0B50  00A6               	movwf	___flmul@b+1
  4040  0B51  3018               	movlw	24
  4041  0B52  00A5               	movwf	___flmul@b
  4042  0B53  1683               	bsf	3,5	;RP0=1, select bank1
  4043  0B54  1303               	bcf	3,6	;RP1=0, select bank1
  4044  0B55  0834               	movf	log@exponent^(0+128),w
  4045  0B56  00F0               	movwf	___xxtofl@val
  4046  0B57  0835               	movf	(log@exponent+1)^(0+128),w
  4047  0B58  00F1               	movwf	___xxtofl@val+1
  4048  0B59  3000               	movlw	0
  4049  0B5A  1BF1               	btfsc	___xxtofl@val+1,7
  4050  0B5B  30FF               	movlw	255
  4051  0B5C  00F2               	movwf	___xxtofl@val+2
  4052  0B5D  00F3               	movwf	___xxtofl@val+3
  4053  0B5E  3001               	movlw	1
  4054  0B5F  160A  118A  266C  120A  158A  	fcall	___xxtofl
  4055  0B64  0873               	movf	?___xxtofl+3,w
  4056  0B65  1283               	bcf	3,5	;RP0=0, select bank0
  4057  0B66  1303               	bcf	3,6	;RP1=0, select bank0
  4058  0B67  00AC               	movwf	___flmul@a+3
  4059  0B68  0872               	movf	?___xxtofl+2,w
  4060  0B69  00AB               	movwf	___flmul@a+2
  4061  0B6A  0871               	movf	?___xxtofl+1,w
  4062  0B6B  00AA               	movwf	___flmul@a+1
  4063  0B6C  0870               	movf	?___xxtofl,w
  4064  0B6D  00A9               	movwf	___flmul@a
  4065  0B6E  120A  118A  2072  120A  158A  	fcall	___flmul
  4066  0B73  1283               	bcf	3,5	;RP0=0, select bank0
  4067  0B74  1303               	bcf	3,6	;RP1=0, select bank0
  4068  0B75  0828               	movf	?___flmul+3,w
  4069  0B76  00E0               	movwf	___fladd@a+3
  4070  0B77  0827               	movf	?___flmul+2,w
  4071  0B78  00DF               	movwf	___fladd@a+2
  4072  0B79  0826               	movf	?___flmul+1,w
  4073  0B7A  00DE               	movwf	___fladd@a+1
  4074  0B7B  0825               	movf	?___flmul,w
  4075  0B7C  00DD               	movwf	___fladd@a
  4076  0B7D  120A  158A  2578  120A  158A  	fcall	___fladd
  4077  0B82  1283               	bcf	3,5	;RP0=0, select bank0
  4078  0B83  1303               	bcf	3,6	;RP1=0, select bank0
  4079  0B84  085C               	movf	?___fladd+3,w
  4080  0B85  1683               	bsf	3,5	;RP0=1, select bank1
  4081  0B86  1303               	bcf	3,6	;RP1=0, select bank1
  4082  0B87  00B3               	movwf	(?_log+3)^(0+128)
  4083  0B88  1283               	bcf	3,5	;RP0=0, select bank0
  4084  0B89  1303               	bcf	3,6	;RP1=0, select bank0
  4085  0B8A  085B               	movf	?___fladd+2,w
  4086  0B8B  1683               	bsf	3,5	;RP0=1, select bank1
  4087  0B8C  1303               	bcf	3,6	;RP1=0, select bank1
  4088  0B8D  00B2               	movwf	(?_log+2)^(0+128)
  4089  0B8E  1283               	bcf	3,5	;RP0=0, select bank0
  4090  0B8F  1303               	bcf	3,6	;RP1=0, select bank0
  4091  0B90  085A               	movf	?___fladd+1,w
  4092  0B91  1683               	bsf	3,5	;RP0=1, select bank1
  4093  0B92  1303               	bcf	3,6	;RP1=0, select bank1
  4094  0B93  00B1               	movwf	(?_log+1)^(0+128)
  4095  0B94  1283               	bcf	3,5	;RP0=0, select bank0
  4096  0B95  1303               	bcf	3,6	;RP1=0, select bank0
  4097  0B96  0859               	movf	?___fladd,w
  4098  0B97  1683               	bsf	3,5	;RP0=1, select bank1
  4099  0B98  1303               	bcf	3,6	;RP1=0, select bank1
  4100  0B99  00B0               	movwf	?_log^(0+128)
  4101  0B9A                     l865:
  4102  0B9A  0008               	return
  4103  0B9B                     __end_of_log:
  4104                           
  4105                           	psect	text9
  4106  0016                     __ptext9:	
  4107 ;; *************** function _frexp *****************
  4108 ;; Defined at:
  4109 ;;		line 254 in file "C:\Program Files\Microchip\xc8\v2.36\pic\sources\c90\common\frexp.c"
  4110 ;; Parameters:    Size  Location     Type
  4111 ;;  value           4    0[BANK0 ] int 
  4112 ;;  eptr            1    4[BANK0 ] PTR int 
  4113 ;;		 -> log@exponent(2), 
  4114 ;; Auto vars:     Size  Location     Type
  4115 ;;		None
  4116 ;; Return value:  Size  Location     Type
  4117 ;;                  4    0[BANK0 ] PTR int 
  4118 ;; Registers used:
  4119 ;;		wreg, fsr0l, fsr0h, status,2, status,0, btemp+1, pclath, cstack
  4120 ;; Tracked objects:
  4121 ;;		On entry : 0/0
  4122 ;;		On exit  : 0/0
  4123 ;;		Unchanged: 0/0
  4124 ;; Data sizes:     COMMON   BANK0   BANK1   BANK3   BANK2
  4125 ;;      Params:         0       5       0       0       0
  4126 ;;      Locals:         0       0       0       0       0
  4127 ;;      Temps:          2       0       0       0       0
  4128 ;;      Totals:         2       5       0       0       0
  4129 ;;Total ram usage:        7 bytes
  4130 ;; Hardware stack levels used: 1
  4131 ;; Hardware stack levels required when called: 1
  4132 ;; This function calls:
  4133 ;;		___fleq
  4134 ;; This function is called by:
  4135 ;;		_log
  4136 ;; This function uses a non-reentrant model
  4137 ;;
  4138                           
  4139  0016                     _frexp:	
  4140                           ;psect for function _frexp
  4141                           
  4142  0016                     l2728:	
  4143                           ;incstack = 0
  4144                           ; Regs used in _frexp: [wreg-fsr0h+status,2+status,0+btemp+1+pclath+cstack]
  4145                           
  4146  0016  1283               	bcf	3,5	;RP0=0, select bank0
  4147  0017  1303               	bcf	3,6	;RP1=0, select bank0
  4148  0018  0823               	movf	frexp@value+3,w
  4149  0019  00F3               	movwf	___fleq@ff1+3
  4150  001A  0822               	movf	frexp@value+2,w
  4151  001B  00F2               	movwf	___fleq@ff1+2
  4152  001C  0821               	movf	frexp@value+1,w
  4153  001D  00F1               	movwf	___fleq@ff1+1
  4154  001E  0820               	movf	frexp@value,w
  4155  001F  00F0               	movwf	___fleq@ff1
  4156  0020  3000               	movlw	0
  4157  0021  00F7               	movwf	___fleq@ff2+3
  4158  0022  3000               	movlw	0
  4159  0023  00F6               	movwf	___fleq@ff2+2
  4160  0024  3000               	movlw	0
  4161  0025  00F5               	movwf	___fleq@ff2+1
  4162  0026  3000               	movlw	0
  4163  0027  00F4               	movwf	___fleq@ff2
  4164  0028  160A  118A  2502  120A  118A  	fcall	___fleq
  4165  002D  1C03               	btfss	3,0
  4166  002E  2830               	goto	u3501
  4167  002F  2831               	goto	u3500
  4168  0030                     u3501:
  4169  0030  2842               	goto	l2736
  4170  0031                     u3500:
  4171  0031                     l2730:
  4172  0031  1283               	bcf	3,5	;RP0=0, select bank0
  4173  0032  1303               	bcf	3,6	;RP1=0, select bank0
  4174  0033  0824               	movf	frexp@eptr,w
  4175  0034  0084               	movwf	4
  4176  0035  1383               	bcf	3,7	;select IRP bank0
  4177  0036  0180               	clrf	0
  4178  0037  0A84               	incf	4,f
  4179  0038  0180               	clrf	0
  4180  0039                     l2732:
  4181  0039  3000               	movlw	0
  4182  003A  00A3               	movwf	?_frexp+3
  4183  003B  3000               	movlw	0
  4184  003C  00A2               	movwf	?_frexp+2
  4185  003D  3000               	movlw	0
  4186  003E  00A1               	movwf	?_frexp+1
  4187  003F  3000               	movlw	0
  4188  0040  00A0               	movwf	?_frexp
  4189  0041  2871               	goto	l883
  4190  0042                     l2736:
  4191  0042  1283               	bcf	3,5	;RP0=0, select bank0
  4192  0043  1303               	bcf	3,6	;RP1=0, select bank0
  4193  0044  0823               	movf	frexp@value+3,w
  4194  0045  397F               	andlw	127
  4195  0046  00FC               	movwf	??_frexp
  4196  0047  01FD               	clrf	??_frexp+1
  4197  0048  1003               	clrc
  4198  0049  0DFC               	rlf	??_frexp,f
  4199  004A  0DFD               	rlf	??_frexp+1,f
  4200  004B  0824               	movf	frexp@eptr,w
  4201  004C  0084               	movwf	4
  4202  004D  087C               	movf	??_frexp,w
  4203  004E  1383               	bcf	3,7	;select IRP bank0
  4204  004F  0080               	movwf	0
  4205  0050  0A84               	incf	4,f
  4206  0051  087D               	movf	??_frexp+1,w
  4207  0052  0080               	movwf	0
  4208  0053  0D22               	rlf	frexp@value+2,w
  4209  0054  0D22               	rlf	frexp@value+2,w
  4210  0055  3901               	andlw	1
  4211  0056  00FC               	movwf	??_frexp
  4212  0057  01FD               	clrf	??_frexp+1
  4213  0058  0824               	movf	frexp@eptr,w
  4214  0059  0084               	movwf	4
  4215  005A  087C               	movf	??_frexp,w
  4216  005B  0480               	iorwf	0,f
  4217  005C  0A84               	incf	4,f
  4218  005D  087D               	movf	??_frexp+1,w
  4219  005E  0480               	iorwf	0,f
  4220  005F                     l2738:
  4221  005F  0824               	movf	frexp@eptr,w
  4222  0060  0084               	movwf	4
  4223  0061  3082               	movlw	130
  4224  0062  0780               	addwf	0,f
  4225  0063  0F84               	incfsz	4,f
  4226  0064  0800               	movf	0,w
  4227  0065  1803               	skipnc
  4228  0066  0A00               	incf	0,w
  4229  0067  00FF               	movwf	btemp+1
  4230  0068  30FF               	movlw	255
  4231  0069  077F               	addwf	btemp+1,w
  4232  006A  0080               	movwf	0
  4233  006B  0384               	decf	4,f
  4234  006C                     l2740:
  4235  006C  0823               	movf	frexp@value+3,w
  4236  006D  3980               	andlw	-128
  4237  006E  383F               	iorlw	63
  4238  006F  00A3               	movwf	frexp@value+3
  4239  0070                     l2742:
  4240  0070  13A2               	bcf	frexp@value+2,7
  4241  0071                     l2744:
  4242  0071                     l883:
  4243  0071  0008               	return
  4244  0072                     __end_of_frexp:
  4245                           
  4246                           	psect	text10
  4247  1502                     __ptext10:	
  4248 ;; *************** function ___fleq *****************
  4249 ;; Defined at:
  4250 ;;		line 4 in file "C:\Program Files\Microchip\xc8\v2.36\pic\sources\c90\common\fleq.c"
  4251 ;; Parameters:    Size  Location     Type
  4252 ;;  ff1             4    0[COMMON] PTR int 
  4253 ;;  ff2             4    4[COMMON] PTR int 
  4254 ;; Auto vars:     Size  Location     Type
  4255 ;;		None
  4256 ;; Return value:  Size  Location     Type
  4257 ;;		None               void
  4258 ;; Registers used:
  4259 ;;		wreg, status,2, status,0
  4260 ;; Tracked objects:
  4261 ;;		On entry : 0/0
  4262 ;;		On exit  : 0/0
  4263 ;;		Unchanged: 0/0
  4264 ;; Data sizes:     COMMON   BANK0   BANK1   BANK3   BANK2
  4265 ;;      Params:         8       0       0       0       0
  4266 ;;      Locals:         0       0       0       0       0
  4267 ;;      Temps:          4       0       0       0       0
  4268 ;;      Totals:        12       0       0       0       0
  4269 ;;Total ram usage:       12 bytes
  4270 ;; Hardware stack levels used: 1
  4271 ;; This function calls:
  4272 ;;		Nothing
  4273 ;; This function is called by:
  4274 ;;		_log
  4275 ;;		_frexp
  4276 ;; This function uses a non-reentrant model
  4277 ;;
  4278                           
  4279  1502                     ___fleq:	
  4280                           ;psect for function ___fleq
  4281                           
  4282  1502                     l2242:	
  4283                           ;incstack = 0
  4284                           ; Regs used in ___fleq: [wreg+status,2+status,0]
  4285                           
  4286  1502  3000               	movlw	0
  4287  1503  0570               	andwf	___fleq@ff1,w
  4288  1504  00F8               	movwf	??___fleq
  4289  1505  3000               	movlw	0
  4290  1506  0571               	andwf	___fleq@ff1+1,w
  4291  1507  00F9               	movwf	??___fleq+1
  4292  1508  3080               	movlw	128
  4293  1509  0572               	andwf	___fleq@ff1+2,w
  4294  150A  00FA               	movwf	??___fleq+2
  4295  150B  307F               	movlw	127
  4296  150C  0573               	andwf	___fleq@ff1+3,w
  4297  150D  00FB               	movwf	??___fleq+3
  4298  150E  087B               	movf	??___fleq+3,w
  4299  150F  047A               	iorwf	??___fleq+2,w
  4300  1510  0479               	iorwf	??___fleq+1,w
  4301  1511  0478               	iorwf	??___fleq,w
  4302  1512  1D03               	skipz
  4303  1513  2D15               	goto	u2281
  4304  1514  2D16               	goto	u2280
  4305  1515                     u2281:
  4306  1515  2D1E               	goto	l574
  4307  1516                     u2280:
  4308  1516                     l2244:
  4309  1516  3000               	movlw	0
  4310  1517  00F3               	movwf	___fleq@ff1+3
  4311  1518  3000               	movlw	0
  4312  1519  00F2               	movwf	___fleq@ff1+2
  4313  151A  3000               	movlw	0
  4314  151B  00F1               	movwf	___fleq@ff1+1
  4315  151C  3000               	movlw	0
  4316  151D  00F0               	movwf	___fleq@ff1
  4317  151E                     l574:
  4318  151E  3000               	movlw	0
  4319  151F  0574               	andwf	___fleq@ff2,w
  4320  1520  00F8               	movwf	??___fleq
  4321  1521  3000               	movlw	0
  4322  1522  0575               	andwf	___fleq@ff2+1,w
  4323  1523  00F9               	movwf	??___fleq+1
  4324  1524  3080               	movlw	128
  4325  1525  0576               	andwf	___fleq@ff2+2,w
  4326  1526  00FA               	movwf	??___fleq+2
  4327  1527  307F               	movlw	127
  4328  1528  0577               	andwf	___fleq@ff2+3,w
  4329  1529  00FB               	movwf	??___fleq+3
  4330  152A  087B               	movf	??___fleq+3,w
  4331  152B  047A               	iorwf	??___fleq+2,w
  4332  152C  0479               	iorwf	??___fleq+1,w
  4333  152D  0478               	iorwf	??___fleq,w
  4334  152E  1D03               	skipz
  4335  152F  2D31               	goto	u2291
  4336  1530  2D32               	goto	u2290
  4337  1531                     u2291:
  4338  1531  2D3A               	goto	l575
  4339  1532                     u2290:
  4340  1532                     l2246:
  4341  1532  3000               	movlw	0
  4342  1533  00F7               	movwf	___fleq@ff2+3
  4343  1534  3000               	movlw	0
  4344  1535  00F6               	movwf	___fleq@ff2+2
  4345  1536  3000               	movlw	0
  4346  1537  00F5               	movwf	___fleq@ff2+1
  4347  1538  3000               	movlw	0
  4348  1539  00F4               	movwf	___fleq@ff2
  4349  153A                     l575:
  4350  153A  0877               	movf	___fleq@ff2+3,w
  4351  153B  0673               	xorwf	___fleq@ff1+3,w
  4352  153C  1D03               	skipz
  4353  153D  2D48               	goto	u2305
  4354  153E  0876               	movf	___fleq@ff2+2,w
  4355  153F  0672               	xorwf	___fleq@ff1+2,w
  4356  1540  1D03               	skipz
  4357  1541  2D48               	goto	u2305
  4358  1542  0875               	movf	___fleq@ff2+1,w
  4359  1543  0671               	xorwf	___fleq@ff1+1,w
  4360  1544  1D03               	skipz
  4361  1545  2D48               	goto	u2305
  4362  1546  0874               	movf	___fleq@ff2,w
  4363  1547  0670               	xorwf	___fleq@ff1,w
  4364  1548                     u2305:
  4365  1548  1903               	skipnz
  4366  1549  2D4B               	goto	u2301
  4367  154A  2D4C               	goto	u2300
  4368  154B                     u2301:
  4369  154B  2D4E               	goto	l2250
  4370  154C                     u2300:
  4371  154C                     l2248:
  4372  154C  1003               	clrc
  4373  154D  2D4F               	goto	l576
  4374  154E                     l2250:
  4375  154E  1403               	setc
  4376  154F                     l576:
  4377  154F  0008               	return
  4378  1550                     __end_of___fleq:
  4379                           
  4380                           	psect	text11
  4381  1726                     __ptext11:	
  4382 ;; *************** function _eval_poly *****************
  4383 ;; Defined at:
  4384 ;;		line 4 in file "C:\Program Files\Microchip\xc8\v2.36\pic\sources\c90\common\evalpoly.c"
  4385 ;; Parameters:    Size  Location     Type
  4386 ;;  x               4    0[BANK1 ] PTR int 
  4387 ;;  d               1    4[BANK1 ] PTR const 
  4388 ;;		 -> log@coeff(36), 
  4389 ;;  n               2    5[BANK1 ] int 
  4390 ;; Auto vars:     Size  Location     Type
  4391 ;;  res             4   12[BANK1 ] int 
  4392 ;; Return value:  Size  Location     Type
  4393 ;;                  4    0[BANK1 ] int 
  4394 ;; Registers used:
  4395 ;;		wreg, fsr0l, fsr0h, status,2, status,0, btemp+1, pclath, cstack
  4396 ;; Tracked objects:
  4397 ;;		On entry : 0/0
  4398 ;;		On exit  : 0/0
  4399 ;;		Unchanged: 0/0
  4400 ;; Data sizes:     COMMON   BANK0   BANK1   BANK3   BANK2
  4401 ;;      Params:         0       0       7       0       0
  4402 ;;      Locals:         0       0       4       0       0
  4403 ;;      Temps:          0       0       5       0       0
  4404 ;;      Totals:         0       0      16       0       0
  4405 ;;Total ram usage:       16 bytes
  4406 ;; Hardware stack levels used: 1
  4407 ;; Hardware stack levels required when called: 2
  4408 ;; This function calls:
  4409 ;;		___fladd
  4410 ;;		___flmul
  4411 ;; This function is called by:
  4412 ;;		_log
  4413 ;; This function uses a non-reentrant model
  4414 ;;
  4415                           
  4416  1726                     _eval_poly:	
  4417                           ;psect for function _eval_poly
  4418                           
  4419  1726                     l2748:	
  4420                           ;incstack = 0
  4421                           ; Regs used in _eval_poly: [wreg-fsr0h+status,2+status,0+btemp+1+pclath+cstack]
  4422                           
  4423  1726  1683               	bsf	3,5	;RP0=1, select bank1
  4424  1727  1303               	bcf	3,6	;RP1=0, select bank1
  4425  1728  0825               	movf	eval_poly@n^(0+128),w
  4426  1729  00A7               	movwf	??_eval_poly^(0+128)
  4427  172A  3001               	movlw	1
  4428  172B                     u3515:
  4429  172B  1003               	clrc
  4430  172C  0DA7               	rlf	??_eval_poly^(0+128),f
  4431  172D  3EFF               	addlw	-1
  4432  172E  1D03               	skipz
  4433  172F  2F2B               	goto	u3515
  4434  1730  1003               	clrc
  4435  1731  0D27               	rlf	??_eval_poly^(0+128),w
  4436  1732  0724               	addwf	eval_poly@d^(0+128),w
  4437  1733  0084               	movwf	4
  4438  1734  160A  118A  200A  160A  118A  	fcall	stringdir
  4439  1739  00A8               	movwf	(??_eval_poly+1)^(0+128)
  4440  173A  160A  118A  200A  160A  118A  	fcall	stringdir
  4441  173F  00A9               	movwf	((??_eval_poly+1)^(0+128)+1)
  4442  1740  160A  118A  200A  160A  118A  	fcall	stringdir
  4443  1745  00AA               	movwf	((??_eval_poly+1)^(0+128)+2)
  4444  1746  160A  118A  200A  160A  118A  	fcall	stringdir
  4445  174B  00AB               	movwf	((??_eval_poly+1)^(0+128)+3)
  4446  174C  082B               	movf	(??_eval_poly+4)^(0+128),w
  4447  174D  00AF               	movwf	(eval_poly@res+3)^(0+128)
  4448  174E  082A               	movf	(??_eval_poly+3)^(0+128),w
  4449  174F  00AE               	movwf	(eval_poly@res+2)^(0+128)
  4450  1750  0829               	movf	(??_eval_poly+2)^(0+128),w
  4451  1751  00AD               	movwf	(eval_poly@res+1)^(0+128)
  4452  1752  0828               	movf	(??_eval_poly+1)^(0+128),w
  4453  1753  00AC               	movwf	eval_poly@res^(0+128)
  4454  1754  2FF1               	goto	l2752
  4455  1755                     l2750:
  4456  1755  30FF               	movlw	255
  4457  1756  07A5               	addwf	eval_poly@n^(0+128),f
  4458  1757  1803               	skipnc
  4459  1758  0AA6               	incf	(eval_poly@n+1)^(0+128),f
  4460  1759  30FF               	movlw	255
  4461  175A  07A6               	addwf	(eval_poly@n+1)^(0+128),f
  4462  175B  0825               	movf	eval_poly@n^(0+128),w
  4463  175C  00A7               	movwf	??_eval_poly^(0+128)
  4464  175D  3001               	movlw	1
  4465  175E                     u3525:
  4466  175E  1003               	clrc
  4467  175F  0DA7               	rlf	??_eval_poly^(0+128),f
  4468  1760  3EFF               	addlw	-1
  4469  1761  1D03               	skipz
  4470  1762  2F5E               	goto	u3525
  4471  1763  1003               	clrc
  4472  1764  0D27               	rlf	??_eval_poly^(0+128),w
  4473  1765  0724               	addwf	eval_poly@d^(0+128),w
  4474  1766  0084               	movwf	4
  4475  1767  160A  118A  200A  160A  118A  	fcall	stringdir
  4476  176C  00A8               	movwf	(??_eval_poly+1)^(0+128)
  4477  176D  160A  118A  200A  160A  118A  	fcall	stringdir
  4478  1772  00A9               	movwf	((??_eval_poly+1)^(0+128)+1)
  4479  1773  160A  118A  200A  160A  118A  	fcall	stringdir
  4480  1778  00AA               	movwf	((??_eval_poly+1)^(0+128)+2)
  4481  1779  160A  118A  200A  160A  118A  	fcall	stringdir
  4482  177E  00AB               	movwf	((??_eval_poly+1)^(0+128)+3)
  4483  177F  082B               	movf	(??_eval_poly+4)^(0+128),w
  4484  1780  1283               	bcf	3,5	;RP0=0, select bank0
  4485  1781  1303               	bcf	3,6	;RP1=0, select bank0
  4486  1782  00DC               	movwf	___fladd@b+3
  4487  1783  1683               	bsf	3,5	;RP0=1, select bank1
  4488  1784  1303               	bcf	3,6	;RP1=0, select bank1
  4489  1785  082A               	movf	(??_eval_poly+3)^(0+128),w
  4490  1786  1283               	bcf	3,5	;RP0=0, select bank0
  4491  1787  1303               	bcf	3,6	;RP1=0, select bank0
  4492  1788  00DB               	movwf	___fladd@b+2
  4493  1789  1683               	bsf	3,5	;RP0=1, select bank1
  4494  178A  1303               	bcf	3,6	;RP1=0, select bank1
  4495  178B  0829               	movf	(??_eval_poly+2)^(0+128),w
  4496  178C  1283               	bcf	3,5	;RP0=0, select bank0
  4497  178D  1303               	bcf	3,6	;RP1=0, select bank0
  4498  178E  00DA               	movwf	___fladd@b+1
  4499  178F  1683               	bsf	3,5	;RP0=1, select bank1
  4500  1790  1303               	bcf	3,6	;RP1=0, select bank1
  4501  1791  0828               	movf	(??_eval_poly+1)^(0+128),w
  4502  1792  1283               	bcf	3,5	;RP0=0, select bank0
  4503  1793  1303               	bcf	3,6	;RP1=0, select bank0
  4504  1794  00D9               	movwf	___fladd@b
  4505  1795  1683               	bsf	3,5	;RP0=1, select bank1
  4506  1796  1303               	bcf	3,6	;RP1=0, select bank1
  4507  1797  082F               	movf	(eval_poly@res+3)^(0+128),w
  4508  1798  1283               	bcf	3,5	;RP0=0, select bank0
  4509  1799  1303               	bcf	3,6	;RP1=0, select bank0
  4510  179A  00A8               	movwf	___flmul@b+3
  4511  179B  1683               	bsf	3,5	;RP0=1, select bank1
  4512  179C  1303               	bcf	3,6	;RP1=0, select bank1
  4513  179D  082E               	movf	(eval_poly@res+2)^(0+128),w
  4514  179E  1283               	bcf	3,5	;RP0=0, select bank0
  4515  179F  1303               	bcf	3,6	;RP1=0, select bank0
  4516  17A0  00A7               	movwf	___flmul@b+2
  4517  17A1  1683               	bsf	3,5	;RP0=1, select bank1
  4518  17A2  1303               	bcf	3,6	;RP1=0, select bank1
  4519  17A3  082D               	movf	(eval_poly@res+1)^(0+128),w
  4520  17A4  1283               	bcf	3,5	;RP0=0, select bank0
  4521  17A5  1303               	bcf	3,6	;RP1=0, select bank0
  4522  17A6  00A6               	movwf	___flmul@b+1
  4523  17A7  1683               	bsf	3,5	;RP0=1, select bank1
  4524  17A8  1303               	bcf	3,6	;RP1=0, select bank1
  4525  17A9  082C               	movf	eval_poly@res^(0+128),w
  4526  17AA  1283               	bcf	3,5	;RP0=0, select bank0
  4527  17AB  1303               	bcf	3,6	;RP1=0, select bank0
  4528  17AC  00A5               	movwf	___flmul@b
  4529  17AD  1683               	bsf	3,5	;RP0=1, select bank1
  4530  17AE  1303               	bcf	3,6	;RP1=0, select bank1
  4531  17AF  0823               	movf	(eval_poly@x+3)^(0+128),w
  4532  17B0  1283               	bcf	3,5	;RP0=0, select bank0
  4533  17B1  1303               	bcf	3,6	;RP1=0, select bank0
  4534  17B2  00AC               	movwf	___flmul@a+3
  4535  17B3  1683               	bsf	3,5	;RP0=1, select bank1
  4536  17B4  1303               	bcf	3,6	;RP1=0, select bank1
  4537  17B5  0822               	movf	(eval_poly@x+2)^(0+128),w
  4538  17B6  1283               	bcf	3,5	;RP0=0, select bank0
  4539  17B7  1303               	bcf	3,6	;RP1=0, select bank0
  4540  17B8  00AB               	movwf	___flmul@a+2
  4541  17B9  1683               	bsf	3,5	;RP0=1, select bank1
  4542  17BA  1303               	bcf	3,6	;RP1=0, select bank1
  4543  17BB  0821               	movf	(eval_poly@x+1)^(0+128),w
  4544  17BC  1283               	bcf	3,5	;RP0=0, select bank0
  4545  17BD  1303               	bcf	3,6	;RP1=0, select bank0
  4546  17BE  00AA               	movwf	___flmul@a+1
  4547  17BF  1683               	bsf	3,5	;RP0=1, select bank1
  4548  17C0  1303               	bcf	3,6	;RP1=0, select bank1
  4549  17C1  0820               	movf	eval_poly@x^(0+128),w
  4550  17C2  1283               	bcf	3,5	;RP0=0, select bank0
  4551  17C3  1303               	bcf	3,6	;RP1=0, select bank0
  4552  17C4  00A9               	movwf	___flmul@a
  4553  17C5  120A  118A  2072  160A  118A  	fcall	___flmul
  4554  17CA  1283               	bcf	3,5	;RP0=0, select bank0
  4555  17CB  1303               	bcf	3,6	;RP1=0, select bank0
  4556  17CC  0828               	movf	?___flmul+3,w
  4557  17CD  00E0               	movwf	___fladd@a+3
  4558  17CE  0827               	movf	?___flmul+2,w
  4559  17CF  00DF               	movwf	___fladd@a+2
  4560  17D0  0826               	movf	?___flmul+1,w
  4561  17D1  00DE               	movwf	___fladd@a+1
  4562  17D2  0825               	movf	?___flmul,w
  4563  17D3  00DD               	movwf	___fladd@a
  4564  17D4  120A  158A  2578  160A  118A  	fcall	___fladd
  4565  17D9  1283               	bcf	3,5	;RP0=0, select bank0
  4566  17DA  1303               	bcf	3,6	;RP1=0, select bank0
  4567  17DB  085C               	movf	?___fladd+3,w
  4568  17DC  1683               	bsf	3,5	;RP0=1, select bank1
  4569  17DD  1303               	bcf	3,6	;RP1=0, select bank1
  4570  17DE  00AF               	movwf	(eval_poly@res+3)^(0+128)
  4571  17DF  1283               	bcf	3,5	;RP0=0, select bank0
  4572  17E0  1303               	bcf	3,6	;RP1=0, select bank0
  4573  17E1  085B               	movf	?___fladd+2,w
  4574  17E2  1683               	bsf	3,5	;RP0=1, select bank1
  4575  17E3  1303               	bcf	3,6	;RP1=0, select bank1
  4576  17E4  00AE               	movwf	(eval_poly@res+2)^(0+128)
  4577  17E5  1283               	bcf	3,5	;RP0=0, select bank0
  4578  17E6  1303               	bcf	3,6	;RP1=0, select bank0
  4579  17E7  085A               	movf	?___fladd+1,w
  4580  17E8  1683               	bsf	3,5	;RP0=1, select bank1
  4581  17E9  1303               	bcf	3,6	;RP1=0, select bank1
  4582  17EA  00AD               	movwf	(eval_poly@res+1)^(0+128)
  4583  17EB  1283               	bcf	3,5	;RP0=0, select bank0
  4584  17EC  1303               	bcf	3,6	;RP1=0, select bank0
  4585  17ED  0859               	movf	?___fladd,w
  4586  17EE  1683               	bsf	3,5	;RP0=1, select bank1
  4587  17EF  1303               	bcf	3,6	;RP1=0, select bank1
  4588  17F0  00AC               	movwf	eval_poly@res^(0+128)
  4589  17F1                     l2752:
  4590  17F1  0825               	movf	eval_poly@n^(0+128),w
  4591  17F2  0426               	iorwf	(eval_poly@n+1)^(0+128),w
  4592  17F3  1D03               	btfss	3,2
  4593  17F4  2FF6               	goto	u3531
  4594  17F5  2FF7               	goto	u3530
  4595  17F6                     u3531:
  4596  17F6  2F55               	goto	l2750
  4597  17F7                     u3530:
  4598  17F7                     l2754:
  4599  17F7  082F               	movf	(eval_poly@res+3)^(0+128),w
  4600  17F8  00A3               	movwf	(?_eval_poly+3)^(0+128)
  4601  17F9  082E               	movf	(eval_poly@res+2)^(0+128),w
  4602  17FA  00A2               	movwf	(?_eval_poly+2)^(0+128)
  4603  17FB  082D               	movf	(eval_poly@res+1)^(0+128),w
  4604  17FC  00A1               	movwf	(?_eval_poly+1)^(0+128)
  4605  17FD  082C               	movf	eval_poly@res^(0+128),w
  4606  17FE  00A0               	movwf	?_eval_poly^(0+128)
  4607  17FF                     l877:
  4608  17FF  0008               	return
  4609  1800                     __end_of_eval_poly:
  4610                           
  4611                           	psect	text12
  4612  0072                     __ptext12:	
  4613 ;; *************** function ___flmul *****************
  4614 ;; Defined at:
  4615 ;;		line 8 in file "C:\Program Files\Microchip\xc8\v2.36\pic\sources\c90\common\sprcmul.c"
  4616 ;; Parameters:    Size  Location     Type
  4617 ;;  b               4    5[BANK0 ] int 
  4618 ;;  a               4    9[BANK0 ] int 
  4619 ;; Auto vars:     Size  Location     Type
  4620 ;;  prod            4   25[BANK0 ] struct .
  4621 ;;  grs             4   19[BANK0 ] unsigned long 
  4622 ;;  temp            2   29[BANK0 ] struct .
  4623 ;;  bexp            1   24[BANK0 ] unsigned char 
  4624 ;;  aexp            1   23[BANK0 ] unsigned char 
  4625 ;;  sign            1   18[BANK0 ] unsigned char 
  4626 ;; Return value:  Size  Location     Type
  4627 ;;                  4    5[BANK0 ] unsigned char 
  4628 ;; Registers used:
  4629 ;;		wreg, status,2, status,0, btemp+1, pclath, cstack
  4630 ;; Tracked objects:
  4631 ;;		On entry : 0/0
  4632 ;;		On exit  : 0/0
  4633 ;;		Unchanged: 0/0
  4634 ;; Data sizes:     COMMON   BANK0   BANK1   BANK3   BANK2
  4635 ;;      Params:         0       8       0       0       0
  4636 ;;      Locals:         0      13       0       0       0
  4637 ;;      Temps:          0       5       0       0       0
  4638 ;;      Totals:         0      26       0       0       0
  4639 ;;Total ram usage:       26 bytes
  4640 ;; Hardware stack levels used: 1
  4641 ;; Hardware stack levels required when called: 1
  4642 ;; This function calls:
  4643 ;;		__Umul8_16
  4644 ;; This function is called by:
  4645 ;;		_log
  4646 ;;		_eval_poly
  4647 ;; This function uses a non-reentrant model
  4648 ;;
  4649                           
  4650  0072                     ___flmul:	
  4651                           ;psect for function ___flmul
  4652                           
  4653  0072                     l2448:	
  4654                           ;incstack = 0
  4655                           ; Regs used in ___flmul: [wreg+status,2+status,0+btemp+1+pclath+cstack]
  4656                           
  4657  0072  1283               	bcf	3,5	;RP0=0, select bank0
  4658  0073  1303               	bcf	3,6	;RP1=0, select bank0
  4659  0074  0828               	movf	___flmul@b+3,w
  4660  0075  3980               	andlw	128
  4661  0076  00AD               	movwf	??___flmul
  4662  0077  082D               	movf	??___flmul,w
  4663  0078  00B2               	movwf	___flmul@sign
  4664  0079                     l2450:
  4665  0079  0828               	movf	___flmul@b+3,w
  4666  007A  00AD               	movwf	??___flmul
  4667  007B  072D               	addwf	??___flmul,w
  4668  007C  00AE               	movwf	??___flmul+1
  4669  007D  082E               	movf	??___flmul+1,w
  4670  007E  00B8               	movwf	___flmul@bexp
  4671  007F                     l2452:
  4672  007F  1FA7               	btfss	___flmul@b+2,7
  4673  0080  2882               	goto	u2771
  4674  0081  2883               	goto	u2770
  4675  0082                     u2771:
  4676  0082  2884               	goto	l2456
  4677  0083                     u2770:
  4678  0083                     l2454:
  4679  0083  1438               	bsf	___flmul@bexp,0
  4680  0084                     l2456:
  4681  0084  0838               	movf	___flmul@bexp,w
  4682  0085  1903               	btfsc	3,2
  4683  0086  2888               	goto	u2781
  4684  0087  2889               	goto	u2780
  4685  0088                     u2781:
  4686  0088  2898               	goto	l2464
  4687  0089                     u2780:
  4688  0089                     l2458:
  4689  0089  0A38               	incf	___flmul@bexp,w
  4690  008A  1D03               	btfss	3,2
  4691  008B  288D               	goto	u2791
  4692  008C  288E               	goto	u2790
  4693  008D                     u2791:
  4694  008D  2896               	goto	l2462
  4695  008E                     u2790:
  4696  008E                     l2460:
  4697  008E  3000               	movlw	0
  4698  008F  00A8               	movwf	___flmul@b+3
  4699  0090  3000               	movlw	0
  4700  0091  00A7               	movwf	___flmul@b+2
  4701  0092  3000               	movlw	0
  4702  0093  00A6               	movwf	___flmul@b+1
  4703  0094  3000               	movlw	0
  4704  0095  00A5               	movwf	___flmul@b
  4705  0096                     l2462:
  4706  0096  17A7               	bsf	___flmul@b+2,7
  4707  0097  28A0               	goto	l2466
  4708  0098                     l2464:
  4709  0098  3000               	movlw	0
  4710  0099  00A8               	movwf	___flmul@b+3
  4711  009A  3000               	movlw	0
  4712  009B  00A7               	movwf	___flmul@b+2
  4713  009C  3000               	movlw	0
  4714  009D  00A6               	movwf	___flmul@b+1
  4715  009E  3000               	movlw	0
  4716  009F  00A5               	movwf	___flmul@b
  4717  00A0                     l2466:
  4718  00A0  082C               	movf	___flmul@a+3,w
  4719  00A1  3980               	andlw	128
  4720  00A2  00AD               	movwf	??___flmul
  4721  00A3  082D               	movf	??___flmul,w
  4722  00A4  06B2               	xorwf	___flmul@sign,f
  4723  00A5                     l2468:
  4724  00A5  082C               	movf	___flmul@a+3,w
  4725  00A6  00AD               	movwf	??___flmul
  4726  00A7  072D               	addwf	??___flmul,w
  4727  00A8  00AE               	movwf	??___flmul+1
  4728  00A9  082E               	movf	??___flmul+1,w
  4729  00AA  00B7               	movwf	___flmul@aexp
  4730  00AB                     l2470:
  4731  00AB  1FAB               	btfss	___flmul@a+2,7
  4732  00AC  28AE               	goto	u2801
  4733  00AD  28AF               	goto	u2800
  4734  00AE                     u2801:
  4735  00AE  28B0               	goto	l2474
  4736  00AF                     u2800:
  4737  00AF                     l2472:
  4738  00AF  1437               	bsf	___flmul@aexp,0
  4739  00B0                     l2474:
  4740  00B0  0837               	movf	___flmul@aexp,w
  4741  00B1  1903               	btfsc	3,2
  4742  00B2  28B4               	goto	u2811
  4743  00B3  28B5               	goto	u2810
  4744  00B4                     u2811:
  4745  00B4  28C4               	goto	l2482
  4746  00B5                     u2810:
  4747  00B5                     l2476:
  4748  00B5  0A37               	incf	___flmul@aexp,w
  4749  00B6  1D03               	btfss	3,2
  4750  00B7  28B9               	goto	u2821
  4751  00B8  28BA               	goto	u2820
  4752  00B9                     u2821:
  4753  00B9  28C2               	goto	l2480
  4754  00BA                     u2820:
  4755  00BA                     l2478:
  4756  00BA  3000               	movlw	0
  4757  00BB  00AC               	movwf	___flmul@a+3
  4758  00BC  3000               	movlw	0
  4759  00BD  00AB               	movwf	___flmul@a+2
  4760  00BE  3000               	movlw	0
  4761  00BF  00AA               	movwf	___flmul@a+1
  4762  00C0  3000               	movlw	0
  4763  00C1  00A9               	movwf	___flmul@a
  4764  00C2                     l2480:
  4765  00C2  17AB               	bsf	___flmul@a+2,7
  4766  00C3  28CC               	goto	l2484
  4767  00C4                     l2482:
  4768  00C4  3000               	movlw	0
  4769  00C5  00AC               	movwf	___flmul@a+3
  4770  00C6  3000               	movlw	0
  4771  00C7  00AB               	movwf	___flmul@a+2
  4772  00C8  3000               	movlw	0
  4773  00C9  00AA               	movwf	___flmul@a+1
  4774  00CA  3000               	movlw	0
  4775  00CB  00A9               	movwf	___flmul@a
  4776  00CC                     l2484:
  4777  00CC  0837               	movf	___flmul@aexp,w
  4778  00CD  1903               	btfsc	3,2
  4779  00CE  28D0               	goto	u2831
  4780  00CF  28D1               	goto	u2830
  4781  00D0                     u2831:
  4782  00D0  28D6               	goto	l2488
  4783  00D1                     u2830:
  4784  00D1                     l2486:
  4785  00D1  0838               	movf	___flmul@bexp,w
  4786  00D2  1D03               	btfss	3,2
  4787  00D3  28D5               	goto	u2841
  4788  00D4  28D6               	goto	u2840
  4789  00D5                     u2841:
  4790  00D5  28DF               	goto	l2492
  4791  00D6                     u2840:
  4792  00D6                     l2488:
  4793  00D6  3000               	movlw	0
  4794  00D7  00A8               	movwf	?___flmul+3
  4795  00D8  3000               	movlw	0
  4796  00D9  00A7               	movwf	?___flmul+2
  4797  00DA  3000               	movlw	0
  4798  00DB  00A6               	movwf	?___flmul+1
  4799  00DC  3000               	movlw	0
  4800  00DD  00A5               	movwf	?___flmul
  4801  00DE  2BD2               	goto	l794
  4802  00DF                     l2492:
  4803  00DF  0825               	movf	___flmul@b,w
  4804  00E0  00AD               	movwf	??___flmul
  4805  00E1  082D               	movf	??___flmul,w
  4806  00E2  00F0               	movwf	__Umul8_16@multiplicand
  4807  00E3  082B               	movf	___flmul@a+2,w
  4808  00E4  160A  118A  236F  120A  118A  	fcall	__Umul8_16
  4809  00E9  0871               	movf	?__Umul8_16+1,w
  4810  00EA  1283               	bcf	3,5	;RP0=0, select bank0
  4811  00EB  1303               	bcf	3,6	;RP1=0, select bank0
  4812  00EC  00BE               	movwf	___flmul@temp+1
  4813  00ED  0870               	movf	?__Umul8_16,w
  4814  00EE  00BD               	movwf	___flmul@temp
  4815  00EF                     l2494:
  4816  00EF  083D               	movf	___flmul@temp,w
  4817  00F0  00AD               	movwf	??___flmul
  4818  00F1  01AE               	clrf	??___flmul+1
  4819  00F2  01AF               	clrf	??___flmul+2
  4820  00F3  01B0               	clrf	??___flmul+3
  4821  00F4  0830               	movf	??___flmul+3,w
  4822  00F5  00B6               	movwf	___flmul@grs+3
  4823  00F6  082F               	movf	??___flmul+2,w
  4824  00F7  00B5               	movwf	___flmul@grs+2
  4825  00F8  082E               	movf	??___flmul+1,w
  4826  00F9  00B4               	movwf	___flmul@grs+1
  4827  00FA  082D               	movf	??___flmul,w
  4828  00FB  00B3               	movwf	___flmul@grs
  4829  00FC                     l2496:
  4830  00FC  083E               	movf	___flmul@temp+1,w
  4831  00FD  00AD               	movwf	??___flmul
  4832  00FE  01AE               	clrf	??___flmul+1
  4833  00FF  01AF               	clrf	??___flmul+2
  4834  0100  01B0               	clrf	??___flmul+3
  4835  0101  0830               	movf	??___flmul+3,w
  4836  0102  00BC               	movwf	___flmul@prod+3
  4837  0103  082F               	movf	??___flmul+2,w
  4838  0104  00BB               	movwf	___flmul@prod+2
  4839  0105  082E               	movf	??___flmul+1,w
  4840  0106  00BA               	movwf	___flmul@prod+1
  4841  0107  082D               	movf	??___flmul,w
  4842  0108  00B9               	movwf	___flmul@prod
  4843  0109  0826               	movf	___flmul@b+1,w
  4844  010A  00AD               	movwf	??___flmul
  4845  010B  082D               	movf	??___flmul,w
  4846  010C  00F0               	movwf	__Umul8_16@multiplicand
  4847  010D  082A               	movf	___flmul@a+1,w
  4848  010E  160A  118A  236F  120A  118A  	fcall	__Umul8_16
  4849  0113  0871               	movf	?__Umul8_16+1,w
  4850  0114  1283               	bcf	3,5	;RP0=0, select bank0
  4851  0115  1303               	bcf	3,6	;RP1=0, select bank0
  4852  0116  00BE               	movwf	___flmul@temp+1
  4853  0117  0870               	movf	?__Umul8_16,w
  4854  0118  00BD               	movwf	___flmul@temp
  4855  0119                     l2498:
  4856  0119  083D               	movf	___flmul@temp,w
  4857  011A  00AD               	movwf	??___flmul
  4858  011B  01AE               	clrf	??___flmul+1
  4859  011C  01AF               	clrf	??___flmul+2
  4860  011D  01B0               	clrf	??___flmul+3
  4861  011E  082D               	movf	??___flmul,w
  4862  011F  07B3               	addwf	___flmul@grs,f
  4863  0120  082E               	movf	??___flmul+1,w
  4864  0121  1103               	clrz
  4865  0122  1803               	skipnc
  4866  0123  3E01               	addlw	1
  4867  0124  1903               	skipnz
  4868  0125  2927               	goto	u2851
  4869  0126  07B4               	addwf	___flmul@grs+1,f
  4870  0127                     u2851:
  4871  0127  082F               	movf	??___flmul+2,w
  4872  0128  1103               	clrz
  4873  0129  1803               	skipnc
  4874  012A  3E01               	addlw	1
  4875  012B  1903               	skipnz
  4876  012C  292E               	goto	u2852
  4877  012D  07B5               	addwf	___flmul@grs+2,f
  4878  012E                     u2852:
  4879  012E  0830               	movf	??___flmul+3,w
  4880  012F  1103               	clrz
  4881  0130  1803               	skipnc
  4882  0131  3E01               	addlw	1
  4883  0132  1903               	skipnz
  4884  0133  2935               	goto	u2853
  4885  0134  07B6               	addwf	___flmul@grs+3,f
  4886  0135                     u2853:
  4887  0135                     l2500:
  4888  0135  083E               	movf	___flmul@temp+1,w
  4889  0136  00AD               	movwf	??___flmul
  4890  0137  01AE               	clrf	??___flmul+1
  4891  0138  01AF               	clrf	??___flmul+2
  4892  0139  01B0               	clrf	??___flmul+3
  4893  013A  082D               	movf	??___flmul,w
  4894  013B  07B9               	addwf	___flmul@prod,f
  4895  013C  082E               	movf	??___flmul+1,w
  4896  013D  1103               	clrz
  4897  013E  1803               	skipnc
  4898  013F  3E01               	addlw	1
  4899  0140  1903               	skipnz
  4900  0141  2943               	goto	u2861
  4901  0142  07BA               	addwf	___flmul@prod+1,f
  4902  0143                     u2861:
  4903  0143  082F               	movf	??___flmul+2,w
  4904  0144  1103               	clrz
  4905  0145  1803               	skipnc
  4906  0146  3E01               	addlw	1
  4907  0147  1903               	skipnz
  4908  0148  294A               	goto	u2862
  4909  0149  07BB               	addwf	___flmul@prod+2,f
  4910  014A                     u2862:
  4911  014A  0830               	movf	??___flmul+3,w
  4912  014B  1103               	clrz
  4913  014C  1803               	skipnc
  4914  014D  3E01               	addlw	1
  4915  014E  1903               	skipnz
  4916  014F  2951               	goto	u2863
  4917  0150  07BC               	addwf	___flmul@prod+3,f
  4918  0151                     u2863:
  4919  0151  0827               	movf	___flmul@b+2,w
  4920  0152  00AD               	movwf	??___flmul
  4921  0153  082D               	movf	??___flmul,w
  4922  0154  00F0               	movwf	__Umul8_16@multiplicand
  4923  0155  0829               	movf	___flmul@a,w
  4924  0156  160A  118A  236F  120A  118A  	fcall	__Umul8_16
  4925  015B  0871               	movf	?__Umul8_16+1,w
  4926  015C  1283               	bcf	3,5	;RP0=0, select bank0
  4927  015D  1303               	bcf	3,6	;RP1=0, select bank0
  4928  015E  00BE               	movwf	___flmul@temp+1
  4929  015F  0870               	movf	?__Umul8_16,w
  4930  0160  00BD               	movwf	___flmul@temp
  4931  0161                     l2502:
  4932  0161  083D               	movf	___flmul@temp,w
  4933  0162  00AD               	movwf	??___flmul
  4934  0163  01AE               	clrf	??___flmul+1
  4935  0164  01AF               	clrf	??___flmul+2
  4936  0165  01B0               	clrf	??___flmul+3
  4937  0166  082D               	movf	??___flmul,w
  4938  0167  07B3               	addwf	___flmul@grs,f
  4939  0168  082E               	movf	??___flmul+1,w
  4940  0169  1103               	clrz
  4941  016A  1803               	skipnc
  4942  016B  3E01               	addlw	1
  4943  016C  1903               	skipnz
  4944  016D  296F               	goto	u2871
  4945  016E  07B4               	addwf	___flmul@grs+1,f
  4946  016F                     u2871:
  4947  016F  082F               	movf	??___flmul+2,w
  4948  0170  1103               	clrz
  4949  0171  1803               	skipnc
  4950  0172  3E01               	addlw	1
  4951  0173  1903               	skipnz
  4952  0174  2976               	goto	u2872
  4953  0175  07B5               	addwf	___flmul@grs+2,f
  4954  0176                     u2872:
  4955  0176  0830               	movf	??___flmul+3,w
  4956  0177  1103               	clrz
  4957  0178  1803               	skipnc
  4958  0179  3E01               	addlw	1
  4959  017A  1903               	skipnz
  4960  017B  297D               	goto	u2873
  4961  017C  07B6               	addwf	___flmul@grs+3,f
  4962  017D                     u2873:
  4963  017D                     l2504:
  4964  017D  083E               	movf	___flmul@temp+1,w
  4965  017E  00AD               	movwf	??___flmul
  4966  017F  01AE               	clrf	??___flmul+1
  4967  0180  01AF               	clrf	??___flmul+2
  4968  0181  01B0               	clrf	??___flmul+3
  4969  0182  082D               	movf	??___flmul,w
  4970  0183  07B9               	addwf	___flmul@prod,f
  4971  0184  082E               	movf	??___flmul+1,w
  4972  0185  1103               	clrz
  4973  0186  1803               	skipnc
  4974  0187  3E01               	addlw	1
  4975  0188  1903               	skipnz
  4976  0189  298B               	goto	u2881
  4977  018A  07BA               	addwf	___flmul@prod+1,f
  4978  018B                     u2881:
  4979  018B  082F               	movf	??___flmul+2,w
  4980  018C  1103               	clrz
  4981  018D  1803               	skipnc
  4982  018E  3E01               	addlw	1
  4983  018F  1903               	skipnz
  4984  0190  2992               	goto	u2882
  4985  0191  07BB               	addwf	___flmul@prod+2,f
  4986  0192                     u2882:
  4987  0192  0830               	movf	??___flmul+3,w
  4988  0193  1103               	clrz
  4989  0194  1803               	skipnc
  4990  0195  3E01               	addlw	1
  4991  0196  1903               	skipnz
  4992  0197  2999               	goto	u2883
  4993  0198  07BC               	addwf	___flmul@prod+3,f
  4994  0199                     u2883:
  4995  0199                     l2506:
  4996  0199  3008               	movlw	8
  4997  019A  00AD               	movwf	??___flmul
  4998  019B                     u2895:
  4999  019B  1003               	clrc
  5000  019C  0DB3               	rlf	___flmul@grs,f
  5001  019D  0DB4               	rlf	___flmul@grs+1,f
  5002  019E  0DB5               	rlf	___flmul@grs+2,f
  5003  019F  0DB6               	rlf	___flmul@grs+3,f
  5004  01A0  0BAD               	decfsz	??___flmul,f
  5005  01A1  299B               	goto	u2895
  5006  01A2                     l2508:
  5007  01A2  0826               	movf	___flmul@b+1,w
  5008  01A3  00AD               	movwf	??___flmul
  5009  01A4  082D               	movf	??___flmul,w
  5010  01A5  00F0               	movwf	__Umul8_16@multiplicand
  5011  01A6  0829               	movf	___flmul@a,w
  5012  01A7  160A  118A  236F  120A  118A  	fcall	__Umul8_16
  5013  01AC  0871               	movf	?__Umul8_16+1,w
  5014  01AD  1283               	bcf	3,5	;RP0=0, select bank0
  5015  01AE  1303               	bcf	3,6	;RP1=0, select bank0
  5016  01AF  00BE               	movwf	___flmul@temp+1
  5017  01B0  0870               	movf	?__Umul8_16,w
  5018  01B1  00BD               	movwf	___flmul@temp
  5019  01B2                     l2510:
  5020  01B2  083D               	movf	___flmul@temp,w
  5021  01B3  00AD               	movwf	??___flmul
  5022  01B4  083E               	movf	___flmul@temp+1,w
  5023  01B5  00AE               	movwf	??___flmul+1
  5024  01B6  01AF               	clrf	??___flmul+2
  5025  01B7  01B0               	clrf	??___flmul+3
  5026  01B8  082D               	movf	??___flmul,w
  5027  01B9  07B3               	addwf	___flmul@grs,f
  5028  01BA  082E               	movf	??___flmul+1,w
  5029  01BB  1103               	clrz
  5030  01BC  1803               	skipnc
  5031  01BD  3E01               	addlw	1
  5032  01BE  1903               	skipnz
  5033  01BF  29C1               	goto	u2901
  5034  01C0  07B4               	addwf	___flmul@grs+1,f
  5035  01C1                     u2901:
  5036  01C1  082F               	movf	??___flmul+2,w
  5037  01C2  1103               	clrz
  5038  01C3  1803               	skipnc
  5039  01C4  3E01               	addlw	1
  5040  01C5  1903               	skipnz
  5041  01C6  29C8               	goto	u2902
  5042  01C7  07B5               	addwf	___flmul@grs+2,f
  5043  01C8                     u2902:
  5044  01C8  0830               	movf	??___flmul+3,w
  5045  01C9  1103               	clrz
  5046  01CA  1803               	skipnc
  5047  01CB  3E01               	addlw	1
  5048  01CC  1903               	skipnz
  5049  01CD  29CF               	goto	u2903
  5050  01CE  07B6               	addwf	___flmul@grs+3,f
  5051  01CF                     u2903:
  5052  01CF                     l2512:
  5053  01CF  0825               	movf	___flmul@b,w
  5054  01D0  00AD               	movwf	??___flmul
  5055  01D1  082D               	movf	??___flmul,w
  5056  01D2  00F0               	movwf	__Umul8_16@multiplicand
  5057  01D3  082A               	movf	___flmul@a+1,w
  5058  01D4  160A  118A  236F  120A  118A  	fcall	__Umul8_16
  5059  01D9  0871               	movf	?__Umul8_16+1,w
  5060  01DA  1283               	bcf	3,5	;RP0=0, select bank0
  5061  01DB  1303               	bcf	3,6	;RP1=0, select bank0
  5062  01DC  00BE               	movwf	___flmul@temp+1
  5063  01DD  0870               	movf	?__Umul8_16,w
  5064  01DE  00BD               	movwf	___flmul@temp
  5065  01DF                     l2514:
  5066  01DF  083D               	movf	___flmul@temp,w
  5067  01E0  00AD               	movwf	??___flmul
  5068  01E1  083E               	movf	___flmul@temp+1,w
  5069  01E2  00AE               	movwf	??___flmul+1
  5070  01E3  01AF               	clrf	??___flmul+2
  5071  01E4  01B0               	clrf	??___flmul+3
  5072  01E5  082D               	movf	??___flmul,w
  5073  01E6  07B3               	addwf	___flmul@grs,f
  5074  01E7  082E               	movf	??___flmul+1,w
  5075  01E8  1103               	clrz
  5076  01E9  1803               	skipnc
  5077  01EA  3E01               	addlw	1
  5078  01EB  1903               	skipnz
  5079  01EC  29EE               	goto	u2911
  5080  01ED  07B4               	addwf	___flmul@grs+1,f
  5081  01EE                     u2911:
  5082  01EE  082F               	movf	??___flmul+2,w
  5083  01EF  1103               	clrz
  5084  01F0  1803               	skipnc
  5085  01F1  3E01               	addlw	1
  5086  01F2  1903               	skipnz
  5087  01F3  29F5               	goto	u2912
  5088  01F4  07B5               	addwf	___flmul@grs+2,f
  5089  01F5                     u2912:
  5090  01F5  0830               	movf	??___flmul+3,w
  5091  01F6  1103               	clrz
  5092  01F7  1803               	skipnc
  5093  01F8  3E01               	addlw	1
  5094  01F9  1903               	skipnz
  5095  01FA  29FC               	goto	u2913
  5096  01FB  07B6               	addwf	___flmul@grs+3,f
  5097  01FC                     u2913:
  5098  01FC                     l2516:
  5099  01FC  3008               	movlw	8
  5100  01FD  00AD               	movwf	??___flmul
  5101  01FE                     u2925:
  5102  01FE  1003               	clrc
  5103  01FF  0DB3               	rlf	___flmul@grs,f
  5104  0200  0DB4               	rlf	___flmul@grs+1,f
  5105  0201  0DB5               	rlf	___flmul@grs+2,f
  5106  0202  0DB6               	rlf	___flmul@grs+3,f
  5107  0203  0BAD               	decfsz	??___flmul,f
  5108  0204  29FE               	goto	u2925
  5109  0205  0825               	movf	___flmul@b,w
  5110  0206  00AD               	movwf	??___flmul
  5111  0207  082D               	movf	??___flmul,w
  5112  0208  00F0               	movwf	__Umul8_16@multiplicand
  5113  0209  0829               	movf	___flmul@a,w
  5114  020A  160A  118A  236F  120A  118A  	fcall	__Umul8_16
  5115  020F  0871               	movf	?__Umul8_16+1,w
  5116  0210  1283               	bcf	3,5	;RP0=0, select bank0
  5117  0211  1303               	bcf	3,6	;RP1=0, select bank0
  5118  0212  00BE               	movwf	___flmul@temp+1
  5119  0213  0870               	movf	?__Umul8_16,w
  5120  0214  00BD               	movwf	___flmul@temp
  5121  0215                     l2518:
  5122  0215  083D               	movf	___flmul@temp,w
  5123  0216  00AD               	movwf	??___flmul
  5124  0217  083E               	movf	___flmul@temp+1,w
  5125  0218  00AE               	movwf	??___flmul+1
  5126  0219  01AF               	clrf	??___flmul+2
  5127  021A  01B0               	clrf	??___flmul+3
  5128  021B  082D               	movf	??___flmul,w
  5129  021C  07B3               	addwf	___flmul@grs,f
  5130  021D  082E               	movf	??___flmul+1,w
  5131  021E  1103               	clrz
  5132  021F  1803               	skipnc
  5133  0220  3E01               	addlw	1
  5134  0221  1903               	skipnz
  5135  0222  2A24               	goto	u2931
  5136  0223  07B4               	addwf	___flmul@grs+1,f
  5137  0224                     u2931:
  5138  0224  082F               	movf	??___flmul+2,w
  5139  0225  1103               	clrz
  5140  0226  1803               	skipnc
  5141  0227  3E01               	addlw	1
  5142  0228  1903               	skipnz
  5143  0229  2A2B               	goto	u2932
  5144  022A  07B5               	addwf	___flmul@grs+2,f
  5145  022B                     u2932:
  5146  022B  0830               	movf	??___flmul+3,w
  5147  022C  1103               	clrz
  5148  022D  1803               	skipnc
  5149  022E  3E01               	addlw	1
  5150  022F  1903               	skipnz
  5151  0230  2A32               	goto	u2933
  5152  0231  07B6               	addwf	___flmul@grs+3,f
  5153  0232                     u2933:
  5154  0232                     l2520:
  5155  0232  0826               	movf	___flmul@b+1,w
  5156  0233  00AD               	movwf	??___flmul
  5157  0234  082D               	movf	??___flmul,w
  5158  0235  00F0               	movwf	__Umul8_16@multiplicand
  5159  0236  082B               	movf	___flmul@a+2,w
  5160  0237  160A  118A  236F  120A  118A  	fcall	__Umul8_16
  5161  023C  0871               	movf	?__Umul8_16+1,w
  5162  023D  1283               	bcf	3,5	;RP0=0, select bank0
  5163  023E  1303               	bcf	3,6	;RP1=0, select bank0
  5164  023F  00BE               	movwf	___flmul@temp+1
  5165  0240  0870               	movf	?__Umul8_16,w
  5166  0241  00BD               	movwf	___flmul@temp
  5167  0242  083D               	movf	___flmul@temp,w
  5168  0243  00AD               	movwf	??___flmul
  5169  0244  083E               	movf	___flmul@temp+1,w
  5170  0245  00AE               	movwf	??___flmul+1
  5171  0246  01AF               	clrf	??___flmul+2
  5172  0247  01B0               	clrf	??___flmul+3
  5173  0248  082D               	movf	??___flmul,w
  5174  0249  07B9               	addwf	___flmul@prod,f
  5175  024A  082E               	movf	??___flmul+1,w
  5176  024B  1103               	clrz
  5177  024C  1803               	skipnc
  5178  024D  3E01               	addlw	1
  5179  024E  1903               	skipnz
  5180  024F  2A51               	goto	u2941
  5181  0250  07BA               	addwf	___flmul@prod+1,f
  5182  0251                     u2941:
  5183  0251  082F               	movf	??___flmul+2,w
  5184  0252  1103               	clrz
  5185  0253  1803               	skipnc
  5186  0254  3E01               	addlw	1
  5187  0255  1903               	skipnz
  5188  0256  2A58               	goto	u2942
  5189  0257  07BB               	addwf	___flmul@prod+2,f
  5190  0258                     u2942:
  5191  0258  0830               	movf	??___flmul+3,w
  5192  0259  1103               	clrz
  5193  025A  1803               	skipnc
  5194  025B  3E01               	addlw	1
  5195  025C  1903               	skipnz
  5196  025D  2A5F               	goto	u2943
  5197  025E  07BC               	addwf	___flmul@prod+3,f
  5198  025F                     u2943:
  5199  025F                     l2522:
  5200  025F  0827               	movf	___flmul@b+2,w
  5201  0260  00AD               	movwf	??___flmul
  5202  0261  082D               	movf	??___flmul,w
  5203  0262  00F0               	movwf	__Umul8_16@multiplicand
  5204  0263  082A               	movf	___flmul@a+1,w
  5205  0264  160A  118A  236F  120A  118A  	fcall	__Umul8_16
  5206  0269  0871               	movf	?__Umul8_16+1,w
  5207  026A  1283               	bcf	3,5	;RP0=0, select bank0
  5208  026B  1303               	bcf	3,6	;RP1=0, select bank0
  5209  026C  00BE               	movwf	___flmul@temp+1
  5210  026D  0870               	movf	?__Umul8_16,w
  5211  026E  00BD               	movwf	___flmul@temp
  5212  026F                     l2524:
  5213  026F  083D               	movf	___flmul@temp,w
  5214  0270  00AD               	movwf	??___flmul
  5215  0271  083E               	movf	___flmul@temp+1,w
  5216  0272  00AE               	movwf	??___flmul+1
  5217  0273  01AF               	clrf	??___flmul+2
  5218  0274  01B0               	clrf	??___flmul+3
  5219  0275  082D               	movf	??___flmul,w
  5220  0276  07B9               	addwf	___flmul@prod,f
  5221  0277  082E               	movf	??___flmul+1,w
  5222  0278  1103               	clrz
  5223  0279  1803               	skipnc
  5224  027A  3E01               	addlw	1
  5225  027B  1903               	skipnz
  5226  027C  2A7E               	goto	u2951
  5227  027D  07BA               	addwf	___flmul@prod+1,f
  5228  027E                     u2951:
  5229  027E  082F               	movf	??___flmul+2,w
  5230  027F  1103               	clrz
  5231  0280  1803               	skipnc
  5232  0281  3E01               	addlw	1
  5233  0282  1903               	skipnz
  5234  0283  2A85               	goto	u2952
  5235  0284  07BB               	addwf	___flmul@prod+2,f
  5236  0285                     u2952:
  5237  0285  0830               	movf	??___flmul+3,w
  5238  0286  1103               	clrz
  5239  0287  1803               	skipnc
  5240  0288  3E01               	addlw	1
  5241  0289  1903               	skipnz
  5242  028A  2A8C               	goto	u2953
  5243  028B  07BC               	addwf	___flmul@prod+3,f
  5244  028C                     u2953:
  5245  028C  0827               	movf	___flmul@b+2,w
  5246  028D  00AD               	movwf	??___flmul
  5247  028E  082D               	movf	??___flmul,w
  5248  028F  00F0               	movwf	__Umul8_16@multiplicand
  5249  0290  082B               	movf	___flmul@a+2,w
  5250  0291  160A  118A  236F  120A  118A  	fcall	__Umul8_16
  5251  0296  0871               	movf	?__Umul8_16+1,w
  5252  0297  1283               	bcf	3,5	;RP0=0, select bank0
  5253  0298  1303               	bcf	3,6	;RP1=0, select bank0
  5254  0299  00BE               	movwf	___flmul@temp+1
  5255  029A  0870               	movf	?__Umul8_16,w
  5256  029B  00BD               	movwf	___flmul@temp
  5257  029C                     l2526:
  5258  029C  083D               	movf	___flmul@temp,w
  5259  029D  00AD               	movwf	??___flmul
  5260  029E  083E               	movf	___flmul@temp+1,w
  5261  029F  00AE               	movwf	??___flmul+1
  5262  02A0  01AF               	clrf	??___flmul+2
  5263  02A1  01B0               	clrf	??___flmul+3
  5264  02A2  3008               	movlw	8
  5265  02A3                     u2965:
  5266  02A3  1003               	clrc
  5267  02A4  0DAD               	rlf	??___flmul,f
  5268  02A5  0DAE               	rlf	??___flmul+1,f
  5269  02A6  0DAF               	rlf	??___flmul+2,f
  5270  02A7  0DB0               	rlf	??___flmul+3,f
  5271  02A8                     u2960:
  5272  02A8  3EFF               	addlw	-1
  5273  02A9  1D03               	skipz
  5274  02AA  2AA3               	goto	u2965
  5275  02AB  082D               	movf	??___flmul,w
  5276  02AC  07B9               	addwf	___flmul@prod,f
  5277  02AD  082E               	movf	??___flmul+1,w
  5278  02AE  1103               	clrz
  5279  02AF  1803               	skipnc
  5280  02B0  3E01               	addlw	1
  5281  02B1  1903               	skipnz
  5282  02B2  2AB4               	goto	u2971
  5283  02B3  07BA               	addwf	___flmul@prod+1,f
  5284  02B4                     u2971:
  5285  02B4  082F               	movf	??___flmul+2,w
  5286  02B5  1103               	clrz
  5287  02B6  1803               	skipnc
  5288  02B7  3E01               	addlw	1
  5289  02B8  1903               	skipnz
  5290  02B9  2ABB               	goto	u2972
  5291  02BA  07BB               	addwf	___flmul@prod+2,f
  5292  02BB                     u2972:
  5293  02BB  0830               	movf	??___flmul+3,w
  5294  02BC  1103               	clrz
  5295  02BD  1803               	skipnc
  5296  02BE  3E01               	addlw	1
  5297  02BF  1903               	skipnz
  5298  02C0  2AC2               	goto	u2973
  5299  02C1  07BC               	addwf	___flmul@prod+3,f
  5300  02C2                     u2973:
  5301  02C2                     l2528:
  5302  02C2  0833               	movf	___flmul@grs,w
  5303  02C3  00AD               	movwf	??___flmul
  5304  02C4  0834               	movf	___flmul@grs+1,w
  5305  02C5  00AE               	movwf	??___flmul+1
  5306  02C6  0835               	movf	___flmul@grs+2,w
  5307  02C7  00AF               	movwf	??___flmul+2
  5308  02C8  0836               	movf	___flmul@grs+3,w
  5309  02C9  00B0               	movwf	??___flmul+3
  5310  02CA  3018               	movlw	24
  5311  02CB                     u2985:
  5312  02CB  1003               	clrc
  5313  02CC  0CB0               	rrf	??___flmul+3,f
  5314  02CD  0CAF               	rrf	??___flmul+2,f
  5315  02CE  0CAE               	rrf	??___flmul+1,f
  5316  02CF  0CAD               	rrf	??___flmul,f
  5317  02D0                     u2980:
  5318  02D0  3EFF               	addlw	-1
  5319  02D1  1D03               	skipz
  5320  02D2  2ACB               	goto	u2985
  5321  02D3  082D               	movf	??___flmul,w
  5322  02D4  07B9               	addwf	___flmul@prod,f
  5323  02D5  082E               	movf	??___flmul+1,w
  5324  02D6  1103               	clrz
  5325  02D7  1803               	skipnc
  5326  02D8  3E01               	addlw	1
  5327  02D9  1903               	skipnz
  5328  02DA  2ADC               	goto	u2991
  5329  02DB  07BA               	addwf	___flmul@prod+1,f
  5330  02DC                     u2991:
  5331  02DC  082F               	movf	??___flmul+2,w
  5332  02DD  1103               	clrz
  5333  02DE  1803               	skipnc
  5334  02DF  3E01               	addlw	1
  5335  02E0  1903               	skipnz
  5336  02E1  2AE3               	goto	u2992
  5337  02E2  07BB               	addwf	___flmul@prod+2,f
  5338  02E3                     u2992:
  5339  02E3  0830               	movf	??___flmul+3,w
  5340  02E4  1103               	clrz
  5341  02E5  1803               	skipnc
  5342  02E6  3E01               	addlw	1
  5343  02E7  1903               	skipnz
  5344  02E8  2AEA               	goto	u2993
  5345  02E9  07BC               	addwf	___flmul@prod+3,f
  5346  02EA                     u2993:
  5347  02EA                     l2530:
  5348  02EA  3008               	movlw	8
  5349  02EB  00AD               	movwf	??___flmul
  5350  02EC                     u3005:
  5351  02EC  1003               	clrc
  5352  02ED  0DB3               	rlf	___flmul@grs,f
  5353  02EE  0DB4               	rlf	___flmul@grs+1,f
  5354  02EF  0DB5               	rlf	___flmul@grs+2,f
  5355  02F0  0DB6               	rlf	___flmul@grs+3,f
  5356  02F1  0BAD               	decfsz	??___flmul,f
  5357  02F2  2AEC               	goto	u3005
  5358  02F3                     l2532:
  5359  02F3  0838               	movf	___flmul@bexp,w
  5360  02F4  0737               	addwf	___flmul@aexp,w
  5361  02F5  00AD               	movwf	??___flmul
  5362  02F6  01AE               	clrf	??___flmul+1
  5363  02F7  0DAE               	rlf	??___flmul+1,f
  5364  02F8  082D               	movf	??___flmul,w
  5365  02F9  3E82               	addlw	130
  5366  02FA  00BD               	movwf	___flmul@temp
  5367  02FB  082E               	movf	??___flmul+1,w
  5368  02FC  1803               	skipnc
  5369  02FD  3E01               	addlw	1
  5370  02FE  3EFF               	addlw	255
  5371  02FF  00BE               	movwf	___flmul@temp+1
  5372  0300  2B1E               	goto	l2544
  5373  0301                     l2534:
  5374  0301  3001               	movlw	1
  5375  0302  00AD               	movwf	??___flmul
  5376  0303                     u3015:
  5377  0303  1003               	clrc
  5378  0304  0DB9               	rlf	___flmul@prod,f
  5379  0305  0DBA               	rlf	___flmul@prod+1,f
  5380  0306  0DBB               	rlf	___flmul@prod+2,f
  5381  0307  0DBC               	rlf	___flmul@prod+3,f
  5382  0308  0BAD               	decfsz	??___flmul,f
  5383  0309  2B03               	goto	u3015
  5384  030A                     l2536:
  5385  030A  1FB6               	btfss	___flmul@grs+3,7
  5386  030B  2B0D               	goto	u3021
  5387  030C  2B0E               	goto	u3020
  5388  030D                     u3021:
  5389  030D  2B0F               	goto	l2540
  5390  030E                     u3020:
  5391  030E                     l2538:
  5392  030E  1439               	bsf	___flmul@prod,0
  5393  030F                     l2540:
  5394  030F  3001               	movlw	1
  5395  0310  00AD               	movwf	??___flmul
  5396  0311                     u3035:
  5397  0311  1003               	clrc
  5398  0312  0DB3               	rlf	___flmul@grs,f
  5399  0313  0DB4               	rlf	___flmul@grs+1,f
  5400  0314  0DB5               	rlf	___flmul@grs+2,f
  5401  0315  0DB6               	rlf	___flmul@grs+3,f
  5402  0316  0BAD               	decfsz	??___flmul,f
  5403  0317  2B11               	goto	u3035
  5404  0318                     l2542:
  5405  0318  30FF               	movlw	255
  5406  0319  07BD               	addwf	___flmul@temp,f
  5407  031A  1803               	skipnc
  5408  031B  0ABE               	incf	___flmul@temp+1,f
  5409  031C  30FF               	movlw	255
  5410  031D  07BE               	addwf	___flmul@temp+1,f
  5411  031E                     l2544:
  5412  031E  1FBB               	btfss	___flmul@prod+2,7
  5413  031F  2B21               	goto	u3041
  5414  0320  2B22               	goto	u3040
  5415  0321                     u3041:
  5416  0321  2B01               	goto	l2534
  5417  0322                     u3040:
  5418  0322                     l2546:
  5419  0322  01B7               	clrf	___flmul@aexp
  5420  0323                     l2548:
  5421  0323  1FB6               	btfss	___flmul@grs+3,7
  5422  0324  2B26               	goto	u3051
  5423  0325  2B27               	goto	u3050
  5424  0326                     u3051:
  5425  0326  2B43               	goto	l2556
  5426  0327                     u3050:
  5427  0327                     l2550:
  5428  0327  30FF               	movlw	255
  5429  0328  0533               	andwf	___flmul@grs,w
  5430  0329  00AD               	movwf	??___flmul
  5431  032A  30FF               	movlw	255
  5432  032B  0534               	andwf	___flmul@grs+1,w
  5433  032C  00AE               	movwf	??___flmul+1
  5434  032D  30FF               	movlw	255
  5435  032E  0535               	andwf	___flmul@grs+2,w
  5436  032F  00AF               	movwf	??___flmul+2
  5437  0330  307F               	movlw	127
  5438  0331  0536               	andwf	___flmul@grs+3,w
  5439  0332  00B0               	movwf	??___flmul+3
  5440  0333  0830               	movf	??___flmul+3,w
  5441  0334  042F               	iorwf	??___flmul+2,w
  5442  0335  042E               	iorwf	??___flmul+1,w
  5443  0336  042D               	iorwf	??___flmul,w
  5444  0337  1903               	skipnz
  5445  0338  2B3A               	goto	u3061
  5446  0339  2B3B               	goto	u3060
  5447  033A                     u3061:
  5448  033A  2B3E               	goto	l800
  5449  033B                     u3060:
  5450  033B                     l2552:
  5451  033B  01B7               	clrf	___flmul@aexp
  5452  033C  0AB7               	incf	___flmul@aexp,f
  5453  033D  2B43               	goto	l2556
  5454  033E                     l800:
  5455  033E  1C39               	btfss	___flmul@prod,0
  5456  033F  2B41               	goto	u3071
  5457  0340  2B42               	goto	u3070
  5458  0341                     u3071:
  5459  0341  2B43               	goto	l2556
  5460  0342                     u3070:
  5461  0342  2B3B               	goto	l2552
  5462  0343                     l2556:
  5463  0343  0837               	movf	___flmul@aexp,w
  5464  0344  1903               	btfsc	3,2
  5465  0345  2B47               	goto	u3081
  5466  0346  2B48               	goto	u3080
  5467  0347                     u3081:
  5468  0347  2B79               	goto	l2566
  5469  0348                     u3080:
  5470  0348                     l2558:
  5471  0348  3001               	movlw	1
  5472  0349  07B9               	addwf	___flmul@prod,f
  5473  034A  3000               	movlw	0
  5474  034B  1803               	skipnc
  5475  034C  3001               	movlw	1
  5476  034D  07BA               	addwf	___flmul@prod+1,f
  5477  034E  3000               	movlw	0
  5478  034F  1803               	skipnc
  5479  0350  3001               	movlw	1
  5480  0351  07BB               	addwf	___flmul@prod+2,f
  5481  0352  3000               	movlw	0
  5482  0353  1803               	skipnc
  5483  0354  3001               	movlw	1
  5484  0355  07BC               	addwf	___flmul@prod+3,f
  5485  0356                     l2560:
  5486  0356  1C3C               	btfss	___flmul@prod+3,0
  5487  0357  2B59               	goto	u3091
  5488  0358  2B5A               	goto	u3090
  5489  0359                     u3091:
  5490  0359  2B79               	goto	l2566
  5491  035A                     u3090:
  5492  035A                     l2562:
  5493  035A  0839               	movf	___flmul@prod,w
  5494  035B  00AD               	movwf	??___flmul
  5495  035C  083A               	movf	___flmul@prod+1,w
  5496  035D  00AE               	movwf	??___flmul+1
  5497  035E  083B               	movf	___flmul@prod+2,w
  5498  035F  00AF               	movwf	??___flmul+2
  5499  0360  083C               	movf	___flmul@prod+3,w
  5500  0361  00B0               	movwf	??___flmul+3
  5501  0362  3001               	movlw	1
  5502  0363  00B1               	movwf	??___flmul+4
  5503  0364                     u3105:
  5504  0364  0D30               	rlf	??___flmul+3,w
  5505  0365  0CB0               	rrf	??___flmul+3,f
  5506  0366  0CAF               	rrf	??___flmul+2,f
  5507  0367  0CAE               	rrf	??___flmul+1,f
  5508  0368  0CAD               	rrf	??___flmul,f
  5509  0369                     u3100:
  5510  0369  0BB1               	decfsz	??___flmul+4,f
  5511  036A  2B64               	goto	u3105
  5512  036B  0830               	movf	??___flmul+3,w
  5513  036C  00BC               	movwf	___flmul@prod+3
  5514  036D  082F               	movf	??___flmul+2,w
  5515  036E  00BB               	movwf	___flmul@prod+2
  5516  036F  082E               	movf	??___flmul+1,w
  5517  0370  00BA               	movwf	___flmul@prod+1
  5518  0371  082D               	movf	??___flmul,w
  5519  0372  00B9               	movwf	___flmul@prod
  5520  0373                     l2564:
  5521  0373  3001               	movlw	1
  5522  0374  07BD               	addwf	___flmul@temp,f
  5523  0375  1803               	skipnc
  5524  0376  0ABE               	incf	___flmul@temp+1,f
  5525  0377  3000               	movlw	0
  5526  0378  07BE               	addwf	___flmul@temp+1,f
  5527  0379                     l2566:
  5528  0379  083E               	movf	___flmul@temp+1,w
  5529  037A  3A80               	xorlw	128
  5530  037B  00FF               	movwf	btemp+1
  5531  037C  3080               	movlw	128
  5532  037D  027F               	subwf	btemp+1,w
  5533  037E  1D03               	skipz
  5534  037F  2B82               	goto	u3115
  5535  0380  30FF               	movlw	255
  5536  0381  023D               	subwf	___flmul@temp,w
  5537  0382                     u3115:
  5538  0382  1C03               	skipc
  5539  0383  2B85               	goto	u3111
  5540  0384  2B86               	goto	u3110
  5541  0385                     u3111:
  5542  0385  2B91               	goto	l2570
  5543  0386                     u3110:
  5544  0386                     l2568:
  5545  0386  307F               	movlw	127
  5546  0387  1283               	bcf	3,5	;RP0=0, select bank0
  5547  0388  1303               	bcf	3,6	;RP1=0, select bank0
  5548  0389  00BC               	movwf	___flmul@prod+3
  5549  038A  3080               	movlw	128
  5550  038B  00BB               	movwf	___flmul@prod+2
  5551  038C  3000               	movlw	0
  5552  038D  00BA               	movwf	___flmul@prod+1
  5553  038E  3000               	movlw	0
  5554  038F  00B9               	movwf	___flmul@prod
  5555  0390  2BC6               	goto	l806
  5556  0391                     l2570:
  5557  0391  1283               	bcf	3,5	;RP0=0, select bank0
  5558  0392  1303               	bcf	3,6	;RP1=0, select bank0
  5559  0393  083E               	movf	___flmul@temp+1,w
  5560  0394  3A80               	xorlw	128
  5561  0395  00FF               	movwf	btemp+1
  5562  0396  3080               	movlw	128
  5563  0397  027F               	subwf	btemp+1,w
  5564  0398  1D03               	skipz
  5565  0399  2B9C               	goto	u3125
  5566  039A  3001               	movlw	1
  5567  039B  023D               	subwf	___flmul@temp,w
  5568  039C                     u3125:
  5569  039C  1803               	skipnc
  5570  039D  2B9F               	goto	u3121
  5571  039E  2BA0               	goto	u3120
  5572  039F                     u3121:
  5573  039F  2BAC               	goto	l2576
  5574  03A0                     u3120:
  5575  03A0                     l2572:
  5576  03A0  3000               	movlw	0
  5577  03A1  1283               	bcf	3,5	;RP0=0, select bank0
  5578  03A2  1303               	bcf	3,6	;RP1=0, select bank0
  5579  03A3  00BC               	movwf	___flmul@prod+3
  5580  03A4  3000               	movlw	0
  5581  03A5  00BB               	movwf	___flmul@prod+2
  5582  03A6  3000               	movlw	0
  5583  03A7  00BA               	movwf	___flmul@prod+1
  5584  03A8  3000               	movlw	0
  5585  03A9  00B9               	movwf	___flmul@prod
  5586  03AA                     l2574:
  5587  03AA  01B2               	clrf	___flmul@sign
  5588  03AB  2BC6               	goto	l806
  5589  03AC                     l2576:
  5590  03AC  1283               	bcf	3,5	;RP0=0, select bank0
  5591  03AD  1303               	bcf	3,6	;RP1=0, select bank0
  5592  03AE  083D               	movf	___flmul@temp,w
  5593  03AF  00AD               	movwf	??___flmul
  5594  03B0  082D               	movf	??___flmul,w
  5595  03B1  00B8               	movwf	___flmul@bexp
  5596  03B2  30FF               	movlw	255
  5597  03B3  05B9               	andwf	___flmul@prod,f
  5598  03B4  30FF               	movlw	255
  5599  03B5  05BA               	andwf	___flmul@prod+1,f
  5600  03B6  307F               	movlw	127
  5601  03B7  05BB               	andwf	___flmul@prod+2,f
  5602  03B8  3000               	movlw	0
  5603  03B9  05BC               	andwf	___flmul@prod+3,f
  5604  03BA                     l2578:
  5605  03BA  1C38               	btfss	___flmul@bexp,0
  5606  03BB  2BBD               	goto	u3131
  5607  03BC  2BBE               	goto	u3130
  5608  03BD                     u3131:
  5609  03BD  2BBF               	goto	l2582
  5610  03BE                     u3130:
  5611  03BE                     l2580:
  5612  03BE  17BB               	bsf	___flmul@prod+2,7
  5613  03BF                     l2582:
  5614  03BF  0838               	movf	___flmul@bexp,w
  5615  03C0  00AD               	movwf	??___flmul
  5616  03C1  1003               	clrc
  5617  03C2  0C2D               	rrf	??___flmul,w
  5618  03C3  00AE               	movwf	??___flmul+1
  5619  03C4  082E               	movf	??___flmul+1,w
  5620  03C5  00BC               	movwf	___flmul@prod+3
  5621  03C6                     l806:
  5622  03C6  0832               	movf	___flmul@sign,w
  5623  03C7  00AD               	movwf	??___flmul
  5624  03C8  082D               	movf	??___flmul,w
  5625  03C9  04BC               	iorwf	___flmul@prod+3,f
  5626  03CA                     l2584:
  5627  03CA  083C               	movf	___flmul@prod+3,w
  5628  03CB  00A8               	movwf	?___flmul+3
  5629  03CC  083B               	movf	___flmul@prod+2,w
  5630  03CD  00A7               	movwf	?___flmul+2
  5631  03CE  083A               	movf	___flmul@prod+1,w
  5632  03CF  00A6               	movwf	?___flmul+1
  5633  03D0  0839               	movf	___flmul@prod,w
  5634  03D1  00A5               	movwf	?___flmul
  5635  03D2                     l794:
  5636  03D2  0008               	return
  5637  03D3                     __end_of___flmul:
  5638                           
  5639                           	psect	text13
  5640  136F                     __ptext13:	
  5641 ;; *************** function __Umul8_16 *****************
  5642 ;; Defined at:
  5643 ;;		line 4 in file "C:\Program Files\Microchip\xc8\v2.36\pic\sources\c90\common\Umul8_16.c"
  5644 ;; Parameters:    Size  Location     Type
  5645 ;;  multiplier      1    wreg     unsigned char 
  5646 ;;  multiplicand    1    0[COMMON] unsigned char 
  5647 ;; Auto vars:     Size  Location     Type
  5648 ;;  multiplier      1    8[COMMON] unsigned char 
  5649 ;;  word_mpld       2    6[COMMON] unsigned int 
  5650 ;;  product         2    4[COMMON] unsigned int 
  5651 ;; Return value:  Size  Location     Type
  5652 ;;                  2    0[COMMON] unsigned int 
  5653 ;; Registers used:
  5654 ;;		wreg, status,2, status,0
  5655 ;; Tracked objects:
  5656 ;;		On entry : 0/0
  5657 ;;		On exit  : 0/0
  5658 ;;		Unchanged: 0/0
  5659 ;; Data sizes:     COMMON   BANK0   BANK1   BANK3   BANK2
  5660 ;;      Params:         2       0       0       0       0
  5661 ;;      Locals:         5       0       0       0       0
  5662 ;;      Temps:          2       0       0       0       0
  5663 ;;      Totals:         9       0       0       0       0
  5664 ;;Total ram usage:        9 bytes
  5665 ;; Hardware stack levels used: 1
  5666 ;; This function calls:
  5667 ;;		Nothing
  5668 ;; This function is called by:
  5669 ;;		___flmul
  5670 ;; This function uses a non-reentrant model
  5671 ;;
  5672                           
  5673  136F                     __Umul8_16:	
  5674                           ;psect for function __Umul8_16
  5675                           
  5676                           
  5677                           ;incstack = 0
  5678                           ; Regs used in __Umul8_16: [wreg+status,2+status,0]
  5679                           ;__Umul8_16@multiplier stored from wreg
  5680  136F  00F8               	movwf	__Umul8_16@multiplier
  5681  1370                     l2208:
  5682  1370  01F4               	clrf	__Umul8_16@product
  5683  1371  01F5               	clrf	__Umul8_16@product+1
  5684  1372                     l2210:
  5685  1372  0870               	movf	__Umul8_16@multiplicand,w
  5686  1373  00F2               	movwf	??__Umul8_16
  5687  1374  01F3               	clrf	??__Umul8_16+1
  5688  1375  0872               	movf	??__Umul8_16,w
  5689  1376  00F6               	movwf	__Umul8_16@word_mpld
  5690  1377  0873               	movf	??__Umul8_16+1,w
  5691  1378  00F7               	movwf	__Umul8_16@word_mpld+1
  5692  1379                     l2212:
  5693  1379  1C78               	btfss	__Umul8_16@multiplier,0
  5694  137A  2B7C               	goto	u2241
  5695  137B  2B7D               	goto	u2240
  5696  137C                     u2241:
  5697  137C  2B83               	goto	l813
  5698  137D                     u2240:
  5699  137D                     l2214:
  5700  137D  0876               	movf	__Umul8_16@word_mpld,w
  5701  137E  07F4               	addwf	__Umul8_16@product,f
  5702  137F  1803               	skipnc
  5703  1380  0AF5               	incf	__Umul8_16@product+1,f
  5704  1381  0877               	movf	__Umul8_16@word_mpld+1,w
  5705  1382  07F5               	addwf	__Umul8_16@product+1,f
  5706  1383                     l813:
  5707  1383  3001               	movlw	1
  5708  1384                     u2255:
  5709  1384  1003               	clrc
  5710  1385  0DF6               	rlf	__Umul8_16@word_mpld,f
  5711  1386  0DF7               	rlf	__Umul8_16@word_mpld+1,f
  5712  1387  3EFF               	addlw	-1
  5713  1388  1D03               	skipz
  5714  1389  2B84               	goto	u2255
  5715  138A  1003               	clrc
  5716  138B  0CF8               	rrf	__Umul8_16@multiplier,f
  5717  138C                     l2216:
  5718  138C  0878               	movf	__Umul8_16@multiplier,w
  5719  138D  1D03               	btfss	3,2
  5720  138E  2B90               	goto	u2261
  5721  138F  2B91               	goto	u2260
  5722  1390                     u2261:
  5723  1390  2B79               	goto	l2212
  5724  1391                     u2260:
  5725  1391                     l2218:
  5726  1391  0875               	movf	__Umul8_16@product+1,w
  5727  1392  00F1               	movwf	?__Umul8_16+1
  5728  1393  0874               	movf	__Umul8_16@product,w
  5729  1394  00F0               	movwf	?__Umul8_16
  5730  1395                     l815:
  5731  1395  0008               	return
  5732  1396                     __end_of__Umul8_16:
  5733                           
  5734                           	psect	text14
  5735  0D78                     __ptext14:	
  5736 ;; *************** function ___fladd *****************
  5737 ;; Defined at:
  5738 ;;		line 10 in file "C:\Program Files\Microchip\xc8\v2.36\pic\sources\c90\common\sprcadd.c"
  5739 ;; Parameters:    Size  Location     Type
  5740 ;;  b               4   57[BANK0 ] unsigned int 
  5741 ;;  a               4   61[BANK0 ] unsigned int 
  5742 ;; Auto vars:     Size  Location     Type
  5743 ;;  grs             1   76[BANK0 ] unsigned char 
  5744 ;;  bexp            1   75[BANK0 ] unsigned char 
  5745 ;;  aexp            1   74[BANK0 ] unsigned char 
  5746 ;;  signs           1   73[BANK0 ] unsigned char 
  5747 ;; Return value:  Size  Location     Type
  5748 ;;                  4   57[BANK0 ] unsigned char 
  5749 ;; Registers used:
  5750 ;;		wreg, status,2, status,0, btemp+1
  5751 ;; Tracked objects:
  5752 ;;		On entry : 0/0
  5753 ;;		On exit  : 0/0
  5754 ;;		Unchanged: 0/0
  5755 ;; Data sizes:     COMMON   BANK0   BANK1   BANK3   BANK2
  5756 ;;      Params:         0       8       0       0       0
  5757 ;;      Locals:         0       4       0       0       0
  5758 ;;      Temps:          0       8       0       0       0
  5759 ;;      Totals:         0      20       0       0       0
  5760 ;;Total ram usage:       20 bytes
  5761 ;; Hardware stack levels used: 1
  5762 ;; This function calls:
  5763 ;;		Nothing
  5764 ;; This function is called by:
  5765 ;;		_main
  5766 ;;		_log
  5767 ;;		_eval_poly
  5768 ;; This function uses a non-reentrant model
  5769 ;;
  5770                           
  5771  0D78                     ___fladd:	
  5772                           ;psect for function ___fladd
  5773                           
  5774  0D78                     l2254:	
  5775                           ;incstack = 0
  5776                           ; Regs used in ___fladd: [wreg+status,2+status,0+btemp+1]
  5777                           
  5778  0D78  1283               	bcf	3,5	;RP0=0, select bank0
  5779  0D79  1303               	bcf	3,6	;RP1=0, select bank0
  5780  0D7A  085C               	movf	___fladd@b+3,w
  5781  0D7B  3980               	andlw	128
  5782  0D7C  00E1               	movwf	??___fladd
  5783  0D7D  0861               	movf	??___fladd,w
  5784  0D7E  00E9               	movwf	___fladd@signs
  5785  0D7F                     l2256:
  5786  0D7F  085C               	movf	___fladd@b+3,w
  5787  0D80  00E1               	movwf	??___fladd
  5788  0D81  0761               	addwf	??___fladd,w
  5789  0D82  00E2               	movwf	??___fladd+1
  5790  0D83  0862               	movf	??___fladd+1,w
  5791  0D84  00EB               	movwf	___fladd@bexp
  5792  0D85                     l2258:
  5793  0D85  1FDB               	btfss	___fladd@b+2,7
  5794  0D86  2D88               	goto	u2311
  5795  0D87  2D89               	goto	u2310
  5796  0D88                     u2311:
  5797  0D88  2D8A               	goto	l2262
  5798  0D89                     u2310:
  5799  0D89                     l2260:
  5800  0D89  146B               	bsf	___fladd@bexp,0
  5801  0D8A                     l2262:
  5802  0D8A  086B               	movf	___fladd@bexp,w
  5803  0D8B  1903               	btfsc	3,2
  5804  0D8C  2D8E               	goto	u2321
  5805  0D8D  2D8F               	goto	u2320
  5806  0D8E                     u2321:
  5807  0D8E  2D9F               	goto	l2272
  5808  0D8F                     u2320:
  5809  0D8F                     l2264:
  5810  0D8F  0A6B               	incf	___fladd@bexp,w
  5811  0D90  1D03               	btfss	3,2
  5812  0D91  2D93               	goto	u2331
  5813  0D92  2D94               	goto	u2330
  5814  0D93                     u2331:
  5815  0D93  2D9C               	goto	l2268
  5816  0D94                     u2330:
  5817  0D94                     l2266:
  5818  0D94  3000               	movlw	0
  5819  0D95  00DC               	movwf	___fladd@b+3
  5820  0D96  3000               	movlw	0
  5821  0D97  00DB               	movwf	___fladd@b+2
  5822  0D98  3000               	movlw	0
  5823  0D99  00DA               	movwf	___fladd@b+1
  5824  0D9A  3000               	movlw	0
  5825  0D9B  00D9               	movwf	___fladd@b
  5826  0D9C                     l2268:
  5827  0D9C  17DB               	bsf	___fladd@b+2,7
  5828  0D9D                     l2270:
  5829  0D9D  01DC               	clrf	___fladd@b+3
  5830  0D9E  2DA7               	goto	l2274
  5831  0D9F                     l2272:
  5832  0D9F  3000               	movlw	0
  5833  0DA0  00DC               	movwf	___fladd@b+3
  5834  0DA1  3000               	movlw	0
  5835  0DA2  00DB               	movwf	___fladd@b+2
  5836  0DA3  3000               	movlw	0
  5837  0DA4  00DA               	movwf	___fladd@b+1
  5838  0DA5  3000               	movlw	0
  5839  0DA6  00D9               	movwf	___fladd@b
  5840  0DA7                     l2274:
  5841  0DA7  0860               	movf	___fladd@a+3,w
  5842  0DA8  3980               	andlw	128
  5843  0DA9  00E1               	movwf	??___fladd
  5844  0DAA  0861               	movf	??___fladd,w
  5845  0DAB  00EA               	movwf	___fladd@aexp
  5846  0DAC                     l2276:
  5847  0DAC  086A               	movf	___fladd@aexp,w
  5848  0DAD  0669               	xorwf	___fladd@signs,w
  5849  0DAE  1903               	skipnz
  5850  0DAF  2DB1               	goto	u2341
  5851  0DB0  2DB2               	goto	u2340
  5852  0DB1                     u2341:
  5853  0DB1  2DB3               	goto	l2280
  5854  0DB2                     u2340:
  5855  0DB2                     l2278:
  5856  0DB2  1769               	bsf	___fladd@signs,6
  5857  0DB3                     l2280:
  5858  0DB3  0860               	movf	___fladd@a+3,w
  5859  0DB4  00E1               	movwf	??___fladd
  5860  0DB5  0761               	addwf	??___fladd,w
  5861  0DB6  00E2               	movwf	??___fladd+1
  5862  0DB7  0862               	movf	??___fladd+1,w
  5863  0DB8  00EA               	movwf	___fladd@aexp
  5864  0DB9                     l2282:
  5865  0DB9  1FDF               	btfss	___fladd@a+2,7
  5866  0DBA  2DBC               	goto	u2351
  5867  0DBB  2DBD               	goto	u2350
  5868  0DBC                     u2351:
  5869  0DBC  2DBE               	goto	l2286
  5870  0DBD                     u2350:
  5871  0DBD                     l2284:
  5872  0DBD  146A               	bsf	___fladd@aexp,0
  5873  0DBE                     l2286:
  5874  0DBE  086A               	movf	___fladd@aexp,w
  5875  0DBF  1903               	btfsc	3,2
  5876  0DC0  2DC2               	goto	u2361
  5877  0DC1  2DC3               	goto	u2360
  5878  0DC2                     u2361:
  5879  0DC2  2DD3               	goto	l2296
  5880  0DC3                     u2360:
  5881  0DC3                     l2288:
  5882  0DC3  0A6A               	incf	___fladd@aexp,w
  5883  0DC4  1D03               	btfss	3,2
  5884  0DC5  2DC7               	goto	u2371
  5885  0DC6  2DC8               	goto	u2370
  5886  0DC7                     u2371:
  5887  0DC7  2DD0               	goto	l2292
  5888  0DC8                     u2370:
  5889  0DC8                     l2290:
  5890  0DC8  3000               	movlw	0
  5891  0DC9  00E0               	movwf	___fladd@a+3
  5892  0DCA  3000               	movlw	0
  5893  0DCB  00DF               	movwf	___fladd@a+2
  5894  0DCC  3000               	movlw	0
  5895  0DCD  00DE               	movwf	___fladd@a+1
  5896  0DCE  3000               	movlw	0
  5897  0DCF  00DD               	movwf	___fladd@a
  5898  0DD0                     l2292:
  5899  0DD0  17DF               	bsf	___fladd@a+2,7
  5900  0DD1                     l2294:
  5901  0DD1  01E0               	clrf	___fladd@a+3
  5902  0DD2  2DDB               	goto	l698
  5903  0DD3                     l2296:
  5904  0DD3  3000               	movlw	0
  5905  0DD4  00E0               	movwf	___fladd@a+3
  5906  0DD5  3000               	movlw	0
  5907  0DD6  00DF               	movwf	___fladd@a+2
  5908  0DD7  3000               	movlw	0
  5909  0DD8  00DE               	movwf	___fladd@a+1
  5910  0DD9  3000               	movlw	0
  5911  0DDA  00DD               	movwf	___fladd@a
  5912  0DDB                     l698:
  5913  0DDB  086B               	movf	___fladd@bexp,w
  5914  0DDC  026A               	subwf	___fladd@aexp,w
  5915  0DDD  1803               	skipnc
  5916  0DDE  2DE0               	goto	u2381
  5917  0DDF  2DE1               	goto	u2380
  5918  0DE0                     u2381:
  5919  0DE0  2E25               	goto	l2332
  5920  0DE1                     u2380:
  5921  0DE1                     l2298:
  5922  0DE1  1F69               	btfss	___fladd@signs,6
  5923  0DE2  2DE4               	goto	u2391
  5924  0DE3  2DE5               	goto	u2390
  5925  0DE4                     u2391:
  5926  0DE4  2DE9               	goto	l2302
  5927  0DE5                     u2390:
  5928  0DE5                     l2300:
  5929  0DE5  3080               	movlw	128
  5930  0DE6  00E1               	movwf	??___fladd
  5931  0DE7  0861               	movf	??___fladd,w
  5932  0DE8  06E9               	xorwf	___fladd@signs,f
  5933  0DE9                     l2302:
  5934  0DE9  086B               	movf	___fladd@bexp,w
  5935  0DEA  00E1               	movwf	??___fladd
  5936  0DEB  0861               	movf	??___fladd,w
  5937  0DEC  00EC               	movwf	___fladd@grs
  5938  0DED                     l2304:
  5939  0DED  086A               	movf	___fladd@aexp,w
  5940  0DEE  00E1               	movwf	??___fladd
  5941  0DEF  0861               	movf	??___fladd,w
  5942  0DF0  00EB               	movwf	___fladd@bexp
  5943  0DF1                     l2306:
  5944  0DF1  086C               	movf	___fladd@grs,w
  5945  0DF2  00E1               	movwf	??___fladd
  5946  0DF3  0861               	movf	??___fladd,w
  5947  0DF4  00EA               	movwf	___fladd@aexp
  5948  0DF5                     l2308:
  5949  0DF5  0859               	movf	___fladd@b,w
  5950  0DF6  00E1               	movwf	??___fladd
  5951  0DF7  0861               	movf	??___fladd,w
  5952  0DF8  00EC               	movwf	___fladd@grs
  5953  0DF9                     l2310:
  5954  0DF9  085D               	movf	___fladd@a,w
  5955  0DFA  00E1               	movwf	??___fladd
  5956  0DFB  0861               	movf	??___fladd,w
  5957  0DFC  00D9               	movwf	___fladd@b
  5958  0DFD                     l2312:
  5959  0DFD  086C               	movf	___fladd@grs,w
  5960  0DFE  00E1               	movwf	??___fladd
  5961  0DFF  0861               	movf	??___fladd,w
  5962  0E00  00DD               	movwf	___fladd@a
  5963  0E01                     l2314:
  5964  0E01  085A               	movf	___fladd@b+1,w
  5965  0E02  00E1               	movwf	??___fladd
  5966  0E03  0861               	movf	??___fladd,w
  5967  0E04  00EC               	movwf	___fladd@grs
  5968  0E05                     l2316:
  5969  0E05  085E               	movf	___fladd@a+1,w
  5970  0E06  00E1               	movwf	??___fladd
  5971  0E07  0861               	movf	??___fladd,w
  5972  0E08  00DA               	movwf	___fladd@b+1
  5973  0E09                     l2318:
  5974  0E09  086C               	movf	___fladd@grs,w
  5975  0E0A  00E1               	movwf	??___fladd
  5976  0E0B  0861               	movf	??___fladd,w
  5977  0E0C  00DE               	movwf	___fladd@a+1
  5978  0E0D                     l2320:
  5979  0E0D  085B               	movf	___fladd@b+2,w
  5980  0E0E  00E1               	movwf	??___fladd
  5981  0E0F  0861               	movf	??___fladd,w
  5982  0E10  00EC               	movwf	___fladd@grs
  5983  0E11                     l2322:
  5984  0E11  085F               	movf	___fladd@a+2,w
  5985  0E12  00E1               	movwf	??___fladd
  5986  0E13  0861               	movf	??___fladd,w
  5987  0E14  00DB               	movwf	___fladd@b+2
  5988  0E15                     l2324:
  5989  0E15  086C               	movf	___fladd@grs,w
  5990  0E16  00E1               	movwf	??___fladd
  5991  0E17  0861               	movf	??___fladd,w
  5992  0E18  00DF               	movwf	___fladd@a+2
  5993  0E19                     l2326:
  5994  0E19  085C               	movf	___fladd@b+3,w
  5995  0E1A  00E1               	movwf	??___fladd
  5996  0E1B  0861               	movf	??___fladd,w
  5997  0E1C  00EC               	movwf	___fladd@grs
  5998  0E1D                     l2328:
  5999  0E1D  0860               	movf	___fladd@a+3,w
  6000  0E1E  00E1               	movwf	??___fladd
  6001  0E1F  0861               	movf	??___fladd,w
  6002  0E20  00DC               	movwf	___fladd@b+3
  6003  0E21                     l2330:
  6004  0E21  086C               	movf	___fladd@grs,w
  6005  0E22  00E1               	movwf	??___fladd
  6006  0E23  0861               	movf	??___fladd,w
  6007  0E24  00E0               	movwf	___fladd@a+3
  6008  0E25                     l2332:
  6009  0E25  01EC               	clrf	___fladd@grs
  6010  0E26                     l2334:
  6011  0E26  086A               	movf	___fladd@aexp,w
  6012  0E27  00E1               	movwf	??___fladd
  6013  0E28  01E2               	clrf	??___fladd+1
  6014  0E29  0862               	movf	??___fladd+1,w
  6015  0E2A  00E4               	movwf	??___fladd+3
  6016  0E2B  086B               	movf	___fladd@bexp,w
  6017  0E2C  0261               	subwf	??___fladd,w
  6018  0E2D  00E3               	movwf	??___fladd+2
  6019  0E2E  1C03               	skipc
  6020  0E2F  03E4               	decf	??___fladd+3,f
  6021  0E30  0864               	movf	??___fladd+3,w
  6022  0E31  3A80               	xorlw	128
  6023  0E32  00FF               	movwf	btemp+1
  6024  0E33  3080               	movlw	128
  6025  0E34  027F               	subwf	btemp+1,w
  6026  0E35  1D03               	skipz
  6027  0E36  2E39               	goto	u2405
  6028  0E37  301A               	movlw	26
  6029  0E38  0263               	subwf	??___fladd+2,w
  6030  0E39                     u2405:
  6031  0E39  1C03               	skipc
  6032  0E3A  2E3C               	goto	u2401
  6033  0E3B  2E3D               	goto	u2400
  6034  0E3C                     u2401:
  6035  0E3C  2E7A               	goto	l2350
  6036  0E3D                     u2400:
  6037  0E3D                     l2336:
  6038  0E3D  1283               	bcf	3,5	;RP0=0, select bank0
  6039  0E3E  1303               	bcf	3,6	;RP1=0, select bank0
  6040  0E3F  085C               	movf	___fladd@b+3,w
  6041  0E40  045B               	iorwf	___fladd@b+2,w
  6042  0E41  045A               	iorwf	___fladd@b+1,w
  6043  0E42  0459               	iorwf	___fladd@b,w
  6044  0E43  1D03               	skipz
  6045  0E44  2E46               	goto	u2411
  6046  0E45  2E48               	goto	u2410
  6047  0E46                     u2411:
  6048  0E46  3001               	movlw	1
  6049  0E47  2E49               	goto	u2420
  6050  0E48                     u2410:
  6051  0E48  3000               	movlw	0
  6052  0E49                     u2420:
  6053  0E49  00E1               	movwf	??___fladd
  6054  0E4A  0861               	movf	??___fladd,w
  6055  0E4B  00EC               	movwf	___fladd@grs
  6056  0E4C  3000               	movlw	0
  6057  0E4D  00DC               	movwf	___fladd@b+3
  6058  0E4E  3000               	movlw	0
  6059  0E4F  00DB               	movwf	___fladd@b+2
  6060  0E50  3000               	movlw	0
  6061  0E51  00DA               	movwf	___fladd@b+1
  6062  0E52  3000               	movlw	0
  6063  0E53  00D9               	movwf	___fladd@b
  6064  0E54  086A               	movf	___fladd@aexp,w
  6065  0E55  00E1               	movwf	??___fladd
  6066  0E56  0861               	movf	??___fladd,w
  6067  0E57  00EB               	movwf	___fladd@bexp
  6068  0E58  2E82               	goto	l702
  6069  0E59                     l704:
  6070  0E59  1C6C               	btfss	___fladd@grs,0
  6071  0E5A  2E5C               	goto	u2431
  6072  0E5B  2E5D               	goto	u2430
  6073  0E5C                     u2431:
  6074  0E5C  2E66               	goto	l2340
  6075  0E5D                     u2430:
  6076  0E5D                     l2338:
  6077  0E5D  086C               	movf	___fladd@grs,w
  6078  0E5E  00E1               	movwf	??___fladd
  6079  0E5F  1003               	clrc
  6080  0E60  0C61               	rrf	??___fladd,w
  6081  0E61  3801               	iorlw	1
  6082  0E62  00E2               	movwf	??___fladd+1
  6083  0E63  0862               	movf	??___fladd+1,w
  6084  0E64  00EC               	movwf	___fladd@grs
  6085  0E65  2E68               	goto	l2342
  6086  0E66                     l2340:
  6087  0E66  1003               	clrc
  6088  0E67  0CEC               	rrf	___fladd@grs,f
  6089  0E68                     l2342:
  6090  0E68  1C59               	btfss	___fladd@b,0
  6091  0E69  2E6B               	goto	u2441
  6092  0E6A  2E6C               	goto	u2440
  6093  0E6B                     u2441:
  6094  0E6B  2E6D               	goto	l2346
  6095  0E6C                     u2440:
  6096  0E6C                     l2344:
  6097  0E6C  17EC               	bsf	___fladd@grs,7
  6098  0E6D                     l2346:
  6099  0E6D  3001               	movlw	1
  6100  0E6E  00E1               	movwf	??___fladd
  6101  0E6F                     u2455:
  6102  0E6F  0D5C               	rlf	___fladd@b+3,w
  6103  0E70  0CDC               	rrf	___fladd@b+3,f
  6104  0E71  0CDB               	rrf	___fladd@b+2,f
  6105  0E72  0CDA               	rrf	___fladd@b+1,f
  6106  0E73  0CD9               	rrf	___fladd@b,f
  6107  0E74  0BE1               	decfsz	??___fladd& (0+127),f
  6108  0E75  2E6F               	goto	u2455
  6109  0E76                     l2348:
  6110  0E76  3001               	movlw	1
  6111  0E77  00E1               	movwf	??___fladd
  6112  0E78  0861               	movf	??___fladd,w
  6113  0E79  07EB               	addwf	___fladd@bexp,f
  6114  0E7A                     l2350:
  6115  0E7A  1283               	bcf	3,5	;RP0=0, select bank0
  6116  0E7B  1303               	bcf	3,6	;RP1=0, select bank0
  6117  0E7C  086A               	movf	___fladd@aexp,w
  6118  0E7D  026B               	subwf	___fladd@bexp,w
  6119  0E7E  1C03               	skipc
  6120  0E7F  2E81               	goto	u2461
  6121  0E80  2E82               	goto	u2460
  6122  0E81                     u2461:
  6123  0E81  2E59               	goto	l704
  6124  0E82                     u2460:
  6125  0E82                     l702:
  6126  0E82  1B69               	btfsc	___fladd@signs,6
  6127  0E83  2E85               	goto	u2471
  6128  0E84  2E86               	goto	u2470
  6129  0E85                     u2471:
  6130  0E85  2ED1               	goto	l2376
  6131  0E86                     u2470:
  6132  0E86                     l2352:
  6133  0E86  086B               	movf	___fladd@bexp,w
  6134  0E87  1D03               	btfss	3,2
  6135  0E88  2E8A               	goto	u2481
  6136  0E89  2E8B               	goto	u2480
  6137  0E8A                     u2481:
  6138  0E8A  2E94               	goto	l2358
  6139  0E8B                     u2480:
  6140  0E8B                     l2354:
  6141  0E8B  3000               	movlw	0
  6142  0E8C  00DC               	movwf	?___fladd+3
  6143  0E8D  3000               	movlw	0
  6144  0E8E  00DB               	movwf	?___fladd+2
  6145  0E8F  3000               	movlw	0
  6146  0E90  00DA               	movwf	?___fladd+1
  6147  0E91  3000               	movlw	0
  6148  0E92  00D9               	movwf	?___fladd
  6149  0E93  2FFF               	goto	l711
  6150  0E94                     l2358:
  6151  0E94  085D               	movf	___fladd@a,w
  6152  0E95  07D9               	addwf	___fladd@b,f
  6153  0E96  085E               	movf	___fladd@a+1,w
  6154  0E97  1103               	clrz
  6155  0E98  1803               	skipnc
  6156  0E99  3E01               	addlw	1
  6157  0E9A  1903               	skipnz
  6158  0E9B  2E9D               	goto	u2491
  6159  0E9C  07DA               	addwf	___fladd@b+1,f
  6160  0E9D                     u2491:
  6161  0E9D  085F               	movf	___fladd@a+2,w
  6162  0E9E  1103               	clrz
  6163  0E9F  1803               	skipnc
  6164  0EA0  3E01               	addlw	1
  6165  0EA1  1903               	skipnz
  6166  0EA2  2EA4               	goto	u2492
  6167  0EA3  07DB               	addwf	___fladd@b+2,f
  6168  0EA4                     u2492:
  6169  0EA4  0860               	movf	___fladd@a+3,w
  6170  0EA5  1103               	clrz
  6171  0EA6  1803               	skipnc
  6172  0EA7  3E01               	addlw	1
  6173  0EA8  1903               	skipnz
  6174  0EA9  2EAB               	goto	u2493
  6175  0EAA  07DC               	addwf	___fladd@b+3,f
  6176  0EAB                     u2493:
  6177  0EAB                     l2360:
  6178  0EAB  1C5C               	btfss	___fladd@b+3,0
  6179  0EAC  2EAE               	goto	u2501
  6180  0EAD  2EAF               	goto	u2500
  6181  0EAE                     u2501:
  6182  0EAE  2F85               	goto	l2410
  6183  0EAF                     u2500:
  6184  0EAF                     l2362:
  6185  0EAF  1C6C               	btfss	___fladd@grs,0
  6186  0EB0  2EB2               	goto	u2511
  6187  0EB1  2EB3               	goto	u2510
  6188  0EB2                     u2511:
  6189  0EB2  2EBC               	goto	l2366
  6190  0EB3                     u2510:
  6191  0EB3                     l2364:
  6192  0EB3  086C               	movf	___fladd@grs,w
  6193  0EB4  00E1               	movwf	??___fladd
  6194  0EB5  1003               	clrc
  6195  0EB6  0C61               	rrf	??___fladd,w
  6196  0EB7  3801               	iorlw	1
  6197  0EB8  00E2               	movwf	??___fladd+1
  6198  0EB9  0862               	movf	??___fladd+1,w
  6199  0EBA  00EC               	movwf	___fladd@grs
  6200  0EBB  2EBE               	goto	l2368
  6201  0EBC                     l2366:
  6202  0EBC  1003               	clrc
  6203  0EBD  0CEC               	rrf	___fladd@grs,f
  6204  0EBE                     l2368:
  6205  0EBE  1C59               	btfss	___fladd@b,0
  6206  0EBF  2EC1               	goto	u2521
  6207  0EC0  2EC2               	goto	u2520
  6208  0EC1                     u2521:
  6209  0EC1  2EC3               	goto	l2372
  6210  0EC2                     u2520:
  6211  0EC2                     l2370:
  6212  0EC2  17EC               	bsf	___fladd@grs,7
  6213  0EC3                     l2372:
  6214  0EC3  3001               	movlw	1
  6215  0EC4  00E1               	movwf	??___fladd
  6216  0EC5                     u2535:
  6217  0EC5  0D5C               	rlf	___fladd@b+3,w
  6218  0EC6  0CDC               	rrf	___fladd@b+3,f
  6219  0EC7  0CDB               	rrf	___fladd@b+2,f
  6220  0EC8  0CDA               	rrf	___fladd@b+1,f
  6221  0EC9  0CD9               	rrf	___fladd@b,f
  6222  0ECA  0BE1               	decfsz	??___fladd& (0+127),f
  6223  0ECB  2EC5               	goto	u2535
  6224  0ECC                     l2374:
  6225  0ECC  3001               	movlw	1
  6226  0ECD  00E1               	movwf	??___fladd
  6227  0ECE  0861               	movf	??___fladd,w
  6228  0ECF  07EB               	addwf	___fladd@bexp,f
  6229  0ED0  2F85               	goto	l2410
  6230  0ED1                     l2376:
  6231  0ED1  085C               	movf	___fladd@b+3,w
  6232  0ED2  3A80               	xorlw	128
  6233  0ED3  00FF               	movwf	btemp+1
  6234  0ED4  0860               	movf	___fladd@a+3,w
  6235  0ED5  3A80               	xorlw	128
  6236  0ED6  027F               	subwf	btemp+1,w
  6237  0ED7  1D03               	skipz
  6238  0ED8  2EE3               	goto	u2543
  6239  0ED9  085F               	movf	___fladd@a+2,w
  6240  0EDA  025B               	subwf	___fladd@b+2,w
  6241  0EDB  1D03               	skipz
  6242  0EDC  2EE3               	goto	u2543
  6243  0EDD  085E               	movf	___fladd@a+1,w
  6244  0EDE  025A               	subwf	___fladd@b+1,w
  6245  0EDF  1D03               	skipz
  6246  0EE0  2EE3               	goto	u2543
  6247  0EE1  085D               	movf	___fladd@a,w
  6248  0EE2  0259               	subwf	___fladd@b,w
  6249  0EE3                     u2543:
  6250  0EE3  1803               	skipnc
  6251  0EE4  2EE6               	goto	u2541
  6252  0EE5  2EE7               	goto	u2540
  6253  0EE6                     u2541:
  6254  0EE6  2F3F               	goto	l2386
  6255  0EE7                     u2540:
  6256  0EE7                     l2378:
  6257  0EE7  30FF               	movlw	255
  6258  0EE8  00E1               	movwf	??___fladd
  6259  0EE9  30FF               	movlw	255
  6260  0EEA  00E2               	movwf	??___fladd+1
  6261  0EEB  30FF               	movlw	255
  6262  0EEC  00E3               	movwf	??___fladd+2
  6263  0EED  30FF               	movlw	255
  6264  0EEE  00E4               	movwf	??___fladd+3
  6265  0EEF  085D               	movf	___fladd@a,w
  6266  0EF0  00E5               	movwf	??___fladd+4
  6267  0EF1  085E               	movf	___fladd@a+1,w
  6268  0EF2  00E6               	movwf	??___fladd+5
  6269  0EF3  085F               	movf	___fladd@a+2,w
  6270  0EF4  00E7               	movwf	??___fladd+6
  6271  0EF5  0860               	movf	___fladd@a+3,w
  6272  0EF6  00E8               	movwf	??___fladd+7
  6273  0EF7  0859               	movf	___fladd@b,w
  6274  0EF8  02E5               	subwf	??___fladd+4,f
  6275  0EF9  085A               	movf	___fladd@b+1,w
  6276  0EFA  1C03               	skipc
  6277  0EFB  0F5A               	incfsz	___fladd@b+1,w
  6278  0EFC  2EFE               	goto	u2551
  6279  0EFD  2EFF               	goto	u2552
  6280  0EFE                     u2551:
  6281  0EFE  02E6               	subwf	??___fladd+5,f
  6282  0EFF                     u2552:
  6283  0EFF  085B               	movf	___fladd@b+2,w
  6284  0F00  1C03               	skipc
  6285  0F01  0F5B               	incfsz	___fladd@b+2,w
  6286  0F02  2F04               	goto	u2553
  6287  0F03  2F05               	goto	u2554
  6288  0F04                     u2553:
  6289  0F04  02E7               	subwf	??___fladd+6,f
  6290  0F05                     u2554:
  6291  0F05  085C               	movf	___fladd@b+3,w
  6292  0F06  1C03               	skipc
  6293  0F07  0F5C               	incfsz	___fladd@b+3,w
  6294  0F08  2F0A               	goto	u2555
  6295  0F09  2F0B               	goto	u2556
  6296  0F0A                     u2555:
  6297  0F0A  02E8               	subwf	??___fladd+7,f
  6298  0F0B                     u2556:
  6299  0F0B  0865               	movf	??___fladd+4,w
  6300  0F0C  07E1               	addwf	??___fladd,f
  6301  0F0D  0866               	movf	??___fladd+5,w
  6302  0F0E  1803               	skipnc
  6303  0F0F  0F66               	incfsz	??___fladd+5,w
  6304  0F10  2F12               	goto	u2560
  6305  0F11  2F13               	goto	u2561
  6306  0F12                     u2560:
  6307  0F12  07E2               	addwf	??___fladd+1,f
  6308  0F13                     u2561:
  6309  0F13  0867               	movf	??___fladd+6,w
  6310  0F14  1803               	skipnc
  6311  0F15  0F67               	incfsz	??___fladd+6,w
  6312  0F16  2F18               	goto	u2562
  6313  0F17  2F19               	goto	u2563
  6314  0F18                     u2562:
  6315  0F18  07E3               	addwf	??___fladd+2,f
  6316  0F19                     u2563:
  6317  0F19  0868               	movf	??___fladd+7,w
  6318  0F1A  1803               	skipnc
  6319  0F1B  0A68               	incf	??___fladd+7,w
  6320  0F1C  07E4               	addwf	??___fladd+3,f
  6321  0F1D  0864               	movf	??___fladd+3,w
  6322  0F1E  00DC               	movwf	___fladd@b+3
  6323  0F1F  0863               	movf	??___fladd+2,w
  6324  0F20  00DB               	movwf	___fladd@b+2
  6325  0F21  0862               	movf	??___fladd+1,w
  6326  0F22  00DA               	movwf	___fladd@b+1
  6327  0F23  0861               	movf	??___fladd,w
  6328  0F24  00D9               	movwf	___fladd@b
  6329  0F25                     l2380:
  6330  0F25  3080               	movlw	128
  6331  0F26  00E1               	movwf	??___fladd
  6332  0F27  0861               	movf	??___fladd,w
  6333  0F28  06E9               	xorwf	___fladd@signs,f
  6334  0F29  09EC               	comf	___fladd@grs,f
  6335  0F2A  0AEC               	incf	___fladd@grs,f
  6336  0F2B                     l2382:
  6337  0F2B  086C               	movf	___fladd@grs,w
  6338  0F2C  1D03               	btfss	3,2
  6339  0F2D  2F2F               	goto	u2571
  6340  0F2E  2F30               	goto	u2570
  6341  0F2F                     u2571:
  6342  0F2F  2F4D               	goto	l719
  6343  0F30                     u2570:
  6344  0F30                     l2384:
  6345  0F30  3001               	movlw	1
  6346  0F31  07D9               	addwf	___fladd@b,f
  6347  0F32  3000               	movlw	0
  6348  0F33  1803               	skipnc
  6349  0F34  3001               	movlw	1
  6350  0F35  07DA               	addwf	___fladd@b+1,f
  6351  0F36  3000               	movlw	0
  6352  0F37  1803               	skipnc
  6353  0F38  3001               	movlw	1
  6354  0F39  07DB               	addwf	___fladd@b+2,f
  6355  0F3A  3000               	movlw	0
  6356  0F3B  1803               	skipnc
  6357  0F3C  3001               	movlw	1
  6358  0F3D  07DC               	addwf	___fladd@b+3,f
  6359  0F3E  2F4D               	goto	l719
  6360  0F3F                     l2386:
  6361  0F3F  085D               	movf	___fladd@a,w
  6362  0F40  02D9               	subwf	___fladd@b,f
  6363  0F41  085E               	movf	___fladd@a+1,w
  6364  0F42  1C03               	skipc
  6365  0F43  0F5E               	incfsz	___fladd@a+1,w
  6366  0F44  02DA               	subwf	___fladd@b+1,f
  6367  0F45  085F               	movf	___fladd@a+2,w
  6368  0F46  1C03               	skipc
  6369  0F47  0F5F               	incfsz	___fladd@a+2,w
  6370  0F48  02DB               	subwf	___fladd@b+2,f
  6371  0F49  0860               	movf	___fladd@a+3,w
  6372  0F4A  1C03               	skipc
  6373  0F4B  0F60               	incfsz	___fladd@a+3,w
  6374  0F4C  02DC               	subwf	___fladd@b+3,f
  6375  0F4D                     l719:
  6376  0F4D  085C               	movf	___fladd@b+3,w
  6377  0F4E  045B               	iorwf	___fladd@b+2,w
  6378  0F4F  045A               	iorwf	___fladd@b+1,w
  6379  0F50  0459               	iorwf	___fladd@b,w
  6380  0F51  1D03               	skipz
  6381  0F52  2F54               	goto	u2581
  6382  0F53  2F55               	goto	u2580
  6383  0F54                     u2581:
  6384  0F54  2F81               	goto	l2408
  6385  0F55                     u2580:
  6386  0F55                     l2388:
  6387  0F55  086C               	movf	___fladd@grs,w
  6388  0F56  1D03               	btfss	3,2
  6389  0F57  2F59               	goto	u2591
  6390  0F58  2F5A               	goto	u2590
  6391  0F59                     u2591:
  6392  0F59  2F81               	goto	l2408
  6393  0F5A                     u2590:
  6394  0F5A                     l2390:
  6395  0F5A  3000               	movlw	0
  6396  0F5B  00DC               	movwf	?___fladd+3
  6397  0F5C  3000               	movlw	0
  6398  0F5D  00DB               	movwf	?___fladd+2
  6399  0F5E  3000               	movlw	0
  6400  0F5F  00DA               	movwf	?___fladd+1
  6401  0F60  3000               	movlw	0
  6402  0F61  00D9               	movwf	?___fladd
  6403  0F62  2FFF               	goto	l711
  6404  0F63                     l2394:
  6405  0F63  3001               	movlw	1
  6406  0F64  00E1               	movwf	??___fladd
  6407  0F65                     u2605:
  6408  0F65  1003               	clrc
  6409  0F66  0DD9               	rlf	___fladd@b,f
  6410  0F67  0DDA               	rlf	___fladd@b+1,f
  6411  0F68  0DDB               	rlf	___fladd@b+2,f
  6412  0F69  0DDC               	rlf	___fladd@b+3,f
  6413  0F6A  0BE1               	decfsz	??___fladd,f
  6414  0F6B  2F65               	goto	u2605
  6415  0F6C                     l2396:
  6416  0F6C  1FEC               	btfss	___fladd@grs,7
  6417  0F6D  2F6F               	goto	u2611
  6418  0F6E  2F70               	goto	u2610
  6419  0F6F                     u2611:
  6420  0F6F  2F71               	goto	l723
  6421  0F70                     u2610:
  6422  0F70                     l2398:
  6423  0F70  1459               	bsf	___fladd@b,0
  6424  0F71                     l723:
  6425  0F71  1C6C               	btfss	___fladd@grs,0
  6426  0F72  2F74               	goto	u2621
  6427  0F73  2F75               	goto	u2620
  6428  0F74                     u2621:
  6429  0F74  2F78               	goto	l2402
  6430  0F75                     u2620:
  6431  0F75                     l2400:
  6432  0F75  1403               	setc
  6433  0F76  0DEC               	rlf	___fladd@grs,f
  6434  0F77  2F7A               	goto	l2404
  6435  0F78                     l2402:
  6436  0F78  1003               	clrc
  6437  0F79  0DEC               	rlf	___fladd@grs,f
  6438  0F7A                     l2404:
  6439  0F7A  086B               	movf	___fladd@bexp,w
  6440  0F7B  1903               	btfsc	3,2
  6441  0F7C  2F7E               	goto	u2631
  6442  0F7D  2F7F               	goto	u2630
  6443  0F7E                     u2631:
  6444  0F7E  2F81               	goto	l2408
  6445  0F7F                     u2630:
  6446  0F7F                     l2406:
  6447  0F7F  3001               	movlw	1
  6448  0F80  02EB               	subwf	___fladd@bexp,f
  6449  0F81                     l2408:
  6450  0F81  1FDB               	btfss	___fladd@b+2,7
  6451  0F82  2F84               	goto	u2641
  6452  0F83  2F85               	goto	u2640
  6453  0F84                     u2641:
  6454  0F84  2F63               	goto	l2394
  6455  0F85                     u2640:
  6456  0F85                     l2410:
  6457  0F85  01EA               	clrf	___fladd@aexp
  6458  0F86                     l2412:
  6459  0F86  1FEC               	btfss	___fladd@grs,7
  6460  0F87  2F89               	goto	u2651
  6461  0F88  2F8A               	goto	u2650
  6462  0F89                     u2651:
  6463  0F89  2F98               	goto	l2420
  6464  0F8A                     u2650:
  6465  0F8A                     l2414:
  6466  0F8A  086C               	movf	___fladd@grs,w
  6467  0F8B  397F               	andlw	127
  6468  0F8C  1903               	btfsc	3,2
  6469  0F8D  2F8F               	goto	u2661
  6470  0F8E  2F90               	goto	u2660
  6471  0F8F                     u2661:
  6472  0F8F  2F93               	goto	l729
  6473  0F90                     u2660:
  6474  0F90                     l2416:
  6475  0F90  01EA               	clrf	___fladd@aexp
  6476  0F91  0AEA               	incf	___fladd@aexp,f
  6477  0F92  2F98               	goto	l2420
  6478  0F93                     l729:
  6479  0F93  1C59               	btfss	___fladd@b,0
  6480  0F94  2F96               	goto	u2671
  6481  0F95  2F97               	goto	u2670
  6482  0F96                     u2671:
  6483  0F96  2F98               	goto	l2420
  6484  0F97                     u2670:
  6485  0F97  2F90               	goto	l2416
  6486  0F98                     l2420:
  6487  0F98  086A               	movf	___fladd@aexp,w
  6488  0F99  1903               	btfsc	3,2
  6489  0F9A  2F9C               	goto	u2681
  6490  0F9B  2F9D               	goto	u2680
  6491  0F9C                     u2681:
  6492  0F9C  2FD1               	goto	l732
  6493  0F9D                     u2680:
  6494  0F9D                     l2422:
  6495  0F9D  3001               	movlw	1
  6496  0F9E  07D9               	addwf	___fladd@b,f
  6497  0F9F  3000               	movlw	0
  6498  0FA0  1803               	skipnc
  6499  0FA1  3001               	movlw	1
  6500  0FA2  07DA               	addwf	___fladd@b+1,f
  6501  0FA3  3000               	movlw	0
  6502  0FA4  1803               	skipnc
  6503  0FA5  3001               	movlw	1
  6504  0FA6  07DB               	addwf	___fladd@b+2,f
  6505  0FA7  3000               	movlw	0
  6506  0FA8  1803               	skipnc
  6507  0FA9  3001               	movlw	1
  6508  0FAA  07DC               	addwf	___fladd@b+3,f
  6509  0FAB                     l2424:
  6510  0FAB  1C5C               	btfss	___fladd@b+3,0
  6511  0FAC  2FAE               	goto	u2691
  6512  0FAD  2FAF               	goto	u2690
  6513  0FAE                     u2691:
  6514  0FAE  2FD1               	goto	l732
  6515  0FAF                     u2690:
  6516  0FAF                     l2426:
  6517  0FAF  0859               	movf	___fladd@b,w
  6518  0FB0  00E1               	movwf	??___fladd
  6519  0FB1  085A               	movf	___fladd@b+1,w
  6520  0FB2  00E2               	movwf	??___fladd+1
  6521  0FB3  085B               	movf	___fladd@b+2,w
  6522  0FB4  00E3               	movwf	??___fladd+2
  6523  0FB5  085C               	movf	___fladd@b+3,w
  6524  0FB6  00E4               	movwf	??___fladd+3
  6525  0FB7  3001               	movlw	1
  6526  0FB8  00E5               	movwf	??___fladd+4
  6527  0FB9                     u2705:
  6528  0FB9  0D64               	rlf	??___fladd+3,w
  6529  0FBA  0CE4               	rrf	??___fladd+3,f
  6530  0FBB  0CE3               	rrf	??___fladd+2,f
  6531  0FBC  0CE2               	rrf	??___fladd+1,f
  6532  0FBD  0CE1               	rrf	??___fladd,f
  6533  0FBE                     u2700:
  6534  0FBE  0BE5               	decfsz	??___fladd+4,f
  6535  0FBF  2FB9               	goto	u2705
  6536  0FC0  0864               	movf	??___fladd+3,w
  6537  0FC1  00DC               	movwf	___fladd@b+3
  6538  0FC2  0863               	movf	??___fladd+2,w
  6539  0FC3  00DB               	movwf	___fladd@b+2
  6540  0FC4  0862               	movf	??___fladd+1,w
  6541  0FC5  00DA               	movwf	___fladd@b+1
  6542  0FC6  0861               	movf	??___fladd,w
  6543  0FC7  00D9               	movwf	___fladd@b
  6544  0FC8  0A6B               	incf	___fladd@bexp,w
  6545  0FC9  1903               	btfsc	3,2
  6546  0FCA  2FCC               	goto	u2711
  6547  0FCB  2FCD               	goto	u2710
  6548  0FCC                     u2711:
  6549  0FCC  2FD1               	goto	l732
  6550  0FCD                     u2710:
  6551  0FCD                     l2428:
  6552  0FCD  3001               	movlw	1
  6553  0FCE  00E1               	movwf	??___fladd
  6554  0FCF  0861               	movf	??___fladd,w
  6555  0FD0  07EB               	addwf	___fladd@bexp,f
  6556  0FD1                     l732:
  6557  0FD1  0A6B               	incf	___fladd@bexp,w
  6558  0FD2  1903               	btfsc	3,2
  6559  0FD3  2FD5               	goto	u2721
  6560  0FD4  2FD6               	goto	u2720
  6561  0FD5                     u2721:
  6562  0FD5  2FDB               	goto	l2432
  6563  0FD6                     u2720:
  6564  0FD6                     l2430:
  6565  0FD6  086B               	movf	___fladd@bexp,w
  6566  0FD7  1D03               	btfss	3,2
  6567  0FD8  2FDA               	goto	u2731
  6568  0FD9  2FDB               	goto	u2730
  6569  0FDA                     u2731:
  6570  0FDA  2FE9               	goto	l2438
  6571  0FDB                     u2730:
  6572  0FDB                     l2432:
  6573  0FDB  3000               	movlw	0
  6574  0FDC  00DC               	movwf	___fladd@b+3
  6575  0FDD  3000               	movlw	0
  6576  0FDE  00DB               	movwf	___fladd@b+2
  6577  0FDF  3000               	movlw	0
  6578  0FE0  00DA               	movwf	___fladd@b+1
  6579  0FE1  3000               	movlw	0
  6580  0FE2  00D9               	movwf	___fladd@b
  6581  0FE3                     l2434:
  6582  0FE3  086B               	movf	___fladd@bexp,w
  6583  0FE4  1D03               	btfss	3,2
  6584  0FE5  2FE7               	goto	u2741
  6585  0FE6  2FE8               	goto	u2740
  6586  0FE7                     u2741:
  6587  0FE7  2FE9               	goto	l2438
  6588  0FE8                     u2740:
  6589  0FE8                     l2436:
  6590  0FE8  01E9               	clrf	___fladd@signs
  6591  0FE9                     l2438:
  6592  0FE9  1C6B               	btfss	___fladd@bexp,0
  6593  0FEA  2FEC               	goto	u2751
  6594  0FEB  2FED               	goto	u2750
  6595  0FEC                     u2751:
  6596  0FEC  2FEF               	goto	l2442
  6597  0FED                     u2750:
  6598  0FED                     l2440:
  6599  0FED  17DB               	bsf	___fladd@b+2,7
  6600  0FEE  2FF3               	goto	l740
  6601  0FEF                     l2442:
  6602  0FEF  307F               	movlw	127
  6603  0FF0  00E1               	movwf	??___fladd
  6604  0FF1  0861               	movf	??___fladd,w
  6605  0FF2  05DB               	andwf	___fladd@b+2,f
  6606  0FF3                     l740:
  6607  0FF3  086B               	movf	___fladd@bexp,w
  6608  0FF4  00E1               	movwf	??___fladd
  6609  0FF5  1003               	clrc
  6610  0FF6  0C61               	rrf	??___fladd,w
  6611  0FF7  00E2               	movwf	??___fladd+1
  6612  0FF8  0862               	movf	??___fladd+1,w
  6613  0FF9  00DC               	movwf	___fladd@b+3
  6614  0FFA                     l2444:
  6615  0FFA  1FE9               	btfss	___fladd@signs,7
  6616  0FFB  2FFD               	goto	u2761
  6617  0FFC  2FFE               	goto	u2760
  6618  0FFD                     u2761:
  6619  0FFD  2FFF               	goto	l741
  6620  0FFE                     u2760:
  6621  0FFE                     l2446:
  6622  0FFE  17DC               	bsf	___fladd@b+3,7
  6623  0FFF                     l741:
  6624  0FFF                     l711:
  6625  0FFF  0008               	return
  6626  1000                     __end_of___fladd:
  6627                           
  6628                           	psect	text15
  6629  166C                     __ptext15:	
  6630 ;; *************** function ___xxtofl *****************
  6631 ;; Defined at:
  6632 ;;		line 10 in file "C:\Program Files\Microchip\xc8\v2.36\pic\sources\c90\common\xxtofl.c"
  6633 ;; Parameters:    Size  Location     Type
  6634 ;;  sign            1    wreg     unsigned char 
  6635 ;;  val             4    0[COMMON] long 
  6636 ;; Auto vars:     Size  Location     Type
  6637 ;;  sign            1    8[COMMON] unsigned char 
  6638 ;;  arg             4   10[COMMON] unsigned long 
  6639 ;;  exp             1    9[COMMON] unsigned char 
  6640 ;; Return value:  Size  Location     Type
  6641 ;;                  4    0[COMMON] unsigned char 
  6642 ;; Registers used:
  6643 ;;		wreg, status,2, status,0
  6644 ;; Tracked objects:
  6645 ;;		On entry : 0/0
  6646 ;;		On exit  : 0/0
  6647 ;;		Unchanged: 0/0
  6648 ;; Data sizes:     COMMON   BANK0   BANK1   BANK3   BANK2
  6649 ;;      Params:         4       0       0       0       0
  6650 ;;      Locals:         6       0       0       0       0
  6651 ;;      Temps:          4       0       0       0       0
  6652 ;;      Totals:        14       0       0       0       0
  6653 ;;Total ram usage:       14 bytes
  6654 ;; Hardware stack levels used: 1
  6655 ;; This function calls:
  6656 ;;		Nothing
  6657 ;; This function is called by:
  6658 ;;		_main
  6659 ;;		_log
  6660 ;; This function uses a non-reentrant model
  6661 ;;
  6662                           
  6663  166C                     ___xxtofl:	
  6664                           ;psect for function ___xxtofl
  6665                           
  6666                           
  6667                           ;incstack = 0
  6668                           ; Regs used in ___xxtofl: [wreg+status,2+status,0]
  6669                           ;___xxtofl@sign stored from wreg
  6670  166C  00F8               	movwf	___xxtofl@sign
  6671  166D                     l2684:
  6672  166D  0878               	movf	___xxtofl@sign,w
  6673  166E  1903               	btfsc	3,2
  6674  166F  2E71               	goto	u3361
  6675  1670  2E72               	goto	u3360
  6676  1671                     u3361:
  6677  1671  2E86               	goto	l2690
  6678  1672                     u3360:
  6679  1672                     l2686:
  6680  1672  1FF3               	btfss	___xxtofl@val+3,7
  6681  1673  2E75               	goto	u3371
  6682  1674  2E76               	goto	u3370
  6683  1675                     u3371:
  6684  1675  2E86               	goto	l2690
  6685  1676                     u3370:
  6686  1676                     l2688:
  6687  1676  0970               	comf	___xxtofl@val,w
  6688  1677  00FA               	movwf	___xxtofl@arg
  6689  1678  0971               	comf	___xxtofl@val+1,w
  6690  1679  00FB               	movwf	___xxtofl@arg+1
  6691  167A  0972               	comf	___xxtofl@val+2,w
  6692  167B  00FC               	movwf	___xxtofl@arg+2
  6693  167C  0973               	comf	___xxtofl@val+3,w
  6694  167D  00FD               	movwf	___xxtofl@arg+3
  6695  167E  0AFA               	incf	___xxtofl@arg,f
  6696  167F  1903               	skipnz
  6697  1680  0AFB               	incf	___xxtofl@arg+1,f
  6698  1681  1903               	skipnz
  6699  1682  0AFC               	incf	___xxtofl@arg+2,f
  6700  1683  1903               	skipnz
  6701  1684  0AFD               	incf	___xxtofl@arg+3,f
  6702  1685  2E8E               	goto	l838
  6703  1686                     l2690:
  6704  1686  0873               	movf	___xxtofl@val+3,w
  6705  1687  00FD               	movwf	___xxtofl@arg+3
  6706  1688  0872               	movf	___xxtofl@val+2,w
  6707  1689  00FC               	movwf	___xxtofl@arg+2
  6708  168A  0871               	movf	___xxtofl@val+1,w
  6709  168B  00FB               	movwf	___xxtofl@arg+1
  6710  168C  0870               	movf	___xxtofl@val,w
  6711  168D  00FA               	movwf	___xxtofl@arg
  6712  168E                     l838:
  6713  168E  0873               	movf	___xxtofl@val+3,w
  6714  168F  0472               	iorwf	___xxtofl@val+2,w
  6715  1690  0471               	iorwf	___xxtofl@val+1,w
  6716  1691  0470               	iorwf	___xxtofl@val,w
  6717  1692  1D03               	skipz
  6718  1693  2E95               	goto	u3381
  6719  1694  2E96               	goto	u3380
  6720  1695                     u3381:
  6721  1695  2E9F               	goto	l2696
  6722  1696                     u3380:
  6723  1696                     l2692:
  6724  1696  3000               	movlw	0
  6725  1697  00F3               	movwf	?___xxtofl+3
  6726  1698  3000               	movlw	0
  6727  1699  00F2               	movwf	?___xxtofl+2
  6728  169A  3000               	movlw	0
  6729  169B  00F1               	movwf	?___xxtofl+1
  6730  169C  3000               	movlw	0
  6731  169D  00F0               	movwf	?___xxtofl
  6732  169E  2F25               	goto	l840
  6733  169F                     l2696:
  6734  169F  3096               	movlw	150
  6735  16A0  00F4               	movwf	??___xxtofl
  6736  16A1  0874               	movf	??___xxtofl,w
  6737  16A2  00F9               	movwf	___xxtofl@exp
  6738  16A3  2EB1               	goto	l2700
  6739  16A4                     l2698:
  6740  16A4  3001               	movlw	1
  6741  16A5  00F4               	movwf	??___xxtofl
  6742  16A6  0874               	movf	??___xxtofl,w
  6743  16A7  07F9               	addwf	___xxtofl@exp,f
  6744  16A8  3001               	movlw	1
  6745  16A9                     u3395:
  6746  16A9  1003               	clrc
  6747  16AA  0CFD               	rrf	___xxtofl@arg+3,f
  6748  16AB  0CFC               	rrf	___xxtofl@arg+2,f
  6749  16AC  0CFB               	rrf	___xxtofl@arg+1,f
  6750  16AD  0CFA               	rrf	___xxtofl@arg,f
  6751  16AE  3EFF               	addlw	-1
  6752  16AF  1D03               	skipz
  6753  16B0  2EA9               	goto	u3395
  6754  16B1                     l2700:
  6755  16B1  30FE               	movlw	254
  6756  16B2  057D               	andwf	___xxtofl@arg+3,w
  6757  16B3  1D03               	btfss	3,2
  6758  16B4  2EB6               	goto	u3401
  6759  16B5  2EB7               	goto	u3400
  6760  16B6                     u3401:
  6761  16B6  2EA4               	goto	l2698
  6762  16B7                     u3400:
  6763  16B7  2ED3               	goto	l844
  6764  16B8                     l2702:
  6765  16B8  3001               	movlw	1
  6766  16B9  00F4               	movwf	??___xxtofl
  6767  16BA  0874               	movf	??___xxtofl,w
  6768  16BB  07F9               	addwf	___xxtofl@exp,f
  6769  16BC                     l2704:
  6770  16BC  3001               	movlw	1
  6771  16BD  07FA               	addwf	___xxtofl@arg,f
  6772  16BE  3000               	movlw	0
  6773  16BF  1803               	skipnc
  6774  16C0  3001               	movlw	1
  6775  16C1  07FB               	addwf	___xxtofl@arg+1,f
  6776  16C2  3000               	movlw	0
  6777  16C3  1803               	skipnc
  6778  16C4  3001               	movlw	1
  6779  16C5  07FC               	addwf	___xxtofl@arg+2,f
  6780  16C6  3000               	movlw	0
  6781  16C7  1803               	skipnc
  6782  16C8  3001               	movlw	1
  6783  16C9  07FD               	addwf	___xxtofl@arg+3,f
  6784  16CA                     l2706:
  6785  16CA  3001               	movlw	1
  6786  16CB                     u3415:
  6787  16CB  1003               	clrc
  6788  16CC  0CFD               	rrf	___xxtofl@arg+3,f
  6789  16CD  0CFC               	rrf	___xxtofl@arg+2,f
  6790  16CE  0CFB               	rrf	___xxtofl@arg+1,f
  6791  16CF  0CFA               	rrf	___xxtofl@arg,f
  6792  16D0  3EFF               	addlw	-1
  6793  16D1  1D03               	skipz
  6794  16D2  2ECB               	goto	u3415
  6795  16D3                     l844:
  6796  16D3  30FF               	movlw	255
  6797  16D4  057D               	andwf	___xxtofl@arg+3,w
  6798  16D5  1D03               	btfss	3,2
  6799  16D6  2ED8               	goto	u3421
  6800  16D7  2ED9               	goto	u3420
  6801  16D8                     u3421:
  6802  16D8  2EB8               	goto	l2702
  6803  16D9                     u3420:
  6804  16D9  2EE5               	goto	l2710
  6805  16DA                     l2708:
  6806  16DA  3001               	movlw	1
  6807  16DB  02F9               	subwf	___xxtofl@exp,f
  6808  16DC  3001               	movlw	1
  6809  16DD  00F4               	movwf	??___xxtofl
  6810  16DE                     u3435:
  6811  16DE  1003               	clrc
  6812  16DF  0DFA               	rlf	___xxtofl@arg,f
  6813  16E0  0DFB               	rlf	___xxtofl@arg+1,f
  6814  16E1  0DFC               	rlf	___xxtofl@arg+2,f
  6815  16E2  0DFD               	rlf	___xxtofl@arg+3,f
  6816  16E3  0BF4               	decfsz	??___xxtofl,f
  6817  16E4  2EDE               	goto	u3435
  6818  16E5                     l2710:
  6819  16E5  1BFC               	btfsc	___xxtofl@arg+2,7
  6820  16E6  2EE8               	goto	u3441
  6821  16E7  2EE9               	goto	u3440
  6822  16E8                     u3441:
  6823  16E8  2EEF               	goto	l851
  6824  16E9                     u3440:
  6825  16E9                     l2712:
  6826  16E9  3002               	movlw	2
  6827  16EA  0279               	subwf	___xxtofl@exp,w
  6828  16EB  1803               	skipnc
  6829  16EC  2EEE               	goto	u3451
  6830  16ED  2EEF               	goto	u3450
  6831  16EE                     u3451:
  6832  16EE  2EDA               	goto	l2708
  6833  16EF                     u3450:
  6834  16EF                     l851:
  6835  16EF  1879               	btfsc	___xxtofl@exp,0
  6836  16F0  2EF2               	goto	u3461
  6837  16F1  2EF3               	goto	u3460
  6838  16F2                     u3461:
  6839  16F2  2EFB               	goto	l852
  6840  16F3                     u3460:
  6841  16F3                     l2714:
  6842  16F3  30FF               	movlw	255
  6843  16F4  05FA               	andwf	___xxtofl@arg,f
  6844  16F5  30FF               	movlw	255
  6845  16F6  05FB               	andwf	___xxtofl@arg+1,f
  6846  16F7  307F               	movlw	127
  6847  16F8  05FC               	andwf	___xxtofl@arg+2,f
  6848  16F9  30FF               	movlw	255
  6849  16FA  05FD               	andwf	___xxtofl@arg+3,f
  6850  16FB                     l852:
  6851  16FB  1003               	clrc
  6852  16FC  0CF9               	rrf	___xxtofl@exp,f
  6853  16FD                     l2716:
  6854  16FD  0879               	movf	___xxtofl@exp,w
  6855  16FE  00F4               	movwf	??___xxtofl
  6856  16FF  01F5               	clrf	??___xxtofl+1
  6857  1700  01F6               	clrf	??___xxtofl+2
  6858  1701  01F7               	clrf	??___xxtofl+3
  6859  1702  3018               	movlw	24
  6860  1703                     u3475:
  6861  1703  1003               	clrc
  6862  1704  0DF4               	rlf	??___xxtofl,f
  6863  1705  0DF5               	rlf	??___xxtofl+1,f
  6864  1706  0DF6               	rlf	??___xxtofl+2,f
  6865  1707  0DF7               	rlf	??___xxtofl+3,f
  6866  1708                     u3470:
  6867  1708  3EFF               	addlw	-1
  6868  1709  1D03               	skipz
  6869  170A  2F03               	goto	u3475
  6870  170B  0874               	movf	??___xxtofl,w
  6871  170C  04FA               	iorwf	___xxtofl@arg,f
  6872  170D  0875               	movf	??___xxtofl+1,w
  6873  170E  04FB               	iorwf	___xxtofl@arg+1,f
  6874  170F  0876               	movf	??___xxtofl+2,w
  6875  1710  04FC               	iorwf	___xxtofl@arg+2,f
  6876  1711  0877               	movf	??___xxtofl+3,w
  6877  1712  04FD               	iorwf	___xxtofl@arg+3,f
  6878  1713                     l2718:
  6879  1713  0878               	movf	___xxtofl@sign,w
  6880  1714  1903               	btfsc	3,2
  6881  1715  2F17               	goto	u3481
  6882  1716  2F18               	goto	u3480
  6883  1717                     u3481:
  6884  1717  2F1D               	goto	l2724
  6885  1718                     u3480:
  6886  1718                     l2720:
  6887  1718  1FF3               	btfss	___xxtofl@val+3,7
  6888  1719  2F1B               	goto	u3491
  6889  171A  2F1C               	goto	u3490
  6890  171B                     u3491:
  6891  171B  2F1D               	goto	l2724
  6892  171C                     u3490:
  6893  171C                     l2722:
  6894  171C  17FD               	bsf	___xxtofl@arg+3,7
  6895  171D                     l2724:
  6896  171D  087D               	movf	___xxtofl@arg+3,w
  6897  171E  00F3               	movwf	?___xxtofl+3
  6898  171F  087C               	movf	___xxtofl@arg+2,w
  6899  1720  00F2               	movwf	?___xxtofl+2
  6900  1721  087B               	movf	___xxtofl@arg+1,w
  6901  1722  00F1               	movwf	?___xxtofl+1
  6902  1723  087A               	movf	___xxtofl@arg,w
  6903  1724  00F0               	movwf	?___xxtofl
  6904  1725                     l840:
  6905  1725  0008               	return
  6906  1726                     __end_of___xxtofl:
  6907                           
  6908                           	psect	text16
  6909  15CA                     __ptext16:	
  6910 ;; *************** function ___flge *****************
  6911 ;; Defined at:
  6912 ;;		line 4 in file "C:\Program Files\Microchip\xc8\v2.36\pic\sources\c90\common\flge.c"
  6913 ;; Parameters:    Size  Location     Type
  6914 ;;  ff1             4    0[COMMON] unsigned char 
  6915 ;;  ff2             4    4[COMMON] unsigned char 
  6916 ;; Auto vars:     Size  Location     Type
  6917 ;;		None
  6918 ;; Return value:  Size  Location     Type
  6919 ;;		None               void
  6920 ;; Registers used:
  6921 ;;		wreg, status,2, status,0
  6922 ;; Tracked objects:
  6923 ;;		On entry : 0/0
  6924 ;;		On exit  : 0/0
  6925 ;;		Unchanged: 0/0
  6926 ;; Data sizes:     COMMON   BANK0   BANK1   BANK3   BANK2
  6927 ;;      Params:         8       0       0       0       0
  6928 ;;      Locals:         0       0       0       0       0
  6929 ;;      Temps:          4       0       0       0       0
  6930 ;;      Totals:        12       0       0       0       0
  6931 ;;Total ram usage:       12 bytes
  6932 ;; Hardware stack levels used: 1
  6933 ;; This function calls:
  6934 ;;		Nothing
  6935 ;; This function is called by:
  6936 ;;		_main
  6937 ;;		_log
  6938 ;; This function uses a non-reentrant model
  6939 ;;
  6940                           
  6941  15CA                     ___flge:	
  6942                           ;psect for function ___flge
  6943                           
  6944  15CA                     l2616:	
  6945                           ;incstack = 0
  6946                           ; Regs used in ___flge: [wreg+status,2+status,0]
  6947                           
  6948  15CA  3000               	movlw	0
  6949  15CB  0570               	andwf	___flge@ff1,w
  6950  15CC  00F8               	movwf	??___flge
  6951  15CD  3000               	movlw	0
  6952  15CE  0571               	andwf	___flge@ff1+1,w
  6953  15CF  00F9               	movwf	??___flge+1
  6954  15D0  3080               	movlw	128
  6955  15D1  0572               	andwf	___flge@ff1+2,w
  6956  15D2  00FA               	movwf	??___flge+2
  6957  15D3  307F               	movlw	127
  6958  15D4  0573               	andwf	___flge@ff1+3,w
  6959  15D5  00FB               	movwf	??___flge+3
  6960  15D6  087B               	movf	??___flge+3,w
  6961  15D7  047A               	iorwf	??___flge+2,w
  6962  15D8  0479               	iorwf	??___flge+1,w
  6963  15D9  0478               	iorwf	??___flge,w
  6964  15DA  1D03               	skipz
  6965  15DB  2DDD               	goto	u3161
  6966  15DC  2DDE               	goto	u3160
  6967  15DD                     u3161:
  6968  15DD  2DE6               	goto	l579
  6969  15DE                     u3160:
  6970  15DE                     l2618:
  6971  15DE  3000               	movlw	0
  6972  15DF  00F3               	movwf	___flge@ff1+3
  6973  15E0  3000               	movlw	0
  6974  15E1  00F2               	movwf	___flge@ff1+2
  6975  15E2  3000               	movlw	0
  6976  15E3  00F1               	movwf	___flge@ff1+1
  6977  15E4  3000               	movlw	0
  6978  15E5  00F0               	movwf	___flge@ff1
  6979  15E6                     l579:
  6980  15E6  3000               	movlw	0
  6981  15E7  0574               	andwf	___flge@ff2,w
  6982  15E8  00F8               	movwf	??___flge
  6983  15E9  3000               	movlw	0
  6984  15EA  0575               	andwf	___flge@ff2+1,w
  6985  15EB  00F9               	movwf	??___flge+1
  6986  15EC  3080               	movlw	128
  6987  15ED  0576               	andwf	___flge@ff2+2,w
  6988  15EE  00FA               	movwf	??___flge+2
  6989  15EF  307F               	movlw	127
  6990  15F0  0577               	andwf	___flge@ff2+3,w
  6991  15F1  00FB               	movwf	??___flge+3
  6992  15F2  087B               	movf	??___flge+3,w
  6993  15F3  047A               	iorwf	??___flge+2,w
  6994  15F4  0479               	iorwf	??___flge+1,w
  6995  15F5  0478               	iorwf	??___flge,w
  6996  15F6  1D03               	skipz
  6997  15F7  2DF9               	goto	u3171
  6998  15F8  2DFA               	goto	u3170
  6999  15F9                     u3171:
  7000  15F9  2E02               	goto	l2622
  7001  15FA                     u3170:
  7002  15FA                     l2620:
  7003  15FA  3000               	movlw	0
  7004  15FB  00F7               	movwf	___flge@ff2+3
  7005  15FC  3000               	movlw	0
  7006  15FD  00F6               	movwf	___flge@ff2+2
  7007  15FE  3000               	movlw	0
  7008  15FF  00F5               	movwf	___flge@ff2+1
  7009  1600  3000               	movlw	0
  7010  1601  00F4               	movwf	___flge@ff2
  7011  1602                     l2622:
  7012  1602  1FF3               	btfss	___flge@ff1+3,7
  7013  1603  2E05               	goto	u3181
  7014  1604  2E06               	goto	u3180
  7015  1605                     u3181:
  7016  1605  2E2A               	goto	l2626
  7017  1606                     u3180:
  7018  1606                     l2624:
  7019  1606  3000               	movlw	0
  7020  1607  00F8               	movwf	??___flge
  7021  1608  3000               	movlw	0
  7022  1609  00F9               	movwf	??___flge+1
  7023  160A  3000               	movlw	0
  7024  160B  00FA               	movwf	??___flge+2
  7025  160C  3080               	movlw	128
  7026  160D  00FB               	movwf	??___flge+3
  7027  160E  0870               	movf	___flge@ff1,w
  7028  160F  02F8               	subwf	??___flge,f
  7029  1610  0871               	movf	___flge@ff1+1,w
  7030  1611  1C03               	skipc
  7031  1612  0F71               	incfsz	___flge@ff1+1,w
  7032  1613  2E15               	goto	u3191
  7033  1614  2E16               	goto	u3192
  7034  1615                     u3191:
  7035  1615  02F9               	subwf	??___flge+1,f
  7036  1616                     u3192:
  7037  1616  0872               	movf	___flge@ff1+2,w
  7038  1617  1C03               	skipc
  7039  1618  0F72               	incfsz	___flge@ff1+2,w
  7040  1619  2E1B               	goto	u3193
  7041  161A  2E1C               	goto	u3194
  7042  161B                     u3193:
  7043  161B  02FA               	subwf	??___flge+2,f
  7044  161C                     u3194:
  7045  161C  0873               	movf	___flge@ff1+3,w
  7046  161D  1C03               	skipc
  7047  161E  0F73               	incfsz	___flge@ff1+3,w
  7048  161F  2E21               	goto	u3195
  7049  1620  2E22               	goto	u3196
  7050  1621                     u3195:
  7051  1621  02FB               	subwf	??___flge+3,f
  7052  1622                     u3196:
  7053  1622  087B               	movf	??___flge+3,w
  7054  1623  00F3               	movwf	___flge@ff1+3
  7055  1624  087A               	movf	??___flge+2,w
  7056  1625  00F2               	movwf	___flge@ff1+2
  7057  1626  0879               	movf	??___flge+1,w
  7058  1627  00F1               	movwf	___flge@ff1+1
  7059  1628  0878               	movf	??___flge,w
  7060  1629  00F0               	movwf	___flge@ff1
  7061  162A                     l2626:
  7062  162A  1FF7               	btfss	___flge@ff2+3,7
  7063  162B  2E2D               	goto	u3201
  7064  162C  2E2E               	goto	u3200
  7065  162D                     u3201:
  7066  162D  2E52               	goto	l582
  7067  162E                     u3200:
  7068  162E                     l2628:
  7069  162E  3000               	movlw	0
  7070  162F  00F8               	movwf	??___flge
  7071  1630  3000               	movlw	0
  7072  1631  00F9               	movwf	??___flge+1
  7073  1632  3000               	movlw	0
  7074  1633  00FA               	movwf	??___flge+2
  7075  1634  3080               	movlw	128
  7076  1635  00FB               	movwf	??___flge+3
  7077  1636  0874               	movf	___flge@ff2,w
  7078  1637  02F8               	subwf	??___flge,f
  7079  1638  0875               	movf	___flge@ff2+1,w
  7080  1639  1C03               	skipc
  7081  163A  0F75               	incfsz	___flge@ff2+1,w
  7082  163B  2E3D               	goto	u3211
  7083  163C  2E3E               	goto	u3212
  7084  163D                     u3211:
  7085  163D  02F9               	subwf	??___flge+1,f
  7086  163E                     u3212:
  7087  163E  0876               	movf	___flge@ff2+2,w
  7088  163F  1C03               	skipc
  7089  1640  0F76               	incfsz	___flge@ff2+2,w
  7090  1641  2E43               	goto	u3213
  7091  1642  2E44               	goto	u3214
  7092  1643                     u3213:
  7093  1643  02FA               	subwf	??___flge+2,f
  7094  1644                     u3214:
  7095  1644  0877               	movf	___flge@ff2+3,w
  7096  1645  1C03               	skipc
  7097  1646  0F77               	incfsz	___flge@ff2+3,w
  7098  1647  2E49               	goto	u3215
  7099  1648  2E4A               	goto	u3216
  7100  1649                     u3215:
  7101  1649  02FB               	subwf	??___flge+3,f
  7102  164A                     u3216:
  7103  164A  087B               	movf	??___flge+3,w
  7104  164B  00F7               	movwf	___flge@ff2+3
  7105  164C  087A               	movf	??___flge+2,w
  7106  164D  00F6               	movwf	___flge@ff2+2
  7107  164E  0879               	movf	??___flge+1,w
  7108  164F  00F5               	movwf	___flge@ff2+1
  7109  1650  0878               	movf	??___flge,w
  7110  1651  00F4               	movwf	___flge@ff2
  7111  1652                     l582:
  7112  1652  3080               	movlw	128
  7113  1653  06F3               	xorwf	___flge@ff1+3,f
  7114  1654  3080               	movlw	128
  7115  1655  06F7               	xorwf	___flge@ff2+3,f
  7116  1656  0877               	movf	___flge@ff2+3,w
  7117  1657  0273               	subwf	___flge@ff1+3,w
  7118  1658  1D03               	skipz
  7119  1659  2E64               	goto	u3225
  7120  165A  0876               	movf	___flge@ff2+2,w
  7121  165B  0272               	subwf	___flge@ff1+2,w
  7122  165C  1D03               	skipz
  7123  165D  2E64               	goto	u3225
  7124  165E  0875               	movf	___flge@ff2+1,w
  7125  165F  0271               	subwf	___flge@ff1+1,w
  7126  1660  1D03               	skipz
  7127  1661  2E64               	goto	u3225
  7128  1662  0874               	movf	___flge@ff2,w
  7129  1663  0270               	subwf	___flge@ff1,w
  7130  1664                     u3225:
  7131  1664  1803               	skipnc
  7132  1665  2E67               	goto	u3221
  7133  1666  2E68               	goto	u3220
  7134  1667                     u3221:
  7135  1667  2E6A               	goto	l2632
  7136  1668                     u3220:
  7137  1668                     l2630:
  7138  1668  1003               	clrc
  7139  1669  2E6B               	goto	l583
  7140  166A                     l2632:
  7141  166A  1403               	setc
  7142  166B                     l583:
  7143  166B  0008               	return
  7144  166C                     __end_of___flge:
  7145                           
  7146                           	psect	text17
  7147  12B5                     __ptext17:	
  7148 ;; *************** function _keypad_init *****************
  7149 ;; Defined at:
  7150 ;;		line 38 in file "KEYPAD.c"
  7151 ;; Parameters:    Size  Location     Type
  7152 ;;		None
  7153 ;; Auto vars:     Size  Location     Type
  7154 ;;		None
  7155 ;; Return value:  Size  Location     Type
  7156 ;;                  1    wreg      void 
  7157 ;; Registers used:
  7158 ;;		wreg, status,2, status,0
  7159 ;; Tracked objects:
  7160 ;;		On entry : 0/0
  7161 ;;		On exit  : 0/0
  7162 ;;		Unchanged: 0/0
  7163 ;; Data sizes:     COMMON   BANK0   BANK1   BANK3   BANK2
  7164 ;;      Params:         0       0       0       0       0
  7165 ;;      Locals:         0       0       0       0       0
  7166 ;;      Temps:          1       0       0       0       0
  7167 ;;      Totals:         1       0       0       0       0
  7168 ;;Total ram usage:        1 bytes
  7169 ;; Hardware stack levels used: 1
  7170 ;; This function calls:
  7171 ;;		Nothing
  7172 ;; This function is called by:
  7173 ;;		_main
  7174 ;; This function uses a non-reentrant model
  7175 ;;
  7176                           
  7177  12B5                     _keypad_init:	
  7178                           ;psect for function _keypad_init
  7179                           
  7180  12B5                     l2826:	
  7181                           ;incstack = 0
  7182                           ; Regs used in _keypad_init: [wreg+status,2+status,0]
  7183                           
  7184                           
  7185                           ;KEYPAD.c: 40:     TRISB &= ~(1<<0) & ~(1<<1) & ~(1<<2) & ~(1<<3);
  7186  12B5  30F0               	movlw	240
  7187  12B6  00F0               	movwf	??_keypad_init
  7188  12B7  0870               	movf	??_keypad_init,w
  7189  12B8  1683               	bsf	3,5	;RP0=1, select bank1
  7190  12B9  1303               	bcf	3,6	;RP1=0, select bank1
  7191  12BA  0586               	andwf	6,f	;volatile
  7192                           
  7193                           ;KEYPAD.c: 41:     TRISB |= (1<<4) | (1<<5) | (1<<6) | (1<<7);
  7194  12BB  30F0               	movlw	240
  7195  12BC  00F0               	movwf	??_keypad_init
  7196  12BD  0870               	movf	??_keypad_init,w
  7197  12BE  0486               	iorwf	6,f	;volatile
  7198  12BF                     l2828:
  7199                           
  7200                           ;KEYPAD.c: 42:     OPTION_REGbits.nRBPU = 0;
  7201  12BF  1381               	bcf	1,7	;volatile
  7202  12C0                     l100:
  7203  12C0  0008               	return
  7204  12C1                     __end_of_keypad_init:
  7205                           
  7206                           	psect	text18
  7207  084A                     __ptext18:	
  7208 ;; *************** function _keypad_getkey *****************
  7209 ;; Defined at:
  7210 ;;		line 57 in file "KEYPAD.c"
  7211 ;; Parameters:    Size  Location     Type
  7212 ;;		None
  7213 ;; Auto vars:     Size  Location     Type
  7214 ;;  letras         16    0[BANK0 ] unsigned char [4][4]
  7215 ;;  i               2   17[BANK0 ] int 
  7216 ;;  valor           1   16[BANK0 ] unsigned char 
  7217 ;; Return value:  Size  Location     Type
  7218 ;;                  1    wreg      unsigned char 
  7219 ;; Registers used:
  7220 ;;		wreg, fsr0l, fsr0h, status,2, status,0, btemp+1
  7221 ;; Tracked objects:
  7222 ;;		On entry : 0/0
  7223 ;;		On exit  : 0/0
  7224 ;;		Unchanged: 0/0
  7225 ;; Data sizes:     COMMON   BANK0   BANK1   BANK3   BANK2
  7226 ;;      Params:         0       0       0       0       0
  7227 ;;      Locals:         0      19       0       0       0
  7228 ;;      Temps:          4       0       0       0       0
  7229 ;;      Totals:         4      19       0       0       0
  7230 ;;Total ram usage:       23 bytes
  7231 ;; Hardware stack levels used: 1
  7232 ;; This function calls:
  7233 ;;		Nothing
  7234 ;; This function is called by:
  7235 ;;		_main
  7236 ;; This function uses a non-reentrant model
  7237 ;;
  7238                           
  7239  084A                     _keypad_getkey:	
  7240                           ;psect for function _keypad_getkey
  7241                           
  7242  084A                     l2830:	
  7243                           ;incstack = 0
  7244                           ; Regs used in _keypad_getkey: [wreg-fsr0h+status,2+status,0+btemp+1]
  7245                           
  7246                           
  7247                           ;KEYPAD.c: 59: char letras[4][4]={ {'1','2','3','A'},
  7248  084A  3020               	movlw	keypad_getkey@letras& (0+255)
  7249  084B  0084               	movwf	4
  7250  084C  3090               	movlw	low keypad_getkey@F1296
  7251  084D  00F0               	movwf	??_keypad_getkey
  7252  084E  0804               	movf	4,w
  7253  084F  00F1               	movwf	??_keypad_getkey+1
  7254  0850  3010               	movlw	16
  7255  0851  00F2               	movwf	??_keypad_getkey+2
  7256  0852                     u3600:
  7257  0852  0870               	movf	??_keypad_getkey,w
  7258  0853  0084               	movwf	4
  7259  0854  1783               	bsf	3,7	;select IRP bank3
  7260  0855  0800               	movf	0,w
  7261  0856  00F3               	movwf	??_keypad_getkey+3
  7262  0857  0AF0               	incf	??_keypad_getkey,f
  7263  0858  0871               	movf	??_keypad_getkey+1,w
  7264  0859  0084               	movwf	4
  7265  085A  1383               	bcf	3,7	;select IRP bank0
  7266  085B  0873               	movf	??_keypad_getkey+3,w
  7267  085C  0080               	movwf	0
  7268  085D  0AF1               	incf	??_keypad_getkey+1,f
  7269  085E  0BF2               	decfsz	??_keypad_getkey+2,f
  7270  085F  2852               	goto	u3600
  7271  0860                     l2832:
  7272  0860                     l2834:
  7273                           
  7274                           ;KEYPAD.c: 64: char valor=0;
  7275  0860  1283               	bcf	3,5	;RP0=0, select bank0
  7276  0861  1303               	bcf	3,6	;RP1=0, select bank0
  7277  0862  01B0               	clrf	keypad_getkey@valor
  7278  0863                     l2836:
  7279                           
  7280                           ;KEYPAD.c: 66: for(i=0;i<4;i++){
  7281  0863  01B1               	clrf	keypad_getkey@i
  7282  0864  01B2               	clrf	keypad_getkey@i+1
  7283  0865                     l2842:
  7284                           
  7285                           ;KEYPAD.c: 68:    if(i==0){
  7286  0865  1283               	bcf	3,5	;RP0=0, select bank0
  7287  0866  1303               	bcf	3,6	;RP1=0, select bank0
  7288  0867  0831               	movf	keypad_getkey@i,w
  7289  0868  0432               	iorwf	keypad_getkey@i+1,w
  7290  0869  1D03               	btfss	3,2
  7291  086A  286C               	goto	u3611
  7292  086B  286D               	goto	u3610
  7293  086C                     u3611:
  7294  086C  289A               	goto	l2862
  7295  086D                     u3610:
  7296  086D                     l2844:
  7297                           
  7298                           ;KEYPAD.c: 70:       PORTB = (1<<7)|(1<<6)|(1<<5)|(1<<4)|(1<<3)|(1<<2)|(1<<1)|(0<<0);
  7299  086D  30FE               	movlw	254
  7300  086E  0086               	movwf	6	;volatile
  7301                           
  7302                           ;KEYPAD.c: 71:       _delay((unsigned long)((100)*(8000000/4000000.0)));
  7303  086F  3042               	movlw	66
  7304  0870  00F0               	movwf	??_keypad_getkey
  7305  0871                     u4557:
  7306  0871  0BF0               	decfsz	??_keypad_getkey,f
  7307  0872  2871               	goto	u4557
  7308  0873  0000               	nop
  7309                           
  7310                           ;KEYPAD.c: 72:       while (!(PORTB & (1<<4))){valor=letras[0][0];}
  7311  0874  2879               	goto	l2848
  7312  0875                     l2846:
  7313  0875  0820               	movf	keypad_getkey@letras,w
  7314  0876  00F0               	movwf	??_keypad_getkey
  7315  0877  0870               	movf	??_keypad_getkey,w
  7316  0878  00B0               	movwf	keypad_getkey@valor
  7317  0879                     l2848:
  7318  0879  1283               	bcf	3,5	;RP0=0, select bank0
  7319  087A  1303               	bcf	3,6	;RP1=0, select bank0
  7320  087B  1E06               	btfss	6,4	;volatile
  7321  087C  287E               	goto	u3621
  7322  087D  287F               	goto	u3620
  7323  087E                     u3621:
  7324  087E  2875               	goto	l2846
  7325  087F                     u3620:
  7326  087F  2884               	goto	l2852
  7327  0880                     l2850:
  7328  0880  0821               	movf	keypad_getkey@letras+1,w
  7329  0881  00F0               	movwf	??_keypad_getkey
  7330  0882  0870               	movf	??_keypad_getkey,w
  7331  0883  00B0               	movwf	keypad_getkey@valor
  7332  0884                     l2852:
  7333  0884  1E86               	btfss	6,5	;volatile
  7334  0885  2887               	goto	u3631
  7335  0886  2888               	goto	u3630
  7336  0887                     u3631:
  7337  0887  2880               	goto	l2850
  7338  0888                     u3630:
  7339  0888  288D               	goto	l2856
  7340  0889                     l2854:
  7341  0889  0822               	movf	keypad_getkey@letras+2,w
  7342  088A  00F0               	movwf	??_keypad_getkey
  7343  088B  0870               	movf	??_keypad_getkey,w
  7344  088C  00B0               	movwf	keypad_getkey@valor
  7345  088D                     l2856:
  7346  088D  1F06               	btfss	6,6	;volatile
  7347  088E  2890               	goto	u3641
  7348  088F  2891               	goto	u3640
  7349  0890                     u3641:
  7350  0890  2889               	goto	l2854
  7351  0891                     u3640:
  7352  0891  2896               	goto	l2860
  7353  0892                     l2858:
  7354  0892  0823               	movf	keypad_getkey@letras+3,w
  7355  0893  00F0               	movwf	??_keypad_getkey
  7356  0894  0870               	movf	??_keypad_getkey,w
  7357  0895  00B0               	movwf	keypad_getkey@valor
  7358  0896                     l2860:
  7359  0896  1F86               	btfss	6,7	;volatile
  7360  0897  2899               	goto	u3651
  7361  0898  289A               	goto	u3650
  7362  0899                     u3651:
  7363  0899  2892               	goto	l2858
  7364  089A                     u3650:
  7365  089A                     l2862:
  7366                           
  7367                           ;KEYPAD.c: 78:    if(i==1){
  7368  089A  0331               	decf	keypad_getkey@i,w
  7369  089B  0432               	iorwf	keypad_getkey@i+1,w
  7370  089C  1D03               	btfss	3,2
  7371  089D  289F               	goto	u3661
  7372  089E  28A0               	goto	u3660
  7373  089F                     u3661:
  7374  089F  28CD               	goto	l2882
  7375  08A0                     u3660:
  7376  08A0                     l2864:
  7377                           
  7378                           ;KEYPAD.c: 79:       PORTB = (1<<7)|(1<<6)|(1<<5)|(1<<4)|(1<<3)|(1<<2)|(0<<1)|(1<<0);
  7379  08A0  30FD               	movlw	253
  7380  08A1  0086               	movwf	6	;volatile
  7381                           
  7382                           ;KEYPAD.c: 80:       _delay((unsigned long)((100)*(8000000/4000000.0)));
  7383  08A2  3042               	movlw	66
  7384  08A3  00F0               	movwf	??_keypad_getkey
  7385  08A4                     u4567:
  7386  08A4  0BF0               	decfsz	??_keypad_getkey,f
  7387  08A5  28A4               	goto	u4567
  7388  08A6  0000               	nop
  7389                           
  7390                           ;KEYPAD.c: 81:       while (!(PORTB & (1<<4))){valor=letras[1][0];}
  7391  08A7  28AC               	goto	l2868
  7392  08A8                     l2866:
  7393  08A8  0824               	movf	keypad_getkey@letras+4,w
  7394  08A9  00F0               	movwf	??_keypad_getkey
  7395  08AA  0870               	movf	??_keypad_getkey,w
  7396  08AB  00B0               	movwf	keypad_getkey@valor
  7397  08AC                     l2868:
  7398  08AC  1283               	bcf	3,5	;RP0=0, select bank0
  7399  08AD  1303               	bcf	3,6	;RP1=0, select bank0
  7400  08AE  1E06               	btfss	6,4	;volatile
  7401  08AF  28B1               	goto	u3671
  7402  08B0  28B2               	goto	u3670
  7403  08B1                     u3671:
  7404  08B1  28A8               	goto	l2866
  7405  08B2                     u3670:
  7406  08B2  28B7               	goto	l2872
  7407  08B3                     l2870:
  7408  08B3  0825               	movf	keypad_getkey@letras+5,w
  7409  08B4  00F0               	movwf	??_keypad_getkey
  7410  08B5  0870               	movf	??_keypad_getkey,w
  7411  08B6  00B0               	movwf	keypad_getkey@valor
  7412  08B7                     l2872:
  7413  08B7  1E86               	btfss	6,5	;volatile
  7414  08B8  28BA               	goto	u3681
  7415  08B9  28BB               	goto	u3680
  7416  08BA                     u3681:
  7417  08BA  28B3               	goto	l2870
  7418  08BB                     u3680:
  7419  08BB  28C0               	goto	l2876
  7420  08BC                     l2874:
  7421  08BC  0826               	movf	keypad_getkey@letras+6,w
  7422  08BD  00F0               	movwf	??_keypad_getkey
  7423  08BE  0870               	movf	??_keypad_getkey,w
  7424  08BF  00B0               	movwf	keypad_getkey@valor
  7425  08C0                     l2876:
  7426  08C0  1F06               	btfss	6,6	;volatile
  7427  08C1  28C3               	goto	u3691
  7428  08C2  28C4               	goto	u3690
  7429  08C3                     u3691:
  7430  08C3  28BC               	goto	l2874
  7431  08C4                     u3690:
  7432  08C4  28C9               	goto	l2880
  7433  08C5                     l2878:
  7434  08C5  0827               	movf	keypad_getkey@letras+7,w
  7435  08C6  00F0               	movwf	??_keypad_getkey
  7436  08C7  0870               	movf	??_keypad_getkey,w
  7437  08C8  00B0               	movwf	keypad_getkey@valor
  7438  08C9                     l2880:
  7439  08C9  1F86               	btfss	6,7	;volatile
  7440  08CA  28CC               	goto	u3701
  7441  08CB  28CD               	goto	u3700
  7442  08CC                     u3701:
  7443  08CC  28C5               	goto	l2878
  7444  08CD                     u3700:
  7445  08CD                     l2882:
  7446                           
  7447                           ;KEYPAD.c: 87:    if(i==2){
  7448  08CD  3002               	movlw	2
  7449  08CE  0631               	xorwf	keypad_getkey@i,w
  7450  08CF  0432               	iorwf	keypad_getkey@i+1,w
  7451  08D0  1D03               	btfss	3,2
  7452  08D1  28D3               	goto	u3711
  7453  08D2  28D4               	goto	u3710
  7454  08D3                     u3711:
  7455  08D3  2901               	goto	l2902
  7456  08D4                     u3710:
  7457  08D4                     l2884:
  7458                           
  7459                           ;KEYPAD.c: 88:       PORTB = (1<<7)|(1<<6)|(1<<5)|(1<<4)|(1<<3)|(0<<2)|(1<<1)|(1<<0);
  7460  08D4  30FB               	movlw	251
  7461  08D5  0086               	movwf	6	;volatile
  7462                           
  7463                           ;KEYPAD.c: 89:       _delay((unsigned long)((100)*(8000000/4000000.0)));
  7464  08D6  3042               	movlw	66
  7465  08D7  00F0               	movwf	??_keypad_getkey
  7466  08D8                     u4577:
  7467  08D8  0BF0               	decfsz	??_keypad_getkey,f
  7468  08D9  28D8               	goto	u4577
  7469  08DA  0000               	nop
  7470                           
  7471                           ;KEYPAD.c: 90:       while (!(PORTB & (1<<4))){valor=letras[2][0];}
  7472  08DB  28E0               	goto	l2888
  7473  08DC                     l2886:
  7474  08DC  0828               	movf	keypad_getkey@letras+8,w
  7475  08DD  00F0               	movwf	??_keypad_getkey
  7476  08DE  0870               	movf	??_keypad_getkey,w
  7477  08DF  00B0               	movwf	keypad_getkey@valor
  7478  08E0                     l2888:
  7479  08E0  1283               	bcf	3,5	;RP0=0, select bank0
  7480  08E1  1303               	bcf	3,6	;RP1=0, select bank0
  7481  08E2  1E06               	btfss	6,4	;volatile
  7482  08E3  28E5               	goto	u3721
  7483  08E4  28E6               	goto	u3720
  7484  08E5                     u3721:
  7485  08E5  28DC               	goto	l2886
  7486  08E6                     u3720:
  7487  08E6  28EB               	goto	l2892
  7488  08E7                     l2890:
  7489  08E7  0829               	movf	keypad_getkey@letras+9,w
  7490  08E8  00F0               	movwf	??_keypad_getkey
  7491  08E9  0870               	movf	??_keypad_getkey,w
  7492  08EA  00B0               	movwf	keypad_getkey@valor
  7493  08EB                     l2892:
  7494  08EB  1E86               	btfss	6,5	;volatile
  7495  08EC  28EE               	goto	u3731
  7496  08ED  28EF               	goto	u3730
  7497  08EE                     u3731:
  7498  08EE  28E7               	goto	l2890
  7499  08EF                     u3730:
  7500  08EF  28F4               	goto	l2896
  7501  08F0                     l2894:
  7502  08F0  082A               	movf	keypad_getkey@letras+10,w
  7503  08F1  00F0               	movwf	??_keypad_getkey
  7504  08F2  0870               	movf	??_keypad_getkey,w
  7505  08F3  00B0               	movwf	keypad_getkey@valor
  7506  08F4                     l2896:
  7507  08F4  1F06               	btfss	6,6	;volatile
  7508  08F5  28F7               	goto	u3741
  7509  08F6  28F8               	goto	u3740
  7510  08F7                     u3741:
  7511  08F7  28F0               	goto	l2894
  7512  08F8                     u3740:
  7513  08F8  28FD               	goto	l2900
  7514  08F9                     l2898:
  7515  08F9  082B               	movf	keypad_getkey@letras+11,w
  7516  08FA  00F0               	movwf	??_keypad_getkey
  7517  08FB  0870               	movf	??_keypad_getkey,w
  7518  08FC  00B0               	movwf	keypad_getkey@valor
  7519  08FD                     l2900:
  7520  08FD  1F86               	btfss	6,7	;volatile
  7521  08FE  2900               	goto	u3751
  7522  08FF  2901               	goto	u3750
  7523  0900                     u3751:
  7524  0900  28F9               	goto	l2898
  7525  0901                     u3750:
  7526  0901                     l2902:
  7527                           
  7528                           ;KEYPAD.c: 96:    if(i==3){
  7529  0901  3003               	movlw	3
  7530  0902  0631               	xorwf	keypad_getkey@i,w
  7531  0903  0432               	iorwf	keypad_getkey@i+1,w
  7532  0904  1D03               	btfss	3,2
  7533  0905  2907               	goto	u3761
  7534  0906  2908               	goto	u3760
  7535  0907                     u3761:
  7536  0907  2935               	goto	l2922
  7537  0908                     u3760:
  7538  0908                     l2904:
  7539                           
  7540                           ;KEYPAD.c: 97:       PORTB = (1<<7)|(1<<6)|(1<<5)|(1<<4)|(0<<3)|(1<<2)|(1<<1)|(1<<0);
  7541  0908  30F7               	movlw	247
  7542  0909  0086               	movwf	6	;volatile
  7543                           
  7544                           ;KEYPAD.c: 98:       _delay((unsigned long)((100)*(8000000/4000000.0)));
  7545  090A  3042               	movlw	66
  7546  090B  00F0               	movwf	??_keypad_getkey
  7547  090C                     u4587:
  7548  090C  0BF0               	decfsz	??_keypad_getkey,f
  7549  090D  290C               	goto	u4587
  7550  090E  0000               	nop
  7551                           
  7552                           ;KEYPAD.c: 99:       while (!(PORTB & (1<<4))){valor=letras[3][0];}
  7553  090F  2914               	goto	l2908
  7554  0910                     l2906:
  7555  0910  082C               	movf	keypad_getkey@letras+12,w
  7556  0911  00F0               	movwf	??_keypad_getkey
  7557  0912  0870               	movf	??_keypad_getkey,w
  7558  0913  00B0               	movwf	keypad_getkey@valor
  7559  0914                     l2908:
  7560  0914  1283               	bcf	3,5	;RP0=0, select bank0
  7561  0915  1303               	bcf	3,6	;RP1=0, select bank0
  7562  0916  1E06               	btfss	6,4	;volatile
  7563  0917  2919               	goto	u3771
  7564  0918  291A               	goto	u3770
  7565  0919                     u3771:
  7566  0919  2910               	goto	l2906
  7567  091A                     u3770:
  7568  091A  291F               	goto	l2912
  7569  091B                     l2910:
  7570  091B  082D               	movf	keypad_getkey@letras+13,w
  7571  091C  00F0               	movwf	??_keypad_getkey
  7572  091D  0870               	movf	??_keypad_getkey,w
  7573  091E  00B0               	movwf	keypad_getkey@valor
  7574  091F                     l2912:
  7575  091F  1E86               	btfss	6,5	;volatile
  7576  0920  2922               	goto	u3781
  7577  0921  2923               	goto	u3780
  7578  0922                     u3781:
  7579  0922  291B               	goto	l2910
  7580  0923                     u3780:
  7581  0923  2928               	goto	l2916
  7582  0924                     l2914:
  7583  0924  082E               	movf	keypad_getkey@letras+14,w
  7584  0925  00F0               	movwf	??_keypad_getkey
  7585  0926  0870               	movf	??_keypad_getkey,w
  7586  0927  00B0               	movwf	keypad_getkey@valor
  7587  0928                     l2916:
  7588  0928  1F06               	btfss	6,6	;volatile
  7589  0929  292B               	goto	u3791
  7590  092A  292C               	goto	u3790
  7591  092B                     u3791:
  7592  092B  2924               	goto	l2914
  7593  092C                     u3790:
  7594  092C  2931               	goto	l2920
  7595  092D                     l2918:
  7596  092D  082F               	movf	keypad_getkey@letras+15,w
  7597  092E  00F0               	movwf	??_keypad_getkey
  7598  092F  0870               	movf	??_keypad_getkey,w
  7599  0930  00B0               	movwf	keypad_getkey@valor
  7600  0931                     l2920:
  7601  0931  1F86               	btfss	6,7	;volatile
  7602  0932  2934               	goto	u3801
  7603  0933  2935               	goto	u3800
  7604  0934                     u3801:
  7605  0934  292D               	goto	l2918
  7606  0935                     u3800:
  7607  0935                     l2922:
  7608                           
  7609                           ;KEYPAD.c: 104:    }
  7610  0935  3001               	movlw	1
  7611  0936  07B1               	addwf	keypad_getkey@i,f
  7612  0937  1803               	skipnc
  7613  0938  0AB2               	incf	keypad_getkey@i+1,f
  7614  0939  3000               	movlw	0
  7615  093A  07B2               	addwf	keypad_getkey@i+1,f
  7616  093B                     l2924:
  7617  093B  0832               	movf	keypad_getkey@i+1,w
  7618  093C  3A80               	xorlw	128
  7619  093D  00FF               	movwf	btemp+1
  7620  093E  3080               	movlw	128
  7621  093F  027F               	subwf	btemp+1,w
  7622  0940  1D03               	skipz
  7623  0941  2944               	goto	u3815
  7624  0942  3004               	movlw	4
  7625  0943  0231               	subwf	keypad_getkey@i,w
  7626  0944                     u3815:
  7627  0944  1C03               	skipc
  7628  0945  2947               	goto	u3811
  7629  0946  2948               	goto	u3810
  7630  0947                     u3811:
  7631  0947  2865               	goto	l2842
  7632  0948                     u3810:
  7633  0948                     l2926:
  7634                           
  7635                           ;KEYPAD.c: 106:    return valor;
  7636  0948  1283               	bcf	3,5	;RP0=0, select bank0
  7637  0949  1303               	bcf	3,6	;RP1=0, select bank0
  7638  094A  0830               	movf	keypad_getkey@valor,w
  7639  094B                     l159:
  7640  094B  0008               	return
  7641  094C                     __end_of_keypad_getkey:
  7642                           
  7643                           	psect	text19
  7644  13EC                     __ptext19:	
  7645 ;; *************** function _capturaTemp *****************
  7646 ;; Defined at:
  7647 ;;		line 44 in file "ADC.c"
  7648 ;; Parameters:    Size  Location     Type
  7649 ;;		None
  7650 ;; Auto vars:     Size  Location     Type
  7651 ;;		None
  7652 ;; Return value:  Size  Location     Type
  7653 ;;                  2    0[COMMON] int 
  7654 ;; Registers used:
  7655 ;;		wreg, status,2, status,0, btemp+1
  7656 ;; Tracked objects:
  7657 ;;		On entry : 0/0
  7658 ;;		On exit  : 0/0
  7659 ;;		Unchanged: 0/0
  7660 ;; Data sizes:     COMMON   BANK0   BANK1   BANK3   BANK2
  7661 ;;      Params:         2       0       0       0       0
  7662 ;;      Locals:         0       0       0       0       0
  7663 ;;      Temps:          4       0       0       0       0
  7664 ;;      Totals:         6       0       0       0       0
  7665 ;;Total ram usage:        6 bytes
  7666 ;; Hardware stack levels used: 1
  7667 ;; This function calls:
  7668 ;;		Nothing
  7669 ;; This function is called by:
  7670 ;;		_main
  7671 ;; This function uses a non-reentrant model
  7672 ;;
  7673                           
  7674  13EC                     _capturaTemp:	
  7675                           ;psect for function _capturaTemp
  7676                           
  7677  13EC                     l2954:	
  7678                           ;incstack = 0
  7679                           ; Regs used in _capturaTemp: [wreg+status,2+status,0+btemp+1]
  7680                           
  7681                           
  7682                           ;ADC.c: 46:         ADCON0bits.GO_DONE = 1;
  7683  13EC  1283               	bcf	3,5	;RP0=0, select bank0
  7684  13ED  1303               	bcf	3,6	;RP1=0, select bank0
  7685  13EE  149F               	bsf	31,1	;volatile
  7686  13EF                     l287:	
  7687                           ;ADC.c: 47:         while (ADCON0bits.GO_DONE);
  7688                           
  7689  13EF  189F               	btfsc	31,1	;volatile
  7690  13F0  2BF2               	goto	u3821
  7691  13F1  2BF3               	goto	u3820
  7692  13F2                     u3821:
  7693  13F2  2BEF               	goto	l287
  7694  13F3                     u3820:
  7695  13F3                     l2956:
  7696                           
  7697                           ;ADC.c: 48:         value_adc = ADRESH;
  7698  13F3  081E               	movf	30,w	;volatile
  7699  13F4  00F2               	movwf	??_capturaTemp
  7700  13F5  01F3               	clrf	??_capturaTemp+1
  7701  13F6  0872               	movf	??_capturaTemp,w
  7702  13F7  1683               	bsf	3,5	;RP0=1, select bank1
  7703  13F8  1303               	bcf	3,6	;RP1=0, select bank1
  7704  13F9  00DB               	movwf	_value_adc^(0+128)
  7705  13FA  0873               	movf	??_capturaTemp+1,w
  7706  13FB  00DC               	movwf	(_value_adc+1)^(0+128)
  7707  13FC                     l2958:
  7708                           
  7709                           ;ADC.c: 49:         value_adc = (value_adc << 8) + ADRESL;
  7710  13FC  085C               	movf	(_value_adc+1)^(0+128),w
  7711  13FD  00F3               	movwf	??_capturaTemp+1
  7712  13FE  085B               	movf	_value_adc^(0+128),w
  7713  13FF  00F2               	movwf	??_capturaTemp
  7714  1400  0872               	movf	??_capturaTemp,w
  7715  1401  00F3               	movwf	??_capturaTemp+1
  7716  1402  01F2               	clrf	??_capturaTemp
  7717  1403  081E               	movf	30,w	;volatile
  7718  1404  0772               	addwf	??_capturaTemp,w
  7719  1405  00F4               	movwf	??_capturaTemp+2
  7720  1406  3000               	movlw	0
  7721  1407  1803               	skipnc
  7722  1408  3001               	movlw	1
  7723  1409  0773               	addwf	??_capturaTemp+1,w
  7724  140A  00F5               	movwf	??_capturaTemp+3
  7725  140B  0874               	movf	??_capturaTemp+2,w
  7726  140C  00DB               	movwf	_value_adc^(0+128)
  7727  140D  0875               	movf	??_capturaTemp+3,w
  7728  140E  00DC               	movwf	(_value_adc+1)^(0+128)
  7729  140F                     l2960:
  7730                           
  7731                           ;ADC.c: 50:         temp = value_adc;
  7732  140F  085C               	movf	(_value_adc+1)^(0+128),w
  7733  1410  00DA               	movwf	(_temp+1)^(0+128)
  7734  1411  085B               	movf	_value_adc^(0+128),w
  7735  1412  00D9               	movwf	_temp^(0+128)
  7736  1413                     l2962:
  7737                           
  7738                           ;ADC.c: 61:         return temp;
  7739  1413  085A               	movf	(_temp+1)^(0+128),w
  7740  1414  00F1               	movwf	?_capturaTemp+1
  7741  1415  0859               	movf	_temp^(0+128),w
  7742  1416  00F0               	movwf	?_capturaTemp
  7743  1417                     l290:
  7744  1417  0008               	return
  7745  1418                     __end_of_capturaTemp:
  7746                           
  7747                           	psect	text20
  7748  1550                     __ptext20:	
  7749 ;; *************** function ___fltol *****************
  7750 ;; Defined at:
  7751 ;;		line 43 in file "C:\Program Files\Microchip\xc8\v2.36\pic\sources\c90\common\fltol.c"
  7752 ;; Parameters:    Size  Location     Type
  7753 ;;  f1              4    0[COMMON] int 
  7754 ;; Auto vars:     Size  Location     Type
  7755 ;;  exp1            1   10[COMMON] unsigned char 
  7756 ;;  sign1           1    9[COMMON] unsigned char 
  7757 ;; Return value:  Size  Location     Type
  7758 ;;                  4    0[COMMON] long 
  7759 ;; Registers used:
  7760 ;;		wreg, status,2, status,0
  7761 ;; Tracked objects:
  7762 ;;		On entry : 0/0
  7763 ;;		On exit  : 0/0
  7764 ;;		Unchanged: 0/0
  7765 ;; Data sizes:     COMMON   BANK0   BANK1   BANK3   BANK2
  7766 ;;      Params:         4       0       0       0       0
  7767 ;;      Locals:         2       0       0       0       0
  7768 ;;      Temps:          5       0       0       0       0
  7769 ;;      Totals:        11       0       0       0       0
  7770 ;;Total ram usage:       11 bytes
  7771 ;; Hardware stack levels used: 1
  7772 ;; This function calls:
  7773 ;;		Nothing
  7774 ;; This function is called by:
  7775 ;;		_main
  7776 ;; This function uses a non-reentrant model
  7777 ;;
  7778                           
  7779  1550                     ___fltol:	
  7780                           ;psect for function ___fltol
  7781                           
  7782  1550                     l3072:	
  7783                           ;incstack = 0
  7784                           ; Regs used in ___fltol: [wreg+status,2+status,0]
  7785                           
  7786  1550  1003               	clrc
  7787  1551  0D72               	rlf	___fltol@f1+2,w
  7788  1552  0D73               	rlf	___fltol@f1+3,w
  7789  1553  00F4               	movwf	??___fltol
  7790  1554  0874               	movf	??___fltol,w
  7791  1555  00FA               	movwf	___fltol@exp1
  7792  1556  087A               	movf	___fltol@exp1,w
  7793  1557  1D03               	btfss	3,2
  7794  1558  2D5A               	goto	u3951
  7795  1559  2D5B               	goto	u3950
  7796  155A                     u3951:
  7797  155A  2D64               	goto	l3078
  7798  155B                     u3950:
  7799  155B                     l3074:
  7800  155B  3000               	movlw	0
  7801  155C  00F3               	movwf	?___fltol+3
  7802  155D  3000               	movlw	0
  7803  155E  00F2               	movwf	?___fltol+2
  7804  155F  3000               	movlw	0
  7805  1560  00F1               	movwf	?___fltol+1
  7806  1561  3000               	movlw	0
  7807  1562  00F0               	movwf	?___fltol
  7808  1563  2DC9               	goto	l591
  7809  1564                     l3078:
  7810  1564  0870               	movf	___fltol@f1,w
  7811  1565  00F4               	movwf	??___fltol
  7812  1566  0871               	movf	___fltol@f1+1,w
  7813  1567  00F5               	movwf	??___fltol+1
  7814  1568  0872               	movf	___fltol@f1+2,w
  7815  1569  00F6               	movwf	??___fltol+2
  7816  156A  0873               	movf	___fltol@f1+3,w
  7817  156B  00F7               	movwf	??___fltol+3
  7818  156C  301F               	movlw	31
  7819  156D                     u3965:
  7820  156D  1003               	clrc
  7821  156E  0CF7               	rrf	??___fltol+3,f
  7822  156F  0CF6               	rrf	??___fltol+2,f
  7823  1570  0CF5               	rrf	??___fltol+1,f
  7824  1571  0CF4               	rrf	??___fltol,f
  7825  1572                     u3960:
  7826  1572  3EFF               	addlw	-1
  7827  1573  1D03               	skipz
  7828  1574  2D6D               	goto	u3965
  7829  1575  0874               	movf	??___fltol,w
  7830  1576  00F8               	movwf	??___fltol+4
  7831  1577  0878               	movf	??___fltol+4,w
  7832  1578  00F9               	movwf	___fltol@sign1
  7833  1579                     l3080:
  7834  1579  17F2               	bsf	___fltol@f1+2,7
  7835  157A                     l3082:
  7836  157A  30FF               	movlw	255
  7837  157B  05F0               	andwf	___fltol@f1,f
  7838  157C  30FF               	movlw	255
  7839  157D  05F1               	andwf	___fltol@f1+1,f
  7840  157E  30FF               	movlw	255
  7841  157F  05F2               	andwf	___fltol@f1+2,f
  7842  1580  3000               	movlw	0
  7843  1581  05F3               	andwf	___fltol@f1+3,f
  7844  1582                     l3084:
  7845  1582  3096               	movlw	150
  7846  1583  02FA               	subwf	___fltol@exp1,f
  7847  1584                     l3086:
  7848  1584  1FFA               	btfss	___fltol@exp1,7
  7849  1585  2D87               	goto	u3971
  7850  1586  2D88               	goto	u3970
  7851  1587                     u3971:
  7852  1587  2DA2               	goto	l3096
  7853  1588                     u3970:
  7854  1588                     l3088:
  7855  1588  087A               	movf	___fltol@exp1,w
  7856  1589  3A80               	xorlw	128
  7857  158A  3E97               	addlw	151
  7858  158B  1803               	skipnc
  7859  158C  2D8E               	goto	u3981
  7860  158D  2D8F               	goto	u3980
  7861  158E                     u3981:
  7862  158E  2D90               	goto	l3094
  7863  158F                     u3980:
  7864  158F  2D5B               	goto	l3074
  7865  1590                     l3094:
  7866  1590  3001               	movlw	1
  7867  1591                     u3995:
  7868  1591  1003               	clrc
  7869  1592  0CF3               	rrf	___fltol@f1+3,f
  7870  1593  0CF2               	rrf	___fltol@f1+2,f
  7871  1594  0CF1               	rrf	___fltol@f1+1,f
  7872  1595  0CF0               	rrf	___fltol@f1,f
  7873  1596  3EFF               	addlw	-1
  7874  1597  1D03               	skipz
  7875  1598  2D91               	goto	u3995
  7876  1599  3001               	movlw	1
  7877  159A  00F4               	movwf	??___fltol
  7878  159B  0874               	movf	??___fltol,w
  7879  159C  07FA               	addwf	___fltol@exp1,f
  7880  159D  1D03               	btfss	3,2
  7881  159E  2DA0               	goto	u4001
  7882  159F  2DA1               	goto	u4000
  7883  15A0                     u4001:
  7884  15A0  2D90               	goto	l3094
  7885  15A1                     u4000:
  7886  15A1  2DB9               	goto	l3104
  7887  15A2                     l3096:
  7888  15A2  3020               	movlw	32
  7889  15A3  027A               	subwf	___fltol@exp1,w
  7890  15A4  1C03               	skipc
  7891  15A5  2DA7               	goto	u4011
  7892  15A6  2DA8               	goto	u4010
  7893  15A7                     u4011:
  7894  15A7  2DB4               	goto	l598
  7895  15A8                     u4010:
  7896  15A8  2D5B               	goto	l3074
  7897  15A9                     l3102:
  7898  15A9  3001               	movlw	1
  7899  15AA  00F4               	movwf	??___fltol
  7900  15AB                     u4025:
  7901  15AB  1003               	clrc
  7902  15AC  0DF0               	rlf	___fltol@f1,f
  7903  15AD  0DF1               	rlf	___fltol@f1+1,f
  7904  15AE  0DF2               	rlf	___fltol@f1+2,f
  7905  15AF  0DF3               	rlf	___fltol@f1+3,f
  7906  15B0  0BF4               	decfsz	??___fltol,f
  7907  15B1  2DAB               	goto	u4025
  7908  15B2  3001               	movlw	1
  7909  15B3  02FA               	subwf	___fltol@exp1,f
  7910  15B4                     l598:
  7911  15B4  087A               	movf	___fltol@exp1,w
  7912  15B5  1D03               	btfss	3,2
  7913  15B6  2DB8               	goto	u4031
  7914  15B7  2DB9               	goto	u4030
  7915  15B8                     u4031:
  7916  15B8  2DA9               	goto	l3102
  7917  15B9                     u4030:
  7918  15B9                     l3104:
  7919  15B9  0879               	movf	___fltol@sign1,w
  7920  15BA  1903               	btfsc	3,2
  7921  15BB  2DBD               	goto	u4041
  7922  15BC  2DBE               	goto	u4040
  7923  15BD                     u4041:
  7924  15BD  2DC9               	goto	l601
  7925  15BE                     u4040:
  7926  15BE                     l3106:
  7927  15BE  09F0               	comf	___fltol@f1,f
  7928  15BF  09F1               	comf	___fltol@f1+1,f
  7929  15C0  09F2               	comf	___fltol@f1+2,f
  7930  15C1  09F3               	comf	___fltol@f1+3,f
  7931  15C2  0AF0               	incf	___fltol@f1,f
  7932  15C3  1903               	skipnz
  7933  15C4  0AF1               	incf	___fltol@f1+1,f
  7934  15C5  1903               	skipnz
  7935  15C6  0AF2               	incf	___fltol@f1+2,f
  7936  15C7  1903               	skipnz
  7937  15C8  0AF3               	incf	___fltol@f1+3,f
  7938  15C9                     l601:
  7939  15C9                     l591:
  7940  15C9  0008               	return
  7941  15CA                     __end_of___fltol:
  7942                           
  7943                           	psect	text21
  7944  0B9B                     __ptext21:	
  7945 ;; *************** function ___fldiv *****************
  7946 ;; Defined at:
  7947 ;;		line 8 in file "C:\Program Files\Microchip\xc8\v2.36\pic\sources\c90\common\sprcdiv.c"
  7948 ;; Parameters:    Size  Location     Type
  7949 ;;  a               4   31[BANK0 ] long 
  7950 ;;  b               4   35[BANK0 ] long 
  7951 ;; Auto vars:     Size  Location     Type
  7952 ;;  grs             4   51[BANK0 ] unsigned long 
  7953 ;;  rem             4   44[BANK0 ] unsigned long 
  7954 ;;  new_exp         2   49[BANK0 ] int 
  7955 ;;  aexp            1   56[BANK0 ] unsigned char 
  7956 ;;  bexp            1   55[BANK0 ] unsigned char 
  7957 ;;  sign            1   48[BANK0 ] unsigned char 
  7958 ;; Return value:  Size  Location     Type
  7959 ;;                  4   31[BANK0 ] unsigned char 
  7960 ;; Registers used:
  7961 ;;		wreg, status,2, status,0, btemp+1
  7962 ;; Tracked objects:
  7963 ;;		On entry : 0/0
  7964 ;;		On exit  : 0/0
  7965 ;;		Unchanged: 0/0
  7966 ;; Data sizes:     COMMON   BANK0   BANK1   BANK3   BANK2
  7967 ;;      Params:         0       8       0       0       0
  7968 ;;      Locals:         0      13       0       0       0
  7969 ;;      Temps:          0       5       0       0       0
  7970 ;;      Totals:         0      26       0       0       0
  7971 ;;Total ram usage:       26 bytes
  7972 ;; Hardware stack levels used: 1
  7973 ;; This function calls:
  7974 ;;		Nothing
  7975 ;; This function is called by:
  7976 ;;		_main
  7977 ;; This function uses a non-reentrant model
  7978 ;;
  7979                           
  7980  0B9B                     ___fldiv:	
  7981                           ;psect for function ___fldiv
  7982                           
  7983  0B9B                     l3108:	
  7984                           ;incstack = 0
  7985                           ; Regs used in ___fldiv: [wreg+status,2+status,0+btemp+1]
  7986                           
  7987  0B9B  1283               	bcf	3,5	;RP0=0, select bank0
  7988  0B9C  1303               	bcf	3,6	;RP1=0, select bank0
  7989  0B9D  0846               	movf	___fldiv@b+3,w
  7990  0B9E  3980               	andlw	128
  7991  0B9F  00C7               	movwf	??___fldiv
  7992  0BA0  0847               	movf	??___fldiv,w
  7993  0BA1  00D0               	movwf	___fldiv@sign
  7994  0BA2                     l3110:
  7995  0BA2  0846               	movf	___fldiv@b+3,w
  7996  0BA3  00C7               	movwf	??___fldiv
  7997  0BA4  0747               	addwf	??___fldiv,w
  7998  0BA5  00C8               	movwf	??___fldiv+1
  7999  0BA6  0848               	movf	??___fldiv+1,w
  8000  0BA7  00D7               	movwf	___fldiv@bexp
  8001  0BA8                     l3112:
  8002  0BA8  1FC5               	btfss	___fldiv@b+2,7
  8003  0BA9  2BAB               	goto	u4051
  8004  0BAA  2BAC               	goto	u4050
  8005  0BAB                     u4051:
  8006  0BAB  2BAD               	goto	l3116
  8007  0BAC                     u4050:
  8008  0BAC                     l3114:
  8009  0BAC  1457               	bsf	___fldiv@bexp,0
  8010  0BAD                     l3116:
  8011  0BAD  0857               	movf	___fldiv@bexp,w
  8012  0BAE  1903               	btfsc	3,2
  8013  0BAF  2BB1               	goto	u4061
  8014  0BB0  2BB2               	goto	u4060
  8015  0BB1                     u4061:
  8016  0BB1  2BC2               	goto	l3126
  8017  0BB2                     u4060:
  8018  0BB2                     l3118:
  8019  0BB2  0A57               	incf	___fldiv@bexp,w
  8020  0BB3  1D03               	btfss	3,2
  8021  0BB4  2BB6               	goto	u4071
  8022  0BB5  2BB7               	goto	u4070
  8023  0BB6                     u4071:
  8024  0BB6  2BBF               	goto	l3122
  8025  0BB7                     u4070:
  8026  0BB7                     l3120:
  8027  0BB7  3000               	movlw	0
  8028  0BB8  00C6               	movwf	___fldiv@b+3
  8029  0BB9  3000               	movlw	0
  8030  0BBA  00C5               	movwf	___fldiv@b+2
  8031  0BBB  3000               	movlw	0
  8032  0BBC  00C4               	movwf	___fldiv@b+1
  8033  0BBD  3000               	movlw	0
  8034  0BBE  00C3               	movwf	___fldiv@b
  8035  0BBF                     l3122:
  8036  0BBF  17C5               	bsf	___fldiv@b+2,7
  8037  0BC0                     l3124:
  8038  0BC0  01C6               	clrf	___fldiv@b+3
  8039  0BC1  2BCA               	goto	l3128
  8040  0BC2                     l3126:
  8041  0BC2  3000               	movlw	0
  8042  0BC3  00C6               	movwf	___fldiv@b+3
  8043  0BC4  3000               	movlw	0
  8044  0BC5  00C5               	movwf	___fldiv@b+2
  8045  0BC6  3000               	movlw	0
  8046  0BC7  00C4               	movwf	___fldiv@b+1
  8047  0BC8  3000               	movlw	0
  8048  0BC9  00C3               	movwf	___fldiv@b
  8049  0BCA                     l3128:
  8050  0BCA  0842               	movf	___fldiv@a+3,w
  8051  0BCB  3980               	andlw	128
  8052  0BCC  00C7               	movwf	??___fldiv
  8053  0BCD  0847               	movf	??___fldiv,w
  8054  0BCE  06D0               	xorwf	___fldiv@sign,f
  8055  0BCF                     l3130:
  8056  0BCF  0842               	movf	___fldiv@a+3,w
  8057  0BD0  00C7               	movwf	??___fldiv
  8058  0BD1  0747               	addwf	??___fldiv,w
  8059  0BD2  00C8               	movwf	??___fldiv+1
  8060  0BD3  0848               	movf	??___fldiv+1,w
  8061  0BD4  00D8               	movwf	___fldiv@aexp
  8062  0BD5                     l3132:
  8063  0BD5  1FC1               	btfss	___fldiv@a+2,7
  8064  0BD6  2BD8               	goto	u4081
  8065  0BD7  2BD9               	goto	u4080
  8066  0BD8                     u4081:
  8067  0BD8  2BDA               	goto	l3136
  8068  0BD9                     u4080:
  8069  0BD9                     l3134:
  8070  0BD9  1458               	bsf	___fldiv@aexp,0
  8071  0BDA                     l3136:
  8072  0BDA  0858               	movf	___fldiv@aexp,w
  8073  0BDB  1903               	btfsc	3,2
  8074  0BDC  2BDE               	goto	u4091
  8075  0BDD  2BDF               	goto	u4090
  8076  0BDE                     u4091:
  8077  0BDE  2BEF               	goto	l3146
  8078  0BDF                     u4090:
  8079  0BDF                     l3138:
  8080  0BDF  0A58               	incf	___fldiv@aexp,w
  8081  0BE0  1D03               	btfss	3,2
  8082  0BE1  2BE3               	goto	u4101
  8083  0BE2  2BE4               	goto	u4100
  8084  0BE3                     u4101:
  8085  0BE3  2BEC               	goto	l3142
  8086  0BE4                     u4100:
  8087  0BE4                     l3140:
  8088  0BE4  3000               	movlw	0
  8089  0BE5  00C2               	movwf	___fldiv@a+3
  8090  0BE6  3000               	movlw	0
  8091  0BE7  00C1               	movwf	___fldiv@a+2
  8092  0BE8  3000               	movlw	0
  8093  0BE9  00C0               	movwf	___fldiv@a+1
  8094  0BEA  3000               	movlw	0
  8095  0BEB  00BF               	movwf	___fldiv@a
  8096  0BEC                     l3142:
  8097  0BEC  17C1               	bsf	___fldiv@a+2,7
  8098  0BED                     l3144:
  8099  0BED  01C2               	clrf	___fldiv@a+3
  8100  0BEE  2BF7               	goto	l754
  8101  0BEF                     l3146:
  8102  0BEF  3000               	movlw	0
  8103  0BF0  00C2               	movwf	___fldiv@a+3
  8104  0BF1  3000               	movlw	0
  8105  0BF2  00C1               	movwf	___fldiv@a+2
  8106  0BF3  3000               	movlw	0
  8107  0BF4  00C0               	movwf	___fldiv@a+1
  8108  0BF5  3000               	movlw	0
  8109  0BF6  00BF               	movwf	___fldiv@a
  8110  0BF7                     l754:
  8111  0BF7  0842               	movf	___fldiv@a+3,w
  8112  0BF8  0441               	iorwf	___fldiv@a+2,w
  8113  0BF9  0440               	iorwf	___fldiv@a+1,w
  8114  0BFA  043F               	iorwf	___fldiv@a,w
  8115  0BFB  1D03               	skipz
  8116  0BFC  2BFE               	goto	u4111
  8117  0BFD  2BFF               	goto	u4110
  8118  0BFE                     u4111:
  8119  0BFE  2C18               	goto	l3156
  8120  0BFF                     u4110:
  8121  0BFF                     l3148:
  8122  0BFF  3000               	movlw	0
  8123  0C00  00C6               	movwf	___fldiv@b+3
  8124  0C01  3000               	movlw	0
  8125  0C02  00C5               	movwf	___fldiv@b+2
  8126  0C03  3000               	movlw	0
  8127  0C04  00C4               	movwf	___fldiv@b+1
  8128  0C05  3000               	movlw	0
  8129  0C06  00C3               	movwf	___fldiv@b
  8130  0C07  3080               	movlw	128
  8131  0C08  04C5               	iorwf	___fldiv@b+2,f
  8132  0C09  307F               	movlw	127
  8133  0C0A  04C6               	iorwf	___fldiv@b+3,f
  8134  0C0B                     l3150:
  8135  0C0B  0850               	movf	___fldiv@sign,w
  8136  0C0C  00C7               	movwf	??___fldiv
  8137  0C0D  0847               	movf	??___fldiv,w
  8138  0C0E  04C6               	iorwf	___fldiv@b+3,f
  8139  0C0F                     l3152:
  8140  0C0F  0846               	movf	___fldiv@b+3,w
  8141  0C10  00C2               	movwf	?___fldiv+3
  8142  0C11  0845               	movf	___fldiv@b+2,w
  8143  0C12  00C1               	movwf	?___fldiv+2
  8144  0C13  0844               	movf	___fldiv@b+1,w
  8145  0C14  00C0               	movwf	?___fldiv+1
  8146  0C15  0843               	movf	___fldiv@b,w
  8147  0C16  00BF               	movwf	?___fldiv
  8148  0C17  2D77               	goto	l756
  8149  0C18                     l3156:
  8150  0C18  0857               	movf	___fldiv@bexp,w
  8151  0C19  1D03               	btfss	3,2
  8152  0C1A  2C1C               	goto	u4121
  8153  0C1B  2C1D               	goto	u4120
  8154  0C1C                     u4121:
  8155  0C1C  2C26               	goto	l3162
  8156  0C1D                     u4120:
  8157  0C1D                     l3158:
  8158  0C1D  3000               	movlw	0
  8159  0C1E  00C2               	movwf	?___fldiv+3
  8160  0C1F  3000               	movlw	0
  8161  0C20  00C1               	movwf	?___fldiv+2
  8162  0C21  3000               	movlw	0
  8163  0C22  00C0               	movwf	?___fldiv+1
  8164  0C23  3000               	movlw	0
  8165  0C24  00BF               	movwf	?___fldiv
  8166  0C25  2D77               	goto	l756
  8167  0C26                     l3162:
  8168  0C26  0857               	movf	___fldiv@bexp,w
  8169  0C27  00C7               	movwf	??___fldiv
  8170  0C28  01C8               	clrf	??___fldiv+1
  8171  0C29  0848               	movf	??___fldiv+1,w
  8172  0C2A  00CA               	movwf	??___fldiv+3
  8173  0C2B  0858               	movf	___fldiv@aexp,w
  8174  0C2C  0247               	subwf	??___fldiv,w
  8175  0C2D  00C9               	movwf	??___fldiv+2
  8176  0C2E  1C03               	skipc
  8177  0C2F  03CA               	decf	??___fldiv+3,f
  8178  0C30  0849               	movf	??___fldiv+2,w
  8179  0C31  3E7F               	addlw	127
  8180  0C32  00D1               	movwf	___fldiv@new_exp
  8181  0C33  084A               	movf	??___fldiv+3,w
  8182  0C34  1803               	skipnc
  8183  0C35  3E01               	addlw	1
  8184  0C36  3E00               	addlw	0
  8185  0C37  00D2               	movwf	___fldiv@new_exp+1
  8186  0C38                     l3164:
  8187  0C38  0846               	movf	___fldiv@b+3,w
  8188  0C39  00CF               	movwf	___fldiv@rem+3
  8189  0C3A  0845               	movf	___fldiv@b+2,w
  8190  0C3B  00CE               	movwf	___fldiv@rem+2
  8191  0C3C  0844               	movf	___fldiv@b+1,w
  8192  0C3D  00CD               	movwf	___fldiv@rem+1
  8193  0C3E  0843               	movf	___fldiv@b,w
  8194  0C3F  00CC               	movwf	___fldiv@rem
  8195  0C40                     l3166:
  8196  0C40  3000               	movlw	0
  8197  0C41  00C6               	movwf	___fldiv@b+3
  8198  0C42  3000               	movlw	0
  8199  0C43  00C5               	movwf	___fldiv@b+2
  8200  0C44  3000               	movlw	0
  8201  0C45  00C4               	movwf	___fldiv@b+1
  8202  0C46  3000               	movlw	0
  8203  0C47  00C3               	movwf	___fldiv@b
  8204  0C48                     l3168:
  8205  0C48  3000               	movlw	0
  8206  0C49  00D6               	movwf	___fldiv@grs+3
  8207  0C4A  3000               	movlw	0
  8208  0C4B  00D5               	movwf	___fldiv@grs+2
  8209  0C4C  3000               	movlw	0
  8210  0C4D  00D4               	movwf	___fldiv@grs+1
  8211  0C4E  3000               	movlw	0
  8212  0C4F  00D3               	movwf	___fldiv@grs
  8213  0C50                     l3170:
  8214  0C50  01D8               	clrf	___fldiv@aexp
  8215  0C51  2C9C               	goto	l3190
  8216  0C52                     l3172:
  8217  0C52  0858               	movf	___fldiv@aexp,w
  8218  0C53  1903               	btfsc	3,2
  8219  0C54  2C56               	goto	u4131
  8220  0C55  2C57               	goto	u4130
  8221  0C56                     u4131:
  8222  0C56  2C77               	goto	l3182
  8223  0C57                     u4130:
  8224  0C57                     l3174:
  8225  0C57  3001               	movlw	1
  8226  0C58  00C7               	movwf	??___fldiv
  8227  0C59                     u4145:
  8228  0C59  1003               	clrc
  8229  0C5A  0DCC               	rlf	___fldiv@rem,f
  8230  0C5B  0DCD               	rlf	___fldiv@rem+1,f
  8231  0C5C  0DCE               	rlf	___fldiv@rem+2,f
  8232  0C5D  0DCF               	rlf	___fldiv@rem+3,f
  8233  0C5E  0BC7               	decfsz	??___fldiv,f
  8234  0C5F  2C59               	goto	u4145
  8235  0C60  3001               	movlw	1
  8236  0C61  00C7               	movwf	??___fldiv
  8237  0C62                     u4155:
  8238  0C62  1003               	clrc
  8239  0C63  0DC3               	rlf	___fldiv@b,f
  8240  0C64  0DC4               	rlf	___fldiv@b+1,f
  8241  0C65  0DC5               	rlf	___fldiv@b+2,f
  8242  0C66  0DC6               	rlf	___fldiv@b+3,f
  8243  0C67  0BC7               	decfsz	??___fldiv,f
  8244  0C68  2C62               	goto	u4155
  8245  0C69                     l3176:
  8246  0C69  1FD6               	btfss	___fldiv@grs+3,7
  8247  0C6A  2C6C               	goto	u4161
  8248  0C6B  2C6D               	goto	u4160
  8249  0C6C                     u4161:
  8250  0C6C  2C6E               	goto	l3180
  8251  0C6D                     u4160:
  8252  0C6D                     l3178:
  8253  0C6D  1443               	bsf	___fldiv@b,0
  8254  0C6E                     l3180:
  8255  0C6E  3001               	movlw	1
  8256  0C6F  00C7               	movwf	??___fldiv
  8257  0C70                     u4175:
  8258  0C70  1003               	clrc
  8259  0C71  0DD3               	rlf	___fldiv@grs,f
  8260  0C72  0DD4               	rlf	___fldiv@grs+1,f
  8261  0C73  0DD5               	rlf	___fldiv@grs+2,f
  8262  0C74  0DD6               	rlf	___fldiv@grs+3,f
  8263  0C75  0BC7               	decfsz	??___fldiv,f
  8264  0C76  2C70               	goto	u4175
  8265  0C77                     l3182:
  8266  0C77  0842               	movf	___fldiv@a+3,w
  8267  0C78  024F               	subwf	___fldiv@rem+3,w
  8268  0C79  1D03               	skipz
  8269  0C7A  2C85               	goto	u4185
  8270  0C7B  0841               	movf	___fldiv@a+2,w
  8271  0C7C  024E               	subwf	___fldiv@rem+2,w
  8272  0C7D  1D03               	skipz
  8273  0C7E  2C85               	goto	u4185
  8274  0C7F  0840               	movf	___fldiv@a+1,w
  8275  0C80  024D               	subwf	___fldiv@rem+1,w
  8276  0C81  1D03               	skipz
  8277  0C82  2C85               	goto	u4185
  8278  0C83  083F               	movf	___fldiv@a,w
  8279  0C84  024C               	subwf	___fldiv@rem,w
  8280  0C85                     u4185:
  8281  0C85  1C03               	skipc
  8282  0C86  2C88               	goto	u4181
  8283  0C87  2C89               	goto	u4180
  8284  0C88                     u4181:
  8285  0C88  2C98               	goto	l3188
  8286  0C89                     u4180:
  8287  0C89                     l3184:
  8288  0C89  1756               	bsf	___fldiv@grs+3,6
  8289  0C8A                     l3186:
  8290  0C8A  083F               	movf	___fldiv@a,w
  8291  0C8B  02CC               	subwf	___fldiv@rem,f
  8292  0C8C  0840               	movf	___fldiv@a+1,w
  8293  0C8D  1C03               	skipc
  8294  0C8E  0F40               	incfsz	___fldiv@a+1,w
  8295  0C8F  02CD               	subwf	___fldiv@rem+1,f
  8296  0C90  0841               	movf	___fldiv@a+2,w
  8297  0C91  1C03               	skipc
  8298  0C92  0F41               	incfsz	___fldiv@a+2,w
  8299  0C93  02CE               	subwf	___fldiv@rem+2,f
  8300  0C94  0842               	movf	___fldiv@a+3,w
  8301  0C95  1C03               	skipc
  8302  0C96  0F42               	incfsz	___fldiv@a+3,w
  8303  0C97  02CF               	subwf	___fldiv@rem+3,f
  8304  0C98                     l3188:
  8305  0C98  3001               	movlw	1
  8306  0C99  00C7               	movwf	??___fldiv
  8307  0C9A  0847               	movf	??___fldiv,w
  8308  0C9B  07D8               	addwf	___fldiv@aexp,f
  8309  0C9C                     l3190:
  8310  0C9C  301A               	movlw	26
  8311  0C9D  0258               	subwf	___fldiv@aexp,w
  8312  0C9E  1C03               	skipc
  8313  0C9F  2CA1               	goto	u4191
  8314  0CA0  2CA2               	goto	u4190
  8315  0CA1                     u4191:
  8316  0CA1  2C52               	goto	l3172
  8317  0CA2                     u4190:
  8318  0CA2                     l3192:
  8319  0CA2  084F               	movf	___fldiv@rem+3,w
  8320  0CA3  044E               	iorwf	___fldiv@rem+2,w
  8321  0CA4  044D               	iorwf	___fldiv@rem+1,w
  8322  0CA5  044C               	iorwf	___fldiv@rem,w
  8323  0CA6  1903               	skipnz
  8324  0CA7  2CA9               	goto	u4201
  8325  0CA8  2CAA               	goto	u4200
  8326  0CA9                     u4201:
  8327  0CA9  2CC9               	goto	l3206
  8328  0CAA                     u4200:
  8329  0CAA                     l3194:
  8330  0CAA  1453               	bsf	___fldiv@grs,0
  8331  0CAB  2CC9               	goto	l3206
  8332  0CAC                     l3196:
  8333  0CAC  3001               	movlw	1
  8334  0CAD  00C7               	movwf	??___fldiv
  8335  0CAE                     u4215:
  8336  0CAE  1003               	clrc
  8337  0CAF  0DC3               	rlf	___fldiv@b,f
  8338  0CB0  0DC4               	rlf	___fldiv@b+1,f
  8339  0CB1  0DC5               	rlf	___fldiv@b+2,f
  8340  0CB2  0DC6               	rlf	___fldiv@b+3,f
  8341  0CB3  0BC7               	decfsz	??___fldiv,f
  8342  0CB4  2CAE               	goto	u4215
  8343  0CB5                     l3198:
  8344  0CB5  1FD6               	btfss	___fldiv@grs+3,7
  8345  0CB6  2CB8               	goto	u4221
  8346  0CB7  2CB9               	goto	u4220
  8347  0CB8                     u4221:
  8348  0CB8  2CBA               	goto	l3202
  8349  0CB9                     u4220:
  8350  0CB9                     l3200:
  8351  0CB9  1443               	bsf	___fldiv@b,0
  8352  0CBA                     l3202:
  8353  0CBA  3001               	movlw	1
  8354  0CBB  00C7               	movwf	??___fldiv
  8355  0CBC                     u4235:
  8356  0CBC  1003               	clrc
  8357  0CBD  0DD3               	rlf	___fldiv@grs,f
  8358  0CBE  0DD4               	rlf	___fldiv@grs+1,f
  8359  0CBF  0DD5               	rlf	___fldiv@grs+2,f
  8360  0CC0  0DD6               	rlf	___fldiv@grs+3,f
  8361  0CC1  0BC7               	decfsz	??___fldiv,f
  8362  0CC2  2CBC               	goto	u4235
  8363  0CC3                     l3204:
  8364  0CC3  30FF               	movlw	255
  8365  0CC4  07D1               	addwf	___fldiv@new_exp,f
  8366  0CC5  1803               	skipnc
  8367  0CC6  0AD2               	incf	___fldiv@new_exp+1,f
  8368  0CC7  30FF               	movlw	255
  8369  0CC8  07D2               	addwf	___fldiv@new_exp+1,f
  8370  0CC9                     l3206:
  8371  0CC9  1FC5               	btfss	___fldiv@b+2,7
  8372  0CCA  2CCC               	goto	u4241
  8373  0CCB  2CCD               	goto	u4240
  8374  0CCC                     u4241:
  8375  0CCC  2CAC               	goto	l3196
  8376  0CCD                     u4240:
  8377  0CCD                     l3208:
  8378  0CCD  01D8               	clrf	___fldiv@aexp
  8379  0CCE                     l3210:
  8380  0CCE  1FD6               	btfss	___fldiv@grs+3,7
  8381  0CCF  2CD1               	goto	u4251
  8382  0CD0  2CD2               	goto	u4250
  8383  0CD1                     u4251:
  8384  0CD1  2CEE               	goto	l3218
  8385  0CD2                     u4250:
  8386  0CD2                     l3212:
  8387  0CD2  30FF               	movlw	255
  8388  0CD3  0553               	andwf	___fldiv@grs,w
  8389  0CD4  00C7               	movwf	??___fldiv
  8390  0CD5  30FF               	movlw	255
  8391  0CD6  0554               	andwf	___fldiv@grs+1,w
  8392  0CD7  00C8               	movwf	??___fldiv+1
  8393  0CD8  30FF               	movlw	255
  8394  0CD9  0555               	andwf	___fldiv@grs+2,w
  8395  0CDA  00C9               	movwf	??___fldiv+2
  8396  0CDB  307F               	movlw	127
  8397  0CDC  0556               	andwf	___fldiv@grs+3,w
  8398  0CDD  00CA               	movwf	??___fldiv+3
  8399  0CDE  084A               	movf	??___fldiv+3,w
  8400  0CDF  0449               	iorwf	??___fldiv+2,w
  8401  0CE0  0448               	iorwf	??___fldiv+1,w
  8402  0CE1  0447               	iorwf	??___fldiv,w
  8403  0CE2  1903               	skipnz
  8404  0CE3  2CE5               	goto	u4261
  8405  0CE4  2CE6               	goto	u4260
  8406  0CE5                     u4261:
  8407  0CE5  2CE9               	goto	l770
  8408  0CE6                     u4260:
  8409  0CE6                     l3214:
  8410  0CE6  01D8               	clrf	___fldiv@aexp
  8411  0CE7  0AD8               	incf	___fldiv@aexp,f
  8412  0CE8  2CEE               	goto	l3218
  8413  0CE9                     l770:
  8414  0CE9  1C43               	btfss	___fldiv@b,0
  8415  0CEA  2CEC               	goto	u4271
  8416  0CEB  2CED               	goto	u4270
  8417  0CEC                     u4271:
  8418  0CEC  2CEE               	goto	l3218
  8419  0CED                     u4270:
  8420  0CED  2CE6               	goto	l3214
  8421  0CEE                     l3218:
  8422  0CEE  0858               	movf	___fldiv@aexp,w
  8423  0CEF  1903               	btfsc	3,2
  8424  0CF0  2CF2               	goto	u4281
  8425  0CF1  2CF3               	goto	u4280
  8426  0CF2                     u4281:
  8427  0CF2  2D24               	goto	l3228
  8428  0CF3                     u4280:
  8429  0CF3                     l3220:
  8430  0CF3  3001               	movlw	1
  8431  0CF4  07C3               	addwf	___fldiv@b,f
  8432  0CF5  3000               	movlw	0
  8433  0CF6  1803               	skipnc
  8434  0CF7  3001               	movlw	1
  8435  0CF8  07C4               	addwf	___fldiv@b+1,f
  8436  0CF9  3000               	movlw	0
  8437  0CFA  1803               	skipnc
  8438  0CFB  3001               	movlw	1
  8439  0CFC  07C5               	addwf	___fldiv@b+2,f
  8440  0CFD  3000               	movlw	0
  8441  0CFE  1803               	skipnc
  8442  0CFF  3001               	movlw	1
  8443  0D00  07C6               	addwf	___fldiv@b+3,f
  8444  0D01                     l3222:
  8445  0D01  1C46               	btfss	___fldiv@b+3,0
  8446  0D02  2D04               	goto	u4291
  8447  0D03  2D05               	goto	u4290
  8448  0D04                     u4291:
  8449  0D04  2D24               	goto	l3228
  8450  0D05                     u4290:
  8451  0D05                     l3224:
  8452  0D05  0843               	movf	___fldiv@b,w
  8453  0D06  00C7               	movwf	??___fldiv
  8454  0D07  0844               	movf	___fldiv@b+1,w
  8455  0D08  00C8               	movwf	??___fldiv+1
  8456  0D09  0845               	movf	___fldiv@b+2,w
  8457  0D0A  00C9               	movwf	??___fldiv+2
  8458  0D0B  0846               	movf	___fldiv@b+3,w
  8459  0D0C  00CA               	movwf	??___fldiv+3
  8460  0D0D  3001               	movlw	1
  8461  0D0E  00CB               	movwf	??___fldiv+4
  8462  0D0F                     u4305:
  8463  0D0F  0D4A               	rlf	??___fldiv+3,w
  8464  0D10  0CCA               	rrf	??___fldiv+3,f
  8465  0D11  0CC9               	rrf	??___fldiv+2,f
  8466  0D12  0CC8               	rrf	??___fldiv+1,f
  8467  0D13  0CC7               	rrf	??___fldiv,f
  8468  0D14                     u4300:
  8469  0D14  0BCB               	decfsz	??___fldiv+4,f
  8470  0D15  2D0F               	goto	u4305
  8471  0D16  084A               	movf	??___fldiv+3,w
  8472  0D17  00C6               	movwf	___fldiv@b+3
  8473  0D18  0849               	movf	??___fldiv+2,w
  8474  0D19  00C5               	movwf	___fldiv@b+2
  8475  0D1A  0848               	movf	??___fldiv+1,w
  8476  0D1B  00C4               	movwf	___fldiv@b+1
  8477  0D1C  0847               	movf	??___fldiv,w
  8478  0D1D  00C3               	movwf	___fldiv@b
  8479  0D1E                     l3226:
  8480  0D1E  3001               	movlw	1
  8481  0D1F  07D1               	addwf	___fldiv@new_exp,f
  8482  0D20  1803               	skipnc
  8483  0D21  0AD2               	incf	___fldiv@new_exp+1,f
  8484  0D22  3000               	movlw	0
  8485  0D23  07D2               	addwf	___fldiv@new_exp+1,f
  8486  0D24                     l3228:
  8487  0D24  0852               	movf	___fldiv@new_exp+1,w
  8488  0D25  3A80               	xorlw	128
  8489  0D26  00FF               	movwf	btemp+1
  8490  0D27  3080               	movlw	128
  8491  0D28  027F               	subwf	btemp+1,w
  8492  0D29  1D03               	skipz
  8493  0D2A  2D2D               	goto	u4315
  8494  0D2B  30FF               	movlw	255
  8495  0D2C  0251               	subwf	___fldiv@new_exp,w
  8496  0D2D                     u4315:
  8497  0D2D  1C03               	skipc
  8498  0D2E  2D30               	goto	u4311
  8499  0D2F  2D31               	goto	u4310
  8500  0D30                     u4311:
  8501  0D30  2D3F               	goto	l3232
  8502  0D31                     u4310:
  8503  0D31                     l3230:
  8504  0D31  30FF               	movlw	255
  8505  0D32  1283               	bcf	3,5	;RP0=0, select bank0
  8506  0D33  1303               	bcf	3,6	;RP1=0, select bank0
  8507  0D34  00D1               	movwf	___fldiv@new_exp
  8508  0D35  3000               	movlw	0
  8509  0D36  00D2               	movwf	___fldiv@new_exp+1
  8510  0D37  3000               	movlw	0
  8511  0D38  00C6               	movwf	___fldiv@b+3
  8512  0D39  3000               	movlw	0
  8513  0D3A  00C5               	movwf	___fldiv@b+2
  8514  0D3B  3000               	movlw	0
  8515  0D3C  00C4               	movwf	___fldiv@b+1
  8516  0D3D  3000               	movlw	0
  8517  0D3E  00C3               	movwf	___fldiv@b
  8518  0D3F                     l3232:
  8519  0D3F  1283               	bcf	3,5	;RP0=0, select bank0
  8520  0D40  1303               	bcf	3,6	;RP1=0, select bank0
  8521  0D41  0852               	movf	___fldiv@new_exp+1,w
  8522  0D42  3A80               	xorlw	128
  8523  0D43  00FF               	movwf	btemp+1
  8524  0D44  3080               	movlw	128
  8525  0D45  027F               	subwf	btemp+1,w
  8526  0D46  1D03               	skipz
  8527  0D47  2D4A               	goto	u4325
  8528  0D48  3001               	movlw	1
  8529  0D49  0251               	subwf	___fldiv@new_exp,w
  8530  0D4A                     u4325:
  8531  0D4A  1803               	skipnc
  8532  0D4B  2D4D               	goto	u4321
  8533  0D4C  2D4E               	goto	u4320
  8534  0D4D                     u4321:
  8535  0D4D  2D5B               	goto	l776
  8536  0D4E                     u4320:
  8537  0D4E                     l3234:
  8538  0D4E  1283               	bcf	3,5	;RP0=0, select bank0
  8539  0D4F  1303               	bcf	3,6	;RP1=0, select bank0
  8540  0D50  01D1               	clrf	___fldiv@new_exp
  8541  0D51  01D2               	clrf	___fldiv@new_exp+1
  8542  0D52                     l3236:
  8543  0D52  3000               	movlw	0
  8544  0D53  00C6               	movwf	___fldiv@b+3
  8545  0D54  3000               	movlw	0
  8546  0D55  00C5               	movwf	___fldiv@b+2
  8547  0D56  3000               	movlw	0
  8548  0D57  00C4               	movwf	___fldiv@b+1
  8549  0D58  3000               	movlw	0
  8550  0D59  00C3               	movwf	___fldiv@b
  8551  0D5A                     l3238:
  8552  0D5A  01D0               	clrf	___fldiv@sign
  8553  0D5B                     l776:
  8554  0D5B  1283               	bcf	3,5	;RP0=0, select bank0
  8555  0D5C  1303               	bcf	3,6	;RP1=0, select bank0
  8556  0D5D  0851               	movf	___fldiv@new_exp,w
  8557  0D5E  00C7               	movwf	??___fldiv
  8558  0D5F  0847               	movf	??___fldiv,w
  8559  0D60  00D7               	movwf	___fldiv@bexp
  8560  0D61                     l3240:
  8561  0D61  1C57               	btfss	___fldiv@bexp,0
  8562  0D62  2D64               	goto	u4331
  8563  0D63  2D65               	goto	u4330
  8564  0D64                     u4331:
  8565  0D64  2D67               	goto	l3244
  8566  0D65                     u4330:
  8567  0D65                     l3242:
  8568  0D65  17C5               	bsf	___fldiv@b+2,7
  8569  0D66  2D6B               	goto	l778
  8570  0D67                     l3244:
  8571  0D67  307F               	movlw	127
  8572  0D68  00C7               	movwf	??___fldiv
  8573  0D69  0847               	movf	??___fldiv,w
  8574  0D6A  05C5               	andwf	___fldiv@b+2,f
  8575  0D6B                     l778:
  8576  0D6B  0857               	movf	___fldiv@bexp,w
  8577  0D6C  00C7               	movwf	??___fldiv
  8578  0D6D  1003               	clrc
  8579  0D6E  0C47               	rrf	??___fldiv,w
  8580  0D6F  00C8               	movwf	??___fldiv+1
  8581  0D70  0848               	movf	??___fldiv+1,w
  8582  0D71  00C6               	movwf	___fldiv@b+3
  8583  0D72  0850               	movf	___fldiv@sign,w
  8584  0D73  00C7               	movwf	??___fldiv
  8585  0D74  0847               	movf	??___fldiv,w
  8586  0D75  04C6               	iorwf	___fldiv@b+3,f
  8587  0D76  2C0F               	goto	l3152
  8588  0D77                     l756:
  8589  0D77  0008               	return
  8590  0D78                     __end_of___fldiv:
  8591                           
  8592                           	psect	text22
  8593  132D                     __ptext22:	
  8594 ;; *************** function _LeerSensorProximidad *****************
  8595 ;; Defined at:
  8596 ;;		line 25 in file "obstacleAvoidanceSensor.c"
  8597 ;; Parameters:    Size  Location     Type
  8598 ;;		None
  8599 ;; Auto vars:     Size  Location     Type
  8600 ;;		None
  8601 ;; Return value:  Size  Location     Type
  8602 ;;                  2    0[COMMON] int 
  8603 ;; Registers used:
  8604 ;;		wreg, status,2
  8605 ;; Tracked objects:
  8606 ;;		On entry : 0/0
  8607 ;;		On exit  : 0/0
  8608 ;;		Unchanged: 0/0
  8609 ;; Data sizes:     COMMON   BANK0   BANK1   BANK3   BANK2
  8610 ;;      Params:         2       0       0       0       0
  8611 ;;      Locals:         0       0       0       0       0
  8612 ;;      Temps:          0       0       0       0       0
  8613 ;;      Totals:         2       0       0       0       0
  8614 ;;Total ram usage:        2 bytes
  8615 ;; Hardware stack levels used: 1
  8616 ;; This function calls:
  8617 ;;		Nothing
  8618 ;; This function is called by:
  8619 ;;		_main
  8620 ;; This function uses a non-reentrant model
  8621 ;;
  8622                           
  8623  132D                     _LeerSensorProximidad:	
  8624                           ;psect for function _LeerSensorProximidad
  8625                           
  8626  132D                     l2784:	
  8627                           ;incstack = 0
  8628                           ; Regs used in _LeerSensorProximidad: [wreg+status,2]
  8629                           
  8630                           
  8631                           ;obstacleAvoidanceSensor.c: 26:     if( PORTCbits.RC1 == 1)
  8632  132D  1283               	bcf	3,5	;RP0=0, select bank0
  8633  132E  1303               	bcf	3,6	;RP1=0, select bank0
  8634  132F  1C87               	btfss	7,1	;volatile
  8635  1330  2B32               	goto	u3571
  8636  1331  2B33               	goto	u3570
  8637  1332                     u3571:
  8638  1332  2B3A               	goto	l51
  8639  1333                     u3570:
  8640  1333                     l2786:
  8641                           
  8642                           ;obstacleAvoidanceSensor.c: 27:     {;obstacleAvoidanceSensor.c: 28:         r=1;
  8643  1333  3001               	movlw	1
  8644  1334  1683               	bsf	3,5	;RP0=1, select bank1
  8645  1335  1303               	bcf	3,6	;RP1=0, select bank1
  8646  1336  00DF               	movwf	_r^(0+128)
  8647  1337  3000               	movlw	0
  8648  1338  00E0               	movwf	(_r^(0+128)+1)
  8649                           
  8650                           ;obstacleAvoidanceSensor.c: 29:     }
  8651  1339  2B42               	goto	l2790
  8652  133A                     l51:	
  8653                           ;obstacleAvoidanceSensor.c: 30:     else if (PORTCbits.RC1 == 0){
  8654                           
  8655  133A  1887               	btfsc	7,1	;volatile
  8656  133B  2B3D               	goto	u3581
  8657  133C  2B3E               	goto	u3580
  8658  133D                     u3581:
  8659  133D  2B42               	goto	l2790
  8660  133E                     u3580:
  8661  133E                     l2788:
  8662                           
  8663                           ;obstacleAvoidanceSensor.c: 31:         r=0;
  8664  133E  1683               	bsf	3,5	;RP0=1, select bank1
  8665  133F  1303               	bcf	3,6	;RP1=0, select bank1
  8666  1340  01DF               	clrf	_r^(0+128)
  8667  1341  01E0               	clrf	(_r+1)^(0+128)
  8668  1342                     l2790:
  8669                           
  8670                           ;obstacleAvoidanceSensor.c: 34:     return r;
  8671  1342  1683               	bsf	3,5	;RP0=1, select bank1
  8672  1343  1303               	bcf	3,6	;RP1=0, select bank1
  8673  1344  0860               	movf	(_r+1)^(0+128),w
  8674  1345  00F1               	movwf	?_LeerSensorProximidad+1
  8675  1346  085F               	movf	_r^(0+128),w
  8676  1347  00F0               	movwf	?_LeerSensorProximidad
  8677  1348                     l54:
  8678  1348  0008               	return
  8679  1349                     __end_of_LeerSensorProximidad:
  8680                           
  8681                           	psect	text23
  8682  1311                     __ptext23:	
  8683 ;; *************** function _LeerSensorFlame *****************
  8684 ;; Defined at:
  8685 ;;		line 22 in file "flame_sensor.c"
  8686 ;; Parameters:    Size  Location     Type
  8687 ;;		None
  8688 ;; Auto vars:     Size  Location     Type
  8689 ;;		None
  8690 ;; Return value:  Size  Location     Type
  8691 ;;                  2    0[COMMON] int 
  8692 ;; Registers used:
  8693 ;;		wreg, status,2
  8694 ;; Tracked objects:
  8695 ;;		On entry : 0/0
  8696 ;;		On exit  : 0/0
  8697 ;;		Unchanged: 0/0
  8698 ;; Data sizes:     COMMON   BANK0   BANK1   BANK3   BANK2
  8699 ;;      Params:         2       0       0       0       0
  8700 ;;      Locals:         0       0       0       0       0
  8701 ;;      Temps:          0       0       0       0       0
  8702 ;;      Totals:         2       0       0       0       0
  8703 ;;Total ram usage:        2 bytes
  8704 ;; Hardware stack levels used: 1
  8705 ;; This function calls:
  8706 ;;		Nothing
  8707 ;; This function is called by:
  8708 ;;		_main
  8709 ;; This function uses a non-reentrant model
  8710 ;;
  8711                           
  8712  1311                     _LeerSensorFlame:	
  8713                           ;psect for function _LeerSensorFlame
  8714                           
  8715  1311                     l2760:	
  8716                           ;incstack = 0
  8717                           ; Regs used in _LeerSensorFlame: [wreg+status,2]
  8718                           
  8719                           
  8720                           ;flame_sensor.c: 24:     if( PORTCbits.RC0 == 1)
  8721  1311  1283               	bcf	3,5	;RP0=0, select bank0
  8722  1312  1303               	bcf	3,6	;RP1=0, select bank0
  8723  1313  1C07               	btfss	7,0	;volatile
  8724  1314  2B16               	goto	u3541
  8725  1315  2B17               	goto	u3540
  8726  1316                     u3541:
  8727  1316  2B1E               	goto	l16
  8728  1317                     u3540:
  8729  1317                     l2762:
  8730                           
  8731                           ;flame_sensor.c: 25:     {;flame_sensor.c: 26:         f=1;
  8732  1317  3001               	movlw	1
  8733  1318  1683               	bsf	3,5	;RP0=1, select bank1
  8734  1319  1303               	bcf	3,6	;RP1=0, select bank1
  8735  131A  00E3               	movwf	_f^(0+128)
  8736  131B  3000               	movlw	0
  8737  131C  00E4               	movwf	(_f^(0+128)+1)
  8738                           
  8739                           ;flame_sensor.c: 27:     }
  8740  131D  2B26               	goto	l2766
  8741  131E                     l16:	
  8742                           ;flame_sensor.c: 28:     else if (PORTCbits.RC0 == 0){
  8743                           
  8744  131E  1807               	btfsc	7,0	;volatile
  8745  131F  2B21               	goto	u3551
  8746  1320  2B22               	goto	u3550
  8747  1321                     u3551:
  8748  1321  2B26               	goto	l2766
  8749  1322                     u3550:
  8750  1322                     l2764:
  8751                           
  8752                           ;flame_sensor.c: 29:         f=0;
  8753  1322  1683               	bsf	3,5	;RP0=1, select bank1
  8754  1323  1303               	bcf	3,6	;RP1=0, select bank1
  8755  1324  01E3               	clrf	_f^(0+128)
  8756  1325  01E4               	clrf	(_f+1)^(0+128)
  8757  1326                     l2766:
  8758                           
  8759                           ;flame_sensor.c: 32:     return f;
  8760  1326  1683               	bsf	3,5	;RP0=1, select bank1
  8761  1327  1303               	bcf	3,6	;RP1=0, select bank1
  8762  1328  0864               	movf	(_f+1)^(0+128),w
  8763  1329  00F1               	movwf	?_LeerSensorFlame+1
  8764  132A  0863               	movf	_f^(0+128),w
  8765  132B  00F0               	movwf	?_LeerSensorFlame
  8766  132C                     l19:
  8767  132C  0008               	return
  8768  132D                     __end_of_LeerSensorFlame:
  8769                           
  8770                           	psect	text24
  8771  12E1                     __ptext24:	
  8772 ;; *************** function _LeerMicrofono *****************
  8773 ;; Defined at:
  8774 ;;		line 19 in file "Microphone.c"
  8775 ;; Parameters:    Size  Location     Type
  8776 ;;		None
  8777 ;; Auto vars:     Size  Location     Type
  8778 ;;		None
  8779 ;; Return value:  Size  Location     Type
  8780 ;;                  2    0[COMMON] int 
  8781 ;; Registers used:
  8782 ;;		wreg, status,2
  8783 ;; Tracked objects:
  8784 ;;		On entry : 0/0
  8785 ;;		On exit  : 0/0
  8786 ;;		Unchanged: 0/0
  8787 ;; Data sizes:     COMMON   BANK0   BANK1   BANK3   BANK2
  8788 ;;      Params:         2       0       0       0       0
  8789 ;;      Locals:         0       0       0       0       0
  8790 ;;      Temps:          0       0       0       0       0
  8791 ;;      Totals:         2       0       0       0       0
  8792 ;;Total ram usage:        2 bytes
  8793 ;; Hardware stack levels used: 1
  8794 ;; This function calls:
  8795 ;;		Nothing
  8796 ;; This function is called by:
  8797 ;;		_main
  8798 ;; This function uses a non-reentrant model
  8799 ;;
  8800                           
  8801  12E1                     _LeerMicrofono:	
  8802                           ;psect for function _LeerMicrofono
  8803                           
  8804  12E1                     l2772:	
  8805                           ;incstack = 0
  8806                           ; Regs used in _LeerMicrofono: [wreg+status,2]
  8807                           
  8808                           
  8809                           ;Microphone.c: 21:         if(PORTCbits.RC2 == 1 ){
  8810  12E1  1283               	bcf	3,5	;RP0=0, select bank0
  8811  12E2  1303               	bcf	3,6	;RP1=0, select bank0
  8812  12E3  1D07               	btfss	7,2	;volatile
  8813  12E4  2AE6               	goto	u3561
  8814  12E5  2AE7               	goto	u3560
  8815  12E6                     u3561:
  8816  12E6  2AEE               	goto	l2776
  8817  12E7                     u3560:
  8818  12E7                     l2774:
  8819                           
  8820                           ;Microphone.c: 22:             a=1;
  8821  12E7  3001               	movlw	1
  8822  12E8  1683               	bsf	3,5	;RP0=1, select bank1
  8823  12E9  1303               	bcf	3,6	;RP1=0, select bank1
  8824  12EA  00E1               	movwf	_a^(0+128)
  8825  12EB  3000               	movlw	0
  8826  12EC  00E2               	movwf	(_a^(0+128)+1)
  8827                           
  8828                           ;Microphone.c: 23:         }
  8829  12ED  2AF2               	goto	l2778
  8830  12EE                     l2776:
  8831                           
  8832                           ;Microphone.c: 25:             a=0;
  8833  12EE  1683               	bsf	3,5	;RP0=1, select bank1
  8834  12EF  1303               	bcf	3,6	;RP1=0, select bank1
  8835  12F0  01E1               	clrf	_a^(0+128)
  8836  12F1  01E2               	clrf	(_a+1)^(0+128)
  8837  12F2                     l2778:
  8838                           
  8839                           ;Microphone.c: 27:         return a;
  8840  12F2  0862               	movf	(_a+1)^(0+128),w
  8841  12F3  00F1               	movwf	?_LeerMicrofono+1
  8842  12F4  0861               	movf	_a^(0+128),w
  8843  12F5  00F0               	movwf	?_LeerMicrofono
  8844  12F6                     l35:
  8845  12F6  0008               	return
  8846  12F7                     __end_of_LeerMicrofono:
  8847                           
  8848                           	psect	text25
  8849  13C0                     __ptext25:	
  8850 ;; *************** function _LCD_String_xy *****************
  8851 ;; Defined at:
  8852 ;;		line 113 in file "LCD.c"
  8853 ;; Parameters:    Size  Location     Type
  8854 ;;  row             1    wreg     unsigned char 
  8855 ;;  pos             1    5[COMMON] unsigned char 
  8856 ;;  msg             1    6[COMMON] PTR const unsigned char 
  8857 ;;		 -> STR_13(21), STR_12(17), STR_11(17), STR_10(15), 
  8858 ;;		 -> STR_9(13), STR_8(15), STR_7(12), STR_6(14), 
  8859 ;;		 -> STR_5(14), STR_4(15), STR_2(6), 
  8860 ;; Auto vars:     Size  Location     Type
  8861 ;;  row             1    8[COMMON] unsigned char 
  8862 ;;  location        1    9[COMMON] unsigned char 
  8863 ;; Return value:  Size  Location     Type
  8864 ;;                  1    wreg      void 
  8865 ;; Registers used:
  8866 ;;		wreg, fsr0l, fsr0h, status,2, status,0, btemp+1, pclath, cstack
  8867 ;; Tracked objects:
  8868 ;;		On entry : 0/0
  8869 ;;		On exit  : 0/0
  8870 ;;		Unchanged: 0/0
  8871 ;; Data sizes:     COMMON   BANK0   BANK1   BANK3   BANK2
  8872 ;;      Params:         2       0       0       0       0
  8873 ;;      Locals:         2       0       0       0       0
  8874 ;;      Temps:          1       0       0       0       0
  8875 ;;      Totals:         5       0       0       0       0
  8876 ;;Total ram usage:        5 bytes
  8877 ;; Hardware stack levels used: 1
  8878 ;; Hardware stack levels required when called: 2
  8879 ;; This function calls:
  8880 ;;		_LCD_Command
  8881 ;;		_LCD_String
  8882 ;; This function is called by:
  8883 ;;		_main
  8884 ;; This function uses a non-reentrant model
  8885 ;;
  8886                           
  8887  13C0                     _LCD_String_xy:	
  8888                           ;psect for function _LCD_String_xy
  8889                           
  8890                           
  8891                           ;incstack = 0
  8892                           ; Regs used in _LCD_String_xy: [wreg-fsr0h+status,2+status,0+btemp+1+pclath+cstack]
  8893                           ;LCD_String_xy@row stored from wreg
  8894  13C0  00F8               	movwf	LCD_String_xy@row
  8895  13C1                     l2808:
  8896  13C1                     l2810:
  8897                           
  8898                           ;LCD.c: 116:     if(row<=1)
  8899  13C1  3002               	movlw	2
  8900  13C2  0278               	subwf	LCD_String_xy@row,w
  8901  13C3  1803               	skipnc
  8902  13C4  2BC6               	goto	u3591
  8903  13C5  2BC7               	goto	u3590
  8904  13C6                     u3591:
  8905  13C6  2BD4               	goto	l2816
  8906  13C7                     u3590:
  8907  13C7                     l2812:
  8908                           
  8909                           ;LCD.c: 117:     {;LCD.c: 118:         location=(0x80) | ((pos) & 0x0f);
  8910  13C7  0875               	movf	LCD_String_xy@pos,w
  8911  13C8  390F               	andlw	15
  8912  13C9  3880               	iorlw	128
  8913  13CA  00F7               	movwf	??_LCD_String_xy
  8914  13CB  0877               	movf	??_LCD_String_xy,w
  8915  13CC  00F9               	movwf	LCD_String_xy@location
  8916  13CD                     l2814:
  8917                           
  8918                           ;LCD.c: 119:         LCD_Command(location);
  8919  13CD  0879               	movf	LCD_String_xy@location,w
  8920  13CE  160A  118A  2418  160A  118A  	fcall	_LCD_Command
  8921                           
  8922                           ;LCD.c: 120:     }
  8923  13D3  2BE0               	goto	l2820
  8924  13D4                     l2816:
  8925                           
  8926                           ;LCD.c: 122:     {;LCD.c: 123:         location=(0xC0) | ((pos) & 0x0f);
  8927  13D4  0875               	movf	LCD_String_xy@pos,w
  8928  13D5  390F               	andlw	15
  8929  13D6  38C0               	iorlw	192
  8930  13D7  00F7               	movwf	??_LCD_String_xy
  8931  13D8  0877               	movf	??_LCD_String_xy,w
  8932  13D9  00F9               	movwf	LCD_String_xy@location
  8933  13DA                     l2818:
  8934                           
  8935                           ;LCD.c: 124:         LCD_Command(location);
  8936  13DA  0879               	movf	LCD_String_xy@location,w
  8937  13DB  160A  118A  2418  160A  118A  	fcall	_LCD_Command
  8938  13E0                     l2820:
  8939                           
  8940                           ;LCD.c: 128:     LCD_String(msg);
  8941  13E0  0876               	movf	LCD_String_xy@msg,w
  8942  13E1  00F3               	movwf	LCD_String@msg
  8943  13E2  3000               	movlw	0
  8944  13E3  1D03               	btfss	3,2
  8945  13E4  3080               	movlw	128
  8946  13E5  00F4               	movwf	LCD_String@msg+1
  8947  13E6  160A  118A  2349  160A  118A  	fcall	_LCD_String
  8948  13EB                     l86:
  8949  13EB  0008               	return
  8950  13EC                     __end_of_LCD_String_xy:
  8951                           
  8952                           	psect	text26
  8953  1349                     __ptext26:	
  8954 ;; *************** function _LCD_String *****************
  8955 ;; Defined at:
  8956 ;;		line 103 in file "LCD.c"
  8957 ;; Parameters:    Size  Location     Type
  8958 ;;  msg             2    3[COMMON] PTR const unsigned char 
  8959 ;;		 -> STR_13(21), STR_12(17), STR_11(17), STR_10(15), 
  8960 ;;		 -> STR_9(13), STR_8(15), STR_7(12), STR_6(14), 
  8961 ;;		 -> STR_5(14), STR_4(15), STR_3(3), STR_2(6), 
  8962 ;;		 -> main@Temperature(10), 
  8963 ;; Auto vars:     Size  Location     Type
  8964 ;;		None
  8965 ;; Return value:  Size  Location     Type
  8966 ;;                  1    wreg      void 
  8967 ;; Registers used:
  8968 ;;		wreg, fsr0l, fsr0h, status,2, status,0, btemp+1, pclath, cstack
  8969 ;; Tracked objects:
  8970 ;;		On entry : 0/0
  8971 ;;		On exit  : 0/0
  8972 ;;		Unchanged: 0/0
  8973 ;; Data sizes:     COMMON   BANK0   BANK1   BANK3   BANK2
  8974 ;;      Params:         2       0       0       0       0
  8975 ;;      Locals:         0       0       0       0       0
  8976 ;;      Temps:          0       0       0       0       0
  8977 ;;      Totals:         2       0       0       0       0
  8978 ;;Total ram usage:        2 bytes
  8979 ;; Hardware stack levels used: 1
  8980 ;; Hardware stack levels required when called: 1
  8981 ;; This function calls:
  8982 ;;		_LCD_Char
  8983 ;; This function is called by:
  8984 ;;		_LCD_String_xy
  8985 ;;		_main
  8986 ;; This function uses a non-reentrant model
  8987 ;;
  8988                           
  8989  1349                     _LCD_String:	
  8990                           ;psect for function _LCD_String
  8991                           
  8992  1349                     l2608:	
  8993                           ;incstack = 0
  8994                           ; Regs used in _LCD_String: [wreg-fsr0h+status,2+status,0+btemp+1+pclath+cstack]
  8995                           
  8996                           
  8997                           ;LCD.c: 103: void LCD_String(const char *msg);LCD.c: 104: {;LCD.c: 105:  while((*msg)!=0
      +                          )
  8998  1349  2B5E               	goto	l2614
  8999  134A                     l2610:
  9000                           
  9001                           ;LCD.c: 106:  {;LCD.c: 107:    LCD_Char(*msg);
  9002  134A  0874               	movf	LCD_String@msg+1,w
  9003  134B  00FF               	movwf	btemp+1
  9004  134C  0873               	movf	LCD_String@msg,w
  9005  134D  0084               	movwf	4
  9006  134E  160A  118A  2000  160A  118A  	fcall	stringtab
  9007  1353  160A  118A  244E  160A  118A  	fcall	_LCD_Char
  9008  1358                     l2612:
  9009                           
  9010                           ;LCD.c: 108:    msg++;
  9011  1358  3001               	movlw	1
  9012  1359  07F3               	addwf	LCD_String@msg,f
  9013  135A  1803               	skipnc
  9014  135B  0AF4               	incf	LCD_String@msg+1,f
  9015  135C  3000               	movlw	0
  9016  135D  07F4               	addwf	LCD_String@msg+1,f
  9017  135E                     l2614:
  9018                           
  9019                           ;LCD.c: 105:  while((*msg)!=0)
  9020  135E  0874               	movf	LCD_String@msg+1,w
  9021  135F  1283               	bcf	3,5	;RP0=0, select bank0
  9022  1360  1303               	bcf	3,6	;RP1=0, select bank0
  9023  1361  00FF               	movwf	btemp+1
  9024  1362  0873               	movf	LCD_String@msg,w
  9025  1363  0084               	movwf	4
  9026  1364  160A  118A  2000  160A  118A  	fcall	stringtab
  9027  1369  3A00               	xorlw	0
  9028  136A  1D03               	skipz
  9029  136B  2B6D               	goto	u3151
  9030  136C  2B6E               	goto	u3150
  9031  136D                     u3151:
  9032  136D  2B4A               	goto	l2610
  9033  136E                     u3150:
  9034  136E                     l81:
  9035  136E  0008               	return
  9036  136F                     __end_of_LCD_String:
  9037                           
  9038                           	psect	text27
  9039  144E                     __ptext27:	
  9040 ;; *************** function _LCD_Char *****************
  9041 ;; Defined at:
  9042 ;;		line 88 in file "LCD.c"
  9043 ;; Parameters:    Size  Location     Type
  9044 ;;  dat             1    wreg     unsigned char 
  9045 ;; Auto vars:     Size  Location     Type
  9046 ;;  dat             1    2[COMMON] unsigned char 
  9047 ;; Return value:  Size  Location     Type
  9048 ;;                  1    wreg      void 
  9049 ;; Registers used:
  9050 ;;		wreg, status,2, status,0
  9051 ;; Tracked objects:
  9052 ;;		On entry : 0/0
  9053 ;;		On exit  : 0/0
  9054 ;;		Unchanged: 0/0
  9055 ;; Data sizes:     COMMON   BANK0   BANK1   BANK3   BANK2
  9056 ;;      Params:         0       0       0       0       0
  9057 ;;      Locals:         1       0       0       0       0
  9058 ;;      Temps:          2       0       0       0       0
  9059 ;;      Totals:         3       0       0       0       0
  9060 ;;Total ram usage:        3 bytes
  9061 ;; Hardware stack levels used: 1
  9062 ;; This function calls:
  9063 ;;		Nothing
  9064 ;; This function is called by:
  9065 ;;		_LCD_String
  9066 ;;		_main
  9067 ;; This function uses a non-reentrant model
  9068 ;;
  9069                           
  9070  144E                     _LCD_Char:	
  9071                           ;psect for function _LCD_Char
  9072                           
  9073                           
  9074                           ;incstack = 0
  9075                           ; Regs used in _LCD_Char: [wreg+status,2+status,0]
  9076                           ;LCD_Char@dat stored from wreg
  9077  144E  00F2               	movwf	LCD_Char@dat
  9078  144F                     l2222:
  9079                           
  9080                           ;LCD.c: 88: void LCD_Char(unsigned char dat);LCD.c: 89: {;LCD.c: 90:  PORTD = (PORTD & 0
      +                          x0f) | (0xF0 & dat);
  9081  144F  30F0               	movlw	240
  9082  1450  0572               	andwf	LCD_Char@dat,w
  9083  1451  00F0               	movwf	??_LCD_Char
  9084  1452  1283               	bcf	3,5	;RP0=0, select bank0
  9085  1453  1303               	bcf	3,6	;RP1=0, select bank0
  9086  1454  0808               	movf	8,w	;volatile
  9087  1455  390F               	andlw	15
  9088  1456  0470               	iorwf	??_LCD_Char,w
  9089  1457  0088               	movwf	8	;volatile
  9090  1458                     l2224:
  9091                           
  9092                           ;LCD.c: 91:  PORTDbits.RD0 = 1;
  9093  1458  1408               	bsf	8,0	;volatile
  9094  1459                     l2226:
  9095                           
  9096                           ;LCD.c: 92:  PORTDbits.RD1 = 1;
  9097  1459  1488               	bsf	8,1	;volatile
  9098  145A                     l2228:
  9099                           
  9100                           ;LCD.c: 93:  __nop();
  9101  145A  0000               	nop
  9102  145B                     l2230:
  9103                           
  9104                           ;LCD.c: 94:  PORTDbits.RD1 = 0;
  9105  145B  1283               	bcf	3,5	;RP0=0, select bank0
  9106  145C  1303               	bcf	3,6	;RP1=0, select bank0
  9107  145D  1088               	bcf	8,1	;volatile
  9108  145E                     l2232:
  9109                           
  9110                           ;LCD.c: 95:  _delay((unsigned long)((1)*(8000000/4000.0)));
  9111  145E  3003               	movlw	3
  9112  145F  00F1               	movwf	??_LCD_Char+1
  9113  1460  3097               	movlw	151
  9114  1461  00F0               	movwf	??_LCD_Char
  9115  1462                     u4597:
  9116  1462  0BF0               	decfsz	??_LCD_Char,f
  9117  1463  2C62               	goto	u4597
  9118  1464  0BF1               	decfsz	??_LCD_Char+1,f
  9119  1465  2C62               	goto	u4597
  9120  1466  2C67               	nop2
  9121  1467                     l2234:
  9122                           
  9123                           ;LCD.c: 96:     PORTD = (unsigned char)((PORTD & 0x0f) | (dat<<4));
  9124  1467  0872               	movf	LCD_Char@dat,w
  9125  1468  00F0               	movwf	??_LCD_Char
  9126  1469  3004               	movlw	4
  9127  146A                     u2275:
  9128  146A  1003               	clrc
  9129  146B  0DF0               	rlf	??_LCD_Char,f
  9130  146C  3EFF               	addlw	-1
  9131  146D  1D03               	skipz
  9132  146E  2C6A               	goto	u2275
  9133  146F  1283               	bcf	3,5	;RP0=0, select bank0
  9134  1470  1303               	bcf	3,6	;RP1=0, select bank0
  9135  1471  0808               	movf	8,w	;volatile
  9136  1472  390F               	andlw	15
  9137  1473  0470               	iorwf	??_LCD_Char,w
  9138  1474  0088               	movwf	8	;volatile
  9139  1475                     l2236:
  9140                           
  9141                           ;LCD.c: 97:  PORTDbits.RD1 = 1;
  9142  1475  1488               	bsf	8,1	;volatile
  9143  1476                     l2238:
  9144                           
  9145                           ;LCD.c: 98:  __nop();
  9146  1476  0000               	nop
  9147  1477                     l2240:
  9148                           
  9149                           ;LCD.c: 99:  PORTDbits.RD1 = 0;
  9150  1477  1283               	bcf	3,5	;RP0=0, select bank0
  9151  1478  1303               	bcf	3,6	;RP1=0, select bank0
  9152  1479  1088               	bcf	8,1	;volatile
  9153                           
  9154                           ;LCD.c: 100:  _delay((unsigned long)((3)*(8000000/4000.0)));
  9155  147A  3008               	movlw	8
  9156  147B  00F1               	movwf	??_LCD_Char+1
  9157  147C  30C9               	movlw	201
  9158  147D  00F0               	movwf	??_LCD_Char
  9159  147E                     u4607:
  9160  147E  0BF0               	decfsz	??_LCD_Char,f
  9161  147F  2C7E               	goto	u4607
  9162  1480  0BF1               	decfsz	??_LCD_Char+1,f
  9163  1481  2C7E               	goto	u4607
  9164  1482  2C83               	nop2
  9165  1483                     l75:
  9166  1483  0008               	return
  9167  1484                     __end_of_LCD_Char:
  9168                           
  9169                           	psect	text28
  9170  1396                     __ptext28:	
  9171 ;; *************** function _LCD_Init *****************
  9172 ;; Defined at:
  9173 ;;		line 35 in file "LCD.c"
  9174 ;; Parameters:    Size  Location     Type
  9175 ;;		None
  9176 ;; Auto vars:     Size  Location     Type
  9177 ;;		None
  9178 ;; Return value:  Size  Location     Type
  9179 ;;                  1    wreg      void 
  9180 ;; Registers used:
  9181 ;;		wreg, status,2, status,0, pclath, cstack
  9182 ;; Tracked objects:
  9183 ;;		On entry : 0/0
  9184 ;;		On exit  : 0/0
  9185 ;;		Unchanged: 0/0
  9186 ;; Data sizes:     COMMON   BANK0   BANK1   BANK3   BANK2
  9187 ;;      Params:         0       0       0       0       0
  9188 ;;      Locals:         0       0       0       0       0
  9189 ;;      Temps:          2       0       0       0       0
  9190 ;;      Totals:         2       0       0       0       0
  9191 ;;Total ram usage:        2 bytes
  9192 ;; Hardware stack levels used: 1
  9193 ;; Hardware stack levels required when called: 1
  9194 ;; This function calls:
  9195 ;;		_LCD_Command
  9196 ;; This function is called by:
  9197 ;;		_main
  9198 ;; This function uses a non-reentrant model
  9199 ;;
  9200                           
  9201  1396                     _LCD_Init:	
  9202                           ;psect for function _LCD_Init
  9203                           
  9204  1396                     l2794:	
  9205                           ;incstack = 0
  9206                           ; Regs used in _LCD_Init: [wreg+status,2+status,0+pclath+cstack]
  9207                           
  9208                           
  9209                           ;LCD.c: 37:     TRISD = 0;
  9210  1396  1683               	bsf	3,5	;RP0=1, select bank1
  9211  1397  1303               	bcf	3,6	;RP1=0, select bank1
  9212  1398  0188               	clrf	8	;volatile
  9213  1399                     l2796:
  9214                           
  9215                           ;LCD.c: 38:     _delay((unsigned long)((15)*(8000000/4000.0)));
  9216  1399  3027               	movlw	39
  9217  139A  00F4               	movwf	??_LCD_Init+1
  9218  139B  30F5               	movlw	245
  9219  139C  00F3               	movwf	??_LCD_Init
  9220  139D                     u4617:
  9221  139D  0BF3               	decfsz	??_LCD_Init,f
  9222  139E  2B9D               	goto	u4617
  9223  139F  0BF4               	decfsz	??_LCD_Init+1,f
  9224  13A0  2B9D               	goto	u4617
  9225  13A1                     l2798:
  9226                           
  9227                           ;LCD.c: 39:     LCD_Command(0x02);
  9228  13A1  3002               	movlw	2
  9229  13A2  160A  118A  2418  160A  118A  	fcall	_LCD_Command
  9230  13A7                     l2800:
  9231                           
  9232                           ;LCD.c: 40:     LCD_Command(0x28);
  9233  13A7  3028               	movlw	40
  9234  13A8  160A  118A  2418  160A  118A  	fcall	_LCD_Command
  9235  13AD                     l2802:
  9236                           
  9237                           ;LCD.c: 41:     LCD_Command(0x01);
  9238  13AD  3001               	movlw	1
  9239  13AE  160A  118A  2418  160A  118A  	fcall	_LCD_Command
  9240  13B3                     l2804:
  9241                           
  9242                           ;LCD.c: 42:     LCD_Command(0x0c);
  9243  13B3  300C               	movlw	12
  9244  13B4  160A  118A  2418  160A  118A  	fcall	_LCD_Command
  9245  13B9                     l2806:
  9246                           
  9247                           ;LCD.c: 43:     LCD_Command(0x06);
  9248  13B9  3006               	movlw	6
  9249  13BA  160A  118A  2418  160A  118A  	fcall	_LCD_Command
  9250  13BF                     l69:
  9251  13BF  0008               	return
  9252  13C0                     __end_of_LCD_Init:
  9253                           
  9254                           	psect	text29
  9255  12C1                     __ptext29:	
  9256 ;; *************** function _LCD_Clear *****************
  9257 ;; Defined at:
  9258 ;;		line 144 in file "LCD.c"
  9259 ;; Parameters:    Size  Location     Type
  9260 ;;		None
  9261 ;; Auto vars:     Size  Location     Type
  9262 ;;		None
  9263 ;; Return value:  Size  Location     Type
  9264 ;;                  1    wreg      void 
  9265 ;; Registers used:
  9266 ;;		wreg, status,2, status,0, pclath, cstack
  9267 ;; Tracked objects:
  9268 ;;		On entry : 0/0
  9269 ;;		On exit  : 0/0
  9270 ;;		Unchanged: 0/0
  9271 ;; Data sizes:     COMMON   BANK0   BANK1   BANK3   BANK2
  9272 ;;      Params:         0       0       0       0       0
  9273 ;;      Locals:         0       0       0       0       0
  9274 ;;      Temps:          2       0       0       0       0
  9275 ;;      Totals:         2       0       0       0       0
  9276 ;;Total ram usage:        2 bytes
  9277 ;; Hardware stack levels used: 1
  9278 ;; Hardware stack levels required when called: 1
  9279 ;; This function calls:
  9280 ;;		_LCD_Command
  9281 ;; This function is called by:
  9282 ;;		_main
  9283 ;; This function uses a non-reentrant model
  9284 ;;
  9285                           
  9286  12C1                     _LCD_Clear:	
  9287                           ;psect for function _LCD_Clear
  9288                           
  9289  12C1                     l2822:	
  9290                           ;incstack = 0
  9291                           ; Regs used in _LCD_Clear: [wreg+status,2+status,0+pclath+cstack]
  9292                           
  9293                           
  9294                           ;LCD.c: 146:     LCD_Command(0x01);
  9295  12C1  3001               	movlw	1
  9296  12C2  160A  118A  2418  160A  118A  	fcall	_LCD_Command
  9297  12C7                     l2824:
  9298                           
  9299                           ;LCD.c: 147:     _delay((unsigned long)((3)*(8000000/4000.0)));
  9300  12C7  3008               	movlw	8
  9301  12C8  00F4               	movwf	??_LCD_Clear+1
  9302  12C9  30C9               	movlw	201
  9303  12CA  00F3               	movwf	??_LCD_Clear
  9304  12CB                     u4627:
  9305  12CB  0BF3               	decfsz	??_LCD_Clear,f
  9306  12CC  2ACB               	goto	u4627
  9307  12CD  0BF4               	decfsz	??_LCD_Clear+1,f
  9308  12CE  2ACB               	goto	u4627
  9309  12CF  2AD0               	nop2
  9310  12D0                     l89:
  9311  12D0  0008               	return
  9312  12D1                     __end_of_LCD_Clear:
  9313                           
  9314                           	psect	text30
  9315  1418                     __ptext30:	
  9316 ;; *************** function _LCD_Command *****************
  9317 ;; Defined at:
  9318 ;;		line 59 in file "LCD.c"
  9319 ;; Parameters:    Size  Location     Type
  9320 ;;  cmd             1    wreg     unsigned char 
  9321 ;; Auto vars:     Size  Location     Type
  9322 ;;  cmd             1    2[COMMON] unsigned char 
  9323 ;; Return value:  Size  Location     Type
  9324 ;;                  1    wreg      void 
  9325 ;; Registers used:
  9326 ;;		wreg, status,2, status,0
  9327 ;; Tracked objects:
  9328 ;;		On entry : 0/0
  9329 ;;		On exit  : 0/0
  9330 ;;		Unchanged: 0/0
  9331 ;; Data sizes:     COMMON   BANK0   BANK1   BANK3   BANK2
  9332 ;;      Params:         0       0       0       0       0
  9333 ;;      Locals:         1       0       0       0       0
  9334 ;;      Temps:          2       0       0       0       0
  9335 ;;      Totals:         3       0       0       0       0
  9336 ;;Total ram usage:        3 bytes
  9337 ;; Hardware stack levels used: 1
  9338 ;; This function calls:
  9339 ;;		Nothing
  9340 ;; This function is called by:
  9341 ;;		_LCD_Init
  9342 ;;		_LCD_String_xy
  9343 ;;		_LCD_Clear
  9344 ;;		_main
  9345 ;; This function uses a non-reentrant model
  9346 ;;
  9347                           
  9348  1418                     _LCD_Command:	
  9349                           ;psect for function _LCD_Command
  9350                           
  9351                           
  9352                           ;incstack = 0
  9353                           ; Regs used in _LCD_Command: [wreg+status,2+status,0]
  9354                           ;LCD_Command@cmd stored from wreg
  9355  1418  00F2               	movwf	LCD_Command@cmd
  9356  1419                     l2588:
  9357                           
  9358                           ;LCD.c: 59: void LCD_Command(unsigned char cmd );LCD.c: 60: {;LCD.c: 61:  PORTD = (PORTD
      +                           & 0x0f) |(0xF0 & cmd);
  9359  1419  30F0               	movlw	240
  9360  141A  0572               	andwf	LCD_Command@cmd,w
  9361  141B  00F0               	movwf	??_LCD_Command
  9362  141C  1283               	bcf	3,5	;RP0=0, select bank0
  9363  141D  1303               	bcf	3,6	;RP1=0, select bank0
  9364  141E  0808               	movf	8,w	;volatile
  9365  141F  390F               	andlw	15
  9366  1420  0470               	iorwf	??_LCD_Command,w
  9367  1421  0088               	movwf	8	;volatile
  9368  1422                     l2590:
  9369                           
  9370                           ;LCD.c: 62:  PORTDbits.RD0 = 0;
  9371  1422  1008               	bcf	8,0	;volatile
  9372  1423                     l2592:
  9373                           
  9374                           ;LCD.c: 63:  PORTDbits.RD1 = 1;
  9375  1423  1488               	bsf	8,1	;volatile
  9376  1424                     l2594:
  9377                           
  9378                           ;LCD.c: 64:  __nop();
  9379  1424  0000               	nop
  9380  1425                     l2596:
  9381                           
  9382                           ;LCD.c: 65:  PORTDbits.RD1 = 0;
  9383  1425  1283               	bcf	3,5	;RP0=0, select bank0
  9384  1426  1303               	bcf	3,6	;RP1=0, select bank0
  9385  1427  1088               	bcf	8,1	;volatile
  9386  1428                     l2598:
  9387                           
  9388                           ;LCD.c: 66:  _delay((unsigned long)((1)*(8000000/4000.0)));
  9389  1428  3003               	movlw	3
  9390  1429  00F1               	movwf	??_LCD_Command+1
  9391  142A  3097               	movlw	151
  9392  142B  00F0               	movwf	??_LCD_Command
  9393  142C                     u4637:
  9394  142C  0BF0               	decfsz	??_LCD_Command,f
  9395  142D  2C2C               	goto	u4637
  9396  142E  0BF1               	decfsz	??_LCD_Command+1,f
  9397  142F  2C2C               	goto	u4637
  9398  1430  2C31               	nop2
  9399  1431                     l2600:
  9400                           
  9401                           ;LCD.c: 67:     PORTD = (unsigned char)((PORTD & 0x0f) | (cmd<<4));
  9402  1431  0872               	movf	LCD_Command@cmd,w
  9403  1432  00F0               	movwf	??_LCD_Command
  9404  1433  3004               	movlw	4
  9405  1434                     u3145:
  9406  1434  1003               	clrc
  9407  1435  0DF0               	rlf	??_LCD_Command,f
  9408  1436  3EFF               	addlw	-1
  9409  1437  1D03               	skipz
  9410  1438  2C34               	goto	u3145
  9411  1439  1283               	bcf	3,5	;RP0=0, select bank0
  9412  143A  1303               	bcf	3,6	;RP1=0, select bank0
  9413  143B  0808               	movf	8,w	;volatile
  9414  143C  390F               	andlw	15
  9415  143D  0470               	iorwf	??_LCD_Command,w
  9416  143E  0088               	movwf	8	;volatile
  9417  143F                     l2602:
  9418                           
  9419                           ;LCD.c: 68:  PORTDbits.RD1 = 1;
  9420  143F  1488               	bsf	8,1	;volatile
  9421  1440                     l2604:
  9422                           
  9423                           ;LCD.c: 69:  __nop();
  9424  1440  0000               	nop
  9425  1441                     l2606:
  9426                           
  9427                           ;LCD.c: 70:  PORTDbits.RD1 = 0;
  9428  1441  1283               	bcf	3,5	;RP0=0, select bank0
  9429  1442  1303               	bcf	3,6	;RP1=0, select bank0
  9430  1443  1088               	bcf	8,1	;volatile
  9431                           
  9432                           ;LCD.c: 71:  _delay((unsigned long)((3)*(8000000/4000.0)));
  9433  1444  3008               	movlw	8
  9434  1445  00F1               	movwf	??_LCD_Command+1
  9435  1446  30C9               	movlw	201
  9436  1447  00F0               	movwf	??_LCD_Command
  9437  1448                     u4647:
  9438  1448  0BF0               	decfsz	??_LCD_Command,f
  9439  1449  2C48               	goto	u4647
  9440  144A  0BF1               	decfsz	??_LCD_Command+1,f
  9441  144B  2C48               	goto	u4647
  9442  144C  2C4D               	nop2
  9443  144D                     l72:
  9444  144D  0008               	return
  9445  144E                     __end_of_LCD_Command:
  9446                           
  9447                           	psect	text31
  9448  12F7                     __ptext31:	
  9449 ;; *************** function _ADC_init *****************
  9450 ;; Defined at:
  9451 ;;		line 25 in file "ADC.c"
  9452 ;; Parameters:    Size  Location     Type
  9453 ;;		None
  9454 ;; Auto vars:     Size  Location     Type
  9455 ;;		None
  9456 ;; Return value:  Size  Location     Type
  9457 ;;                  1    wreg      void 
  9458 ;; Registers used:
  9459 ;;		wreg, status,2, status,0
  9460 ;; Tracked objects:
  9461 ;;		On entry : 0/0
  9462 ;;		On exit  : 0/0
  9463 ;;		Unchanged: 0/0
  9464 ;; Data sizes:     COMMON   BANK0   BANK1   BANK3   BANK2
  9465 ;;      Params:         0       0       0       0       0
  9466 ;;      Locals:         0       0       0       0       0
  9467 ;;      Temps:          0       0       0       0       0
  9468 ;;      Totals:         0       0       0       0       0
  9469 ;;Total ram usage:        0 bytes
  9470 ;; Hardware stack levels used: 1
  9471 ;; This function calls:
  9472 ;;		Nothing
  9473 ;; This function is called by:
  9474 ;;		_main
  9475 ;; This function uses a non-reentrant model
  9476 ;;
  9477                           
  9478  12F7                     _ADC_init:	
  9479                           ;psect for function _ADC_init
  9480                           
  9481  12F7                     l2930:	
  9482                           ;incstack = 0
  9483                           ; Regs used in _ADC_init: [wreg+status,2+status,0]
  9484                           
  9485                           
  9486                           ;ADC.c: 27:     ANSEL = 0x01;
  9487  12F7  3001               	movlw	1
  9488  12F8  1683               	bsf	3,5	;RP0=1, select bank3
  9489  12F9  1703               	bsf	3,6	;RP1=1, select bank3
  9490  12FA  0088               	movwf	8	;volatile
  9491  12FB                     l2932:
  9492                           
  9493                           ;ADC.c: 28:     PORTA=0;
  9494  12FB  1283               	bcf	3,5	;RP0=0, select bank0
  9495  12FC  1303               	bcf	3,6	;RP1=0, select bank0
  9496  12FD  0185               	clrf	5	;volatile
  9497  12FE                     l2934:
  9498                           
  9499                           ;ADC.c: 29:     TRISA0 = 1;
  9500  12FE  1683               	bsf	3,5	;RP0=1, select bank1
  9501  12FF  1303               	bcf	3,6	;RP1=0, select bank1
  9502  1300  1405               	bsf	5,0	;volatile
  9503  1301                     l2936:
  9504                           
  9505                           ;ADC.c: 30:     TRISA1 = 0;
  9506  1301  1085               	bcf	5,1	;volatile
  9507  1302                     l2938:
  9508                           
  9509                           ;ADC.c: 31:     TRISA2 = 0;
  9510  1302  1105               	bcf	5,2	;volatile
  9511  1303                     l2940:
  9512                           
  9513                           ;ADC.c: 32:     TRISA3 = 0;
  9514  1303  1185               	bcf	5,3	;volatile
  9515  1304                     l2942:
  9516                           
  9517                           ;ADC.c: 35:     ADCON1bits.ADFM = 1;
  9518  1304  179F               	bsf	31,7	;volatile
  9519  1305                     l2944:
  9520                           
  9521                           ;ADC.c: 36:     ADCON1bits.VCFG0 = 0;
  9522  1305  121F               	bcf	31,4	;volatile
  9523  1306                     l2946:
  9524                           
  9525                           ;ADC.c: 37:     ADCON1bits.VCFG1 = 0;
  9526  1306  129F               	bcf	31,5	;volatile
  9527  1307                     l2948:
  9528                           
  9529                           ;ADC.c: 39:     ADCON0bits.CHS = 0b0000;
  9530  1307  30C3               	movlw	-61
  9531  1308  1283               	bcf	3,5	;RP0=0, select bank0
  9532  1309  1303               	bcf	3,6	;RP1=0, select bank0
  9533  130A  059F               	andwf	31,f	;volatile
  9534  130B                     l2950:
  9535                           
  9536                           ;ADC.c: 40:     ADCON0bits.ADCS = 0b01;
  9537  130B  081F               	movf	31,w	;volatile
  9538  130C  393F               	andlw	-193
  9539  130D  3840               	iorlw	64
  9540  130E  009F               	movwf	31	;volatile
  9541  130F                     l2952:
  9542                           
  9543                           ;ADC.c: 41:     ADCON0bits.ADON = 1;
  9544  130F  141F               	bsf	31,0	;volatile
  9545  1310                     l284:
  9546  1310  0008               	return
  9547  1311                     __end_of_ADC_init:
  9548  007E                     btemp	set	126	;btemp
  9549  007E                     wtemp0	set	126
  9550                           
  9551                           	psect	idloc
  9552                           
  9553                           ;Config register IDLOC0 @ 0x2000
  9554                           ;	unspecified, using default values
  9555  2000                     	org	8192
  9556  2000  3FFF               	dw	16383
  9557                           
  9558                           ;Config register IDLOC1 @ 0x2001
  9559                           ;	unspecified, using default values
  9560  2001                     	org	8193
  9561  2001  3FFF               	dw	16383
  9562                           
  9563                           ;Config register IDLOC2 @ 0x2002
  9564                           ;	unspecified, using default values
  9565  2002                     	org	8194
  9566  2002  3FFF               	dw	16383
  9567                           
  9568                           ;Config register IDLOC3 @ 0x2003
  9569                           ;	unspecified, using default values
  9570  2003                     	org	8195
  9571  2003  3FFF               	dw	16383
  9572                           
  9573                           	psect	config
  9574                           
  9575                           ;Config register CONFIG1 @ 0x2007
  9576                           ;	Oscillator Selection bits
  9577                           ;	FOSC = INTRC_CLKOUT, INTOSC oscillator: CLKOUT function on RA6/OSC2/CLKOUT pin, I/O fu
      +                          nction on RA7/OSC1/CLKIN
  9578                           ;	Watchdog Timer Enable bit
  9579                           ;	WDTE = OFF, WDT disabled and can be enabled by SWDTEN bit of the WDTCON register
  9580                           ;	Power-up Timer Enable bit
  9581                           ;	PWRTE = OFF, PWRT disabled
  9582                           ;	RE3/MCLR pin function select bit
  9583                           ;	MCLRE = OFF, RE3/MCLR pin function is digital input, MCLR internally tied to VDD
  9584                           ;	Code Protection bit
  9585                           ;	CP = OFF, Program memory code protection is disabled
  9586                           ;	Data Code Protection bit
  9587                           ;	CPD = OFF, Data memory code protection is disabled
  9588                           ;	Brown Out Reset Selection bits
  9589                           ;	BOREN = OFF, BOR disabled
  9590                           ;	Internal External Switchover bit
  9591                           ;	IESO = OFF, Internal/External Switchover mode is disabled
  9592                           ;	Fail-Safe Clock Monitor Enabled bit
  9593                           ;	FCMEN = OFF, Fail-Safe Clock Monitor is disabled
  9594                           ;	Low Voltage Programming Enable bit
  9595                           ;	LVP = OFF, RB3 pin has digital I/O, HV on MCLR must be used for programming
  9596                           ;	In-Circuit Debugger Mode bit
  9597                           ;	DEBUG = 0x1, unprogrammed default
  9598  2007                     	org	8199
  9599  2007  20D5               	dw	8405
  9600                           
  9601                           ;Config register CONFIG2 @ 0x2008
  9602                           ;	Brown-out Reset Selection bit
  9603                           ;	BOR4V = BOR40V, Brown-out Reset set to 4.0V
  9604                           ;	Flash Program Memory Self Write Enable bits
  9605                           ;	WRT = OFF, Write protection off
  9606  2008                     	org	8200
  9607  2008  3FFF               	dw	16383

Data Sizes:
    Strings     136
    Constant    53
    Data        17
    BSS         24
    Persistent  0
    Stack       0

Auto Spaces:
    Space          Size  Autos    Used
    COMMON           14     14      14
    BANK0            80     78      79
    BANK1            80     55      79
    BANK3            96      0      16
    BANK2            96      0       0

Pointer List with Targets:

    strncmp@s2	PTR const unsigned char  size(1) Largest target is 5
		 -> exitPassword(CODE[2]), inputPassword(CODE[5]), 

    strncmp@s1	PTR const unsigned char  size(1) Largest target is 5
		 -> pass_user2(BANK1[2]), pass_user(BANK1[5]), 

    frexp@eptr	PTR int  size(1) Largest target is 2
		 -> log@exponent(BANK1[2]), 

    eval_poly@d	PTR const  size(1) Largest target is 36
		 -> log@coeff(CODE[36]), 

    sprintf@f	PTR const unsigned char  size(1) Largest target is 6
		 -> STR_1(CODE[6]), 

    sprintf@sp	PTR unsigned char  size(1) Largest target is 10
		 -> main@Temperature(BANK1[10]), 

    sprintf@ap	PTR void [1] size(1) Largest target is 2
		 -> ?_sprintf(BANK0[2]), 

    LCD_String_xy@msg	PTR const unsigned char  size(1) Largest target is 21
		 -> STR_13(CODE[21]), STR_12(CODE[17]), STR_11(CODE[17]), STR_10(CODE[15]), 
		 -> STR_9(CODE[13]), STR_8(CODE[15]), STR_7(CODE[12]), STR_6(CODE[14]), 
		 -> STR_5(CODE[14]), STR_4(CODE[15]), STR_2(CODE[6]), 

    LCD_String@msg	PTR const unsigned char  size(2) Largest target is 21
		 -> STR_13(CODE[21]), STR_12(CODE[17]), STR_11(CODE[17]), STR_10(CODE[15]), 
		 -> STR_9(CODE[13]), STR_8(CODE[15]), STR_7(CODE[12]), STR_6(CODE[14]), 
		 -> STR_5(CODE[14]), STR_4(CODE[15]), STR_3(CODE[3]), STR_2(CODE[6]), 
		 -> main@Temperature(BANK1[10]), 


Critical Paths under _main in COMMON

    _main->___xxtofl
    _sprintf->___lwmod
    ___lwmod->___lwdiv
    _log->___xxtofl
    _log->_frexp
    _frexp->___fleq
    ___flmul->___xxtofl
    ___flmul->_frexp
    ___fladd->___xxtofl
    ___fladd->_frexp
    ___fldiv->___xxtofl
    ___fldiv->_frexp
    _LCD_String_xy->_LCD_String
    _LCD_String->_LCD_Char
    _LCD_Init->_LCD_Command
    _LCD_Clear->_LCD_Command

Critical Paths under _main in BANK0

    _main->_log
    _log->___fladd
    _eval_poly->___fladd
    ___flmul->_frexp
    ___fladd->___fldiv
    ___fldiv->___flmul

Critical Paths under _main in BANK1

    _main->_log
    _log->_eval_poly

Critical Paths under _main in BANK3

    None.

Critical Paths under _main in BANK2

    None.

Call Graph Tables:

 ---------------------------------------------------------------------------------
 (Depth) Function   	        Calls       Base Space   Used Autos Params    Refs
 ---------------------------------------------------------------------------------
 (0) _main                                                33    33      0   26446
                                             22 BANK1     33    33      0
                           _ADC_init
                           _LCD_Char
                          _LCD_Clear
                        _LCD_Command
                           _LCD_Init
                         _LCD_String
                      _LCD_String_xy
                      _LeerMicrofono
                    _LeerSensorFlame
               _LeerSensorProximidad
                            ___fladd
                            ___fldiv
                             ___flge
                            ___fltol
                           ___xxtofl
                        _capturaTemp
                      _keypad_getkey
                        _keypad_init
                                _log
                    _microphone_init
                   _sensorFlame_init
              _sensorProximidad_init
                            _sprintf
                            _strncmp
 ---------------------------------------------------------------------------------
 (2) _strncmp                                              6     3      3     504
                                              0 COMMON     6     3      3
 ---------------------------------------------------------------------------------
 (1) _sprintf                                             23    18      5    1280
                                              0 BANK0     15    10      5
                            ___fltol (ARG)
                            ___lwdiv
                            ___lwmod
 ---------------------------------------------------------------------------------
 (2) ___lwmod                                              6     2      4     311
                                              8 COMMON     6     2      4
                            ___lwdiv (ARG)
 ---------------------------------------------------------------------------------
 (2) ___lwdiv                                              8     4      4     314
                                              0 COMMON     8     4      4
 ---------------------------------------------------------------------------------
 (1) _sensorProximidad_init                                0     0      0       0
 ---------------------------------------------------------------------------------
 (1) _sensorFlame_init                                     0     0      0       0
 ---------------------------------------------------------------------------------
 (1) _microphone_init                                      0     0      0       0
 ---------------------------------------------------------------------------------
 (1) _log                                                  7     3      4   15102
                                             77 BANK0      1     1      0
                                             16 BANK1      6     2      4
                            ___fladd
                            ___fldiv (ARG)
                             ___fleq
                             ___flge
                            ___flmul
                           ___xxtofl
                          _eval_poly
                              _frexp
 ---------------------------------------------------------------------------------
 (2) _frexp                                                7     2      5     896
                                             12 COMMON     2     2      0
                                              0 BANK0      5     0      5
                             ___fleq
 ---------------------------------------------------------------------------------
 (3) ___fleq                                              12     4      8     520
                                              0 COMMON    12     4      8
 ---------------------------------------------------------------------------------
 (2) _eval_poly                                           16     9      7    6275
                                              0 BANK1     16     9      7
                            ___fladd
                            ___fldiv (ARG)
                            ___flmul
 ---------------------------------------------------------------------------------
 (3) ___flmul                                             26    18      8    2847
                                              5 BANK0     26    18      8
                          __Umul8_16
                           ___xxtofl (ARG)
                              _frexp (ARG)
 ---------------------------------------------------------------------------------
 (4) __Umul8_16                                            9     7      2     799
                                              0 COMMON     9     7      2
 ---------------------------------------------------------------------------------
 (3) ___fladd                                             20    12      8    3022
                                             57 BANK0     20    12      8
                            ___fldiv (ARG)
                            ___flmul (ARG)
                           ___xxtofl (ARG)
                              _frexp (ARG)
 ---------------------------------------------------------------------------------
 (2) ___xxtofl                                            14    10      4     474
                                              0 COMMON    14    10      4
 ---------------------------------------------------------------------------------
 (2) ___flge                                              12     4      8     764
                                              0 COMMON    12     4      8
 ---------------------------------------------------------------------------------
 (1) _keypad_init                                          1     1      0       0
                                              0 COMMON     1     1      0
 ---------------------------------------------------------------------------------
 (1) _keypad_getkey                                       23    23      0     542
                                              0 COMMON     4     4      0
                                              0 BANK0     19    19      0
 ---------------------------------------------------------------------------------
 (1) _capturaTemp                                          6     4      2       0
                                              0 COMMON     6     4      2
 ---------------------------------------------------------------------------------
 (1) ___fltol                                             11     7      4     305
                                              0 COMMON    11     7      4
 ---------------------------------------------------------------------------------
 (1) ___fldiv                                             26    18      8    1577
                                             31 BANK0     26    18      8
                          __Umul8_16 (ARG)
                             ___fleq (ARG)
                             ___flge (ARG)
                            ___flmul (ARG)
                           ___xxtofl (ARG)
                              _frexp (ARG)
 ---------------------------------------------------------------------------------
 (1) _LeerSensorProximidad                                 2     0      2       0
                                              0 COMMON     2     0      2
 ---------------------------------------------------------------------------------
 (1) _LeerSensorFlame                                      2     0      2       0
                                              0 COMMON     2     0      2
 ---------------------------------------------------------------------------------
 (1) _LeerMicrofono                                        2     0      2       0
                                              0 COMMON     2     0      2
 ---------------------------------------------------------------------------------
 (1) _LCD_String_xy                                        5     3      2    2168
                                              5 COMMON     5     3      2
                        _LCD_Command
                         _LCD_String
 ---------------------------------------------------------------------------------
 (2) _LCD_String                                           2     0      2     317
                                              3 COMMON     2     0      2
                           _LCD_Char
 ---------------------------------------------------------------------------------
 (3) _LCD_Char                                             3     3      0      44
                                              0 COMMON     3     3      0
 ---------------------------------------------------------------------------------
 (1) _LCD_Init                                             2     2      0      44
                                              3 COMMON     2     2      0
                        _LCD_Command
 ---------------------------------------------------------------------------------
 (1) _LCD_Clear                                            2     2      0      44
                                              3 COMMON     2     2      0
                        _LCD_Command
 ---------------------------------------------------------------------------------
 (2) _LCD_Command                                          3     3      0      44
                                              0 COMMON     3     3      0
 ---------------------------------------------------------------------------------
 (1) _ADC_init                                             0     0      0       0
 ---------------------------------------------------------------------------------
 Estimated maximum stack depth 4
 ---------------------------------------------------------------------------------

 Call Graph Graphs:

 _main (ROOT)
   _ADC_init
   _LCD_Char
   _LCD_Clear
     _LCD_Command
   _LCD_Command
   _LCD_Init
     _LCD_Command
   _LCD_String
     _LCD_Char
   _LCD_String_xy
     _LCD_Command
     _LCD_String
   _LeerMicrofono
   _LeerSensorFlame
   _LeerSensorProximidad
   ___fladd
     ___fldiv (ARG)
       __Umul8_16 (ARG)
       ___fleq (ARG)
       ___flge (ARG)
       ___flmul (ARG)
         __Umul8_16
         ___xxtofl (ARG)
         _frexp (ARG)
           ___fleq
       ___xxtofl (ARG)
       _frexp (ARG)
     ___flmul (ARG)
     ___xxtofl (ARG)
     _frexp (ARG)
   ___fldiv
   ___flge
   ___fltol
   ___xxtofl
   _capturaTemp
   _keypad_getkey
   _keypad_init
   _log
     ___fladd
     ___fldiv (ARG)
     ___fleq (ARG)
     ___flge (ARG)
     ___flmul (ARG)
     ___xxtofl (ARG)
     _eval_poly (ARG)
       ___fladd
       ___fldiv (ARG)
       ___flmul (ARG)
     _frexp (ARG)
   _microphone_init
   _sensorFlame_init
   _sensorProximidad_init
   _sprintf
     ___fltol (ARG)
     ___lwdiv (ARG)
     ___lwmod (ARG)
       ___lwdiv (ARG)
   _strncmp

 Address spaces:
Name               Size   Autos  Total    Cost      Usage
BANK3               60      0      10       9       16.7%
BITBANK3            60      0       0       8        0.0%
SFR3                 0      0       0       4        0.0%
BITSFR3              0      0       0       4        0.0%
BANK2               60      0       0      11        0.0%
BITBANK2            60      0       0      10        0.0%
SFR2                 0      0       0       5        0.0%
BITSFR2              0      0       0       5        0.0%
BANK1               50     37      4F       7       98.8%
BITBANK1            50      0       0       6        0.0%
SFR1                 0      0       0       2        0.0%
BITSFR1              0      0       0       2        0.0%
BANK0               50     4E      4F       5       98.8%
BITBANK0            50      0       0       4        0.0%
SFR0                 0      0       0       1        0.0%
BITSFR0              0      0       0       1        0.0%
COMMON               E      E       E       1      100.0%
BITCOMMON            E      0       0       0        0.0%
CODE                 0      0       0       0        0.0%
DATA                 0      0      BC      12        0.0%
ABS                  0      0      BC       3        0.0%
NULL                 0      0       0       0        0.0%
STACK                0      0       0       2        0.0%
EEDATA             100      0       0       0        0.0%


Microchip Technology PIC Macro Assembler V2.36 build 20220127204148 
Symbol Table                                                                                   Mon Aug 08 12:47:38 2022

                 ___fldiv@aexp 0058                   ___fldiv@bexp 0057                              _a 00E1  
                            _f 00E3                              _r 00DF                              pc 0002  
                 ___fldiv@sign 0050                   ?_LCD_Command 0070                             l13 12A9  
                           l30 129E                             l16 131E                             l35 12F6  
                           l19 132C                             l51 133A                             l54 1348  
                           l72 144D                             l48 12B4                             l81 136E  
                           l75 1483                             l69 13BF                             l86 13EB  
                           l89 12D0                             fsr 0004                    ?_LCD_String 0073  
          __Umul8_16@word_mpld 0076                            l100 12C0                            l231 0420  
                          l401 0A4E                            l242 06D3                            l229 040C  
                          l159 094B                            l601 15C9                            l290 1417  
                          l284 1310                            l702 0E82                            l287 13EF  
                          l711 0FFF                            l704 0E59                            l800 033E  
                          l723 0F71                            l740 0FF3                            l732 0FD1  
                          l741 0FFF                            l813 1383                            l901 0849  
                          l582 1652                            l806 03C6                            l574 151E  
                          l591 15C9                            l583 166B                            l719 0F4D  
                          l815 1395                            l575 153A                            l840 1725  
                          l576 154F                            l729 0F93                            l770 0CE9  
                          l754 0BF7                            l579 15E6                            l851 16EF  
                          l756 0D77                            l852 16FB                            l844 16D3  
                          l677 1501                            l598 15B4                            l838 168E  
                          l687 14BD                            l776 0D5B                            l865 0B9A  
                          l778 0D6B                            l698 0DDB                            l794 03D2  
                          l883 0071                            l877 17FF                            l896 0839  
                          _idx 00E6                            _key 00EE                            _log 0A4F  
                          fsr0 0004                            indf 0000                   ___flmul@aexp 0037  
                 ___flmul@bexp 0038                   ___flmul@sign 0032                   ___flmul@temp 003D  
                 ___flmul@prod 0039                    LCD_Char@dat 0072                   ___fltol@exp1 007A  
                         l3000 096F                           l2210 1372                           l3010 09A7  
                         l3002 0973                           l2300 0DE5                           l2212 1379  
                         l3012 09AB                           l2230 145B                           l2222 144F  
                         l3110 0BA2                           l3102 15A9                           l2310 0DF9  
                         l2302 0DE9                           l2214 137D                           l3030 09E0  
                         l3014 09AF                           l3006 097F                           l2240 1477  
                         l2232 145E                           l2224 1458                           l3200 0CB9  
                         l3120 0BB7                           l3112 0BA8                           l3104 15B9  
                         l2400 0F75                           l2320 0E0D                           l2312 0DFD  
                         l2304 0DED                           l2216 138C                           l2208 1370  
                         l3040 0A24                           l3032 09E6                           l3024 09BA  
                         l3016 09B3                           l3008 099F                           l2234 1467  
                         l2226 1459                           l3210 0CCE                           l3202 0CBA  
                         l3130 0BCF                           l3122 0BBF                           l3114 0BAC  
                         l3106 15BE                           l2402 0F78                           l2410 0F85  
                         l2330 0E21                           l2322 0E11                           l2314 0E01  
                         l2306 0DF1                           l2218 1391                           l2250 154E  
                         l2242 1502                           l3042 0A2B                           l3034 09ED  
                         l3018 09B8                           l2236 1475                           l2228 145A  
                         l3220 0CF3                           l3212 0CD2                           l3204 0CC3  
                         l3140 0BE4                           l3132 0BD5                           l3124 0BC0  
                         l3116 0BAD                           l3108 0B9B                           l2420 0F98  
                         l2412 0F86                           l2404 0F7A                           l2340 0E66  
                         l2324 0E15                           l2316 0E05                           l2308 0DF5  
                         l2332 0E25                           l2260 0D89                           l2500 0135  
                         l2244 1516                           l3044 0A2F                           l3036 09F1  
                         l3028 09D6                           l3060 080E                           l3300 05EA  
                         l2238 1476                           l3230 0D31                           l3222 0D01  
                         l3214 0CE6                           l3206 0CC9                           l3150 0C0B  
                         l3142 0BEC                           l3134 0BD9                           l3118 0BB2  
                         l3126 0BC2                           l2430 0FD6                           l2422 0F9D  
                         l2414 0F8A                           l2406 0F7F                           l2342 0E68  
                         l2350 0E7A                           l2334 0E26                           l2326 0E19  
                         l2318 0E09                           l2270 0D9D                           l2262 0D8A  
                         l2254 0D78                           l2510 01B2                           l2502 0161  
                         l2246 1532                           l3038 09F6                           l3046 0A38  
                         l3062 081E                           l3310 063D                           l3302 05F8  
                         l2600 1431                           l3240 0D61                           l3232 0D3F  
                         l3224 0D05                           l3208 0CCD                           l3152 0C0F  
                         l3144 0BED                           l3136 0BDA                           l3128 0BCA  
                         l3080 1579                           l3072 1550                           l2440 0FED  
                         l2432 0FDB                           l2424 0FAB                           l2416 0F90  
                         l2408 0F81                           l2360 0EAB                           l2352 0E86  
                         l2344 0E6C                           l2336 0E3D                           l2328 0E1D  
                         l2280 0DB3                           l2264 0D8F                           l2272 0D9F  
                         l2256 0D7F                           l2520 0232                           l2512 01CF  
                         l2504 017D                           l2248 154C                           l3048 0A4A  
                         l3056 0805                           l3320 0664                           l3312 0642  
                         l3304 0613                           l2602 143F                           l2610 134A  
                         l3242 0D65                           l3234 0D4E                           l3226 0D1E  
                         l3218 0CEE                           l3170 0C50                           l3162 0C26  
                         l3138 0BDF                           l3146 0BEF                           l3082 157A  
                         l3074 155B                           l2442 0FEF                           l2434 0FE3  
                         l2426 0FAF                           l2370 0EC2                           l2362 0EAF  
                         l2354 0E8B                           l2346 0E6D                           l2338 0E5D  
                         l2290 0DC8                           l2282 0DB9                           l2274 0DA7  
                         l2266 0D94                           l2258 0D85                           l2530 02EA  
                         l2522 025F                           l2514 01DF                           l2506 0199  
                         l2450 0079                           l3066 0831                           l3058 0806  
                         l3330 068F                           l3322 066A                           l3314 064F  
                         l3306 0621                           l3250 03D3                           l2604 1440  
                         l2612 1358                           l3244 0D67                           l3236 0D52  
                         l3228 0D24                           l3180 0C6E                           l3172 0C52  
                         l3164 0C38                           l3148 0BFF                           l3156 0C18  
                         l3084 1582                           l2620 15FA                           l2700 16B1  
                         l2444 0FFA                           l2436 0FE8                           l2428 0FCD  
                         l2380 0F25                           l2372 0EC3                           l2364 0EB3  
                         l2348 0E76                           l2292 0DD0                           l2284 0DBD  
                         l2276 0DAC                           l2268 0D9C                           l2540 030F  
                         l2532 02F3                           l2524 026F                           l2516 01FC  
                         l2508 01A2                           l2460 008E                           l2452 007F  
                         l3420 0991                           l3068 0847                           l3340 06CF  
                         l3332 06A3                           l3324 0674                           l3316 0655  
                         l3308 062E                           l3260 03F1                           l3252 03DD  
                         l2606 1441                           l2614 135E                           l3238 0D5A  
                         l3174 0C57                           l3182 0C77                           l3190 0C9C  
                         l3166 0C40                           l3158 0C1D                           l3094 1590  
                         l3086 1584                           l3078 1564                           l2630 1668  
                         l2622 1602                           l2710 16E5                           l2702 16B8  
                         l2446 0FFE                           l2438 0FE9                           l2390 0F5A  
                         l2382 0F2B                           l2374 0ECC                           l2366 0EBC  
                         l2358 0E94                           l2294 0DD1                           l2286 0DBE  
                         l2278 0DB2                           l2550 0327                           l2542 0318  
                         l2534 0301                           l2526 029C                           l2518 0215  
                         l2470 00AB                           l2462 0096                           l2454 0083  
                         l3350 06EF                           l3342 06D9                           l3334 06A8  
                         l3326 0678                           l3318 065F                           l3270 0407  
                         l3262 03F5                           l3254 03E2                           l2800 13A7  
                         l2608 1349                           l3192 0CA2                           l3184 0C89  
                         l3176 0C69                           l3168 0C48                           l3088 1588  
                         l3096 15A2                           l2632 166A                           l2624 1606  
                         l2616 15CA                           l2720 1718                           l2712 16E9  
                         l2704 16BC                           l2384 0F30                           l2368 0EBE  
                         l2376 0ED1                           l2288 0DC3                           l2296 0DD3  
                         l2560 0356                           l2552 033B                           l2536 030A  
                         l2544 031E                           l2528 02C2                           l2480 00C2  
                         l2472 00AF                           l2464 0098                           l2456 0084  
                         l2448 0072                           l2640 14C6                           l3360 0714  
                         l3352 06F5                           l3344 06DA                           l3336 06B5  
                         l3328 0687                           l3280 044B                           l3272 0410  
                         l3264 03F8                           l3256 03E7                           l2802 13AD  
                         l2810 13C1                           l3194 0CAA                           l3186 0C8A  
                         l3178 0C6D                           l2626 162A                           l2618 15DE  
                         l2722 171C                           l2714 16F3                           l2706 16CA  
                         l2394 0F63                           l2378 0EE7                           l2386 0F3F  
                         l2298 0DE1                           l2570 0391                           l2562 035A  
                         l2546 0322                           l2538 030E                           l2482 00C4  
                         l2474 00B0                           l2466 00A0                           l2458 0089  
                         l2730 0031                           l2650 14E9                           l2642 14C9  
                         l3370 0748                           l3362 0718                           l3354 06FF  
                         l3346 06DD                           l3338 06C4                           l3290 05AB  
                         l3282 04A3                           l3274 041B                           l3266 03FB  
                         l3258 03EC                           l2804 13B3                           l2820 13E0  
                         l2812 13C7                           l3196 0CAC                           l3188 0C98  
                         l2900 08FD                           l2628 162E                           l2724 171D  
                         l2716 16FD                           l2708 16DA                           l2396 0F6C  
                         l2388 0F55                           l2580 03BE                           l2572 03A0  
                         l2564 0373                           l2556 0343                           l2548 0323  
                         l2492 00DF                           l2484 00CC                           l2476 00B5  
                         l2468 00A5                           l2740 006C                           l2732 0039  
                         l2652 14EF                           l2644 14D0                           l2636 14BE  
                         l3380 0774                           l3372 0756                           l3364 0727  
                         l3356 0704                           l3348 06E2                           l3292 05B0  
                         l3284 04F1                           l3276 0424                           l3268 03FC  
                         l2590 1422                           l2822 12C1                           l2806 13B9  
                         l2814 13CD                           l3198 0CB5                           l2910 091B  
                         l2902 0901                           l2830 084A                           l2718 1713  
                         l2398 0F70                           l2582 03BF                           l2574 03AA  
                         l2558 0348                           l2566 0379                           l2494 00EF  
                         l2486 00D1                           l2478 00BA                           l2750 1755  
                         l2742 0070                           l2654 14F0                           l2646 14D4  
                         l2638 14C0                           l2670 1498                           l2662 1484  
                         l3390 07A4                           l3382 077C                           l3374 075B  
                         l3366 072F                           l3358 070A                           l3294 05BD  
                         l3286 0547                           l3278 0433                           l2592 1423  
                         l2824 12C7                           l2816 13D4                           l2808 13C1  
                         l2760 1311                           l2920 0931                           l2912 091F  
                         l2904 0908                           l2832 0860                           l2584 03CA  
                         l2576 03AC                           l2568 0386                           l2496 00FC  
                         l2488 00D6                           l2752 17F1                           l2744 0071  
                         l2736 0042                           l2728 0016                           l2656 14F7  
                         l2648 14D8                           l2672 149C                           l2664 148A  
                         l2680 14B9                           l3392 07B1                           l3384 0787  
                         l3376 0763                           l3368 0743                           l3296 05C6  
                         l3288 0586                           l2930 12F7                           l2594 1424  
                         l2818 13DA                           l2762 1317                           l2914 0924  
                         l2906 0910                           l2922 0935                           l2850 0880  
                         l2842 0865                           l2834 0860                           l2826 12B5  
                         l2690 1686                           l2578 03BA                           l2498 0119  
                         l2754 17F7                           l2738 005F                           l2770 1296  
                         l2658 14FD                           l2674 14A6                           l2666 148D  
                         l3394 07BF                           l3386 0796                           l3378 076F  
                         l3298 05CF                           l2940 1303                           l2932 12FB  
                         l2596 1425                           l2588 1419                           l2772 12E1  
                         l2764 1322                           l2924 093B                           l2916 0928  
                         l2908 0914                           l2860 0896                           l2852 0884  
                         l2844 086D                           l2836 0863                           l2828 12BF  
                         l2692 1696                           l2684 166D                           l2748 1726  
                         l2676 14AC                           l2668 1494                           l3396 07CE  
                         l3388 079F                           l2950 130B                           l2942 1304  
                         l2934 12FE                           l2598 1428                           l2774 12E7  
                         l2766 1326                           l2790 1342                           l2926 0948  
                         l2918 092D                           l2870 08B3                           l2854 0889  
                         l2846 0875                           l2862 089A                           l2686 1672  
                         l2758 129F                           l2782 12AA                           l2678 14B3  
                         l3398 07D3                           l2952 130F                           l2944 1305  
                         l2936 1301                           l2776 12EE                           l2784 132D  
                         l2960 140F                           l2880 08C9                           l2872 08B7  
                         l2864 08A0                           l2856 088D                           l2848 0879  
                         l2696 169F                           l2688 1676                           l2946 1306  
                         l2938 1302                           l2794 1396                           l2778 12F2  
                         l2786 1333                           l2962 1413                           l2954 13EC  
                         l2890 08E7                           l2874 08BC                           l2866 08A8  
                         l2882 08CD                           l2858 0892                           l2698 16A4  
                         l2948 1307                           l2796 1399                           l2788 133E  
                         l2956 13F3                           l2892 08EB                           l2884 08D4  
                         l2876 08C0                           l2868 08AC                           l2980 0B0C  
                         l2972 0A79                           l2798 13A1                           l2958 13FC  
                         l2894 08F0                           l2886 08DC                           l2878 08C5  
                         l2982 0B12                           l2974 0A94                           l2966 0A4F  
                         l2990 0954                           l2896 08F4                           l2888 08E0  
                         l2984 0B35                           l2968 0A6A                           l2992 095A  
                         l2898 08F9                           l2978 0AA3                           l2994 0961  
                         l2996 0966                           l2988 094F                           ?_log 00B0  
                         l2998 0968                           STR_1 10C4                           STR_2 10BE  
                         STR_3 10CA                           STR_4 107A                           STR_5 1097  
                         STR_6 1089                           STR_7 10B2                           STR_8 106B  
                         STR_9 10A5                           u3100 0369                           u3020 030E  
                         u2300 154C                           u3021 030D                           u3005 02EC  
                         u2301 154B                           u2310 0D89                           u3110 0386  
                         u2311 0D88                           u3111 0385                           u3015 0303  
                         u4000 15A1                           u3200 162E                           u2400 0E3D  
                         u2320 0D8F                           u2240 137D                           u3120 03A0  
                         u3040 0322                           u4001 15A0                           u3201 162D  
                         u2401 0E3C                           u2321 0D8E                           u2241 137C  
                         u3121 039F                           u3105 0364                           u3041 0321  
                         u2305 1548                           u4010 15A8                           u2410 0E48  
                         u2330 0D94                           u3130 03BE                           u3050 0327  
                         u4011 15A7                           u3211 163D                           u2411 0E46  
                         u2331 0D93                           u3131 03BD                           u3115 0382  
                         u3051 0326                           u3035 0311                           u4100 0BE4  
                         u3220 1668                           u3212 163E                           u2500 0EAF  
                         u2420 0E49                           u2340 0DB2                           u2260 1391  
                         u3060 033B                           u3300 148A                           u4101 0BE3  
                         u3221 1667                           u3213 1643                           u2501 0EAE  
                         u2405 0E39                           u2341 0DB1                           u2261 1390  
                         u3125 039C                           u3061 033A                           u3301 1489  
                         u3150 136E                           u4110 0BFF                           u4030 15B9  
                         u3214 1644                           u2510 0EB3                           u2430 0E5D  
                         u2350 0DBD                           u3070 0342                           u3230 14C6  
                         u3151 136D                           u4111 0BFE                           u4031 15B8  
                         u3215 1649                           u2511 0EB2                           u2431 0E5C  
                         u2351 0DBC                           u2255 1384                           u3071 0341  
                         u3231 14C5                           u4200 0CAA                           u4120 0C1D  
                         u4040 15BE                           u3216 164A                           u3160 15DE  
                         u3400 16B7                           u2520 0EC2                           u2440 0E6C  
                         u2360 0DC3                           u3080 0348                           u2280 1516  
                         u3320 149C                           u3145 1434                           u4201 0CA9  
                         u4121 0C1C                           u4041 15BD                           u4025 15AB  
                         u3225 1664                           u3161 15DD                           u3401 16B6  
                         u2521 0EC1                           u2441 0E6B                           u2361 0DC2  
                         u3081 0347                           u2281 1515                           u3321 149B  
                         u4130 0C57                           u4050 0BAC                           u3170 15FA  
                         u2610 0F70                           u2370 0DC8                           u3090 035A  
                         u2290 1532                           u3250 14D8                           u3330 14A6  
                         u2275 146A                           u4131 0C56                           u4051 0BAB  
                         u3171 15F9                           u2611 0F6F                           u2371 0DC7  
                         u3091 0359                           u2291 1531                           u3251 14D7  
                         u3331 14A5                           u3315 148E                           u4300 0D14  
                         u4220 0CB9                           u4060 0BB2                           u3180 1606  
                         u3420 16D9                           u2700 0FBE                           u2620 0F75  
                         u2540 0EE7                           u2460 0E82                           u2380 0DE1  
                         u3500 0031                           u4221 0CB8                           u4061 0BB1  
                         u3181 1605                           u3421 16D8                           u2621 0F74  
                         u2605 0F65                           u2541 0EE6                           u2461 0E81  
                         u2381 0DE0                           u3501 0030                           u3245 14CA  
                         u4310 0D31                           u4070 0BB7                           u2710 0FCD  
                         u2630 0F7F                           u2470 0E86                           u2390 0DE5  
                         u3270 14E9                           u3350 14B9                           u4311 0D30  
                         u4215 0CAE                           u4071 0BB6                           u3191 1615  
                         u3415 16CB                           u2711 0FCC                           u2631 0F7E  
                         u2551 0EFE                           u2543 0EE3                           u2535 0EC5  
                         u2471 0E85                           u2455 0E6F                           u2391 0DE4  
                         u3271 14E8                           u3351 14B8                           u3335 14A2  
                         u4320 0D4E                           u4240 0CCD                           u4160 0C6D  
                         u4080 0BD9                           u3600 0852                           u3192 1616  
                         u3440 16E9                           u3360 1672                           u2720 0FD6  
                         u2640 0F85                           u2560 0F12                           u2552 0EFF  
                         u2480 0E8B                           u2800 00AF                           u4400 06A3  
                         u4321 0D4D                           u4305 0D0F                           u4241 0CCC  
                         u4161 0C6C                           u4145 0C59                           u4081 0BD8  
                         u3193 161B                           u3441 16E8                           u3361 1671  
                         u2721 0FD5                           u2705 0FB9                           u2641 0F84  
                         u2561 0F13                           u2553 0F04                           u2481 0E8A  
                         u2801 00AE                           u3265 14D9                           u3345 14AD  
                         u4401 06A2                           u4330 0D65                           u4250 0CD2  
                         u4090 0BDF                           u3610 086D                           u3194 161C  
                         u3450 16EF                           u3370 1676                           u2730 0FDB  
                         u2650 0F8A                           u2570 0F30                           u2562 0F18  
                         u2554 0F05                           u2810 00B5                           u3530 17F7  
                         u3290 14FD                           u4410 06CF                           u4331 0D64  
                         u4315 0D2D                           u4251 0CD1                           u4235 0CBC  
                         u4155 0C62                           u4091 0BDE                           u3611 086C  
                         u3195 1621                           u3451 16EE                           u3435 16DE  
                         u3371 1675                           u2731 0FDA                           u2651 0F89  
                         u2571 0F2F                           u2563 0F19                           u2555 0F0A  
                         u2491 0E9D                           u2811 00B4                           u3531 17F6  
                         u3515 172B                           u3291 14FC                           u3275 14E5  
                         u4411 06CE                           u3540 1317                           u4260 0CE6  
                         u4180 0C89                           u3700 08CD                           u3620 087F  
                         u3196 1622                           u3460 16F3                           u3380 1696  
                         u2740 0FE8                           u2660 0F90                           u2580 0F55  
                         u2556 0F0B                           u2492 0EA4                           u2820 00BA  
                         u4420 06D9                           u4340 0407                           u3541 1316  
                         u4325 0D4A                           u4261 0CE5                           u4181 0C88  
                         u3701 08CC                           u3621 087E                           u3461 16F2  
                         u3381 1695                           u2741 0FE7                           u2661 0F8F  
                         u2581 0F54                           u2493 0EAB                           u2901 01C1  
                         u2821 00B9                           u3525 175E                           u3285 14F1  
                         u4421 06D8                           u4341 0406                           u3550 1322  
                         u4270 0CED                           u4190 0CA2                           u3710 08D4  
                         u3630 0888                           u3470 1708                           u2750 0FED  
                         u2670 0F97                           u2590 0F5A                           u2902 01C8  
                         u2830 00D1                           u4430 0704                           u4350 041B  
                         u3551 1321                           u4271 0CEC                           u4191 0CA1  
                         u4175 0C70                           u3711 08D3                           u3631 0887  
                         u2751 0FEC                           u2671 0F96                           u2591 0F59  
                         u2911 01EE                           u2903 01CF                           u2831 00D0  
                         u4431 0703                           u4351 041A                           u3560 12E7  
                         u4280 0CF3                           u3800 0935                           u3720 08E6  
                         u3640 0891                           u3480 1718                           u2760 0FFE  
                         u2680 0F9D                           u2912 01F5                           u2840 00D6  
                         u4440 072F                           u4360 05EA                           u3561 12E6  
                         u4281 0CF2                           u4185 0C85                           u3801 0934  
                         u3721 08E5                           u3641 0890                           u3481 1717  
                         u2761 0FFD                           u2681 0F9C                           u2913 01FC  
                         u2841 00D5                           u4441 072E                           u4361 05E9  
                         u3570 1333                           u4290 0D05                           u3810 0948  
                         u3730 08EF                           u3650 089A                           u3490 171C  
                         u2690 0FAF                           u2770 0083                           u4450 0743  
                         u4370 0613                           u3571 1332                           u4291 0D04  
                         u3811 0947                           u3731 08EE                           u3651 0899  
                         u3491 171B                           u3475 1703                           u3395 16A9  
                         u2691 0FAE                           u2931 0224                           u2851 0127  
                         u2771 0082                           u4451 0742                           u4507 06BD  
                         u4371 0612                           u3580 133E                           u3820 13F3  
                         u3740 08F8                           u3660 08A0                           u2932 022B  
                         u2852 012E                           u2780 0089                           u3900 0A38  
                         u4460 079F                           u4380 0664                           u3581 133D  
                         u3821 13F2                           u3741 08F7                           u3661 089F  
                         u2941 0251                           u2933 0232                           u2925 01FE  
                         u2861 0143                           u2853 0135                           u2781 0088  
                         u3901 0A37                           u4461 079E                           u4517 0720  
                         u4381 0663                           u3590 13C7                           u3750 0901  
                         u3670 08B2                           u2942 0258                           u2862 014A  
                         u2790 008E                           u3830 0A6A                           u3910 0A4A  
                         u4390 068F                           u4607 147E                           u3591 13C6  
                         u3815 0944                           u3751 0900                           u3671 08B1  
                         u2951 027E                           u2943 025F                           u2871 016F  
                         u2863 0151                           u2791 008D                           u3831 0A69  
                         u3911 0A49                           u4527 078F                           u4391 068E  
                         u3760 0908                           u3680 08BB                           u2960 02A8  
                         u2952 0285                           u2872 0176                           u3840 0A94  
                         u3920 080E                           u4617 139D                           u3761 0907  
                         u3681 08BA                           u2953 028C                           u2881 018B  
                         u2873 017D                           u3841 0A93                           u3921 080D  
                         u4537 07B9                           u3770 091A                           u3690 08C4  
                         u2882 0192                           u3850 095A                           u3930 081E  
                         u4627 12CB                           u3771 0919                           u3691 08C3  
                         u2971 02B4                           u2883 0199                           u3851 0959  
                         u3931 081D                           u4547 07C7                           u3780 0923  
                         u2980 02D0                           u2972 02BB                           u3860 09AF  
                         u3940 0847                           u4637 142C                           u3781 0922  
                         u4557 0871                           u2973 02C2                           u2965 02A3  
                         u3861 09AE                           u3941 0846                           u4477 042C  
                         u3950 155B                           u3790 092C                           u3870 09D5  
                         u4647 1448                           u3951 155A                           u3791 092B  
                         u4567 08A4                           u2991 02DC                           u2895 019B  
                         u3871 09D4                           u4487 0636                           u3960 1572  
                         u2992 02E3                           u3880 09E0                           u4577 08D8  
                         u2993 02EA                           u2985 02CB                           u3881 09DF  
                         u4497 0680                           u3970 1588                           u3890 09E6  
                         u3971 1587                           u4587 090C                           u3891 09E5  
                         u3875 09D1                           u3980 158F                           u4597 1462  
                         u3981 158E                           u3965 156D                           u3995 1591  
                         _lm35 00E5                           _main 03D3                           _temp 00D9  
                         btemp 007E                           log@x 00B0                           start 0000  
             __end_of_ADC_init 1311                ___fldiv@new_exp 0051                  _LCD_String_xy 13C0  
              ??_LeerMicrofono 0072                          ??_log 006D               __end_of_LCD_Char 1484  
             __end_of_LCD_Init 13C0                  ___fltol@sign1 0079                __end_of___fladd 1000  
                        ?_main 0070                __end_of___fldiv 0D78                          STR_10 106B  
                        STR_11 105A                          STR_12 105A                          STR_13 1045  
              __end_of___flmul 03D3                __end_of___fltol 15CA                          _ANSEL 0188  
              __end_of___lwdiv 1502                __end_of___lwmod 14BE                          _PORTA 0005  
                        _PORTB 0006                          _PORTD 0008                          _TRISA 0085  
                        _TRISB 0086                          _TRISC 0087                          _TRISD 0088  
              __end_of_dpowers 101A                   ?_keypad_init 0070                          _frexp 0016  
                        _errno 00D7                          main@a 00C3                          pclath 000A  
                        status 0003                          wtemp0 007E                __end_of_sprintf 0A4F  
              __end_of_strncmp 084A                 ?_LCD_String_xy 0075                __initialization 07DA  
                  log@exponent 00B4                   __end_of_main 07DA                         ??_main 00B6  
            __end_of_LCD_Clear 12D1            keypad_getkey@letras 0020                         ?_frexp 0020  
                       _ADRESH 001E                         _ADRESL 009E                         _ANSELH 0189  
             LCD_String_xy@msg 0076               LCD_String_xy@pos 0075               LCD_String_xy@row 0078  
                       _OSCCON 008F                         _TRISA0 0428                         _TRISA1 0429  
                       _TRISA2 042A                         _TRISA3 042B                         _TRISC0 0438  
                       _TRISC1 0439                         _TRISC2 043A                         _TRISC3 043B  
                       _TRISC4 043C                         _TRISC5 043D                         _TRISC6 043E  
             __end_of___xxtofl 1726                         ___flge 15CA                         ___fleq 1502  
                    ??___fladd 0061                      ??___fldiv 0047                      ??___flmul 002D  
                    ??___fltol 0074                      ??___lwdiv 0074                      ??___lwmod 007C  
                    ?_ADC_init 0070                      ??_sprintf 0025                      ??_strncmp 0073  
            ??_microphone_init 0070                     ___flge@ff1 0070                     ___flge@ff2 0074  
                 ___xxtofl@arg 007A                   ___xxtofl@exp 0079                   ___xxtofl@val 0070  
                   ___fleq@ff1 0070                     ___fleq@ff2 0074               __end_oflog@coeff 103E  
                    ?_LCD_Char 0070        __end_of__initialization 07FC                      ?_LCD_Init 0070  
              ??_LCD_String_xy 0077                   eval_poly@res 00AC                     ___fltol@f1 0070  
               __pcstackCOMMON 0070                   __pidataBANK1 0803                   __pidataBANK3 12D1  
                __end_of_frexp 0072                   ??_LCD_String 0075          _sensorProximidad_init 12AA  
               _OPTION_REGbits 0081                     ??_ADC_init 0070                        ??_frexp 007C  
                   __pbssBANK0 006E                     __pbssBANK1 00D7                     ??_LCD_Char 0070  
                   ??_LCD_Init 0073             __end_of_LCD_String 136F              __end_of__Umul8_16 1396  
                   __pmaintext 03D3                 _counter_digito 006E                        ?___flge 0070  
                      ?___fleq 0070                main@Temperature 00B9                  _keypad_getkey 084A  
                    ?___xxtofl 0070              ??_LeerSensorFlame 0072                     __stringtab 1000  
                LCD_String@msg 0073          __end_of_LeerMicrofono 12F7                        ___fladd 0D78  
                      ___fldiv 0B9B                        ___flmul 0072                        ___fltol 1550  
                      ___lwdiv 14BE                        ___lwmod 1484               _sensorFlame_init 129F  
            __end_of_eval_poly 1800         ?_sensorProximidad_init 0070                        __ptext1 0804  
                      __ptext2 094C                        __ptext3 1484                        __ptext4 14BE  
                      __ptext5 12AA                        __ptext6 129F                        __ptext7 1296  
                      __ptext8 0A4F                        __ptext9 0016           __end_of_exitPassword 1045  
               ?_keypad_getkey 0070                        _dpowers 1010                     ??___xxtofl 0074  
                    _LCD_Clear 12C1                        _sprintf 094C                        clrloop0 128F  
                   _pass_user2 00EC                        _strncmp 0804           end_of_initialization 07FC  
               LCD_Command@cmd 0072                  ??_capturaTemp 0072                  _inputPassword 103E  
                    _PORTCbits 0007                      _PORTDbits 0008                _microphone_init 1296  
                  ___fladd@grs 006C                  ___xxtofl@sign 0078                     ?_LCD_Clear 0070  
                  ___fldiv@grs 0053                    ___fldiv@rem 004C                    ___flmul@grs 0033  
                ??_LCD_Command 0070                 __end_of___flge 166C                 __end_of___fleq 1550  
              ??_keypad_getkey 0070            __end_of_capturaTemp 1418             keypad_getkey@F1296 0190  
          start_initialization 07DA                     eval_poly@d 00A4                     eval_poly@n 00A5  
                   eval_poly@x 00A0                    __end_of_log 0B9B   __end_of_LeerSensorProximidad 1349  
                   frexp@value 0020             keypad_getkey@valor 0030          __end_of_LCD_String_xy 13EC  
                     ??___flge 0078                       ??___fleq 0078        __end_of_microphone_init 129F  
                   init_fetch0 0003                      __Umul8_16 136F                    __pdataBANK1 00EE  
                  __pdataBANK3 0190                _LeerSensorFlame 1311                      ___fladd@a 005D  
                    ___fladd@b 0059                      ___fldiv@a 003F                      ___fldiv@b 0043  
          __end_of_LCD_Command 144E                      ___flmul@a 0029                      ___flmul@b 0025  
                    ___latbits 0002                  __pcstackBANK0 0020                  __pcstackBANK1 00A0  
                  ??_LCD_Clear 0073                  ??_keypad_init 0070       __end_of_sensorFlame_init 12AA  
                  sprintf@flag 0028                    sprintf@prec 0029                   _exitPassword 1043  
                    _main$1094 00C7                      _main$1095 00CB                      _main$1096 00CF  
             ___lwdiv@dividend 0072                    _capturaTemp 13EC        ??_sensorProximidad_init 0070  
                     ?___fladd 0059                       ?___fldiv 003F                       ?___flmul 0025  
                     ?___fltol 0070                     ?__Umul8_16 0070                       ?___lwdiv 0070  
                     ?___lwmod 0078                      __pstrings 1000                      _eval_poly 1726  
                     _ADC_init 12F7               ___lwdiv@quotient 0075          LCD_String_xy@location 0079  
                     ?_sprintf 0020                       ?_strncmp 0070                       _LCD_Char 144E  
                     _LCD_Init 1396                      _pass_user 00E7            __end_of_keypad_init 12C1  
                    clear_ram0 128E        __end_of_LeerSensorFlame 132D                      _value_adc 00DB  
             ?_microphone_init 0070           _LeerSensorProximidad 132D                    _LCD_Command 1418  
                   _ADCON0bits 001F                    __stringbase 100F                     _ADCON1bits 009F  
                   ?_eval_poly 00A0                      main@tempC 00D3                      frexp@eptr 0024  
                  _counter_try 00DD          ?_LeerSensorProximidad 0070                    ??__Umul8_16 0072  
           __end_of__stringtab 1010                     sprintf@val 002B                       ___xxtofl 166C  
              ___lwdiv@divisor 0070                ___lwdiv@counter 0077                       __ptext10 1502  
                     __ptext11 1726                       __ptext20 1550                       __ptext12 0072  
                     __ptext21 0B9B                       __ptext13 136F                       __ptext30 1418  
                     __ptext22 132D                       __ptext14 0D78                       __ptext31 12F7  
                     __ptext23 1311                       __ptext15 166C                       __ptext24 12E1  
                     __ptext16 15CA                       __ptext25 13C0                       __ptext17 12B5  
                     __ptext26 1349                       __ptext18 084A                       __ptext27 144E  
                     __ptext19 13EC                       __ptext28 1396                       __ptext29 12C1  
                  _keypad_init 12B5                     strncmp@len 0071               ?_LeerSensorFlame 0070  
                _LeerMicrofono 12E1                     _LCD_String 1349          __end_of_keypad_getkey 094C  
                     log@coeff 101A                    ??_eval_poly 00A7                       init_ram0 0007  
                    sprintf@ap 002A                      sprintf@sp 002D               ___lwmod@dividend 007A  
            ?_sensorFlame_init 0070             ??_sensorFlame_init 0070                      strncmp@s1 0075  
                    strncmp@s2 0070                      stringcode 100A                   ?_capturaTemp 0070  
       ??_LeerSensorProximidad 0072                 ?_LeerMicrofono 0070  __end_of_sensorProximidad_init 12B5  
       __Umul8_16@multiplicand 0070                       sprintf@c 002E                       sprintf@f 0020  
              ___lwmod@divisor 0078                ___lwmod@counter 007D                       stringdir 100A  
                     stringtab 1000                 keypad_getkey@i 0031                  ___fladd@signs 0069  
                 ___fladd@aexp 006A                   ___fladd@bexp 006B           __Umul8_16@multiplier 0078  
        __end_of_inputPassword 1043              __Umul8_16@product 0074  
